ARM GAS  C:\Users\mlgjmoor\AppData\Local\Temp\cc6ze5Ri.s 			page 1


   1              		.cpu cortex-m0
   2              		.fpu softvfp
   3              		.eabi_attribute 20, 1
   4              		.eabi_attribute 21, 1
   5              		.eabi_attribute 23, 3
   6              		.eabi_attribute 24, 1
   7              		.eabi_attribute 25, 1
   8              		.eabi_attribute 26, 1
   9              		.eabi_attribute 30, 1
  10              		.eabi_attribute 34, 0
  11              		.eabi_attribute 18, 4
  12              		.code	16
  13              		.file	"ADC.c"
  14              		.text
  15              	.Ltext0:
  16              		.cfi_sections	.debug_frame
  17              		.global	__aeabi_idiv
  18              		.section	.text.ADC_Init,"ax",%progbits
  19              		.align	2
  20              		.global	ADC_Init
  21              		.code	16
  22              		.thumb_func
  23              		.type	ADC_Init, %function
  24              	ADC_Init:
  25              	.LFB3:
  26              		.file 1 ".\\Generated_Source\\PSoC4\\ADC.c"
   1:.\Generated_Source\PSoC4/ADC.c **** /*******************************************************************************
   2:.\Generated_Source\PSoC4/ADC.c **** * File Name: ADC.c
   3:.\Generated_Source\PSoC4/ADC.c **** * Version 2.40
   4:.\Generated_Source\PSoC4/ADC.c **** *
   5:.\Generated_Source\PSoC4/ADC.c **** * Description:
   6:.\Generated_Source\PSoC4/ADC.c **** *  This file provides the source code to the API for the Sequencing Successive
   7:.\Generated_Source\PSoC4/ADC.c **** *  Approximation ADC Component Component.
   8:.\Generated_Source\PSoC4/ADC.c **** *
   9:.\Generated_Source\PSoC4/ADC.c **** * Note:
  10:.\Generated_Source\PSoC4/ADC.c **** *
  11:.\Generated_Source\PSoC4/ADC.c **** ********************************************************************************
  12:.\Generated_Source\PSoC4/ADC.c **** * Copyright 2008-2015, Cypress Semiconductor Corporation.  All rights reserved.
  13:.\Generated_Source\PSoC4/ADC.c **** * You may use this file only in accordance with the license, terms, conditions,
  14:.\Generated_Source\PSoC4/ADC.c **** * disclaimers, and limitations in the end user license agreement accompanying
  15:.\Generated_Source\PSoC4/ADC.c **** * the software package with which this file was provided.
  16:.\Generated_Source\PSoC4/ADC.c **** *******************************************************************************/
  17:.\Generated_Source\PSoC4/ADC.c **** 
  18:.\Generated_Source\PSoC4/ADC.c **** #include "ADC.h"
  19:.\Generated_Source\PSoC4/ADC.c **** 
  20:.\Generated_Source\PSoC4/ADC.c **** 
  21:.\Generated_Source\PSoC4/ADC.c **** /***************************************
  22:.\Generated_Source\PSoC4/ADC.c **** * Global data allocation
  23:.\Generated_Source\PSoC4/ADC.c **** ***************************************/
  24:.\Generated_Source\PSoC4/ADC.c **** uint8 ADC_initVar = 0u;
  25:.\Generated_Source\PSoC4/ADC.c **** volatile int16 ADC_offset[ADC_TOTAL_CHANNELS_NUM];
  26:.\Generated_Source\PSoC4/ADC.c **** volatile int32 ADC_countsPer10Volt[ADC_TOTAL_CHANNELS_NUM];   /* Gain compensation */
  27:.\Generated_Source\PSoC4/ADC.c **** 
  28:.\Generated_Source\PSoC4/ADC.c **** 
  29:.\Generated_Source\PSoC4/ADC.c **** /***************************************
  30:.\Generated_Source\PSoC4/ADC.c **** * Local data allocation
  31:.\Generated_Source\PSoC4/ADC.c **** ***************************************/
ARM GAS  C:\Users\mlgjmoor\AppData\Local\Temp\cc6ze5Ri.s 			page 2


  32:.\Generated_Source\PSoC4/ADC.c **** /* Channels configuration generated by customiser */
  33:.\Generated_Source\PSoC4/ADC.c **** static const uint32 CYCODE ADC_channelsConfig[] = { 0x00000400u, 0x00000400u };
  34:.\Generated_Source\PSoC4/ADC.c **** 
  35:.\Generated_Source\PSoC4/ADC.c **** 
  36:.\Generated_Source\PSoC4/ADC.c **** /*******************************************************************************
  37:.\Generated_Source\PSoC4/ADC.c **** * Function Name: ADC_Start
  38:.\Generated_Source\PSoC4/ADC.c **** ********************************************************************************
  39:.\Generated_Source\PSoC4/ADC.c **** *
  40:.\Generated_Source\PSoC4/ADC.c **** * Summary:
  41:.\Generated_Source\PSoC4/ADC.c **** *  Performs all required initialization for this component
  42:.\Generated_Source\PSoC4/ADC.c **** *  and enables the power. The power will be set to the appropriate
  43:.\Generated_Source\PSoC4/ADC.c **** *  power based on the clock frequency.
  44:.\Generated_Source\PSoC4/ADC.c **** *
  45:.\Generated_Source\PSoC4/ADC.c **** * Parameters:
  46:.\Generated_Source\PSoC4/ADC.c **** *  None.
  47:.\Generated_Source\PSoC4/ADC.c **** *
  48:.\Generated_Source\PSoC4/ADC.c **** * Return:
  49:.\Generated_Source\PSoC4/ADC.c **** *  None.
  50:.\Generated_Source\PSoC4/ADC.c **** *
  51:.\Generated_Source\PSoC4/ADC.c **** * Global variables:
  52:.\Generated_Source\PSoC4/ADC.c **** *  The ADC_initVar variable is used to indicate when/if initial
  53:.\Generated_Source\PSoC4/ADC.c **** *  configuration of this component has happened. The variable is initialized to
  54:.\Generated_Source\PSoC4/ADC.c **** *  zero and set to 1 the first time ADC_Start() is called. This allows for
  55:.\Generated_Source\PSoC4/ADC.c **** *  component Re-Start without re-initialization in all subsequent calls to the
  56:.\Generated_Source\PSoC4/ADC.c **** *  ADC_Start() routine.
  57:.\Generated_Source\PSoC4/ADC.c **** *  If re-initialization of the component is required the variable should be set
  58:.\Generated_Source\PSoC4/ADC.c **** *  to zero before call of ADC_Start() routine, or the user may call
  59:.\Generated_Source\PSoC4/ADC.c **** *  ADC_Init() and ADC_Enable() as done in the
  60:.\Generated_Source\PSoC4/ADC.c **** *  ADC_Start() routine.
  61:.\Generated_Source\PSoC4/ADC.c **** *
  62:.\Generated_Source\PSoC4/ADC.c **** *******************************************************************************/
  63:.\Generated_Source\PSoC4/ADC.c **** void ADC_Start(void)
  64:.\Generated_Source\PSoC4/ADC.c **** {
  65:.\Generated_Source\PSoC4/ADC.c ****     /* If not Initialized then initialize all required hardware and software */
  66:.\Generated_Source\PSoC4/ADC.c ****     if(ADC_initVar == 0u)
  67:.\Generated_Source\PSoC4/ADC.c ****     {
  68:.\Generated_Source\PSoC4/ADC.c ****         ADC_Init();
  69:.\Generated_Source\PSoC4/ADC.c ****         ADC_initVar = 1u;
  70:.\Generated_Source\PSoC4/ADC.c ****     }
  71:.\Generated_Source\PSoC4/ADC.c ****     ADC_Enable();
  72:.\Generated_Source\PSoC4/ADC.c **** }
  73:.\Generated_Source\PSoC4/ADC.c **** 
  74:.\Generated_Source\PSoC4/ADC.c **** 
  75:.\Generated_Source\PSoC4/ADC.c **** /*******************************************************************************
  76:.\Generated_Source\PSoC4/ADC.c **** * Function Name: ADC_Init
  77:.\Generated_Source\PSoC4/ADC.c **** ********************************************************************************
  78:.\Generated_Source\PSoC4/ADC.c **** *
  79:.\Generated_Source\PSoC4/ADC.c **** * Summary:
  80:.\Generated_Source\PSoC4/ADC.c **** *  Initialize component's parameters to the parameters set by user in the
  81:.\Generated_Source\PSoC4/ADC.c **** *  customizer of the component placed onto schematic. Usually called in
  82:.\Generated_Source\PSoC4/ADC.c **** *  ADC_Start().
  83:.\Generated_Source\PSoC4/ADC.c **** *
  84:.\Generated_Source\PSoC4/ADC.c **** * Parameters:
  85:.\Generated_Source\PSoC4/ADC.c **** *  None.
  86:.\Generated_Source\PSoC4/ADC.c **** *
  87:.\Generated_Source\PSoC4/ADC.c **** * Return:
  88:.\Generated_Source\PSoC4/ADC.c **** *  None.
ARM GAS  C:\Users\mlgjmoor\AppData\Local\Temp\cc6ze5Ri.s 			page 3


  89:.\Generated_Source\PSoC4/ADC.c **** *
  90:.\Generated_Source\PSoC4/ADC.c **** * Global variables:
  91:.\Generated_Source\PSoC4/ADC.c **** *  The ADC_offset variable is initialized.
  92:.\Generated_Source\PSoC4/ADC.c **** *
  93:.\Generated_Source\PSoC4/ADC.c **** *******************************************************************************/
  94:.\Generated_Source\PSoC4/ADC.c **** void ADC_Init(void)
  95:.\Generated_Source\PSoC4/ADC.c **** {
  27              		.loc 1 95 0
  28              		.cfi_startproc
  29 0000 10B5     		push	{r4, lr}
  30              		.cfi_def_cfa_offset 8
  31              		.cfi_offset 4, -8
  32              		.cfi_offset 14, -4
  96:.\Generated_Source\PSoC4/ADC.c ****     uint32 chNum;
  97:.\Generated_Source\PSoC4/ADC.c ****     uint32 tmpRegVal;
  98:.\Generated_Source\PSoC4/ADC.c ****     int32 counts;
  99:.\Generated_Source\PSoC4/ADC.c **** 
 100:.\Generated_Source\PSoC4/ADC.c ****     #if(ADC_TOTAL_CHANNELS_NUM > 1u)
 101:.\Generated_Source\PSoC4/ADC.c ****         static const uint8 CYCODE ADC_InputsPlacement[] =
 102:.\Generated_Source\PSoC4/ADC.c ****         {
 103:.\Generated_Source\PSoC4/ADC.c ****             (uint8)(ADC_cy_psoc4_sarmux_8__CH_0_PORT << 4u) |
 104:.\Generated_Source\PSoC4/ADC.c ****             (uint8)ADC_cy_psoc4_sarmux_8__CH_0_PIN
 105:.\Generated_Source\PSoC4/ADC.c ****             ,(uint8)(ADC_cy_psoc4_sarmux_8__CH_1_PORT << 4u) |
 106:.\Generated_Source\PSoC4/ADC.c ****              (uint8)ADC_cy_psoc4_sarmux_8__CH_1_PIN
 107:.\Generated_Source\PSoC4/ADC.c ****             #if(ADC_TOTAL_CHANNELS_NUM > 2u)
 108:.\Generated_Source\PSoC4/ADC.c ****                 ,(uint8)(ADC_cy_psoc4_sarmux_8__CH_2_PORT << 4u) |
 109:.\Generated_Source\PSoC4/ADC.c ****                  (uint8)ADC_cy_psoc4_sarmux_8__CH_2_PIN
 110:.\Generated_Source\PSoC4/ADC.c ****             #endif /* End ADC_TOTAL_CHANNELS_NUM > 2u */
 111:.\Generated_Source\PSoC4/ADC.c ****             #if(ADC_TOTAL_CHANNELS_NUM > 3u)
 112:.\Generated_Source\PSoC4/ADC.c ****                 ,(uint8)(ADC_cy_psoc4_sarmux_8__CH_3_PORT << 4u) |
 113:.\Generated_Source\PSoC4/ADC.c ****                  (uint8)ADC_cy_psoc4_sarmux_8__CH_3_PIN
 114:.\Generated_Source\PSoC4/ADC.c ****             #endif /* End ADC_TOTAL_CHANNELS_NUM > 3u */
 115:.\Generated_Source\PSoC4/ADC.c ****             #if(ADC_TOTAL_CHANNELS_NUM > 4u)
 116:.\Generated_Source\PSoC4/ADC.c ****                 ,(uint8)(ADC_cy_psoc4_sarmux_8__CH_4_PORT << 4u) |
 117:.\Generated_Source\PSoC4/ADC.c ****                  (uint8)ADC_cy_psoc4_sarmux_8__CH_4_PIN
 118:.\Generated_Source\PSoC4/ADC.c ****             #endif /* End ADC_TOTAL_CHANNELS_NUM > 4u */
 119:.\Generated_Source\PSoC4/ADC.c ****             #if(ADC_TOTAL_CHANNELS_NUM > 5u)
 120:.\Generated_Source\PSoC4/ADC.c ****                 ,(uint8)(ADC_cy_psoc4_sarmux_8__CH_5_PORT << 4u) |
 121:.\Generated_Source\PSoC4/ADC.c ****                  (uint8)ADC_cy_psoc4_sarmux_8__CH_5_PIN
 122:.\Generated_Source\PSoC4/ADC.c ****             #endif /* End ADC_TOTAL_CHANNELS_NUM > 5u */
 123:.\Generated_Source\PSoC4/ADC.c ****             #if(ADC_TOTAL_CHANNELS_NUM > 6u)
 124:.\Generated_Source\PSoC4/ADC.c ****                 ,(uint8)(ADC_cy_psoc4_sarmux_8__CH_6_PORT << 4u) |
 125:.\Generated_Source\PSoC4/ADC.c ****                  (uint8)ADC_cy_psoc4_sarmux_8__CH_6_PIN
 126:.\Generated_Source\PSoC4/ADC.c ****             #endif /* End ADC_TOTAL_CHANNELS_NUM > 6u */
 127:.\Generated_Source\PSoC4/ADC.c ****             #if(ADC_TOTAL_CHANNELS_NUM > 7u)
 128:.\Generated_Source\PSoC4/ADC.c ****                 ,(uint8)(ADC_cy_psoc4_sarmux_8__CH_7_PORT << 4u) |
 129:.\Generated_Source\PSoC4/ADC.c ****                  (uint8)ADC_cy_psoc4_sarmux_8__CH_7_PIN
 130:.\Generated_Source\PSoC4/ADC.c ****             #endif /* End ADC_TOTAL_CHANNELS_NUM > 7u */
 131:.\Generated_Source\PSoC4/ADC.c ****             #if(ADC_TOTAL_CHANNELS_NUM > 8u)
 132:.\Generated_Source\PSoC4/ADC.c ****                 ,(uint8)(ADC_cy_psoc4_sarmux_8__CH_8_PORT << 4u) |
 133:.\Generated_Source\PSoC4/ADC.c ****                  (uint8)ADC_cy_psoc4_sarmux_8__CH_8_PIN
 134:.\Generated_Source\PSoC4/ADC.c ****             #endif /* End ADC_TOTAL_CHANNELS_NUM > 8u */
 135:.\Generated_Source\PSoC4/ADC.c ****             #if(ADC_TOTAL_CHANNELS_NUM > 9u)
 136:.\Generated_Source\PSoC4/ADC.c ****                 ,(uint8)(ADC_cy_psoc4_sarmux_8__CH_9_PORT << 4u) |
 137:.\Generated_Source\PSoC4/ADC.c ****                  (uint8)ADC_cy_psoc4_sarmux_8__CH_9_PIN
 138:.\Generated_Source\PSoC4/ADC.c ****             #endif /* End ADC_TOTAL_CHANNELS_NUM > 9u */
 139:.\Generated_Source\PSoC4/ADC.c ****             #if(ADC_TOTAL_CHANNELS_NUM > 10u)
ARM GAS  C:\Users\mlgjmoor\AppData\Local\Temp\cc6ze5Ri.s 			page 4


 140:.\Generated_Source\PSoC4/ADC.c ****                 ,(uint8)(ADC_cy_psoc4_sarmux_8__CH_10_PORT << 4u) |
 141:.\Generated_Source\PSoC4/ADC.c ****                  (uint8)ADC_cy_psoc4_sarmux_8__CH_10_PIN
 142:.\Generated_Source\PSoC4/ADC.c ****             #endif /* End ADC_TOTAL_CHANNELS_NUM > 10u */
 143:.\Generated_Source\PSoC4/ADC.c ****             #if(ADC_TOTAL_CHANNELS_NUM > 11u)
 144:.\Generated_Source\PSoC4/ADC.c ****                 ,(uint8)(ADC_cy_psoc4_sarmux_8__CH_11_PORT << 4u) |
 145:.\Generated_Source\PSoC4/ADC.c ****                  (uint8)ADC_cy_psoc4_sarmux_8__CH_11_PIN
 146:.\Generated_Source\PSoC4/ADC.c ****             #endif /* End ADC_TOTAL_CHANNELS_NUM > 11u */
 147:.\Generated_Source\PSoC4/ADC.c ****             #if(ADC_TOTAL_CHANNELS_NUM > 12u)
 148:.\Generated_Source\PSoC4/ADC.c ****                 ,(uint8)(ADC_cy_psoc4_sarmux_8__CH_12_PORT << 4u) |
 149:.\Generated_Source\PSoC4/ADC.c ****                  (uint8)ADC_cy_psoc4_sarmux_8__CH_12_PIN
 150:.\Generated_Source\PSoC4/ADC.c ****             #endif /* End ADC_TOTAL_CHANNELS_NUM > 12u */
 151:.\Generated_Source\PSoC4/ADC.c ****             #if(ADC_TOTAL_CHANNELS_NUM > 13u)
 152:.\Generated_Source\PSoC4/ADC.c ****                 ,(uint8)(ADC_cy_psoc4_sarmux_8__CH_13_PORT << 4u) |
 153:.\Generated_Source\PSoC4/ADC.c ****                  (uint8)ADC_cy_psoc4_sarmux_8__CH_13_PIN
 154:.\Generated_Source\PSoC4/ADC.c ****             #endif /* End ADC_TOTAL_CHANNELS_NUM > 13u */
 155:.\Generated_Source\PSoC4/ADC.c ****             #if(ADC_TOTAL_CHANNELS_NUM > 14u)
 156:.\Generated_Source\PSoC4/ADC.c ****                 ,(uint8)(ADC_cy_psoc4_sarmux_8__CH_14_PORT << 4u) |
 157:.\Generated_Source\PSoC4/ADC.c ****                  (uint8)ADC_cy_psoc4_sarmux_8__CH_14_PIN
 158:.\Generated_Source\PSoC4/ADC.c ****             #endif /* End ADC_TOTAL_CHANNELS_NUM > 14u */
 159:.\Generated_Source\PSoC4/ADC.c ****             #if(ADC_TOTAL_CHANNELS_NUM > 15u)
 160:.\Generated_Source\PSoC4/ADC.c ****                 ,(uint8)(ADC_cy_psoc4_sarmux_8__CH_15_PORT << 4u) |
 161:.\Generated_Source\PSoC4/ADC.c ****                  (uint8)ADC_cy_psoc4_sarmux_8__CH_15_PIN
 162:.\Generated_Source\PSoC4/ADC.c ****             #endif /* End ADC_TOTAL_CHANNELS_NUM > 15u */
 163:.\Generated_Source\PSoC4/ADC.c ****             #if(ADC_TOTAL_CHANNELS_NUM > 16u)
 164:.\Generated_Source\PSoC4/ADC.c ****                 ,(uint8)(ADC_cy_psoc4_sarmux_8__CH_16_PORT << 4u) |
 165:.\Generated_Source\PSoC4/ADC.c ****                  (uint8)ADC_cy_psoc4_sarmux_8__CH_16_PIN
 166:.\Generated_Source\PSoC4/ADC.c ****             #endif /* End ADC_TOTAL_CHANNELS_NUM > 16u */
 167:.\Generated_Source\PSoC4/ADC.c ****         };
 168:.\Generated_Source\PSoC4/ADC.c ****     #endif /* End ADC_TOTAL_CHANNELS_NUM > 1u */
 169:.\Generated_Source\PSoC4/ADC.c **** 
 170:.\Generated_Source\PSoC4/ADC.c ****     #if(ADC_IRQ_REMOVE == 0u)
 171:.\Generated_Source\PSoC4/ADC.c ****         /* Start and set interrupt vector */
 172:.\Generated_Source\PSoC4/ADC.c ****         CyIntSetPriority(ADC_INTC_NUMBER, ADC_INTC_PRIOR_NUMBER);
  33              		.loc 1 172 0
  34 0002 0F20     		mov	r0, #15
  35 0004 0321     		mov	r1, #3
  36 0006 FFF7FEFF 		bl	CyIntSetPriority
  37              	.LVL0:
 173:.\Generated_Source\PSoC4/ADC.c ****         (void)CyIntSetVector(ADC_INTC_NUMBER, &ADC_ISR);
  38              		.loc 1 173 0
  39 000a 0F20     		mov	r0, #15
  40 000c 4F49     		ldr	r1, .L14
  41 000e FFF7FEFF 		bl	CyIntSetVector
  42              	.LVL1:
 174:.\Generated_Source\PSoC4/ADC.c ****     #endif   /* End ADC_IRQ_REMOVE */
 175:.\Generated_Source\PSoC4/ADC.c **** 
 176:.\Generated_Source\PSoC4/ADC.c ****     /* Init SAR and MUX registers */
 177:.\Generated_Source\PSoC4/ADC.c ****     ADC_SAR_CHAN_EN_REG = ADC_DEFAULT_EN_CHANNELS;
  43              		.loc 1 177 0
  44 0012 0122     		mov	r2, #1
  45 0014 4E4B     		ldr	r3, .L14+4
  46 0016 1A60     		str	r2, [r3]
 178:.\Generated_Source\PSoC4/ADC.c ****     ADC_SAR_CTRL_REG |= ADC_DEFAULT_CTRL_REG_CFG | 
 179:.\Generated_Source\PSoC4/ADC.c ****         /* Enable the SAR internal pump when global pump is enabled */
 180:.\Generated_Source\PSoC4/ADC.c ****         (((ADC_PUMP_CTRL_REG & ADC_PUMP_CTRL_ENABLED) != 0u) ? 
  47              		.loc 1 180 0
  48 0018 4E4B     		ldr	r3, .L14+8
ARM GAS  C:\Users\mlgjmoor\AppData\Local\Temp\cc6ze5Ri.s 			page 5


  49 001a 1B68     		ldr	r3, [r3]
 178:.\Generated_Source\PSoC4/ADC.c ****     ADC_SAR_CTRL_REG |= ADC_DEFAULT_CTRL_REG_CFG | 
  50              		.loc 1 178 0
  51 001c 002B     		cmp	r3, #0
  52 001e 01DA     		bge	.L12
  53 0020 4D49     		ldr	r1, .L14+12
  54 0022 00E0     		b	.L2
  55              	.L12:
  56 0024 4D49     		ldr	r1, .L14+16
  57              	.L2:
 178:.\Generated_Source\PSoC4/ADC.c ****     ADC_SAR_CTRL_REG |= ADC_DEFAULT_CTRL_REG_CFG | 
  58              		.loc 1 178 0 is_stmt 0 discriminator 4
  59 0026 4E4A     		ldr	r2, .L14+20
  60 0028 1368     		ldr	r3, [r2]
  61 002a 0B43     		orr	r3, r1
  62 002c 1360     		str	r3, [r2]
 181:.\Generated_Source\PSoC4/ADC.c ****         ADC_BOOSTPUMP_EN : 0u);
 182:.\Generated_Source\PSoC4/ADC.c ****     ADC_SAR_SAMPLE_CTRL_REG = ADC_DEFAULT_SAMPLE_CTRL_REG_CFG;
  63              		.loc 1 182 0 is_stmt 1 discriminator 4
  64 002e 4D4A     		ldr	r2, .L14+24
  65 0030 4D4B     		ldr	r3, .L14+28
  66 0032 1A60     		str	r2, [r3]
 183:.\Generated_Source\PSoC4/ADC.c ****     ADC_SAR_RANGE_THRES_REG = ADC_DEFAULT_RANGE_THRES_REG_CFG;
  67              		.loc 1 183 0 discriminator 4
  68 0034 4D4A     		ldr	r2, .L14+32
  69 0036 4E4B     		ldr	r3, .L14+36
  70 0038 1A60     		str	r2, [r3]
 184:.\Generated_Source\PSoC4/ADC.c ****     ADC_SAR_RANGE_COND_REG  = ADC_COMPARE_MODE;
  71              		.loc 1 184 0 discriminator 4
  72 003a 0023     		mov	r3, #0
  73 003c 4D4A     		ldr	r2, .L14+40
  74 003e 1360     		str	r3, [r2]
 185:.\Generated_Source\PSoC4/ADC.c ****     ADC_SAR_SAMPLE_TIME01_REG = ADC_DEFAULT_SAMPLE_TIME01_REG_CFG;
  75              		.loc 1 185 0 discriminator 4
  76 0040 4D4A     		ldr	r2, .L14+44
  77 0042 4E49     		ldr	r1, .L14+48
  78 0044 0A60     		str	r2, [r1]
 186:.\Generated_Source\PSoC4/ADC.c ****     ADC_SAR_SAMPLE_TIME23_REG = ADC_DEFAULT_SAMPLE_TIME23_REG_CFG;
  79              		.loc 1 186 0 discriminator 4
  80 0046 4E49     		ldr	r1, .L14+52
  81 0048 0A60     		str	r2, [r1]
 187:.\Generated_Source\PSoC4/ADC.c ****     
 188:.\Generated_Source\PSoC4/ADC.c ****     /* Connect Vm to VSSA when even one channel is single-ended or multiple channels configured */
 189:.\Generated_Source\PSoC4/ADC.c ****     #if(ADC_DEFAULT_MUX_SWITCH0 != 0u)
 190:.\Generated_Source\PSoC4/ADC.c ****         ADC_MUX_SWITCH0_REG |= ADC_DEFAULT_MUX_SWITCH0;
  82              		.loc 1 190 0 discriminator 4
  83 004a 4E4A     		ldr	r2, .L14+56
  84 004c 1168     		ldr	r1, [r2]
  85 004e 8020     		mov	r0, #128
  86 0050 4002     		lsl	r0, r0, #9
  87 0052 0143     		orr	r1, r0
  88 0054 1160     		str	r1, [r2]
 191:.\Generated_Source\PSoC4/ADC.c ****         /* Set MUX_HW_CTRL_VSSA in MUX_SWITCH_HW_CTRL when multiple channels enabled */
 192:.\Generated_Source\PSoC4/ADC.c ****         #if(ADC_TOTAL_CHANNELS_NUM > 1u)
 193:.\Generated_Source\PSoC4/ADC.c ****             ADC_MUX_SWITCH_HW_CTRL_REG |= ADC_DEFAULT_MUX_SWITCH0;
  89              		.loc 1 193 0 discriminator 4
  90 0056 4C49     		ldr	r1, .L14+60
ARM GAS  C:\Users\mlgjmoor\AppData\Local\Temp\cc6ze5Ri.s 			page 6


  91 0058 0A68     		ldr	r2, [r1]
  92 005a 0243     		orr	r2, r0
  93 005c 0A60     		str	r2, [r1]
 194:.\Generated_Source\PSoC4/ADC.c ****         #endif /* ADC_TOTAL_CHANNELS_NUM > 1u */
 195:.\Generated_Source\PSoC4/ADC.c ****     #endif /*ADC_CHANNELS_MODE !=0 */
 196:.\Generated_Source\PSoC4/ADC.c **** 
 197:.\Generated_Source\PSoC4/ADC.c ****     ADC_SAR_SATURATE_INTR_MASK_REG = 0u;
  94              		.loc 1 197 0 discriminator 4
  95 005e 4B4A     		ldr	r2, .L14+64
  96 0060 1360     		str	r3, [r2]
 198:.\Generated_Source\PSoC4/ADC.c ****     ADC_SAR_RANGE_INTR_MASK_REG = 0u;
  97              		.loc 1 198 0 discriminator 4
  98 0062 4B4A     		ldr	r2, .L14+68
  99 0064 1360     		str	r3, [r2]
 199:.\Generated_Source\PSoC4/ADC.c ****     ADC_SAR_INTR_MASK_REG = ADC_SAR_INTR_MASK;
 100              		.loc 1 199 0 discriminator 4
 101 0066 1122     		mov	r2, #17
 102 0068 4A4B     		ldr	r3, .L14+72
 103 006a 1A60     		str	r2, [r3]
 200:.\Generated_Source\PSoC4/ADC.c **** 
 201:.\Generated_Source\PSoC4/ADC.c ****     #if(ADC_CY_SAR_IP_VER == ADC_CY_SAR_IP_VER0)
 202:.\Generated_Source\PSoC4/ADC.c ****         ADC_ANA_TRIM_REG = ADC_TRIM_COEF;
 203:.\Generated_Source\PSoC4/ADC.c ****     #endif /* (ADC_CY_SAR_IP_VER == ADC_CY_SAR_IP_VER0) */
 204:.\Generated_Source\PSoC4/ADC.c **** 
 205:.\Generated_Source\PSoC4/ADC.c ****     /* Read and modify default configuration based on characterization */
 206:.\Generated_Source\PSoC4/ADC.c ****     tmpRegVal = ADC_SAR_DFT_CTRL_REG;
 104              		.loc 1 206 0 discriminator 4
 105 006c 4A4A     		ldr	r2, .L14+76
 106 006e 1168     		ldr	r1, [r2]
 107              	.LVL2:
 207:.\Generated_Source\PSoC4/ADC.c ****     tmpRegVal &= (uint32)~ADC_DCEN;
 208:.\Generated_Source\PSoC4/ADC.c ****     
 209:.\Generated_Source\PSoC4/ADC.c ****     #if(ADC_CY_SAR_IP_VER == ADC_CY_SAR_IP_VER0)
 210:.\Generated_Source\PSoC4/ADC.c ****         #if(ADC_NOMINAL_CLOCK_FREQ > (ADC_MAX_FREQUENCY / 2))
 211:.\Generated_Source\PSoC4/ADC.c ****             tmpRegVal |= ADC_SEL_CSEL_DFT_CHAR;
 212:.\Generated_Source\PSoC4/ADC.c ****         #else  /* clock speed < 9 Mhz */
 213:.\Generated_Source\PSoC4/ADC.c ****             tmpRegVal |= ADC_DLY_INC;
 214:.\Generated_Source\PSoC4/ADC.c ****         #endif /* clock speed > 9 Mhz */
 215:.\Generated_Source\PSoC4/ADC.c ****     #else
 216:.\Generated_Source\PSoC4/ADC.c ****         #if ((ADC_DEFAULT_VREF_SEL == ADC__INTERNAL1024) || \
 217:.\Generated_Source\PSoC4/ADC.c ****              (ADC_DEFAULT_VREF_SEL == ADC__INTERNALVREF))
 218:.\Generated_Source\PSoC4/ADC.c ****             tmpRegVal |= ADC_DLY_INC;
 219:.\Generated_Source\PSoC4/ADC.c ****         #else
 220:.\Generated_Source\PSoC4/ADC.c ****             tmpRegVal |= ADC_DCEN;
 221:.\Generated_Source\PSoC4/ADC.c ****             tmpRegVal &= (uint32)~ADC_DLY_INC;
 108              		.loc 1 221 0 discriminator 4
 109 0070 4A4B     		ldr	r3, .L14+80
 110 0072 0B40     		and	r3, r1
 111 0074 8021     		mov	r1, #128
 112              	.LVL3:
 113 0076 8905     		lsl	r1, r1, #22
 114 0078 0B43     		orr	r3, r1
 115              	.LVL4:
 222:.\Generated_Source\PSoC4/ADC.c ****         #endif /* ((ADC_DEFAULT_VREF_SEL == ADC__INTERNAL1024) || \
 223:.\Generated_Source\PSoC4/ADC.c ****                    (ADC_DEFAULT_VREF_SEL == ADC__INTERNALVREF)) */
 224:.\Generated_Source\PSoC4/ADC.c ****     #endif /* (ADC_CY_SAR_IP_VER == ADC_CY_SAR_IP_VER0) */
 225:.\Generated_Source\PSoC4/ADC.c ****     
ARM GAS  C:\Users\mlgjmoor\AppData\Local\Temp\cc6ze5Ri.s 			page 7


 226:.\Generated_Source\PSoC4/ADC.c ****     ADC_SAR_DFT_CTRL_REG = tmpRegVal;
 116              		.loc 1 226 0 discriminator 4
 117 007a 1360     		str	r3, [r2]
 118              	.LVL5:
 227:.\Generated_Source\PSoC4/ADC.c **** 
 228:.\Generated_Source\PSoC4/ADC.c ****     #if(ADC_MAX_RESOLUTION != ADC_RESOLUTION_12)
 229:.\Generated_Source\PSoC4/ADC.c ****         ADC_WOUNDING_REG = ADC_ALT_WOUNDING;
 230:.\Generated_Source\PSoC4/ADC.c ****     #endif /* ADC_MAX_RESOLUTION != ADC_RESOLUTION_12 */
 231:.\Generated_Source\PSoC4/ADC.c **** 
 232:.\Generated_Source\PSoC4/ADC.c ****     for(chNum = 0u; chNum < ADC_TOTAL_CHANNELS_NUM; chNum++)
 119              		.loc 1 232 0 discriminator 4
 120 007c 0024     		mov	r4, #0
 121 007e 62E0     		b	.L3
 122              	.LVL6:
 123              	.L11:
 233:.\Generated_Source\PSoC4/ADC.c ****     {
 234:.\Generated_Source\PSoC4/ADC.c ****         tmpRegVal = (ADC_channelsConfig[chNum] & ADC_CHANNEL_CONFIG_MASK);
 124              		.loc 1 234 0
 125 0080 474A     		ldr	r2, .L14+84
 126 0082 A300     		lsl	r3, r4, #2
 127 0084 9958     		ldr	r1, [r3, r2]
 128 0086 DC23     		mov	r3, #220
 129 0088 9B01     		lsl	r3, r3, #6
 130 008a 0B40     		and	r3, r1
 131              	.LVL7:
 235:.\Generated_Source\PSoC4/ADC.c ****         #if(ADC_TOTAL_CHANNELS_NUM > 1u)
 236:.\Generated_Source\PSoC4/ADC.c ****             tmpRegVal |= ADC_InputsPlacement[chNum];
 132              		.loc 1 236 0
 133 008c 1219     		add	r2, r2, r4
 134 008e 127A     		ldrb	r2, [r2, #8]
 135 0090 1343     		orr	r3, r2
 136              	.LVL8:
 237:.\Generated_Source\PSoC4/ADC.c ****         #endif /* End ADC_TOTAL_CHANNELS_NUM > 1u */
 238:.\Generated_Source\PSoC4/ADC.c ****         
 239:.\Generated_Source\PSoC4/ADC.c ****         
 240:.\Generated_Source\PSoC4/ADC.c ****         /* When the part is limited to 10-bit then the SUB_RESOLUTION bit
 241:.\Generated_Source\PSoC4/ADC.c ****         *  will be ignored and the RESOLUTION bit selects between 10-bit
 242:.\Generated_Source\PSoC4/ADC.c ****         *  (0) and 8-bit (1) resolution.
 243:.\Generated_Source\PSoC4/ADC.c ****         */
 244:.\Generated_Source\PSoC4/ADC.c ****         #if((ADC_MAX_RESOLUTION != ADC_RESOLUTION_12) && \
 245:.\Generated_Source\PSoC4/ADC.c ****             (ADC_ALT_WOUNDING == ADC_WOUNDING_10BIT))
 246:.\Generated_Source\PSoC4/ADC.c ****             tmpRegVal &= (uint32)(~ADC_ALT_RESOLUTION_ON);
 247:.\Generated_Source\PSoC4/ADC.c ****         #endif /* ADC_MAX_RESOLUTION != ADC_RESOLUTION_12 */
 248:.\Generated_Source\PSoC4/ADC.c **** 
 249:.\Generated_Source\PSoC4/ADC.c ****         #if(ADC_INJ_CHANNEL_ENABLED)
 250:.\Generated_Source\PSoC4/ADC.c ****         if(chNum < ADC_SEQUENCED_CHANNELS_NUM)
 137              		.loc 1 250 0
 138 0092 002C     		cmp	r4, #0
 139 0094 1CD1     		bne	.L4
 251:.\Generated_Source\PSoC4/ADC.c ****         #endif /* ADC_INJ_CHANNEL_ENABLED */
 252:.\Generated_Source\PSoC4/ADC.c ****         {
 253:.\Generated_Source\PSoC4/ADC.c ****             CY_SET_REG32((reg32 *)(ADC_SAR_CHAN_CONFIG_IND + (uint32)(chNum << 2)), tmpRegVal);
 140              		.loc 1 253 0
 141 0096 A200     		lsl	r2, r4, #2
 142 0098 4248     		ldr	r0, .L14+88
 143 009a 8446     		mov	ip, r0
 144 009c 6244     		add	r2, r2, ip
ARM GAS  C:\Users\mlgjmoor\AppData\Local\Temp\cc6ze5Ri.s 			page 8


 145 009e 1360     		str	r3, [r2]
 254:.\Generated_Source\PSoC4/ADC.c **** 
 255:.\Generated_Source\PSoC4/ADC.c ****             if((ADC_channelsConfig[chNum] & ADC_IS_SATURATE_EN_MASK) != 0u)
 146              		.loc 1 255 0
 147 00a0 CB07     		lsl	r3, r1, #31
 148 00a2 07D5     		bpl	.L5
 149              	.LVL9:
 256:.\Generated_Source\PSoC4/ADC.c ****             {
 257:.\Generated_Source\PSoC4/ADC.c ****                 ADC_SAR_SATURATE_INTR_MASK_REG |= (uint16)((uint16)1 << chNum);
 150              		.loc 1 257 0
 151 00a4 394A     		ldr	r2, .L14+64
 152              	.LVL10:
 153 00a6 1168     		ldr	r1, [r2]
 154 00a8 8023     		mov	r3, #128
 155 00aa 5B02     		lsl	r3, r3, #9
 156 00ac A340     		lsl	r3, r3, r4
 157 00ae 1B0C     		lsr	r3, r3, #16
 158 00b0 0B43     		orr	r3, r1
 159 00b2 1360     		str	r3, [r2]
 160              	.LVL11:
 161              	.L5:
 258:.\Generated_Source\PSoC4/ADC.c ****             }
 259:.\Generated_Source\PSoC4/ADC.c **** 
 260:.\Generated_Source\PSoC4/ADC.c ****             if((ADC_channelsConfig[chNum] & ADC_IS_RANGE_CTRL_EN_MASK) != 0u)
 162              		.loc 1 260 0
 163 00b4 A300     		lsl	r3, r4, #2
 164 00b6 3A4A     		ldr	r2, .L14+84
 165              	.LVL12:
 166 00b8 9B58     		ldr	r3, [r3, r2]
 167 00ba 9B07     		lsl	r3, r3, #30
 168 00bc 21D5     		bpl	.L6
 261:.\Generated_Source\PSoC4/ADC.c ****             {
 262:.\Generated_Source\PSoC4/ADC.c ****                 ADC_SAR_RANGE_INTR_MASK_REG |= (uint16)((uint16)1 << chNum);
 169              		.loc 1 262 0
 170 00be 344A     		ldr	r2, .L14+68
 171              	.LVL13:
 172 00c0 1168     		ldr	r1, [r2]
 173 00c2 8023     		mov	r3, #128
 174 00c4 5B02     		lsl	r3, r3, #9
 175 00c6 A340     		lsl	r3, r3, r4
 176 00c8 1B0C     		lsr	r3, r3, #16
 177 00ca 0B43     		orr	r3, r1
 178 00cc 1360     		str	r3, [r2]
 179 00ce 18E0     		b	.L6
 180              	.LVL14:
 181              	.L4:
 263:.\Generated_Source\PSoC4/ADC.c ****             }
 264:.\Generated_Source\PSoC4/ADC.c ****         }
 265:.\Generated_Source\PSoC4/ADC.c ****         #if(ADC_INJ_CHANNEL_ENABLED)
 266:.\Generated_Source\PSoC4/ADC.c ****             else
 267:.\Generated_Source\PSoC4/ADC.c ****             {
 268:.\Generated_Source\PSoC4/ADC.c ****                 CY_SET_REG32(ADC_SAR_INJ_CHAN_CONFIG_PTR, tmpRegVal | ADC_INJ_TAILGATING);
 182              		.loc 1 268 0
 183 00d0 8022     		mov	r2, #128
 184 00d2 D205     		lsl	r2, r2, #23
 185 00d4 1343     		orr	r3, r2
 186              	.LVL15:
ARM GAS  C:\Users\mlgjmoor\AppData\Local\Temp\cc6ze5Ri.s 			page 9


 187 00d6 344A     		ldr	r2, .L14+92
 188 00d8 1360     		str	r3, [r2]
 269:.\Generated_Source\PSoC4/ADC.c **** 
 270:.\Generated_Source\PSoC4/ADC.c ****                 if((ADC_channelsConfig[chNum] & ADC_IS_SATURATE_EN_MASK) != 0u)
 189              		.loc 1 270 0
 190 00da A300     		lsl	r3, r4, #2
 191 00dc 304A     		ldr	r2, .L14+84
 192              	.LVL16:
 193 00de 9B58     		ldr	r3, [r3, r2]
 194 00e0 DB07     		lsl	r3, r3, #31
 195 00e2 04D5     		bpl	.L7
 271:.\Generated_Source\PSoC4/ADC.c ****                 {
 272:.\Generated_Source\PSoC4/ADC.c ****                     ADC_SAR_INTR_MASK_REG |= ADC_INJ_SATURATE_MASK;
 196              		.loc 1 272 0
 197 00e4 2B4A     		ldr	r2, .L14+72
 198              	.LVL17:
 199 00e6 1168     		ldr	r1, [r2]
 200              	.LVL18:
 201 00e8 2023     		mov	r3, #32
 202 00ea 0B43     		orr	r3, r1
 203 00ec 1360     		str	r3, [r2]
 204              	.L7:
 273:.\Generated_Source\PSoC4/ADC.c ****                 }
 274:.\Generated_Source\PSoC4/ADC.c **** 
 275:.\Generated_Source\PSoC4/ADC.c ****                 if((ADC_channelsConfig[chNum] & ADC_IS_RANGE_CTRL_EN_MASK) != 0u)
 205              		.loc 1 275 0
 206 00ee A300     		lsl	r3, r4, #2
 207 00f0 2B4A     		ldr	r2, .L14+84
 208              	.LVL19:
 209 00f2 9B58     		ldr	r3, [r3, r2]
 210 00f4 9B07     		lsl	r3, r3, #30
 211 00f6 04D5     		bpl	.L6
 276:.\Generated_Source\PSoC4/ADC.c ****                 {
 277:.\Generated_Source\PSoC4/ADC.c ****                     ADC_SAR_INTR_MASK_REG |= ADC_INJ_RANGE_MASK;
 212              		.loc 1 277 0
 213 00f8 264A     		ldr	r2, .L14+72
 214              	.LVL20:
 215 00fa 1168     		ldr	r1, [r2]
 216 00fc 4023     		mov	r3, #64
 217 00fe 0B43     		orr	r3, r1
 218 0100 1360     		str	r3, [r2]
 219              	.L6:
 278:.\Generated_Source\PSoC4/ADC.c ****                 }
 279:.\Generated_Source\PSoC4/ADC.c ****             }
 280:.\Generated_Source\PSoC4/ADC.c ****         #endif /* ADC_INJ_CHANNEL_ENABLED */
 281:.\Generated_Source\PSoC4/ADC.c **** 
 282:.\Generated_Source\PSoC4/ADC.c ****         if((ADC_channelsConfig[chNum] & ADC_ALT_RESOLUTION_ON) != 0u)
 220              		.loc 1 282 0
 221 0102 A300     		lsl	r3, r4, #2
 222 0104 264A     		ldr	r2, .L14+84
 223              	.LVL21:
 224 0106 9B58     		ldr	r3, [r3, r2]
 225 0108 9A05     		lsl	r2, r3, #22
 226 010a 02D5     		bpl	.L13
 227              	.LVL22:
 283:.\Generated_Source\PSoC4/ADC.c ****         {
 284:.\Generated_Source\PSoC4/ADC.c ****                counts = (int32)ADC_DEFAULT_MAX_WRK_ALT;
ARM GAS  C:\Users\mlgjmoor\AppData\Local\Temp\cc6ze5Ri.s 			page 10


 228              		.loc 1 284 0
 229 010c 8020     		mov	r0, #128
 230 010e 4000     		lsl	r0, r0, #1
 231 0110 01E0     		b	.L8
 232              	.L13:
 285:.\Generated_Source\PSoC4/ADC.c ****         }
 286:.\Generated_Source\PSoC4/ADC.c ****         else
 287:.\Generated_Source\PSoC4/ADC.c ****         {
 288:.\Generated_Source\PSoC4/ADC.c ****                counts = (int32)ADC_SAR_WRK_MAX_12BIT;
 233              		.loc 1 288 0
 234 0112 8020     		mov	r0, #128
 235 0114 4001     		lsl	r0, r0, #5
 236              	.L8:
 237              	.LVL23:
 289:.\Generated_Source\PSoC4/ADC.c ****         }
 290:.\Generated_Source\PSoC4/ADC.c **** 
 291:.\Generated_Source\PSoC4/ADC.c ****         if((ADC_channelsConfig[chNum] & ADC_DIFFERENTIAL_EN) == 0u)
 238              		.loc 1 291 0
 239 0116 DB05     		lsl	r3, r3, #23
 240 0118 04D4     		bmi	.L9
 292:.\Generated_Source\PSoC4/ADC.c ****         {
 293:.\Generated_Source\PSoC4/ADC.c ****             #if((ADC_DEFAULT_SE_RESULT_FORMAT_SEL == ADC__FSIGNED) && \
 294:.\Generated_Source\PSoC4/ADC.c ****                 (ADC_DEFAULT_NEG_INPUT_SEL == ADC__VREF))
 295:.\Generated_Source\PSoC4/ADC.c ****                 /* Set offset to the minus half scale to convert results to unsigned format */
 296:.\Generated_Source\PSoC4/ADC.c ****                 ADC_offset[chNum] = (int16)(counts / -2);
 297:.\Generated_Source\PSoC4/ADC.c ****             #else
 298:.\Generated_Source\PSoC4/ADC.c ****                 ADC_offset[chNum] = 0;
 241              		.loc 1 298 0
 242 011a 6300     		lsl	r3, r4, #1
 243 011c 0021     		mov	r1, #0
 244 011e 234A     		ldr	r2, .L14+96
 245 0120 9952     		strh	r1, [r3, r2]
 246 0122 03E0     		b	.L10
 247              	.L9:
 299:.\Generated_Source\PSoC4/ADC.c ****             #endif /* end DEFAULT_SE_RESULT_FORMAT_SEL == ADC__FSIGNED */
 300:.\Generated_Source\PSoC4/ADC.c ****         }
 301:.\Generated_Source\PSoC4/ADC.c ****         else    /* Differential channel */
 302:.\Generated_Source\PSoC4/ADC.c ****         {
 303:.\Generated_Source\PSoC4/ADC.c ****             #if(ADC_DEFAULT_DIFF_RESULT_FORMAT_SEL == ADC__FUNSIGNED)
 304:.\Generated_Source\PSoC4/ADC.c ****                 /* Set offset to the half scale to convert results to signed format */
 305:.\Generated_Source\PSoC4/ADC.c ****                 ADC_offset[chNum] = (int16)(counts / 2);
 306:.\Generated_Source\PSoC4/ADC.c ****             #else
 307:.\Generated_Source\PSoC4/ADC.c ****                 ADC_offset[chNum] = 0;
 248              		.loc 1 307 0
 249 0124 6300     		lsl	r3, r4, #1
 250 0126 0021     		mov	r1, #0
 251 0128 204A     		ldr	r2, .L14+96
 252 012a 9952     		strh	r1, [r3, r2]
 253              	.L10:
 308:.\Generated_Source\PSoC4/ADC.c ****             #endif /* end ADC_DEFAULT_DIFF_RESULT_FORMAT_SEL == ADC__FUNSIGNED */
 309:.\Generated_Source\PSoC4/ADC.c ****         }
 310:.\Generated_Source\PSoC4/ADC.c ****         /* Calculate gain in counts per 10 volts with rounding */
 311:.\Generated_Source\PSoC4/ADC.c ****         ADC_countsPer10Volt[chNum] = (int16)(((counts * ADC_10MV_COUNTS) +
 254              		.loc 1 311 0 discriminator 2
 255 012c 204B     		ldr	r3, .L14+100
 256 012e 5843     		mul	r0, r3
 257              	.LVL24:
ARM GAS  C:\Users\mlgjmoor\AppData\Local\Temp\cc6ze5Ri.s 			page 11


 258 0130 204B     		ldr	r3, .L14+104
 259 0132 9C46     		mov	ip, r3
 260 0134 6044     		add	r0, r0, ip
 312:.\Generated_Source\PSoC4/ADC.c ****                             ADC_DEFAULT_VREF_MV_VALUE) / (ADC_DEFAULT_VREF_MV_VALUE * 2));
 261              		.loc 1 312 0 discriminator 2
 262 0136 2049     		ldr	r1, .L14+108
 263 0138 FFF7FEFF 		bl	__aeabi_idiv
 264              	.LVL25:
 311:.\Generated_Source\PSoC4/ADC.c ****                             ADC_DEFAULT_VREF_MV_VALUE) / (ADC_DEFAULT_VREF_MV_VALUE * 2));
 265              		.loc 1 311 0 discriminator 2
 266 013c 00B2     		sxth	r0, r0
 267 013e A200     		lsl	r2, r4, #2
 268 0140 1E4B     		ldr	r3, .L14+112
 269 0142 D050     		str	r0, [r2, r3]
 232:.\Generated_Source\PSoC4/ADC.c ****     {
 270              		.loc 1 232 0 discriminator 2
 271 0144 0134     		add	r4, r4, #1
 272              	.LVL26:
 273              	.L3:
 232:.\Generated_Source\PSoC4/ADC.c ****     {
 274              		.loc 1 232 0 is_stmt 0 discriminator 1
 275 0146 012C     		cmp	r4, #1
 276 0148 9AD9     		bls	.L11
 313:.\Generated_Source\PSoC4/ADC.c ****     }
 314:.\Generated_Source\PSoC4/ADC.c **** }
 277              		.loc 1 314 0 is_stmt 1
 278              		@ sp needed
 279              	.LVL27:
 280 014a 10BD     		pop	{r4, pc}
 281              	.L15:
 282              		.align	2
 283              	.L14:
 284 014c 00000000 		.word	ADC_ISR
 285 0150 20003A40 		.word	1077542944
 286 0154 80033A40 		.word	1077543808
 287 0158 70201013 		.word	319823984
 288 015c 70200013 		.word	318775408
 289 0160 00003A40 		.word	1077542912
 290 0164 AC000A80 		.word	-2146828116
 291 0168 04003A40 		.word	1077542916
 292 016c 0000FF07 		.word	134152192
 293 0170 18003A40 		.word	1077542936
 294 0174 1C003A40 		.word	1077542940
 295 0178 04000400 		.word	262148
 296 017c 10003A40 		.word	1077542928
 297 0180 14003A40 		.word	1077542932
 298 0184 00033A40 		.word	1077543680
 299 0188 40033A40 		.word	1077543744
 300 018c 28023A40 		.word	1077543464
 301 0190 38023A40 		.word	1077543480
 302 0194 18023A40 		.word	1077543448
 303 0198 30003A40 		.word	1077542960
 304 019c FEFFFFDF 		.word	-536870914
 305 01a0 00000000 		.word	.LANCHOR0
 306 01a4 80003A40 		.word	1077543040
 307 01a8 80023A40 		.word	1077543552
 308 01ac 00000000 		.word	ADC_offset
ARM GAS  C:\Users\mlgjmoor\AppData\Local\Temp\cc6ze5Ri.s 			page 12


 309 01b0 10270000 		.word	10000
 310 01b4 E40C0000 		.word	3300
 311 01b8 C8190000 		.word	6600
 312 01bc 00000000 		.word	ADC_countsPer10Volt
 313              		.cfi_endproc
 314              	.LFE3:
 315              		.size	ADC_Init, .-ADC_Init
 316              		.section	.text.ADC_Enable,"ax",%progbits
 317              		.align	2
 318              		.global	ADC_Enable
 319              		.code	16
 320              		.thumb_func
 321              		.type	ADC_Enable, %function
 322              	ADC_Enable:
 323              	.LFB4:
 315:.\Generated_Source\PSoC4/ADC.c **** 
 316:.\Generated_Source\PSoC4/ADC.c **** /*******************************************************************************
 317:.\Generated_Source\PSoC4/ADC.c **** * Function Name: ADC_SAR_1_Enable
 318:.\Generated_Source\PSoC4/ADC.c **** ********************************************************************************
 319:.\Generated_Source\PSoC4/ADC.c **** *
 320:.\Generated_Source\PSoC4/ADC.c **** * Summary:
 321:.\Generated_Source\PSoC4/ADC.c **** *  Enables the clock and analog power for SAR ADC.
 322:.\Generated_Source\PSoC4/ADC.c **** *
 323:.\Generated_Source\PSoC4/ADC.c **** * Parameters:
 324:.\Generated_Source\PSoC4/ADC.c **** *  None.
 325:.\Generated_Source\PSoC4/ADC.c **** *
 326:.\Generated_Source\PSoC4/ADC.c **** * Return:
 327:.\Generated_Source\PSoC4/ADC.c **** *  None.
 328:.\Generated_Source\PSoC4/ADC.c **** *
 329:.\Generated_Source\PSoC4/ADC.c **** *******************************************************************************/
 330:.\Generated_Source\PSoC4/ADC.c **** void ADC_Enable(void)
 331:.\Generated_Source\PSoC4/ADC.c **** {
 324              		.loc 1 331 0
 325              		.cfi_startproc
 326 0000 08B5     		push	{r3, lr}
 327              		.cfi_def_cfa_offset 8
 328              		.cfi_offset 3, -8
 329              		.cfi_offset 14, -4
 332:.\Generated_Source\PSoC4/ADC.c ****     if (0u == (ADC_SAR_CTRL_REG & ADC_ENABLE))
 330              		.loc 1 332 0
 331 0002 094B     		ldr	r3, .L19
 332 0004 1B68     		ldr	r3, [r3]
 333 0006 002B     		cmp	r3, #0
 334 0008 0CDB     		blt	.L16
 335              	.L18:
 333:.\Generated_Source\PSoC4/ADC.c ****     {
 334:.\Generated_Source\PSoC4/ADC.c ****         #if(ADC_CY_SAR_IP_VER != ADC_CY_SAR_IP_VER0)
 335:.\Generated_Source\PSoC4/ADC.c **** 
 336:.\Generated_Source\PSoC4/ADC.c ****             while (0u != (ADC_SAR_STATUS_REG & ADC_STATUS_BUSY))
 336              		.loc 1 336 0 discriminator 1
 337 000a 084B     		ldr	r3, .L19+4
 338 000c 1B68     		ldr	r3, [r3]
 339 000e 002B     		cmp	r3, #0
 340 0010 FBDB     		blt	.L18
 337:.\Generated_Source\PSoC4/ADC.c ****             {
 338:.\Generated_Source\PSoC4/ADC.c ****                 /* wait for SAR to go idle to avoid deadlock */
 339:.\Generated_Source\PSoC4/ADC.c ****             }
ARM GAS  C:\Users\mlgjmoor\AppData\Local\Temp\cc6ze5Ri.s 			page 13


 340:.\Generated_Source\PSoC4/ADC.c ****         #endif /* (ADC_CY_SAR_IP_VER != ADC_CY_SAR_IP_VER0) */
 341:.\Generated_Source\PSoC4/ADC.c ****         
 342:.\Generated_Source\PSoC4/ADC.c ****         ADC_SAR_CTRL_REG |= ADC_ENABLE;
 341              		.loc 1 342 0
 342 0012 054A     		ldr	r2, .L19
 343 0014 1368     		ldr	r3, [r2]
 344 0016 8021     		mov	r1, #128
 345 0018 0906     		lsl	r1, r1, #24
 346 001a 0B43     		orr	r3, r1
 347 001c 1360     		str	r3, [r2]
 343:.\Generated_Source\PSoC4/ADC.c ****         
 344:.\Generated_Source\PSoC4/ADC.c ****         /* The block is ready to use 10 us after the enable signal is set high. */
 345:.\Generated_Source\PSoC4/ADC.c ****         CyDelayUs(ADC_10US_DELAY);         
 348              		.loc 1 345 0
 349 001e 0A20     		mov	r0, #10
 350 0020 FFF7FEFF 		bl	CyDelayUs
 351              	.LVL28:
 352              	.L16:
 346:.\Generated_Source\PSoC4/ADC.c ****     }
 347:.\Generated_Source\PSoC4/ADC.c **** }
 353              		.loc 1 347 0
 354              		@ sp needed
 355 0024 08BD     		pop	{r3, pc}
 356              	.L20:
 357 0026 C046     		.align	2
 358              	.L19:
 359 0028 00003A40 		.word	1077542912
 360 002c 08023A40 		.word	1077543432
 361              		.cfi_endproc
 362              	.LFE4:
 363              		.size	ADC_Enable, .-ADC_Enable
 364              		.section	.text.ADC_Start,"ax",%progbits
 365              		.align	2
 366              		.global	ADC_Start
 367              		.code	16
 368              		.thumb_func
 369              		.type	ADC_Start, %function
 370              	ADC_Start:
 371              	.LFB2:
  64:.\Generated_Source\PSoC4/ADC.c ****     /* If not Initialized then initialize all required hardware and software */
 372              		.loc 1 64 0
 373              		.cfi_startproc
 374 0000 08B5     		push	{r3, lr}
 375              		.cfi_def_cfa_offset 8
 376              		.cfi_offset 3, -8
 377              		.cfi_offset 14, -4
  66:.\Generated_Source\PSoC4/ADC.c ****     {
 378              		.loc 1 66 0
 379 0002 064B     		ldr	r3, .L23
 380 0004 1B78     		ldrb	r3, [r3]
 381 0006 002B     		cmp	r3, #0
 382 0008 04D1     		bne	.L22
  68:.\Generated_Source\PSoC4/ADC.c ****         ADC_initVar = 1u;
 383              		.loc 1 68 0
 384 000a FFF7FEFF 		bl	ADC_Init
 385              	.LVL29:
  69:.\Generated_Source\PSoC4/ADC.c ****     }
ARM GAS  C:\Users\mlgjmoor\AppData\Local\Temp\cc6ze5Ri.s 			page 14


 386              		.loc 1 69 0
 387 000e 0122     		mov	r2, #1
 388 0010 024B     		ldr	r3, .L23
 389 0012 1A70     		strb	r2, [r3]
 390              	.L22:
  71:.\Generated_Source\PSoC4/ADC.c **** }
 391              		.loc 1 71 0
 392 0014 FFF7FEFF 		bl	ADC_Enable
 393              	.LVL30:
  72:.\Generated_Source\PSoC4/ADC.c **** 
 394              		.loc 1 72 0
 395              		@ sp needed
 396 0018 08BD     		pop	{r3, pc}
 397              	.L24:
 398 001a C046     		.align	2
 399              	.L23:
 400 001c 00000000 		.word	.LANCHOR1
 401              		.cfi_endproc
 402              	.LFE2:
 403              		.size	ADC_Start, .-ADC_Start
 404              		.section	.text.ADC_Stop,"ax",%progbits
 405              		.align	2
 406              		.global	ADC_Stop
 407              		.code	16
 408              		.thumb_func
 409              		.type	ADC_Stop, %function
 410              	ADC_Stop:
 411              	.LFB5:
 348:.\Generated_Source\PSoC4/ADC.c **** 
 349:.\Generated_Source\PSoC4/ADC.c **** 
 350:.\Generated_Source\PSoC4/ADC.c **** /*******************************************************************************
 351:.\Generated_Source\PSoC4/ADC.c **** * Function Name: ADC_Stop
 352:.\Generated_Source\PSoC4/ADC.c **** ********************************************************************************
 353:.\Generated_Source\PSoC4/ADC.c **** *
 354:.\Generated_Source\PSoC4/ADC.c **** * Summary:
 355:.\Generated_Source\PSoC4/ADC.c **** *  This function stops ADC conversions and puts the ADC into its lowest power
 356:.\Generated_Source\PSoC4/ADC.c **** *  mode.
 357:.\Generated_Source\PSoC4/ADC.c **** *
 358:.\Generated_Source\PSoC4/ADC.c **** * Parameters:
 359:.\Generated_Source\PSoC4/ADC.c **** *  None.
 360:.\Generated_Source\PSoC4/ADC.c **** *
 361:.\Generated_Source\PSoC4/ADC.c **** * Return:
 362:.\Generated_Source\PSoC4/ADC.c **** *  None.
 363:.\Generated_Source\PSoC4/ADC.c **** *
 364:.\Generated_Source\PSoC4/ADC.c **** *******************************************************************************/
 365:.\Generated_Source\PSoC4/ADC.c **** void ADC_Stop(void)
 366:.\Generated_Source\PSoC4/ADC.c **** {
 412              		.loc 1 366 0
 413              		.cfi_startproc
 367:.\Generated_Source\PSoC4/ADC.c ****     ADC_SAR_CTRL_REG &= (uint32)~ADC_ENABLE;
 414              		.loc 1 367 0
 415 0000 024A     		ldr	r2, .L26
 416 0002 1368     		ldr	r3, [r2]
 417 0004 5B00     		lsl	r3, r3, #1
 418 0006 5B08     		lsr	r3, r3, #1
 419 0008 1360     		str	r3, [r2]
 368:.\Generated_Source\PSoC4/ADC.c **** }
ARM GAS  C:\Users\mlgjmoor\AppData\Local\Temp\cc6ze5Ri.s 			page 15


 420              		.loc 1 368 0
 421              		@ sp needed
 422 000a 7047     		bx	lr
 423              	.L27:
 424              		.align	2
 425              	.L26:
 426 000c 00003A40 		.word	1077542912
 427              		.cfi_endproc
 428              	.LFE5:
 429              		.size	ADC_Stop, .-ADC_Stop
 430              		.section	.text.ADC_StartConvert,"ax",%progbits
 431              		.align	2
 432              		.global	ADC_StartConvert
 433              		.code	16
 434              		.thumb_func
 435              		.type	ADC_StartConvert, %function
 436              	ADC_StartConvert:
 437              	.LFB6:
 369:.\Generated_Source\PSoC4/ADC.c **** 
 370:.\Generated_Source\PSoC4/ADC.c **** 
 371:.\Generated_Source\PSoC4/ADC.c **** /*******************************************************************************
 372:.\Generated_Source\PSoC4/ADC.c **** * Function Name: ADC_StartConvert
 373:.\Generated_Source\PSoC4/ADC.c **** ********************************************************************************
 374:.\Generated_Source\PSoC4/ADC.c **** *
 375:.\Generated_Source\PSoC4/ADC.c **** * Summary:
 376:.\Generated_Source\PSoC4/ADC.c **** *  Description:
 377:.\Generated_Source\PSoC4/ADC.c **** *  For free running mode, this API starts the conversion process and it
 378:.\Generated_Source\PSoC4/ADC.c **** *  runs continuously.
 379:.\Generated_Source\PSoC4/ADC.c **** *
 380:.\Generated_Source\PSoC4/ADC.c **** *  In a triggered mode, this routine triggers every conversion by
 381:.\Generated_Source\PSoC4/ADC.c **** *  writing into the FW_TRIGGER bit in SAR_START_CTRL reg. In triggered mode,
 382:.\Generated_Source\PSoC4/ADC.c **** *  every conversion has to start by this API.
 383:.\Generated_Source\PSoC4/ADC.c **** *
 384:.\Generated_Source\PSoC4/ADC.c **** * Parameters:
 385:.\Generated_Source\PSoC4/ADC.c **** *  None.
 386:.\Generated_Source\PSoC4/ADC.c **** *
 387:.\Generated_Source\PSoC4/ADC.c **** * Return:
 388:.\Generated_Source\PSoC4/ADC.c **** *  None.
 389:.\Generated_Source\PSoC4/ADC.c **** *
 390:.\Generated_Source\PSoC4/ADC.c **** *******************************************************************************/
 391:.\Generated_Source\PSoC4/ADC.c **** void ADC_StartConvert(void)
 392:.\Generated_Source\PSoC4/ADC.c **** {
 438              		.loc 1 392 0
 439              		.cfi_startproc
 393:.\Generated_Source\PSoC4/ADC.c ****     #if(ADC_DEFAULT_SAMPLE_MODE_SEL == ADC__FREERUNNING)
 394:.\Generated_Source\PSoC4/ADC.c ****         ADC_SAR_SAMPLE_CTRL_REG |= ADC_CONTINUOUS_EN;
 395:.\Generated_Source\PSoC4/ADC.c ****     #else /* Firmware trigger */
 396:.\Generated_Source\PSoC4/ADC.c ****         ADC_SAR_START_CTRL_REG = ADC_FW_TRIGGER;
 440              		.loc 1 396 0
 441 0000 0122     		mov	r2, #1
 442 0002 014B     		ldr	r3, .L29
 443 0004 1A60     		str	r2, [r3]
 397:.\Generated_Source\PSoC4/ADC.c ****     #endif /* End ADC_DEFAULT_SAMPLE_MODE == ADC__FREERUNNING */
 398:.\Generated_Source\PSoC4/ADC.c **** 
 399:.\Generated_Source\PSoC4/ADC.c **** }
 444              		.loc 1 399 0
 445              		@ sp needed
ARM GAS  C:\Users\mlgjmoor\AppData\Local\Temp\cc6ze5Ri.s 			page 16


 446 0006 7047     		bx	lr
 447              	.L30:
 448              		.align	2
 449              	.L29:
 450 0008 24003A40 		.word	1077542948
 451              		.cfi_endproc
 452              	.LFE6:
 453              		.size	ADC_StartConvert, .-ADC_StartConvert
 454              		.section	.text.ADC_StopConvert,"ax",%progbits
 455              		.align	2
 456              		.global	ADC_StopConvert
 457              		.code	16
 458              		.thumb_func
 459              		.type	ADC_StopConvert, %function
 460              	ADC_StopConvert:
 461              	.LFB7:
 400:.\Generated_Source\PSoC4/ADC.c **** 
 401:.\Generated_Source\PSoC4/ADC.c **** 
 402:.\Generated_Source\PSoC4/ADC.c **** /*******************************************************************************
 403:.\Generated_Source\PSoC4/ADC.c **** * Function Name: ADC_StopConvert
 404:.\Generated_Source\PSoC4/ADC.c **** ********************************************************************************
 405:.\Generated_Source\PSoC4/ADC.c **** *
 406:.\Generated_Source\PSoC4/ADC.c **** * Summary:
 407:.\Generated_Source\PSoC4/ADC.c **** *  Forces the ADC to stop all conversions.
 408:.\Generated_Source\PSoC4/ADC.c **** *
 409:.\Generated_Source\PSoC4/ADC.c **** * Parameters:
 410:.\Generated_Source\PSoC4/ADC.c **** *  None.
 411:.\Generated_Source\PSoC4/ADC.c **** *
 412:.\Generated_Source\PSoC4/ADC.c **** * Return:
 413:.\Generated_Source\PSoC4/ADC.c **** *  None.
 414:.\Generated_Source\PSoC4/ADC.c **** *
 415:.\Generated_Source\PSoC4/ADC.c **** *******************************************************************************/
 416:.\Generated_Source\PSoC4/ADC.c **** void ADC_StopConvert(void)
 417:.\Generated_Source\PSoC4/ADC.c **** {
 462              		.loc 1 417 0
 463              		.cfi_startproc
 418:.\Generated_Source\PSoC4/ADC.c ****     #if(ADC_DEFAULT_SAMPLE_MODE_SEL == ADC__FREERUNNING)
 419:.\Generated_Source\PSoC4/ADC.c ****         ADC_SAR_SAMPLE_CTRL_REG &= (uint32)(~ADC_CONTINUOUS_EN);
 420:.\Generated_Source\PSoC4/ADC.c ****     #endif /* ADC_DEFAULT_SAMPLE_MODE == ADC__FREERUNNING */
 421:.\Generated_Source\PSoC4/ADC.c **** }
 464              		.loc 1 421 0
 465              		@ sp needed
 466 0000 7047     		bx	lr
 467              		.cfi_endproc
 468              	.LFE7:
 469              		.size	ADC_StopConvert, .-ADC_StopConvert
 470 0002 C046     		.section	.text.ADC_IsEndConversion,"ax",%progbits
 471              		.align	2
 472              		.global	ADC_IsEndConversion
 473              		.code	16
 474              		.thumb_func
 475              		.type	ADC_IsEndConversion, %function
 476              	ADC_IsEndConversion:
 477              	.LFB8:
 422:.\Generated_Source\PSoC4/ADC.c **** 
 423:.\Generated_Source\PSoC4/ADC.c **** 
 424:.\Generated_Source\PSoC4/ADC.c **** /*******************************************************************************
ARM GAS  C:\Users\mlgjmoor\AppData\Local\Temp\cc6ze5Ri.s 			page 17


 425:.\Generated_Source\PSoC4/ADC.c **** * Function Name: ADC_IsEndConversion
 426:.\Generated_Source\PSoC4/ADC.c **** ********************************************************************************
 427:.\Generated_Source\PSoC4/ADC.c **** *
 428:.\Generated_Source\PSoC4/ADC.c **** * Summary:
 429:.\Generated_Source\PSoC4/ADC.c **** *  Description: Checks for ADC end of conversion for the case one
 430:.\Generated_Source\PSoC4/ADC.c **** *  channel and end of scan for the case of multiple channels. It acts
 431:.\Generated_Source\PSoC4/ADC.c **** *  as a software version of the EOC. This function provides the
 432:.\Generated_Source\PSoC4/ADC.c **** *  programmer with two options. In one mode this function
 433:.\Generated_Source\PSoC4/ADC.c **** *  immediately returns with the conversion status. In the other mode,
 434:.\Generated_Source\PSoC4/ADC.c **** *  the function does not return (blocking) until the conversion has
 435:.\Generated_Source\PSoC4/ADC.c **** *  completed.
 436:.\Generated_Source\PSoC4/ADC.c **** *
 437:.\Generated_Source\PSoC4/ADC.c **** * Parameters:
 438:.\Generated_Source\PSoC4/ADC.c **** *  ADC_RETURN_STATUS        -> Immediately returns conversion result status
 439:.\Generated_Source\PSoC4/ADC.c **** *  ADC_WAIT_FOR_RESULT      -> Does not return until ADC complete
 440:.\Generated_Source\PSoC4/ADC.c **** *  ADC_RETURN_STATUS_INJ    -> Immediately returns conversion result status
 441:.\Generated_Source\PSoC4/ADC.c **** *                              for injection channel
 442:.\Generated_Source\PSoC4/ADC.c **** *  ADC_WAIT_FOR_RESULT_INJ  -> Does not return until ADC completes injection
 443:.\Generated_Source\PSoC4/ADC.c **** *                              channel conversion
 444:.\Generated_Source\PSoC4/ADC.c **** *
 445:.\Generated_Source\PSoC4/ADC.c **** * Return:
 446:.\Generated_Source\PSoC4/ADC.c **** *  If a non-zero value is returned, the last conversion or scan has completed.
 447:.\Generated_Source\PSoC4/ADC.c **** *  If the returned value is zero, the ADC is still in the process of a scan.
 448:.\Generated_Source\PSoC4/ADC.c **** *
 449:.\Generated_Source\PSoC4/ADC.c **** *******************************************************************************/
 450:.\Generated_Source\PSoC4/ADC.c **** uint32 ADC_IsEndConversion(uint32 retMode)
 451:.\Generated_Source\PSoC4/ADC.c **** {
 478              		.loc 1 451 0
 479              		.cfi_startproc
 480              	.LVL31:
 481 0000 011C     		mov	r1, r0
 482              	.LVL32:
 452:.\Generated_Source\PSoC4/ADC.c ****     uint32 status = 0u;
 453:.\Generated_Source\PSoC4/ADC.c **** 
 454:.\Generated_Source\PSoC4/ADC.c ****     if((retMode & (ADC_RETURN_STATUS | ADC_WAIT_FOR_RESULT)) != 0u)
 483              		.loc 1 454 0
 484 0002 8307     		lsl	r3, r0, #30
 485 0004 0CD0     		beq	.L39
 486              	.LVL33:
 487              	.L35:
 455:.\Generated_Source\PSoC4/ADC.c ****     {
 456:.\Generated_Source\PSoC4/ADC.c ****         do
 457:.\Generated_Source\PSoC4/ADC.c ****         {
 458:.\Generated_Source\PSoC4/ADC.c ****             status = ADC_SAR_INTR_REG & ADC_EOS_MASK;
 488              		.loc 1 458 0 discriminator 2
 489 0006 104B     		ldr	r3, .L40
 490 0008 1B68     		ldr	r3, [r3]
 491 000a 0120     		mov	r0, #1
 492 000c 1840     		and	r0, r3
 493              	.LVL34:
 459:.\Generated_Source\PSoC4/ADC.c ****         }while((status == 0u) && ((retMode & ADC_WAIT_FOR_RESULT) != 0u));
 494              		.loc 1 459 0 discriminator 2
 495 000e 01D1     		bne	.L34
 496              		.loc 1 459 0 is_stmt 0 discriminator 1
 497 0010 8B07     		lsl	r3, r1, #30
 498 0012 F8D4     		bmi	.L35
 499              	.L34:
ARM GAS  C:\Users\mlgjmoor\AppData\Local\Temp\cc6ze5Ri.s 			page 18


 460:.\Generated_Source\PSoC4/ADC.c **** 
 461:.\Generated_Source\PSoC4/ADC.c ****         if(status != 0u)
 500              		.loc 1 461 0 is_stmt 1
 501 0014 0028     		cmp	r0, #0
 502 0016 04D0     		beq	.L33
 462:.\Generated_Source\PSoC4/ADC.c ****         {
 463:.\Generated_Source\PSoC4/ADC.c ****             /* Clear EOS bit */
 464:.\Generated_Source\PSoC4/ADC.c ****             ADC_SAR_INTR_REG = ADC_EOS_MASK;
 503              		.loc 1 464 0
 504 0018 0122     		mov	r2, #1
 505 001a 0B4B     		ldr	r3, .L40
 506 001c 1A60     		str	r2, [r3]
 507 001e 00E0     		b	.L33
 508              	.LVL35:
 509              	.L39:
 452:.\Generated_Source\PSoC4/ADC.c **** 
 510              		.loc 1 452 0
 511 0020 0020     		mov	r0, #0
 512              	.LVL36:
 513              	.L33:
 465:.\Generated_Source\PSoC4/ADC.c ****         }
 466:.\Generated_Source\PSoC4/ADC.c ****     }
 467:.\Generated_Source\PSoC4/ADC.c **** 
 468:.\Generated_Source\PSoC4/ADC.c ****     #if(ADC_INJ_CHANNEL_ENABLED)
 469:.\Generated_Source\PSoC4/ADC.c ****         if((retMode & (ADC_RETURN_STATUS_INJ | ADC_WAIT_FOR_RESULT_INJ)) != 0u)
 514              		.loc 1 469 0
 515 0022 0C23     		mov	r3, #12
 516 0024 0B42     		tst	r3, r1
 517 0026 0DD0     		beq	.L36
 518              	.L38:
 470:.\Generated_Source\PSoC4/ADC.c ****         {
 471:.\Generated_Source\PSoC4/ADC.c ****             do
 472:.\Generated_Source\PSoC4/ADC.c ****             {
 473:.\Generated_Source\PSoC4/ADC.c ****                 status |= ADC_SAR_INTR_REG & ADC_INJ_EOC_MASK;
 519              		.loc 1 473 0
 520 0028 074B     		ldr	r3, .L40
 521 002a 1A68     		ldr	r2, [r3]
 522 002c 1023     		mov	r3, #16
 523 002e 1A40     		and	r2, r3
 524 0030 1043     		orr	r0, r2
 525              	.LVL37:
 474:.\Generated_Source\PSoC4/ADC.c ****             }while(((status & ADC_INJ_EOC_MASK) == 0u) &&
 526              		.loc 1 474 0
 527 0032 0340     		and	r3, r0
 475:.\Generated_Source\PSoC4/ADC.c ****                    ((retMode & ADC_WAIT_FOR_RESULT_INJ) != 0u));
 528              		.loc 1 475 0
 529 0034 01D1     		bne	.L37
 474:.\Generated_Source\PSoC4/ADC.c ****             }while(((status & ADC_INJ_EOC_MASK) == 0u) &&
 530              		.loc 1 474 0 discriminator 1
 531 0036 0A07     		lsl	r2, r1, #28
 532 0038 F6D4     		bmi	.L38
 533              	.L37:
 476:.\Generated_Source\PSoC4/ADC.c **** 
 477:.\Generated_Source\PSoC4/ADC.c ****             if((status & ADC_INJ_EOC_MASK) != 0u)
 534              		.loc 1 477 0
 535 003a 002B     		cmp	r3, #0
 536 003c 02D0     		beq	.L36
ARM GAS  C:\Users\mlgjmoor\AppData\Local\Temp\cc6ze5Ri.s 			page 19


 478:.\Generated_Source\PSoC4/ADC.c ****             {
 479:.\Generated_Source\PSoC4/ADC.c ****                 /* Clear Injection EOS bit */
 480:.\Generated_Source\PSoC4/ADC.c ****                 ADC_SAR_INTR_REG = ADC_INJ_EOC_MASK;
 537              		.loc 1 480 0
 538 003e 1022     		mov	r2, #16
 539 0040 014B     		ldr	r3, .L40
 540 0042 1A60     		str	r2, [r3]
 541              	.L36:
 481:.\Generated_Source\PSoC4/ADC.c ****             }
 482:.\Generated_Source\PSoC4/ADC.c ****         }
 483:.\Generated_Source\PSoC4/ADC.c ****     #endif /* ADC_INJ_CHANNEL_ENABLED */
 484:.\Generated_Source\PSoC4/ADC.c **** 
 485:.\Generated_Source\PSoC4/ADC.c ****     return (status);
 486:.\Generated_Source\PSoC4/ADC.c **** }
 542              		.loc 1 486 0
 543              		@ sp needed
 544 0044 7047     		bx	lr
 545              	.L41:
 546 0046 C046     		.align	2
 547              	.L40:
 548 0048 10023A40 		.word	1077543440
 549              		.cfi_endproc
 550              	.LFE8:
 551              		.size	ADC_IsEndConversion, .-ADC_IsEndConversion
 552              		.section	.text.ADC_GetResult16,"ax",%progbits
 553              		.align	2
 554              		.global	ADC_GetResult16
 555              		.code	16
 556              		.thumb_func
 557              		.type	ADC_GetResult16, %function
 558              	ADC_GetResult16:
 559              	.LFB9:
 487:.\Generated_Source\PSoC4/ADC.c **** 
 488:.\Generated_Source\PSoC4/ADC.c **** 
 489:.\Generated_Source\PSoC4/ADC.c **** /*******************************************************************************
 490:.\Generated_Source\PSoC4/ADC.c **** * Function Name: ADC_GetResult16
 491:.\Generated_Source\PSoC4/ADC.c **** ********************************************************************************
 492:.\Generated_Source\PSoC4/ADC.c **** *
 493:.\Generated_Source\PSoC4/ADC.c **** * Summary:
 494:.\Generated_Source\PSoC4/ADC.c **** *  Gets the data available in the SAR DATA register.
 495:.\Generated_Source\PSoC4/ADC.c **** *
 496:.\Generated_Source\PSoC4/ADC.c **** * Parameters:
 497:.\Generated_Source\PSoC4/ADC.c **** *  chan: The ADC channel in which to return the result. The first channel
 498:.\Generated_Source\PSoC4/ADC.c **** *  is 0 and the injection channel if enabled is the number of valid channels.
 499:.\Generated_Source\PSoC4/ADC.c **** *
 500:.\Generated_Source\PSoC4/ADC.c **** * Return:
 501:.\Generated_Source\PSoC4/ADC.c **** *  Returns converted data as a signed 16-bit integer
 502:.\Generated_Source\PSoC4/ADC.c **** *
 503:.\Generated_Source\PSoC4/ADC.c **** *******************************************************************************/
 504:.\Generated_Source\PSoC4/ADC.c **** int16 ADC_GetResult16(uint32 chan)
 505:.\Generated_Source\PSoC4/ADC.c **** {
 560              		.loc 1 505 0
 561              		.cfi_startproc
 562              	.LVL38:
 563 0000 10B5     		push	{r4, lr}
 564              		.cfi_def_cfa_offset 8
 565              		.cfi_offset 4, -8
ARM GAS  C:\Users\mlgjmoor\AppData\Local\Temp\cc6ze5Ri.s 			page 20


 566              		.cfi_offset 14, -4
 567 0002 041E     		sub	r4, r0, #0
 506:.\Generated_Source\PSoC4/ADC.c ****     uint32 result;
 507:.\Generated_Source\PSoC4/ADC.c **** 
 508:.\Generated_Source\PSoC4/ADC.c ****     /* Halt CPU in debug mode if channel is out of valid range */
 509:.\Generated_Source\PSoC4/ADC.c ****     CYASSERT(chan < ADC_TOTAL_CHANNELS_NUM);
 568              		.loc 1 509 0
 569 0004 012C     		cmp	r4, #1
 570 0006 02D9     		bls	.L43
 571              		.loc 1 509 0 is_stmt 0 discriminator 1
 572 0008 0020     		mov	r0, #0
 573              	.LVL39:
 574 000a FFF7FEFF 		bl	CyHalt
 575              	.LVL40:
 576              	.L43:
 510:.\Generated_Source\PSoC4/ADC.c **** 
 511:.\Generated_Source\PSoC4/ADC.c ****     if(chan < ADC_SEQUENCED_CHANNELS_NUM)
 577              		.loc 1 511 0 is_stmt 1
 578 000e 002C     		cmp	r4, #0
 579 0010 07D1     		bne	.L44
 512:.\Generated_Source\PSoC4/ADC.c ****     {
 513:.\Generated_Source\PSoC4/ADC.c ****         result = CY_GET_REG32((reg32 *)(ADC_SAR_CHAN_RESULT_IND + (uint32)(chan << 2u))) &
 580              		.loc 1 513 0
 581 0012 A400     		lsl	r4, r4, #2
 582              	.LVL41:
 583 0014 064B     		ldr	r3, .L46
 584 0016 9C46     		mov	ip, r3
 585 0018 6444     		add	r4, r4, ip
 586 001a 2068     		ldr	r0, [r4]
 587 001c 0004     		lsl	r0, r0, #16
 588 001e 000C     		lsr	r0, r0, #16
 589              	.LVL42:
 590 0020 03E0     		b	.L45
 591              	.LVL43:
 592              	.L44:
 514:.\Generated_Source\PSoC4/ADC.c ****                 ADC_RESULT_MASK;
 515:.\Generated_Source\PSoC4/ADC.c ****     }
 516:.\Generated_Source\PSoC4/ADC.c ****     else
 517:.\Generated_Source\PSoC4/ADC.c ****     {
 518:.\Generated_Source\PSoC4/ADC.c ****         #if(ADC_INJ_CHANNEL_ENABLED)
 519:.\Generated_Source\PSoC4/ADC.c ****             result = ADC_SAR_INJ_RESULT_REG & ADC_RESULT_MASK;
 593              		.loc 1 519 0
 594 0022 044B     		ldr	r3, .L46+4
 595 0024 1868     		ldr	r0, [r3]
 596 0026 0004     		lsl	r0, r0, #16
 597 0028 000C     		lsr	r0, r0, #16
 598              	.LVL44:
 599              	.L45:
 520:.\Generated_Source\PSoC4/ADC.c ****         #else
 521:.\Generated_Source\PSoC4/ADC.c ****             result = 0u;
 522:.\Generated_Source\PSoC4/ADC.c ****         #endif /* ADC_INJ_CHANNEL_ENABLED */
 523:.\Generated_Source\PSoC4/ADC.c ****     }
 524:.\Generated_Source\PSoC4/ADC.c **** 
 525:.\Generated_Source\PSoC4/ADC.c ****     return ( (int16)result );
 600              		.loc 1 525 0
 601 002a 00B2     		sxth	r0, r0
 602              	.LVL45:
ARM GAS  C:\Users\mlgjmoor\AppData\Local\Temp\cc6ze5Ri.s 			page 21


 526:.\Generated_Source\PSoC4/ADC.c **** }
 603              		.loc 1 526 0
 604              		@ sp needed
 605 002c 10BD     		pop	{r4, pc}
 606              	.L47:
 607 002e C046     		.align	2
 608              	.L46:
 609 0030 80013A40 		.word	1077543296
 610 0034 90023A40 		.word	1077543568
 611              		.cfi_endproc
 612              	.LFE9:
 613              		.size	ADC_GetResult16, .-ADC_GetResult16
 614              		.section	.text.ADC_SetChanMask,"ax",%progbits
 615              		.align	2
 616              		.global	ADC_SetChanMask
 617              		.code	16
 618              		.thumb_func
 619              		.type	ADC_SetChanMask, %function
 620              	ADC_SetChanMask:
 621              	.LFB10:
 527:.\Generated_Source\PSoC4/ADC.c **** 
 528:.\Generated_Source\PSoC4/ADC.c **** 
 529:.\Generated_Source\PSoC4/ADC.c **** /*******************************************************************************
 530:.\Generated_Source\PSoC4/ADC.c **** * Function Name: ADC_SetChanMask
 531:.\Generated_Source\PSoC4/ADC.c **** ********************************************************************************
 532:.\Generated_Source\PSoC4/ADC.c **** *
 533:.\Generated_Source\PSoC4/ADC.c **** * Summary:
 534:.\Generated_Source\PSoC4/ADC.c **** *  Sets the channel enable mask.
 535:.\Generated_Source\PSoC4/ADC.c **** *
 536:.\Generated_Source\PSoC4/ADC.c **** * Parameters:
 537:.\Generated_Source\PSoC4/ADC.c **** *  mask: Sets which channels that will be
 538:.\Generated_Source\PSoC4/ADC.c **** *  scanned. Setting bits for channels that do not exist will have no
 539:.\Generated_Source\PSoC4/ADC.c **** *  effect. For example, if only 6 channels were enabled, setting a
 540:.\Generated_Source\PSoC4/ADC.c **** *  mask of 0x0103 would only enable the last two channels (0 and 1).
 541:.\Generated_Source\PSoC4/ADC.c **** *  This API will not enable the injection channel.
 542:.\Generated_Source\PSoC4/ADC.c **** *  Examples: If the component is setup to sequence through 8
 543:.\Generated_Source\PSoC4/ADC.c **** *  channels, a mask of 0x000F would enable channels 0, 1, 2, and 3.
 544:.\Generated_Source\PSoC4/ADC.c **** *
 545:.\Generated_Source\PSoC4/ADC.c **** * Return:
 546:.\Generated_Source\PSoC4/ADC.c **** *  None.
 547:.\Generated_Source\PSoC4/ADC.c **** *
 548:.\Generated_Source\PSoC4/ADC.c **** *******************************************************************************/
 549:.\Generated_Source\PSoC4/ADC.c **** void ADC_SetChanMask(uint32 mask)
 550:.\Generated_Source\PSoC4/ADC.c **** {
 622              		.loc 1 550 0
 623              		.cfi_startproc
 624              	.LVL46:
 551:.\Generated_Source\PSoC4/ADC.c ****     ADC_SAR_CHAN_EN_REG = mask & ADC_MAX_CHANNELS_EN_MASK;
 625              		.loc 1 551 0
 626 0000 0123     		mov	r3, #1
 627 0002 1840     		and	r0, r3
 628              	.LVL47:
 629 0004 014B     		ldr	r3, .L49
 630 0006 1860     		str	r0, [r3]
 552:.\Generated_Source\PSoC4/ADC.c **** }
 631              		.loc 1 552 0
 632              		@ sp needed
ARM GAS  C:\Users\mlgjmoor\AppData\Local\Temp\cc6ze5Ri.s 			page 22


 633 0008 7047     		bx	lr
 634              	.L50:
 635 000a C046     		.align	2
 636              	.L49:
 637 000c 20003A40 		.word	1077542944
 638              		.cfi_endproc
 639              	.LFE10:
 640              		.size	ADC_SetChanMask, .-ADC_SetChanMask
 641              		.section	.text.ADC_EnableInjection,"ax",%progbits
 642              		.align	2
 643              		.global	ADC_EnableInjection
 644              		.code	16
 645              		.thumb_func
 646              		.type	ADC_EnableInjection, %function
 647              	ADC_EnableInjection:
 648              	.LFB11:
 553:.\Generated_Source\PSoC4/ADC.c **** 
 554:.\Generated_Source\PSoC4/ADC.c **** #if(ADC_INJ_CHANNEL_ENABLED)
 555:.\Generated_Source\PSoC4/ADC.c **** 
 556:.\Generated_Source\PSoC4/ADC.c **** 
 557:.\Generated_Source\PSoC4/ADC.c ****     /*******************************************************************************
 558:.\Generated_Source\PSoC4/ADC.c ****     * Function Name: ADC_EnableInjection
 559:.\Generated_Source\PSoC4/ADC.c ****     ********************************************************************************
 560:.\Generated_Source\PSoC4/ADC.c ****     *
 561:.\Generated_Source\PSoC4/ADC.c ****     * Summary:
 562:.\Generated_Source\PSoC4/ADC.c ****     *  Enables the injection channel for the next scan only.
 563:.\Generated_Source\PSoC4/ADC.c ****     *
 564:.\Generated_Source\PSoC4/ADC.c ****     * Parameters:
 565:.\Generated_Source\PSoC4/ADC.c ****     *  None.
 566:.\Generated_Source\PSoC4/ADC.c ****     *
 567:.\Generated_Source\PSoC4/ADC.c ****     * Return:
 568:.\Generated_Source\PSoC4/ADC.c ****     *  None.
 569:.\Generated_Source\PSoC4/ADC.c ****     *
 570:.\Generated_Source\PSoC4/ADC.c ****     *******************************************************************************/
 571:.\Generated_Source\PSoC4/ADC.c ****     void ADC_EnableInjection(void)
 572:.\Generated_Source\PSoC4/ADC.c ****     {
 649              		.loc 1 572 0
 650              		.cfi_startproc
 573:.\Generated_Source\PSoC4/ADC.c ****         ADC_SAR_INJ_CHAN_CONFIG_REG |= ADC_INJ_CHAN_EN;
 651              		.loc 1 573 0
 652 0000 034A     		ldr	r2, .L52
 653 0002 1368     		ldr	r3, [r2]
 654 0004 8021     		mov	r1, #128
 655 0006 0906     		lsl	r1, r1, #24
 656 0008 0B43     		orr	r3, r1
 657 000a 1360     		str	r3, [r2]
 574:.\Generated_Source\PSoC4/ADC.c ****     }
 658              		.loc 1 574 0
 659              		@ sp needed
 660 000c 7047     		bx	lr
 661              	.L53:
 662 000e C046     		.align	2
 663              	.L52:
 664 0010 80023A40 		.word	1077543552
 665              		.cfi_endproc
 666              	.LFE11:
 667              		.size	ADC_EnableInjection, .-ADC_EnableInjection
ARM GAS  C:\Users\mlgjmoor\AppData\Local\Temp\cc6ze5Ri.s 			page 23


 668              		.section	.text.ADC_SetLowLimit,"ax",%progbits
 669              		.align	2
 670              		.global	ADC_SetLowLimit
 671              		.code	16
 672              		.thumb_func
 673              		.type	ADC_SetLowLimit, %function
 674              	ADC_SetLowLimit:
 675              	.LFB12:
 575:.\Generated_Source\PSoC4/ADC.c **** 
 576:.\Generated_Source\PSoC4/ADC.c **** #endif /* ADC_INJ_CHANNEL_ENABLED */
 577:.\Generated_Source\PSoC4/ADC.c **** 
 578:.\Generated_Source\PSoC4/ADC.c **** 
 579:.\Generated_Source\PSoC4/ADC.c **** /*******************************************************************************
 580:.\Generated_Source\PSoC4/ADC.c **** * Function Name: ADC_SetLowLimit
 581:.\Generated_Source\PSoC4/ADC.c **** ********************************************************************************
 582:.\Generated_Source\PSoC4/ADC.c **** *
 583:.\Generated_Source\PSoC4/ADC.c **** * Summary:
 584:.\Generated_Source\PSoC4/ADC.c **** *  Sets the low limit parameter for a limit condition.
 585:.\Generated_Source\PSoC4/ADC.c **** *
 586:.\Generated_Source\PSoC4/ADC.c **** * Parameters:
 587:.\Generated_Source\PSoC4/ADC.c **** *  lowLimit: The low limit for a limit condition.
 588:.\Generated_Source\PSoC4/ADC.c **** *
 589:.\Generated_Source\PSoC4/ADC.c **** * Return:
 590:.\Generated_Source\PSoC4/ADC.c **** *  None.
 591:.\Generated_Source\PSoC4/ADC.c **** *
 592:.\Generated_Source\PSoC4/ADC.c **** *******************************************************************************/
 593:.\Generated_Source\PSoC4/ADC.c **** void ADC_SetLowLimit(uint32 lowLimit)
 594:.\Generated_Source\PSoC4/ADC.c **** {
 676              		.loc 1 594 0
 677              		.cfi_startproc
 678              	.LVL48:
 595:.\Generated_Source\PSoC4/ADC.c ****     ADC_SAR_RANGE_THRES_REG &= (uint32)(~ADC_RANGE_LOW_MASK);
 679              		.loc 1 595 0
 680 0000 054A     		ldr	r2, .L55
 681 0002 1368     		ldr	r3, [r2]
 682 0004 1B0C     		lsr	r3, r3, #16
 683 0006 1B04     		lsl	r3, r3, #16
 684 0008 1360     		str	r3, [r2]
 596:.\Generated_Source\PSoC4/ADC.c ****     ADC_SAR_RANGE_THRES_REG |= lowLimit & ADC_RANGE_LOW_MASK;
 685              		.loc 1 596 0
 686 000a 1368     		ldr	r3, [r2]
 687 000c 0004     		lsl	r0, r0, #16
 688              	.LVL49:
 689 000e 000C     		lsr	r0, r0, #16
 690 0010 1843     		orr	r0, r3
 691 0012 1060     		str	r0, [r2]
 597:.\Generated_Source\PSoC4/ADC.c **** }
 692              		.loc 1 597 0
 693              		@ sp needed
 694 0014 7047     		bx	lr
 695              	.L56:
 696 0016 C046     		.align	2
 697              	.L55:
 698 0018 18003A40 		.word	1077542936
 699              		.cfi_endproc
 700              	.LFE12:
 701              		.size	ADC_SetLowLimit, .-ADC_SetLowLimit
ARM GAS  C:\Users\mlgjmoor\AppData\Local\Temp\cc6ze5Ri.s 			page 24


 702              		.section	.text.ADC_SetHighLimit,"ax",%progbits
 703              		.align	2
 704              		.global	ADC_SetHighLimit
 705              		.code	16
 706              		.thumb_func
 707              		.type	ADC_SetHighLimit, %function
 708              	ADC_SetHighLimit:
 709              	.LFB13:
 598:.\Generated_Source\PSoC4/ADC.c **** 
 599:.\Generated_Source\PSoC4/ADC.c **** 
 600:.\Generated_Source\PSoC4/ADC.c **** /*******************************************************************************
 601:.\Generated_Source\PSoC4/ADC.c **** * Function Name: ADC_SetHighLimit
 602:.\Generated_Source\PSoC4/ADC.c **** ********************************************************************************
 603:.\Generated_Source\PSoC4/ADC.c **** *
 604:.\Generated_Source\PSoC4/ADC.c **** * Summary:
 605:.\Generated_Source\PSoC4/ADC.c **** *  Sets the low limit parameter for a limit condition.
 606:.\Generated_Source\PSoC4/ADC.c **** *
 607:.\Generated_Source\PSoC4/ADC.c **** * Parameters:
 608:.\Generated_Source\PSoC4/ADC.c **** *  highLimit: The high limit for a limit condition.
 609:.\Generated_Source\PSoC4/ADC.c **** *
 610:.\Generated_Source\PSoC4/ADC.c **** * Return:
 611:.\Generated_Source\PSoC4/ADC.c **** *  None.
 612:.\Generated_Source\PSoC4/ADC.c **** *
 613:.\Generated_Source\PSoC4/ADC.c **** *******************************************************************************/
 614:.\Generated_Source\PSoC4/ADC.c **** void ADC_SetHighLimit(uint32 highLimit)
 615:.\Generated_Source\PSoC4/ADC.c **** {
 710              		.loc 1 615 0
 711              		.cfi_startproc
 712              	.LVL50:
 616:.\Generated_Source\PSoC4/ADC.c ****     ADC_SAR_RANGE_THRES_REG &= (uint32)(~ADC_RANGE_HIGH_MASK);
 713              		.loc 1 616 0
 714 0000 044A     		ldr	r2, .L58
 715 0002 1368     		ldr	r3, [r2]
 716 0004 1B04     		lsl	r3, r3, #16
 717 0006 1B0C     		lsr	r3, r3, #16
 718 0008 1360     		str	r3, [r2]
 617:.\Generated_Source\PSoC4/ADC.c ****     ADC_SAR_RANGE_THRES_REG |= (uint32)(highLimit << ADC_RANGE_HIGH_OFFSET);
 719              		.loc 1 617 0
 720 000a 1368     		ldr	r3, [r2]
 721 000c 0004     		lsl	r0, r0, #16
 722              	.LVL51:
 723 000e 1843     		orr	r0, r3
 724 0010 1060     		str	r0, [r2]
 618:.\Generated_Source\PSoC4/ADC.c **** }
 725              		.loc 1 618 0
 726              		@ sp needed
 727 0012 7047     		bx	lr
 728              	.L59:
 729              		.align	2
 730              	.L58:
 731 0014 18003A40 		.word	1077542936
 732              		.cfi_endproc
 733              	.LFE13:
 734              		.size	ADC_SetHighLimit, .-ADC_SetHighLimit
 735              		.section	.text.ADC_SetLimitMask,"ax",%progbits
 736              		.align	2
 737              		.global	ADC_SetLimitMask
ARM GAS  C:\Users\mlgjmoor\AppData\Local\Temp\cc6ze5Ri.s 			page 25


 738              		.code	16
 739              		.thumb_func
 740              		.type	ADC_SetLimitMask, %function
 741              	ADC_SetLimitMask:
 742              	.LFB14:
 619:.\Generated_Source\PSoC4/ADC.c **** 
 620:.\Generated_Source\PSoC4/ADC.c **** 
 621:.\Generated_Source\PSoC4/ADC.c **** /*******************************************************************************
 622:.\Generated_Source\PSoC4/ADC.c **** * Function Name: ADC_SetLimitMask
 623:.\Generated_Source\PSoC4/ADC.c **** ********************************************************************************
 624:.\Generated_Source\PSoC4/ADC.c **** *
 625:.\Generated_Source\PSoC4/ADC.c **** * Summary:
 626:.\Generated_Source\PSoC4/ADC.c **** *  Sets the channel limit condition mask.
 627:.\Generated_Source\PSoC4/ADC.c **** *
 628:.\Generated_Source\PSoC4/ADC.c **** * Parameters:
 629:.\Generated_Source\PSoC4/ADC.c **** *  mask: Sets which channels that may cause a
 630:.\Generated_Source\PSoC4/ADC.c **** *  limit condition interrupt. Setting bits for channels that do not exist
 631:.\Generated_Source\PSoC4/ADC.c **** *  will have no effect. For example, if only 6 channels were enabled,
 632:.\Generated_Source\PSoC4/ADC.c **** *  setting a mask of 0x0103 would only enable the last two channels (0 and 1).
 633:.\Generated_Source\PSoC4/ADC.c **** *
 634:.\Generated_Source\PSoC4/ADC.c **** * Return:
 635:.\Generated_Source\PSoC4/ADC.c **** *  None.
 636:.\Generated_Source\PSoC4/ADC.c **** *
 637:.\Generated_Source\PSoC4/ADC.c **** *******************************************************************************/
 638:.\Generated_Source\PSoC4/ADC.c **** void ADC_SetLimitMask(uint32 mask)
 639:.\Generated_Source\PSoC4/ADC.c **** {
 743              		.loc 1 639 0
 744              		.cfi_startproc
 745              	.LVL52:
 640:.\Generated_Source\PSoC4/ADC.c ****     ADC_SAR_RANGE_INTR_MASK_REG = mask & ADC_MAX_CHANNELS_EN_MASK;
 746              		.loc 1 640 0
 747 0000 0123     		mov	r3, #1
 748 0002 1840     		and	r0, r3
 749              	.LVL53:
 750 0004 014B     		ldr	r3, .L61
 751 0006 1860     		str	r0, [r3]
 641:.\Generated_Source\PSoC4/ADC.c **** }
 752              		.loc 1 641 0
 753              		@ sp needed
 754 0008 7047     		bx	lr
 755              	.L62:
 756 000a C046     		.align	2
 757              	.L61:
 758 000c 38023A40 		.word	1077543480
 759              		.cfi_endproc
 760              	.LFE14:
 761              		.size	ADC_SetLimitMask, .-ADC_SetLimitMask
 762              		.section	.text.ADC_SetSatMask,"ax",%progbits
 763              		.align	2
 764              		.global	ADC_SetSatMask
 765              		.code	16
 766              		.thumb_func
 767              		.type	ADC_SetSatMask, %function
 768              	ADC_SetSatMask:
 769              	.LFB15:
 642:.\Generated_Source\PSoC4/ADC.c **** 
 643:.\Generated_Source\PSoC4/ADC.c **** 
ARM GAS  C:\Users\mlgjmoor\AppData\Local\Temp\cc6ze5Ri.s 			page 26


 644:.\Generated_Source\PSoC4/ADC.c **** /*******************************************************************************
 645:.\Generated_Source\PSoC4/ADC.c **** * Function Name: ADC_SetSatMask
 646:.\Generated_Source\PSoC4/ADC.c **** ********************************************************************************
 647:.\Generated_Source\PSoC4/ADC.c **** *
 648:.\Generated_Source\PSoC4/ADC.c **** * Summary:
 649:.\Generated_Source\PSoC4/ADC.c **** *  Sets the channel saturation event mask.
 650:.\Generated_Source\PSoC4/ADC.c **** *
 651:.\Generated_Source\PSoC4/ADC.c **** * Parameters:
 652:.\Generated_Source\PSoC4/ADC.c **** *  mask: Sets which channels that may cause a
 653:.\Generated_Source\PSoC4/ADC.c **** *  saturation event interrupt. Setting bits for channels that do not exist
 654:.\Generated_Source\PSoC4/ADC.c **** *  will have no effect. For example, if only 8 channels were enabled,
 655:.\Generated_Source\PSoC4/ADC.c **** *  setting a mask of 0x01C0 would only enable two channels (6 and 7).
 656:.\Generated_Source\PSoC4/ADC.c **** *
 657:.\Generated_Source\PSoC4/ADC.c **** * Return:
 658:.\Generated_Source\PSoC4/ADC.c **** *  None.
 659:.\Generated_Source\PSoC4/ADC.c **** *
 660:.\Generated_Source\PSoC4/ADC.c **** *******************************************************************************/
 661:.\Generated_Source\PSoC4/ADC.c **** void ADC_SetSatMask(uint32 mask)
 662:.\Generated_Source\PSoC4/ADC.c **** {
 770              		.loc 1 662 0
 771              		.cfi_startproc
 772              	.LVL54:
 663:.\Generated_Source\PSoC4/ADC.c ****     ADC_SAR_SATURATE_INTR_MASK_REG = mask & ADC_MAX_CHANNELS_EN_MASK;
 773              		.loc 1 663 0
 774 0000 0123     		mov	r3, #1
 775 0002 1840     		and	r0, r3
 776              	.LVL55:
 777 0004 014B     		ldr	r3, .L64
 778 0006 1860     		str	r0, [r3]
 664:.\Generated_Source\PSoC4/ADC.c **** }
 779              		.loc 1 664 0
 780              		@ sp needed
 781 0008 7047     		bx	lr
 782              	.L65:
 783 000a C046     		.align	2
 784              	.L64:
 785 000c 28023A40 		.word	1077543464
 786              		.cfi_endproc
 787              	.LFE15:
 788              		.size	ADC_SetSatMask, .-ADC_SetSatMask
 789              		.section	.text.ADC_SetOffset,"ax",%progbits
 790              		.align	2
 791              		.global	ADC_SetOffset
 792              		.code	16
 793              		.thumb_func
 794              		.type	ADC_SetOffset, %function
 795              	ADC_SetOffset:
 796              	.LFB16:
 665:.\Generated_Source\PSoC4/ADC.c **** 
 666:.\Generated_Source\PSoC4/ADC.c **** 
 667:.\Generated_Source\PSoC4/ADC.c **** /*******************************************************************************
 668:.\Generated_Source\PSoC4/ADC.c **** * Function Name: ADC_SetOffset
 669:.\Generated_Source\PSoC4/ADC.c **** ********************************************************************************
 670:.\Generated_Source\PSoC4/ADC.c **** *
 671:.\Generated_Source\PSoC4/ADC.c **** * Summary:
 672:.\Generated_Source\PSoC4/ADC.c **** *   Description: Sets the ADC offset which is used by the functions
 673:.\Generated_Source\PSoC4/ADC.c **** *   ADC_CountsTo_uVolts, ADC_CountsTo_mVolts and ADC_CountsTo_Volts
ARM GAS  C:\Users\mlgjmoor\AppData\Local\Temp\cc6ze5Ri.s 			page 27


 674:.\Generated_Source\PSoC4/ADC.c **** *   to substract the offset from the given reading
 675:.\Generated_Source\PSoC4/ADC.c **** *   before calculating the voltage conversion.
 676:.\Generated_Source\PSoC4/ADC.c **** *
 677:.\Generated_Source\PSoC4/ADC.c **** * Parameters:
 678:.\Generated_Source\PSoC4/ADC.c **** *  chan: ADC channel number.
 679:.\Generated_Source\PSoC4/ADC.c **** *  offset: This value is a measured value when the
 680:.\Generated_Source\PSoC4/ADC.c **** *          inputs are shorted or connected to the same input voltage.
 681:.\Generated_Source\PSoC4/ADC.c **** *
 682:.\Generated_Source\PSoC4/ADC.c **** * Return:
 683:.\Generated_Source\PSoC4/ADC.c **** *  None.
 684:.\Generated_Source\PSoC4/ADC.c **** *
 685:.\Generated_Source\PSoC4/ADC.c **** * Global variables:
 686:.\Generated_Source\PSoC4/ADC.c **** *  ADC_Offset:  Modified to set the user provided offset.
 687:.\Generated_Source\PSoC4/ADC.c **** *
 688:.\Generated_Source\PSoC4/ADC.c **** *******************************************************************************/
 689:.\Generated_Source\PSoC4/ADC.c **** void ADC_SetOffset(uint32 chan, int16 offset)
 690:.\Generated_Source\PSoC4/ADC.c **** {
 797              		.loc 1 690 0
 798              		.cfi_startproc
 799              	.LVL56:
 800 0000 38B5     		push	{r3, r4, r5, lr}
 801              		.cfi_def_cfa_offset 16
 802              		.cfi_offset 3, -16
 803              		.cfi_offset 4, -12
 804              		.cfi_offset 5, -8
 805              		.cfi_offset 14, -4
 806 0002 041C     		mov	r4, r0
 807 0004 0D1C     		mov	r5, r1
 691:.\Generated_Source\PSoC4/ADC.c ****     /* Halt CPU in debug mode if channel is out of valid range */
 692:.\Generated_Source\PSoC4/ADC.c ****     CYASSERT(chan < ADC_TOTAL_CHANNELS_NUM);
 808              		.loc 1 692 0
 809 0006 0128     		cmp	r0, #1
 810 0008 02D9     		bls	.L67
 811              		.loc 1 692 0 is_stmt 0 discriminator 1
 812 000a 0020     		mov	r0, #0
 813              	.LVL57:
 814 000c FFF7FEFF 		bl	CyHalt
 815              	.LVL58:
 816              	.L67:
 693:.\Generated_Source\PSoC4/ADC.c **** 
 694:.\Generated_Source\PSoC4/ADC.c ****     ADC_offset[chan] = offset;
 817              		.loc 1 694 0 is_stmt 1
 818 0010 6400     		lsl	r4, r4, #1
 819              	.LVL59:
 820 0012 014B     		ldr	r3, .L68
 821 0014 E552     		strh	r5, [r4, r3]
 695:.\Generated_Source\PSoC4/ADC.c **** }
 822              		.loc 1 695 0
 823              		@ sp needed
 824 0016 38BD     		pop	{r3, r4, r5, pc}
 825              	.L69:
 826              		.align	2
 827              	.L68:
 828 0018 00000000 		.word	ADC_offset
 829              		.cfi_endproc
 830              	.LFE16:
 831              		.size	ADC_SetOffset, .-ADC_SetOffset
ARM GAS  C:\Users\mlgjmoor\AppData\Local\Temp\cc6ze5Ri.s 			page 28


 832              		.section	.text.ADC_SetGain,"ax",%progbits
 833              		.align	2
 834              		.global	ADC_SetGain
 835              		.code	16
 836              		.thumb_func
 837              		.type	ADC_SetGain, %function
 838              	ADC_SetGain:
 839              	.LFB17:
 696:.\Generated_Source\PSoC4/ADC.c **** 
 697:.\Generated_Source\PSoC4/ADC.c **** 
 698:.\Generated_Source\PSoC4/ADC.c **** /*******************************************************************************
 699:.\Generated_Source\PSoC4/ADC.c **** * Function Name: ADC_SetGain
 700:.\Generated_Source\PSoC4/ADC.c **** ********************************************************************************
 701:.\Generated_Source\PSoC4/ADC.c **** *
 702:.\Generated_Source\PSoC4/ADC.c **** * Summary:
 703:.\Generated_Source\PSoC4/ADC.c **** *  Description: Sets the ADC gain in counts per 10 volt for the voltage
 704:.\Generated_Source\PSoC4/ADC.c **** *  conversion functions below. This value is set by default by the
 705:.\Generated_Source\PSoC4/ADC.c **** *  reference and input range settings. It should only be used to further
 706:.\Generated_Source\PSoC4/ADC.c **** *  calibrate the ADC with a known input or if an external reference is
 707:.\Generated_Source\PSoC4/ADC.c **** *  used. Affects the ADC_CountsTo_uVolts, ADC_CountsTo_mVolts
 708:.\Generated_Source\PSoC4/ADC.c **** *  and ADC_CountsTo_Volts functions by supplying the correct
 709:.\Generated_Source\PSoC4/ADC.c **** *  conversion between ADC counts and voltage.
 710:.\Generated_Source\PSoC4/ADC.c **** *
 711:.\Generated_Source\PSoC4/ADC.c **** * Parameters:
 712:.\Generated_Source\PSoC4/ADC.c **** *  chan: ADC channel number.
 713:.\Generated_Source\PSoC4/ADC.c **** *  adcGain: ADC gain in counts per 10 volts.
 714:.\Generated_Source\PSoC4/ADC.c **** *
 715:.\Generated_Source\PSoC4/ADC.c **** * Return:
 716:.\Generated_Source\PSoC4/ADC.c **** *  None.
 717:.\Generated_Source\PSoC4/ADC.c **** *
 718:.\Generated_Source\PSoC4/ADC.c **** * Global variables:
 719:.\Generated_Source\PSoC4/ADC.c **** *  ADC_CountsPer10Volt:  modified to set the ADC gain in counts
 720:.\Generated_Source\PSoC4/ADC.c **** *   per 10 volt.
 721:.\Generated_Source\PSoC4/ADC.c **** *
 722:.\Generated_Source\PSoC4/ADC.c **** *******************************************************************************/
 723:.\Generated_Source\PSoC4/ADC.c **** void ADC_SetGain(uint32 chan, int32 adcGain)
 724:.\Generated_Source\PSoC4/ADC.c **** {
 840              		.loc 1 724 0
 841              		.cfi_startproc
 842              	.LVL60:
 843 0000 38B5     		push	{r3, r4, r5, lr}
 844              		.cfi_def_cfa_offset 16
 845              		.cfi_offset 3, -16
 846              		.cfi_offset 4, -12
 847              		.cfi_offset 5, -8
 848              		.cfi_offset 14, -4
 849 0002 041C     		mov	r4, r0
 850 0004 0D1C     		mov	r5, r1
 725:.\Generated_Source\PSoC4/ADC.c ****     /* Halt CPU in debug mode if channel is out of valid range */
 726:.\Generated_Source\PSoC4/ADC.c ****     CYASSERT(chan < ADC_TOTAL_CHANNELS_NUM);
 851              		.loc 1 726 0
 852 0006 0128     		cmp	r0, #1
 853 0008 02D9     		bls	.L71
 854              		.loc 1 726 0 is_stmt 0 discriminator 1
 855 000a 0020     		mov	r0, #0
 856              	.LVL61:
 857 000c FFF7FEFF 		bl	CyHalt
ARM GAS  C:\Users\mlgjmoor\AppData\Local\Temp\cc6ze5Ri.s 			page 29


 858              	.LVL62:
 859              	.L71:
 727:.\Generated_Source\PSoC4/ADC.c **** 
 728:.\Generated_Source\PSoC4/ADC.c ****     ADC_countsPer10Volt[chan] = adcGain;
 860              		.loc 1 728 0 is_stmt 1
 861 0010 A400     		lsl	r4, r4, #2
 862              	.LVL63:
 863 0012 014B     		ldr	r3, .L72
 864 0014 E550     		str	r5, [r4, r3]
 729:.\Generated_Source\PSoC4/ADC.c **** }
 865              		.loc 1 729 0
 866              		@ sp needed
 867              	.LVL64:
 868 0016 38BD     		pop	{r3, r4, r5, pc}
 869              	.L73:
 870              		.align	2
 871              	.L72:
 872 0018 00000000 		.word	ADC_countsPer10Volt
 873              		.cfi_endproc
 874              	.LFE17:
 875              		.size	ADC_SetGain, .-ADC_SetGain
 876              		.section	.text.ADC_CountsTo_mVolts,"ax",%progbits
 877              		.align	2
 878              		.global	ADC_CountsTo_mVolts
 879              		.code	16
 880              		.thumb_func
 881              		.type	ADC_CountsTo_mVolts, %function
 882              	ADC_CountsTo_mVolts:
 883              	.LFB18:
 730:.\Generated_Source\PSoC4/ADC.c **** 
 731:.\Generated_Source\PSoC4/ADC.c **** 
 732:.\Generated_Source\PSoC4/ADC.c **** #if(ADC_DEFAULT_JUSTIFICATION_SEL == ADC__RIGHT)
 733:.\Generated_Source\PSoC4/ADC.c **** 
 734:.\Generated_Source\PSoC4/ADC.c **** 
 735:.\Generated_Source\PSoC4/ADC.c ****     /*******************************************************************************
 736:.\Generated_Source\PSoC4/ADC.c ****     * Function Name: ADC_CountsTo_mVolts
 737:.\Generated_Source\PSoC4/ADC.c ****     ********************************************************************************
 738:.\Generated_Source\PSoC4/ADC.c ****     *
 739:.\Generated_Source\PSoC4/ADC.c ****     * Summary:
 740:.\Generated_Source\PSoC4/ADC.c ****     *  This function converts ADC counts to mVolts
 741:.\Generated_Source\PSoC4/ADC.c ****     *  This function is not available when left data format justification selected.
 742:.\Generated_Source\PSoC4/ADC.c ****     *
 743:.\Generated_Source\PSoC4/ADC.c ****     * Parameters:
 744:.\Generated_Source\PSoC4/ADC.c ****     *  chan: The ADC channel number.
 745:.\Generated_Source\PSoC4/ADC.c ****     *  adcCounts: Result from the ADC conversion
 746:.\Generated_Source\PSoC4/ADC.c ****     *
 747:.\Generated_Source\PSoC4/ADC.c ****     * Return:
 748:.\Generated_Source\PSoC4/ADC.c ****     *  Results in mVolts
 749:.\Generated_Source\PSoC4/ADC.c ****     *
 750:.\Generated_Source\PSoC4/ADC.c ****     * Global variables:
 751:.\Generated_Source\PSoC4/ADC.c ****     *  ADC_countsPer10Volt:  used to convert ADC counts to mVolts.
 752:.\Generated_Source\PSoC4/ADC.c ****     *  ADC_Offset:  Used as the offset while converting ADC counts
 753:.\Generated_Source\PSoC4/ADC.c ****     *   to mVolts.
 754:.\Generated_Source\PSoC4/ADC.c ****     *
 755:.\Generated_Source\PSoC4/ADC.c ****     *******************************************************************************/
 756:.\Generated_Source\PSoC4/ADC.c ****     int16 ADC_CountsTo_mVolts(uint32 chan, int16 adcCounts)
 757:.\Generated_Source\PSoC4/ADC.c ****     {
ARM GAS  C:\Users\mlgjmoor\AppData\Local\Temp\cc6ze5Ri.s 			page 30


 884              		.loc 1 757 0
 885              		.cfi_startproc
 886              	.LVL65:
 887 0000 38B5     		push	{r3, r4, r5, lr}
 888              		.cfi_def_cfa_offset 16
 889              		.cfi_offset 3, -16
 890              		.cfi_offset 4, -12
 891              		.cfi_offset 5, -8
 892              		.cfi_offset 14, -4
 893 0002 041C     		mov	r4, r0
 894 0004 0D1C     		mov	r5, r1
 758:.\Generated_Source\PSoC4/ADC.c ****         int16 mVolts;
 759:.\Generated_Source\PSoC4/ADC.c **** 
 760:.\Generated_Source\PSoC4/ADC.c ****         /* Halt CPU in debug mode if channel is out of valid range */
 761:.\Generated_Source\PSoC4/ADC.c ****         CYASSERT(chan < ADC_TOTAL_CHANNELS_NUM);
 895              		.loc 1 761 0
 896 0006 0128     		cmp	r0, #1
 897 0008 02D9     		bls	.L75
 898              		.loc 1 761 0 is_stmt 0 discriminator 1
 899 000a 0020     		mov	r0, #0
 900              	.LVL66:
 901 000c FFF7FEFF 		bl	CyHalt
 902              	.LVL67:
 903              	.L75:
 762:.\Generated_Source\PSoC4/ADC.c **** 
 763:.\Generated_Source\PSoC4/ADC.c ****         /* Divide the adcCount when accumulate averaging mode selected */
 764:.\Generated_Source\PSoC4/ADC.c ****         #if(ADC_DEFAULT_AVG_MODE == ADC__ACCUMULATE)
 765:.\Generated_Source\PSoC4/ADC.c ****             if((ADC_channelsConfig[chan] & ADC_AVERAGING_EN) != 0u)
 766:.\Generated_Source\PSoC4/ADC.c ****             {
 767:.\Generated_Source\PSoC4/ADC.c ****                 adcCounts /= ADC_DEFAULT_AVG_SAMPLES_DIV;
 768:.\Generated_Source\PSoC4/ADC.c ****             }
 769:.\Generated_Source\PSoC4/ADC.c ****         #endif /* ADC_DEFAULT_AVG_MODE == ADC__ACCUMULATE */
 770:.\Generated_Source\PSoC4/ADC.c **** 
 771:.\Generated_Source\PSoC4/ADC.c ****         /* Subtract ADC offset */
 772:.\Generated_Source\PSoC4/ADC.c ****         adcCounts -= ADC_offset[chan];
 904              		.loc 1 772 0 is_stmt 1
 905 0010 6300     		lsl	r3, r4, #1
 906 0012 0F4A     		ldr	r2, .L78
 907 0014 995A     		ldrh	r1, [r3, r2]
 908 0016 691A     		sub	r1, r5, r1
 909 0018 09B2     		sxth	r1, r1
 910              	.LVL68:
 773:.\Generated_Source\PSoC4/ADC.c **** 
 774:.\Generated_Source\PSoC4/ADC.c ****         mVolts = (int16)((((int32)adcCounts * ADC_10MV_COUNTS) + ( (adcCounts > 0) ?
 911              		.loc 1 774 0
 912 001a 0E48     		ldr	r0, .L78+4
 913 001c 021C     		mov	r2, r0
 914 001e 4A43     		mul	r2, r1
 775:.\Generated_Source\PSoC4/ADC.c ****                  (ADC_countsPer10Volt[chan] / 2) : (-(ADC_countsPer10Volt[chan] / 2)) ))
 915              		.loc 1 775 0
 916 0020 0029     		cmp	r1, #0
 917 0022 06DD     		ble	.L76
 918              		.loc 1 775 0 is_stmt 0 discriminator 1
 919 0024 A300     		lsl	r3, r4, #2
 920 0026 0C49     		ldr	r1, .L78+8
 921              	.LVL69:
 922 0028 5B58     		ldr	r3, [r3, r1]
ARM GAS  C:\Users\mlgjmoor\AppData\Local\Temp\cc6ze5Ri.s 			page 31


 923 002a D80F     		lsr	r0, r3, #31
 924 002c C018     		add	r0, r0, r3
 925 002e 4310     		asr	r3, r0, #1
 926 0030 06E0     		b	.L77
 927              	.LVL70:
 928              	.L76:
 929              		.loc 1 775 0 discriminator 2
 930 0032 A300     		lsl	r3, r4, #2
 931 0034 0849     		ldr	r1, .L78+8
 932              	.LVL71:
 933 0036 5B58     		ldr	r3, [r3, r1]
 934 0038 D80F     		lsr	r0, r3, #31
 935 003a C318     		add	r3, r0, r3
 936 003c 5B10     		asr	r3, r3, #1
 937 003e 5B42     		neg	r3, r3
 938              	.L77:
 774:.\Generated_Source\PSoC4/ADC.c ****                  (ADC_countsPer10Volt[chan] / 2) : (-(ADC_countsPer10Volt[chan] / 2)) ))
 939              		.loc 1 774 0 is_stmt 1
 940 0040 D018     		add	r0, r2, r3
 776:.\Generated_Source\PSoC4/ADC.c ****                  / ADC_countsPer10Volt[chan]);
 941              		.loc 1 776 0
 942 0042 A400     		lsl	r4, r4, #2
 943              	.LVL72:
 944 0044 044B     		ldr	r3, .L78+8
 945 0046 E158     		ldr	r1, [r4, r3]
 946 0048 FFF7FEFF 		bl	__aeabi_idiv
 947              	.LVL73:
 777:.\Generated_Source\PSoC4/ADC.c **** 
 778:.\Generated_Source\PSoC4/ADC.c ****         return( mVolts );
 948              		.loc 1 778 0
 949 004c 00B2     		sxth	r0, r0
 779:.\Generated_Source\PSoC4/ADC.c ****     }
 950              		.loc 1 779 0
 951              		@ sp needed
 952 004e 38BD     		pop	{r3, r4, r5, pc}
 953              	.L79:
 954              		.align	2
 955              	.L78:
 956 0050 00000000 		.word	ADC_offset
 957 0054 10270000 		.word	10000
 958 0058 00000000 		.word	ADC_countsPer10Volt
 959              		.cfi_endproc
 960              	.LFE18:
 961              		.size	ADC_CountsTo_mVolts, .-ADC_CountsTo_mVolts
 962              		.global	__aeabi_lmul
 963              		.global	__aeabi_ldivmod
 964              		.section	.text.ADC_CountsTo_uVolts,"ax",%progbits
 965              		.align	2
 966              		.global	ADC_CountsTo_uVolts
 967              		.code	16
 968              		.thumb_func
 969              		.type	ADC_CountsTo_uVolts, %function
 970              	ADC_CountsTo_uVolts:
 971              	.LFB19:
 780:.\Generated_Source\PSoC4/ADC.c **** 
 781:.\Generated_Source\PSoC4/ADC.c **** 
 782:.\Generated_Source\PSoC4/ADC.c ****     /*******************************************************************************
ARM GAS  C:\Users\mlgjmoor\AppData\Local\Temp\cc6ze5Ri.s 			page 32


 783:.\Generated_Source\PSoC4/ADC.c ****     * Function Name: ADC_CountsTo_uVolts
 784:.\Generated_Source\PSoC4/ADC.c ****     ********************************************************************************
 785:.\Generated_Source\PSoC4/ADC.c ****     *
 786:.\Generated_Source\PSoC4/ADC.c ****     * Summary:
 787:.\Generated_Source\PSoC4/ADC.c ****     *  This function converts ADC counts to micro Volts
 788:.\Generated_Source\PSoC4/ADC.c ****     *  This function is not available when left data format justification selected.
 789:.\Generated_Source\PSoC4/ADC.c ****     *
 790:.\Generated_Source\PSoC4/ADC.c ****     * Parameters:
 791:.\Generated_Source\PSoC4/ADC.c ****     *  chan: The ADC channel number.
 792:.\Generated_Source\PSoC4/ADC.c ****     *  adcCounts: Result from the ADC conversion
 793:.\Generated_Source\PSoC4/ADC.c ****     *
 794:.\Generated_Source\PSoC4/ADC.c ****     * Return:
 795:.\Generated_Source\PSoC4/ADC.c ****     *  Results in uVolts
 796:.\Generated_Source\PSoC4/ADC.c ****     *
 797:.\Generated_Source\PSoC4/ADC.c ****     * Global variables:
 798:.\Generated_Source\PSoC4/ADC.c ****     *  ADC_countsPer10Volt:  used to convert ADC counts to uVolts.
 799:.\Generated_Source\PSoC4/ADC.c ****     *  ADC_Offset:  Used as the offset while converting ADC counts
 800:.\Generated_Source\PSoC4/ADC.c ****     *   to mVolts.
 801:.\Generated_Source\PSoC4/ADC.c ****     *
 802:.\Generated_Source\PSoC4/ADC.c ****     * Theory:
 803:.\Generated_Source\PSoC4/ADC.c ****     *  Care must be taken to not exceed the maximum value for a 31 bit signed
 804:.\Generated_Source\PSoC4/ADC.c ****     *  number in the conversion to uVolts and at the same time not loose
 805:.\Generated_Source\PSoC4/ADC.c ****     *  resolution.
 806:.\Generated_Source\PSoC4/ADC.c ****     *  To convert adcCounts to microVolts it is required to be multiplied
 807:.\Generated_Source\PSoC4/ADC.c ****     *  on 10 million and later divide on gain in counts per 10V.
 808:.\Generated_Source\PSoC4/ADC.c ****     *
 809:.\Generated_Source\PSoC4/ADC.c ****     *******************************************************************************/
 810:.\Generated_Source\PSoC4/ADC.c ****     int32 ADC_CountsTo_uVolts(uint32 chan, int16 adcCounts)
 811:.\Generated_Source\PSoC4/ADC.c ****     {
 972              		.loc 1 811 0
 973              		.cfi_startproc
 974              	.LVL74:
 975 0000 38B5     		push	{r3, r4, r5, lr}
 976              		.cfi_def_cfa_offset 16
 977              		.cfi_offset 3, -16
 978              		.cfi_offset 4, -12
 979              		.cfi_offset 5, -8
 980              		.cfi_offset 14, -4
 981 0002 051C     		mov	r5, r0
 982 0004 0C1C     		mov	r4, r1
 812:.\Generated_Source\PSoC4/ADC.c ****         int64 uVolts;
 813:.\Generated_Source\PSoC4/ADC.c **** 
 814:.\Generated_Source\PSoC4/ADC.c ****         /* Halt CPU in debug mode if channel is out of valid range */
 815:.\Generated_Source\PSoC4/ADC.c ****         CYASSERT(chan < ADC_TOTAL_CHANNELS_NUM);
 983              		.loc 1 815 0
 984 0006 0128     		cmp	r0, #1
 985 0008 02D9     		bls	.L81
 986              		.loc 1 815 0 is_stmt 0 discriminator 1
 987 000a 0020     		mov	r0, #0
 988              	.LVL75:
 989 000c FFF7FEFF 		bl	CyHalt
 990              	.LVL76:
 991              	.L81:
 816:.\Generated_Source\PSoC4/ADC.c **** 
 817:.\Generated_Source\PSoC4/ADC.c ****         /* Divide the adcCount when accumulate averaging mode selected */
 818:.\Generated_Source\PSoC4/ADC.c ****         #if(ADC_DEFAULT_AVG_MODE == ADC__ACCUMULATE)
 819:.\Generated_Source\PSoC4/ADC.c ****             if((ADC_channelsConfig[chan] & ADC_AVERAGING_EN) != 0u)
ARM GAS  C:\Users\mlgjmoor\AppData\Local\Temp\cc6ze5Ri.s 			page 33


 820:.\Generated_Source\PSoC4/ADC.c ****             {
 821:.\Generated_Source\PSoC4/ADC.c ****                 adcCounts /= ADC_DEFAULT_AVG_SAMPLES_DIV;
 822:.\Generated_Source\PSoC4/ADC.c ****             }
 823:.\Generated_Source\PSoC4/ADC.c ****         #endif /* ADC_DEFAULT_AVG_MODE == ADC__ACCUMULATE */
 824:.\Generated_Source\PSoC4/ADC.c **** 
 825:.\Generated_Source\PSoC4/ADC.c ****         /* Subtract ADC offset */
 826:.\Generated_Source\PSoC4/ADC.c ****         adcCounts -= ADC_offset[chan];
 992              		.loc 1 826 0 is_stmt 1
 993 0010 6A00     		lsl	r2, r5, #1
 994 0012 084B     		ldr	r3, .L82
 995 0014 D05A     		ldrh	r0, [r2, r3]
 996 0016 201A     		sub	r0, r4, r0
 997 0018 00B2     		sxth	r0, r0
 998              	.LVL77:
 827:.\Generated_Source\PSoC4/ADC.c **** 
 828:.\Generated_Source\PSoC4/ADC.c ****         uVolts = ((int64)adcCounts * ADC_10UV_COUNTS) / ADC_countsPer10Volt[chan];
 999              		.loc 1 828 0
 1000 001a C117     		asr	r1, r0, #31
 1001 001c 064A     		ldr	r2, .L82+4
 1002 001e 0023     		mov	r3, #0
 1003 0020 FFF7FEFF 		bl	__aeabi_lmul
 1004              	.LVL78:
 1005 0024 AD00     		lsl	r5, r5, #2
 1006              	.LVL79:
 1007 0026 054B     		ldr	r3, .L82+8
 1008 0028 EA58     		ldr	r2, [r5, r3]
 1009 002a D317     		asr	r3, r2, #31
 1010 002c FFF7FEFF 		bl	__aeabi_ldivmod
 1011              	.LVL80:
 829:.\Generated_Source\PSoC4/ADC.c **** 
 830:.\Generated_Source\PSoC4/ADC.c ****         return( (int32)uVolts );
 831:.\Generated_Source\PSoC4/ADC.c ****     }
 1012              		.loc 1 831 0
 1013              		@ sp needed
 1014 0030 38BD     		pop	{r3, r4, r5, pc}
 1015              	.L83:
 1016 0032 C046     		.align	2
 1017              	.L82:
 1018 0034 00000000 		.word	ADC_offset
 1019 0038 80969800 		.word	10000000
 1020 003c 00000000 		.word	ADC_countsPer10Volt
 1021              		.cfi_endproc
 1022              	.LFE19:
 1023              		.size	ADC_CountsTo_uVolts, .-ADC_CountsTo_uVolts
 1024              		.global	__aeabi_i2f
 1025              		.global	__aeabi_fmul
 1026              		.global	__aeabi_fdiv
 1027              		.section	.text.ADC_CountsTo_Volts,"ax",%progbits
 1028              		.align	2
 1029              		.global	ADC_CountsTo_Volts
 1030              		.code	16
 1031              		.thumb_func
 1032              		.type	ADC_CountsTo_Volts, %function
 1033              	ADC_CountsTo_Volts:
 1034              	.LFB20:
 832:.\Generated_Source\PSoC4/ADC.c **** 
 833:.\Generated_Source\PSoC4/ADC.c **** 
ARM GAS  C:\Users\mlgjmoor\AppData\Local\Temp\cc6ze5Ri.s 			page 34


 834:.\Generated_Source\PSoC4/ADC.c ****     /*******************************************************************************
 835:.\Generated_Source\PSoC4/ADC.c ****     * Function Name: ADC_CountsTo_Volts
 836:.\Generated_Source\PSoC4/ADC.c ****     ********************************************************************************
 837:.\Generated_Source\PSoC4/ADC.c ****     *
 838:.\Generated_Source\PSoC4/ADC.c ****     * Summary:
 839:.\Generated_Source\PSoC4/ADC.c ****     *  Converts the ADC output to Volts as a floating point number.
 840:.\Generated_Source\PSoC4/ADC.c ****     *  This function is not available when left data format justification selected.
 841:.\Generated_Source\PSoC4/ADC.c ****     *
 842:.\Generated_Source\PSoC4/ADC.c ****     * Parameters:
 843:.\Generated_Source\PSoC4/ADC.c ****     *  chan: The ADC channel number.
 844:.\Generated_Source\PSoC4/ADC.c ****     *  Result from the ADC conversion
 845:.\Generated_Source\PSoC4/ADC.c ****     *
 846:.\Generated_Source\PSoC4/ADC.c ****     * Return:
 847:.\Generated_Source\PSoC4/ADC.c ****     *  Results in Volts
 848:.\Generated_Source\PSoC4/ADC.c ****     *
 849:.\Generated_Source\PSoC4/ADC.c ****     * Global variables:
 850:.\Generated_Source\PSoC4/ADC.c ****     *  ADC_countsPer10Volt:  used to convert ADC counts to Volts.
 851:.\Generated_Source\PSoC4/ADC.c ****     *  ADC_Offset:  Used as the offset while converting ADC counts
 852:.\Generated_Source\PSoC4/ADC.c ****     *   to mVolts.
 853:.\Generated_Source\PSoC4/ADC.c ****     *
 854:.\Generated_Source\PSoC4/ADC.c ****     *******************************************************************************/
 855:.\Generated_Source\PSoC4/ADC.c ****     float32 ADC_CountsTo_Volts(uint32 chan, int16 adcCounts)
 856:.\Generated_Source\PSoC4/ADC.c ****     {
 1035              		.loc 1 856 0
 1036              		.cfi_startproc
 1037              	.LVL81:
 1038 0000 38B5     		push	{r3, r4, r5, lr}
 1039              		.cfi_def_cfa_offset 16
 1040              		.cfi_offset 3, -16
 1041              		.cfi_offset 4, -12
 1042              		.cfi_offset 5, -8
 1043              		.cfi_offset 14, -4
 1044 0002 041C     		mov	r4, r0
 1045 0004 0D1C     		mov	r5, r1
 857:.\Generated_Source\PSoC4/ADC.c ****         float32 volts;
 858:.\Generated_Source\PSoC4/ADC.c **** 
 859:.\Generated_Source\PSoC4/ADC.c ****         /* Halt CPU in debug mode if channel is out of valid range */
 860:.\Generated_Source\PSoC4/ADC.c ****         CYASSERT(chan < ADC_TOTAL_CHANNELS_NUM);
 1046              		.loc 1 860 0
 1047 0006 0128     		cmp	r0, #1
 1048 0008 02D9     		bls	.L85
 1049              		.loc 1 860 0 is_stmt 0 discriminator 1
 1050 000a 0020     		mov	r0, #0
 1051              	.LVL82:
 1052 000c FFF7FEFF 		bl	CyHalt
 1053              	.LVL83:
 1054              	.L85:
 861:.\Generated_Source\PSoC4/ADC.c **** 
 862:.\Generated_Source\PSoC4/ADC.c ****         /* Divide the adcCount when accumulate averaging mode selected */
 863:.\Generated_Source\PSoC4/ADC.c ****         #if(ADC_DEFAULT_AVG_MODE == ADC__ACCUMULATE)
 864:.\Generated_Source\PSoC4/ADC.c ****             if((ADC_channelsConfig[chan] & ADC_AVERAGING_EN) != 0u)
 865:.\Generated_Source\PSoC4/ADC.c ****             {
 866:.\Generated_Source\PSoC4/ADC.c ****                 adcCounts /= ADC_DEFAULT_AVG_SAMPLES_DIV;
 867:.\Generated_Source\PSoC4/ADC.c ****             }
 868:.\Generated_Source\PSoC4/ADC.c ****         #endif /* ADC_DEFAULT_AVG_MODE == ADC__ACCUMULATE */
 869:.\Generated_Source\PSoC4/ADC.c **** 
 870:.\Generated_Source\PSoC4/ADC.c ****         /* Subtract ADC offset */
ARM GAS  C:\Users\mlgjmoor\AppData\Local\Temp\cc6ze5Ri.s 			page 35


 871:.\Generated_Source\PSoC4/ADC.c ****         adcCounts -= ADC_offset[chan];
 1055              		.loc 1 871 0 is_stmt 1
 1056 0010 6200     		lsl	r2, r4, #1
 1057 0012 0A4B     		ldr	r3, .L86
 1058 0014 D05A     		ldrh	r0, [r2, r3]
 1059 0016 281A     		sub	r0, r5, r0
 1060 0018 00B2     		sxth	r0, r0
 1061              	.LVL84:
 872:.\Generated_Source\PSoC4/ADC.c **** 
 873:.\Generated_Source\PSoC4/ADC.c ****         volts = ((float32)adcCounts * ADC_10V_COUNTS) / (float32)ADC_countsPer10Volt[chan];
 1062              		.loc 1 873 0
 1063 001a FFF7FEFF 		bl	__aeabi_i2f
 1064              	.LVL85:
 1065 001e 0849     		ldr	r1, .L86+4
 1066 0020 FFF7FEFF 		bl	__aeabi_fmul
 1067              	.LVL86:
 1068 0024 051C     		add	r5, r0, #0
 1069 0026 A400     		lsl	r4, r4, #2
 1070              	.LVL87:
 1071 0028 064B     		ldr	r3, .L86+8
 1072 002a E058     		ldr	r0, [r4, r3]
 1073 002c FFF7FEFF 		bl	__aeabi_i2f
 1074              	.LVL88:
 1075 0030 011C     		add	r1, r0, #0
 1076 0032 281C     		add	r0, r5, #0
 1077 0034 FFF7FEFF 		bl	__aeabi_fdiv
 1078              	.LVL89:
 874:.\Generated_Source\PSoC4/ADC.c **** 
 875:.\Generated_Source\PSoC4/ADC.c ****         return( volts );
 876:.\Generated_Source\PSoC4/ADC.c ****     }
 1079              		.loc 1 876 0
 1080              		@ sp needed
 1081 0038 38BD     		pop	{r3, r4, r5, pc}
 1082              	.L87:
 1083 003a C046     		.align	2
 1084              	.L86:
 1085 003c 00000000 		.word	ADC_offset
 1086 0040 00002041 		.word	1092616192
 1087 0044 00000000 		.word	ADC_countsPer10Volt
 1088              		.cfi_endproc
 1089              	.LFE20:
 1090              		.size	ADC_CountsTo_Volts, .-ADC_CountsTo_Volts
 1091              		.comm	ADC_countsPer10Volt,8,4
 1092              		.comm	ADC_offset,4,4
 1093              		.global	ADC_initVar
 1094              		.section	.rodata
 1095              		.align	2
 1096              		.set	.LANCHOR0,. + 0
 1097              		.type	ADC_channelsConfig, %object
 1098              		.size	ADC_channelsConfig, 8
 1099              	ADC_channelsConfig:
 1100 0000 00040000 		.word	1024
 1101 0004 00040000 		.word	1024
 1102              		.type	ADC_InputsPlacement.4795, %object
 1103              		.size	ADC_InputsPlacement.4795, 2
 1104              	ADC_InputsPlacement.4795:
 1105 0008 07       		.byte	7
ARM GAS  C:\Users\mlgjmoor\AppData\Local\Temp\cc6ze5Ri.s 			page 36


 1106 0009 70       		.byte	112
 1107 000a 0000     		.bss
 1108              		.set	.LANCHOR1,. + 0
 1109              		.type	ADC_initVar, %object
 1110              		.size	ADC_initVar, 1
 1111              	ADC_initVar:
 1112 0000 00       		.space	1
 1113              		.text
 1114              	.Letext0:
 1115              		.file 2 ".\\Generated_Source\\PSoC4\\cytypes.h"
 1116              		.file 3 ".\\Generated_Source\\PSoC4\\CyLib.h"