ARM GAS  C:\Users\mlgjmoor\AppData\Local\Temp\ccKDuCjD.s 			page 1


   1              		.cpu cortex-m0
   2              		.fpu softvfp
   3              		.eabi_attribute 20, 1
   4              		.eabi_attribute 21, 1
   5              		.eabi_attribute 23, 3
   6              		.eabi_attribute 24, 1
   7              		.eabi_attribute 25, 1
   8              		.eabi_attribute 26, 1
   9              		.eabi_attribute 30, 1
  10              		.eabi_attribute 34, 0
  11              		.eabi_attribute 18, 4
  12              		.code	16
  13              		.file	"BLE.c"
  14              		.text
  15              	.Ltext0:
  16              		.cfi_sections	.debug_frame
  17              		.section	.text.CyBle_ChangeAdLocalName,"ax",%progbits
  18              		.align	2
  19              		.code	16
  20              		.thumb_func
  21              		.type	CyBle_ChangeAdLocalName, %function
  22              	CyBle_ChangeAdLocalName:
  23              	.LFB11:
  24              		.file 1 ".\\Generated_Source\\PSoC4\\BLE.c"
   1:.\Generated_Source\PSoC4/BLE.c **** /***************************************************************************//**
   2:.\Generated_Source\PSoC4/BLE.c **** * \file CYBLE.c
   3:.\Generated_Source\PSoC4/BLE.c **** * \version 3.10
   4:.\Generated_Source\PSoC4/BLE.c **** * 
   5:.\Generated_Source\PSoC4/BLE.c **** * \brief
   6:.\Generated_Source\PSoC4/BLE.c **** *  This file contains the source code for the Common APIs of the BLE Component.
   7:.\Generated_Source\PSoC4/BLE.c **** * 
   8:.\Generated_Source\PSoC4/BLE.c **** ********************************************************************************
   9:.\Generated_Source\PSoC4/BLE.c **** * \copyright
  10:.\Generated_Source\PSoC4/BLE.c **** * Copyright 2014-2016, Cypress Semiconductor Corporation.  All rights reserved.
  11:.\Generated_Source\PSoC4/BLE.c **** * You may use this file only in accordance with the license, terms, conditions,
  12:.\Generated_Source\PSoC4/BLE.c **** * disclaimers, and limitations in the end user license agreement accompanying
  13:.\Generated_Source\PSoC4/BLE.c **** * the software package with which this file was provided.
  14:.\Generated_Source\PSoC4/BLE.c **** *******************************************************************************/
  15:.\Generated_Source\PSoC4/BLE.c **** 
  16:.\Generated_Source\PSoC4/BLE.c **** #include "BLE_eventHandler.h"
  17:.\Generated_Source\PSoC4/BLE.c **** #include "BLE_HAL_PVT.h"
  18:.\Generated_Source\PSoC4/BLE.c **** #include <stdlib.h>
  19:.\Generated_Source\PSoC4/BLE.c **** 
  20:.\Generated_Source\PSoC4/BLE.c **** 
  21:.\Generated_Source\PSoC4/BLE.c **** /***************************************
  22:.\Generated_Source\PSoC4/BLE.c **** * Function Prototypes
  23:.\Generated_Source\PSoC4/BLE.c **** ***************************************/
  24:.\Generated_Source\PSoC4/BLE.c **** 
  25:.\Generated_Source\PSoC4/BLE.c **** #if(CYBLE_GATT_ROLE_SERVER)
  26:.\Generated_Source\PSoC4/BLE.c ****     #if(CYBLE_GAP_ROLE_PERIPHERAL)
  27:.\Generated_Source\PSoC4/BLE.c ****         static void CyBle_ChangeAdLocalName(const char8 name[], uint8 dest);
  28:.\Generated_Source\PSoC4/BLE.c ****     #endif /* (CYBLE_GAP_ROLE_PERIPHERAL) */
  29:.\Generated_Source\PSoC4/BLE.c **** #endif /* (CYBLE_GATT_ROLE_SERVER) */
  30:.\Generated_Source\PSoC4/BLE.c ****     
  31:.\Generated_Source\PSoC4/BLE.c **** 
  32:.\Generated_Source\PSoC4/BLE.c **** /***************************************
  33:.\Generated_Source\PSoC4/BLE.c **** * Global Variables
ARM GAS  C:\Users\mlgjmoor\AppData\Local\Temp\ccKDuCjD.s 			page 2


  34:.\Generated_Source\PSoC4/BLE.c **** ***************************************/
  35:.\Generated_Source\PSoC4/BLE.c **** 
  36:.\Generated_Source\PSoC4/BLE.c **** /* Indicates whether the BLE has been initialized. The variable is initialized to
  37:.\Generated_Source\PSoC4/BLE.c ****    0 and set to 1 the first time CyBle_Start() is called. This allows the component
  38:.\Generated_Source\PSoC4/BLE.c ****    to restart without reinitialization after the first call to the CyBle_Start() 
  39:.\Generated_Source\PSoC4/BLE.c ****    routine. If reinitialization of the component is required, the variable should 
  40:.\Generated_Source\PSoC4/BLE.c ****    be set to 0 before the CyBle_Start() routine is called. Alternatively, the BLE
  41:.\Generated_Source\PSoC4/BLE.c ****    can be reinitialized by calling the CyBle_Init() function.
  42:.\Generated_Source\PSoC4/BLE.c **** */
  43:.\Generated_Source\PSoC4/BLE.c **** uint8  cyBle_initVar = 0u;
  44:.\Generated_Source\PSoC4/BLE.c **** 
  45:.\Generated_Source\PSoC4/BLE.c **** /* Allocate RAM memory for stack. This buffer could be reused by application when 
  46:.\Generated_Source\PSoC4/BLE.c ****    BLE component is stopped. For export mode buffer is allocated in heap.
  47:.\Generated_Source\PSoC4/BLE.c **** */
  48:.\Generated_Source\PSoC4/BLE.c **** #if(CYBLE_SHARING_MODE_EXPORT)
  49:.\Generated_Source\PSoC4/BLE.c ****     
  50:.\Generated_Source\PSoC4/BLE.c **** uint8 *cyBle_stackMemoryRam = NULL;
  51:.\Generated_Source\PSoC4/BLE.c **** 
  52:.\Generated_Source\PSoC4/BLE.c **** #else
  53:.\Generated_Source\PSoC4/BLE.c **** 
  54:.\Generated_Source\PSoC4/BLE.c **** CYBLE_CYALIGNED_BEGIN CY_NOINIT uint8 cyBle_stackMemoryRam[CYBLE_STACK_RAM_SIZE] CYBLE_CYALIGNED_EN
  55:.\Generated_Source\PSoC4/BLE.c **** 
  56:.\Generated_Source\PSoC4/BLE.c **** #endif  /* CYBLE_SHARING_MODE_EXPORT */
  57:.\Generated_Source\PSoC4/BLE.c **** 
  58:.\Generated_Source\PSoC4/BLE.c **** #if(CYBLE_GAP_ROLE_PERIPHERAL || CYBLE_GAP_ROLE_BROADCASTER)
  59:.\Generated_Source\PSoC4/BLE.c **** 
  60:.\Generated_Source\PSoC4/BLE.c **** CYBLE_GAPP_DISC_PARAM_T cyBle_discoveryParam =
  61:.\Generated_Source\PSoC4/BLE.c **** {
  62:.\Generated_Source\PSoC4/BLE.c ****     0x0020u,    /* uint16 advertising_interval_min */
  63:.\Generated_Source\PSoC4/BLE.c ****     0x0030u,    /* uint16 advertising_interval_max */
  64:.\Generated_Source\PSoC4/BLE.c ****     CYBLE_GAPP_CONNECTABLE_UNDIRECTED_ADV, /* uint8 advertising_type */
  65:.\Generated_Source\PSoC4/BLE.c ****     0x00u,      /* uint8 own_addr_type */
  66:.\Generated_Source\PSoC4/BLE.c ****     0x00u,      /* uint8 direct_addr_type */
  67:.\Generated_Source\PSoC4/BLE.c ****     {0x00u, 0x00u, 0x00u, 0x50u, 0xA0u, 0x00u}, /* uint8* direct_addr */
  68:.\Generated_Source\PSoC4/BLE.c ****     0x07u,      /* uint8 advertising_channel_map */
  69:.\Generated_Source\PSoC4/BLE.c ****     0x00u,      /* uint8 advertising_filter_policy */
  70:.\Generated_Source\PSoC4/BLE.c **** };
  71:.\Generated_Source\PSoC4/BLE.c **** 
  72:.\Generated_Source\PSoC4/BLE.c **** CYBLE_GAPP_DISC_DATA_T cyBle_discoveryData =
  73:.\Generated_Source\PSoC4/BLE.c **** {
  74:.\Generated_Source\PSoC4/BLE.c ****     { 0x02u, 0x01u, 0x06u, 0x08u, 0x09u, 0x4Eu, 0x6Fu,
  75:.\Generated_Source\PSoC4/BLE.c ****     0x64u, 0x75u, 0x73u, 0x20u, 0x43u, 0x11u, 0x07u, 0xFBu,
  76:.\Generated_Source\PSoC4/BLE.c ****     0x34u, 0x9Bu, 0x5Fu, 0x80u, 0x00u, 0x00u, 0x80u, 0x00u,
  77:.\Generated_Source\PSoC4/BLE.c ****     0x10u, 0x00u, 0x00u, 0x00u, 0x00u, 0x00u, 0x00u, 0x00u }, /* uint8 advertising_data[CYBLE_MAX_A
  78:.\Generated_Source\PSoC4/BLE.c ****     0x1Eu,      /* uint8 adv_data_length */
  79:.\Generated_Source\PSoC4/BLE.c **** };
  80:.\Generated_Source\PSoC4/BLE.c **** 
  81:.\Generated_Source\PSoC4/BLE.c **** CYBLE_GAPP_SCAN_RSP_DATA_T cyBle_scanRspData =
  82:.\Generated_Source\PSoC4/BLE.c **** {
  83:.\Generated_Source\PSoC4/BLE.c ****     { 0x00u, 0x00u, 0x00u, 0x00u, 0x00u, 0x00u, 0x00u,
  84:.\Generated_Source\PSoC4/BLE.c ****     0x00u, 0x00u, 0x00u, 0x00u, 0x00u, 0x00u, 0x00u, 0x00u,
  85:.\Generated_Source\PSoC4/BLE.c ****     0x00u, 0x00u, 0x00u, 0x00u, 0x00u, 0x00u, 0x00u, 0x00u,
  86:.\Generated_Source\PSoC4/BLE.c ****     0x00u, 0x00u, 0x00u, 0x00u, 0x00u, 0x00u, 0x00u, 0x00u }, /* uint8 scan_rsp_data[CYBLE_MAX_SCAN
  87:.\Generated_Source\PSoC4/BLE.c ****     0x00u,      /* uint8 scan_rsp_data_length */
  88:.\Generated_Source\PSoC4/BLE.c **** };
  89:.\Generated_Source\PSoC4/BLE.c **** 
  90:.\Generated_Source\PSoC4/BLE.c **** /* This variable of type CYBLE_GAPP_DISC_MODE_INFO_T is present only when 
ARM GAS  C:\Users\mlgjmoor\AppData\Local\Temp\ccKDuCjD.s 			page 3


  91:.\Generated_Source\PSoC4/BLE.c ****    the BLE component is configured for Peripheral GAP role or Central and 
  92:.\Generated_Source\PSoC4/BLE.c ****    Peripheral GAP role. It contains the Advertisement settings and also the 
  93:.\Generated_Source\PSoC4/BLE.c ****    Advertisement and Scan response data parameters entered in the customizer.
  94:.\Generated_Source\PSoC4/BLE.c ****    This variable can be used by advanced users to change Advertisement settings,
  95:.\Generated_Source\PSoC4/BLE.c ****    Advertisement or Scan response data in runtime. 
  96:.\Generated_Source\PSoC4/BLE.c **** */
  97:.\Generated_Source\PSoC4/BLE.c **** CYBLE_GAPP_DISC_MODE_INFO_T cyBle_discoveryModeInfo =
  98:.\Generated_Source\PSoC4/BLE.c **** {
  99:.\Generated_Source\PSoC4/BLE.c ****     0x02u,      /* uint8 discMode */
 100:.\Generated_Source\PSoC4/BLE.c ****     &cyBle_discoveryParam,
 101:.\Generated_Source\PSoC4/BLE.c ****     &cyBle_discoveryData,
 102:.\Generated_Source\PSoC4/BLE.c ****     &cyBle_scanRspData,
 103:.\Generated_Source\PSoC4/BLE.c ****     0x001Eu,    /* uint16 advTo */
 104:.\Generated_Source\PSoC4/BLE.c **** };
 105:.\Generated_Source\PSoC4/BLE.c **** 
 106:.\Generated_Source\PSoC4/BLE.c **** 
 107:.\Generated_Source\PSoC4/BLE.c **** #endif /* CYBLE_GAP_ROLE_PERIPHERAL || CYBLE_GAP_ROLE_BROADCASTER */
 108:.\Generated_Source\PSoC4/BLE.c **** 
 109:.\Generated_Source\PSoC4/BLE.c **** #if(CYBLE_GAP_ROLE_CENTRAL)
 110:.\Generated_Source\PSoC4/BLE.c ****     
 111:.\Generated_Source\PSoC4/BLE.c **** CYBLE_GAPC_CONN_PARAM_T cyBle_connectionParameters;
 112:.\Generated_Source\PSoC4/BLE.c **** 
 113:.\Generated_Source\PSoC4/BLE.c **** /* Connecting timeout is set to 30 seconds in CyBle_Init function. 
 114:.\Generated_Source\PSoC4/BLE.c ****    Not zero value starts timer in CyBle_GapcConnectDevice API.
 115:.\Generated_Source\PSoC4/BLE.c **** */
 116:.\Generated_Source\PSoC4/BLE.c **** uint16 cyBle_connectingTimeout;
 117:.\Generated_Source\PSoC4/BLE.c ****     
 118:.\Generated_Source\PSoC4/BLE.c **** #endif /* CYBLE_GAP_ROLE_CENTRAL */
 119:.\Generated_Source\PSoC4/BLE.c **** 
 120:.\Generated_Source\PSoC4/BLE.c **** #if(CYBLE_GAP_ROLE_CENTRAL || CYBLE_GAP_ROLE_OBSERVER)
 121:.\Generated_Source\PSoC4/BLE.c ****     
 122:.\Generated_Source\PSoC4/BLE.c **** 
 123:.\Generated_Source\PSoC4/BLE.c ****     
 124:.\Generated_Source\PSoC4/BLE.c **** #endif /* CYBLE_GAP_ROLE_CENTRAL || CYBLE_GAP_ROLE_OBSERVER */
 125:.\Generated_Source\PSoC4/BLE.c **** 
 126:.\Generated_Source\PSoC4/BLE.c **** #if((CYBLE_GAP_ROLE_PERIPHERAL || CYBLE_GAP_ROLE_CENTRAL) && (CYBLE_BONDING_REQUIREMENT == CYBLE_BO
 127:.\Generated_Source\PSoC4/BLE.c **** 
 128:.\Generated_Source\PSoC4/BLE.c **** uint8 cyBle_peerBonding;
 129:.\Generated_Source\PSoC4/BLE.c **** uint8 cyBle_pendingFlashWrite;
 130:.\Generated_Source\PSoC4/BLE.c ****     
 131:.\Generated_Source\PSoC4/BLE.c **** #if(CYBLE_GATT_DB_CCCD_COUNT != 0u)
 132:.\Generated_Source\PSoC4/BLE.c ****     static uint8 cyBle_pendingFlashClearCccdHandle;
 133:.\Generated_Source\PSoC4/BLE.c **** #endif /* CYBLE_GATT_DB_CCCD_COUNT != 0u */
 134:.\Generated_Source\PSoC4/BLE.c ****     
 135:.\Generated_Source\PSoC4/BLE.c **** #endif  /* (CYBLE_BONDING_REQUIREMENT == CYBLE_BONDING_YES) */
 136:.\Generated_Source\PSoC4/BLE.c **** 
 137:.\Generated_Source\PSoC4/BLE.c **** CYBLE_CALLBACK_T CyBle_ApplCallback;
 138:.\Generated_Source\PSoC4/BLE.c **** CYBLE_GAP_BD_ADDR_T cyBle_deviceAddress = {{0x00u, 0x00u, 0x00u, 0x50u, 0xA0u, 0x00u}, 0x00u };
 139:.\Generated_Source\PSoC4/BLE.c **** CYBLE_GAP_BD_ADDR_T * cyBle_sflashDeviceAddress = CYBLE_SFLASH_DEVICE_ADDRESS_PTR;
 140:.\Generated_Source\PSoC4/BLE.c **** 
 141:.\Generated_Source\PSoC4/BLE.c **** 
 142:.\Generated_Source\PSoC4/BLE.c **** /******************************************************************************
 143:.\Generated_Source\PSoC4/BLE.c **** * Function Name: CyBle_Init
 144:.\Generated_Source\PSoC4/BLE.c **** ***************************************************************************//**
 145:.\Generated_Source\PSoC4/BLE.c **** *
 146:.\Generated_Source\PSoC4/BLE.c **** *   Initializes the component with the parameters set in the customizer.
 147:.\Generated_Source\PSoC4/BLE.c **** * 
ARM GAS  C:\Users\mlgjmoor\AppData\Local\Temp\ccKDuCjD.s 			page 4


 148:.\Generated_Source\PSoC4/BLE.c **** *  \return
 149:.\Generated_Source\PSoC4/BLE.c **** *   None
 150:.\Generated_Source\PSoC4/BLE.c **** * 
 151:.\Generated_Source\PSoC4/BLE.c **** ******************************************************************************/
 152:.\Generated_Source\PSoC4/BLE.c **** void CyBle_Init(void)
 153:.\Generated_Source\PSoC4/BLE.c **** {
 154:.\Generated_Source\PSoC4/BLE.c ****     cyBle_eventHandlerFlag = 0u;
 155:.\Generated_Source\PSoC4/BLE.c ****     cyBle_busyStatus = CYBLE_STACK_STATE_FREE;
 156:.\Generated_Source\PSoC4/BLE.c **** 
 157:.\Generated_Source\PSoC4/BLE.c ****     #if(CYBLE_GAP_ROLE_PERIPHERAL || CYBLE_GAP_ROLE_BROADCASTER) 
 158:.\Generated_Source\PSoC4/BLE.c ****         cyBle_advertisingIntervalType = CYBLE_ADVERTISING_FAST; 
 159:.\Generated_Source\PSoC4/BLE.c ****     #endif /* (CYBLE_GAP_ROLE_PERIPHERAL || CYBLE_GAP_ROLE_BROADCASTER)  */
 160:.\Generated_Source\PSoC4/BLE.c ****     #if(CYBLE_GAP_ROLE_CENTRAL || CYBLE_GAP_ROLE_OBSERVER)
 161:.\Generated_Source\PSoC4/BLE.c ****         cyBle_scanningIntervalType = CYBLE_SCANNING_FAST; 
 162:.\Generated_Source\PSoC4/BLE.c ****     #endif /* (CYBLE_GAP_ROLE_CENTRAL || CYBLE_GAP_ROLE_OBSERVER) */
 163:.\Generated_Source\PSoC4/BLE.c ****         
 164:.\Generated_Source\PSoC4/BLE.c ****     /* Init default connection parameters. 
 165:.\Generated_Source\PSoC4/BLE.c ****        Application may change it before initiating a connection */
 166:.\Generated_Source\PSoC4/BLE.c ****     #if(CYBLE_GAP_ROLE_CENTRAL)
 167:.\Generated_Source\PSoC4/BLE.c ****         cyBle_connectionParameters.scanIntv = cyBle_discoveryInfo.scanIntv;
 168:.\Generated_Source\PSoC4/BLE.c ****         cyBle_connectionParameters.scanWindow = cyBle_discoveryInfo.scanWindow;
 169:.\Generated_Source\PSoC4/BLE.c ****         cyBle_connectionParameters.ownAddrType = cyBle_discoveryInfo.ownAddrType;
 170:.\Generated_Source\PSoC4/BLE.c ****         cyBle_connectionParameters.initiatorFilterPolicy = cyBle_discoveryInfo.scanFilterPolicy;
 171:.\Generated_Source\PSoC4/BLE.c ****         cyBle_connectionParameters.connIntvMin = CYBLE_GAPC_CONNECTION_INTERVAL_MIN;
 172:.\Generated_Source\PSoC4/BLE.c ****         cyBle_connectionParameters.connIntvMax = CYBLE_GAPC_CONNECTION_INTERVAL_MAX;
 173:.\Generated_Source\PSoC4/BLE.c ****         cyBle_connectionParameters.connLatency = CYBLE_GAPC_CONNECTION_SLAVE_LATENCY;
 174:.\Generated_Source\PSoC4/BLE.c ****         cyBle_connectionParameters.supervisionTO = CYBLE_GAPC_CONNECTION_TIME_OUT;
 175:.\Generated_Source\PSoC4/BLE.c ****         cyBle_connectionParameters.minCeLength = 0x0000u;
 176:.\Generated_Source\PSoC4/BLE.c ****         cyBle_connectionParameters.maxCeLength = 0xFFFFu;
 177:.\Generated_Source\PSoC4/BLE.c ****         
 178:.\Generated_Source\PSoC4/BLE.c ****         cyBle_connectingTimeout = CYBLE_GAPC_CONNECTING_TIMEOUT;
 179:.\Generated_Source\PSoC4/BLE.c ****     #endif /* CYBLE_GAP_ROLE_CENTRAL */
 180:.\Generated_Source\PSoC4/BLE.c **** 
 181:.\Generated_Source\PSoC4/BLE.c ****     CyBle_ServiceInit();
 182:.\Generated_Source\PSoC4/BLE.c **** 
 183:.\Generated_Source\PSoC4/BLE.c ****     #if((CYBLE_GAP_ROLE_PERIPHERAL || CYBLE_GAP_ROLE_CENTRAL) && (CYBLE_BONDING_REQUIREMENT == CYBL
 184:.\Generated_Source\PSoC4/BLE.c ****         cyBle_pendingFlashWrite = 0u;
 185:.\Generated_Source\PSoC4/BLE.c ****         cyBle_peerBonding = CYBLE_GAP_BONDING_NONE;
 186:.\Generated_Source\PSoC4/BLE.c ****     #endif  /* (CYBLE_BONDING_REQUIREMENT == CYBLE_BONDING_YES) */
 187:.\Generated_Source\PSoC4/BLE.c **** 
 188:.\Generated_Source\PSoC4/BLE.c **** }
 189:.\Generated_Source\PSoC4/BLE.c **** 
 190:.\Generated_Source\PSoC4/BLE.c **** 
 191:.\Generated_Source\PSoC4/BLE.c **** /******************************************************************************
 192:.\Generated_Source\PSoC4/BLE.c **** * Function Name: CyBle_ServiceInit
 193:.\Generated_Source\PSoC4/BLE.c **** ***************************************************************************//**
 194:.\Generated_Source\PSoC4/BLE.c **** * 
 195:.\Generated_Source\PSoC4/BLE.c **** *  Initializes all included services.
 196:.\Generated_Source\PSoC4/BLE.c **** * 
 197:.\Generated_Source\PSoC4/BLE.c **** * \return
 198:.\Generated_Source\PSoC4/BLE.c **** *  None
 199:.\Generated_Source\PSoC4/BLE.c **** * 
 200:.\Generated_Source\PSoC4/BLE.c **** ******************************************************************************/
 201:.\Generated_Source\PSoC4/BLE.c **** void CyBle_ServiceInit(void)
 202:.\Generated_Source\PSoC4/BLE.c **** {
 203:.\Generated_Source\PSoC4/BLE.c ****     #if(CYBLE_GATT_ROLE_CLIENT)
 204:.\Generated_Source\PSoC4/BLE.c ****         /* Check service range before clearing to support partial discovery */
ARM GAS  C:\Users\mlgjmoor\AppData\Local\Temp\ccKDuCjD.s 			page 5


 205:.\Generated_Source\PSoC4/BLE.c ****         if(cyBle_serverInfo[CYBLE_SRVI_GAP].range.startHandle == CYBLE_GATT_INVALID_ATTR_HANDLE_VAL
 206:.\Generated_Source\PSoC4/BLE.c ****         {
 207:.\Generated_Source\PSoC4/BLE.c ****             (void)memset(&cyBle_gapc, 0, sizeof(cyBle_gapc));
 208:.\Generated_Source\PSoC4/BLE.c ****         }
 209:.\Generated_Source\PSoC4/BLE.c ****         if(cyBle_serverInfo[CYBLE_SRVI_GATT].range.startHandle == CYBLE_GATT_INVALID_ATTR_HANDLE_VA
 210:.\Generated_Source\PSoC4/BLE.c ****         {
 211:.\Generated_Source\PSoC4/BLE.c ****             (void)memset(&cyBle_gattc, 0, sizeof(cyBle_gattc));
 212:.\Generated_Source\PSoC4/BLE.c ****         }
 213:.\Generated_Source\PSoC4/BLE.c ****     #endif /* CYBLE_GATT_ROLE_CLIENT */
 214:.\Generated_Source\PSoC4/BLE.c ****     
 215:.\Generated_Source\PSoC4/BLE.c **** 	#ifdef CYBLE_ANCS
 216:.\Generated_Source\PSoC4/BLE.c ****         CyBle_AncsInit();
 217:.\Generated_Source\PSoC4/BLE.c ****     #endif /* CYBLE_ANCS */
 218:.\Generated_Source\PSoC4/BLE.c **** 	
 219:.\Generated_Source\PSoC4/BLE.c ****     #ifdef CYBLE_ANS
 220:.\Generated_Source\PSoC4/BLE.c ****         CyBle_AnsInit();
 221:.\Generated_Source\PSoC4/BLE.c ****     #endif /* CYBLE_ANS */
 222:.\Generated_Source\PSoC4/BLE.c ****     
 223:.\Generated_Source\PSoC4/BLE.c ****     #ifdef CYBLE_BAS
 224:.\Generated_Source\PSoC4/BLE.c ****         CyBle_BasInit();
 225:.\Generated_Source\PSoC4/BLE.c ****     #endif /* CYBLE_BAS */
 226:.\Generated_Source\PSoC4/BLE.c ****     
 227:.\Generated_Source\PSoC4/BLE.c ****     #ifdef CYBLE_BCS
 228:.\Generated_Source\PSoC4/BLE.c ****         CyBle_BcsInit();
 229:.\Generated_Source\PSoC4/BLE.c ****     #endif /* CYBLE_BCS */
 230:.\Generated_Source\PSoC4/BLE.c **** 
 231:.\Generated_Source\PSoC4/BLE.c ****     #ifdef CYBLE_BLS
 232:.\Generated_Source\PSoC4/BLE.c ****         CyBle_BlsInit();
 233:.\Generated_Source\PSoC4/BLE.c ****     #endif /* CYBLE_BLS */
 234:.\Generated_Source\PSoC4/BLE.c ****     
 235:.\Generated_Source\PSoC4/BLE.c ****     #ifdef CYBLE_BMS
 236:.\Generated_Source\PSoC4/BLE.c ****         CyBle_BmsInit();
 237:.\Generated_Source\PSoC4/BLE.c ****     #endif /* CYBLE_BMS */
 238:.\Generated_Source\PSoC4/BLE.c ****     
 239:.\Generated_Source\PSoC4/BLE.c ****     #ifdef CYBLE_CGMS
 240:.\Generated_Source\PSoC4/BLE.c ****         CyBle_CgmsInit();
 241:.\Generated_Source\PSoC4/BLE.c ****     #endif /* CYBLE_CGMS */
 242:.\Generated_Source\PSoC4/BLE.c **** 
 243:.\Generated_Source\PSoC4/BLE.c ****     #ifdef CYBLE_CPS
 244:.\Generated_Source\PSoC4/BLE.c ****         CyBle_CpsInit();
 245:.\Generated_Source\PSoC4/BLE.c ****     #endif /* CYBLE_CPS */
 246:.\Generated_Source\PSoC4/BLE.c **** 
 247:.\Generated_Source\PSoC4/BLE.c ****     #ifdef CYBLE_CSCS
 248:.\Generated_Source\PSoC4/BLE.c ****         CyBle_CscsInit();
 249:.\Generated_Source\PSoC4/BLE.c ****     #endif /* CYBLE_CSCS */
 250:.\Generated_Source\PSoC4/BLE.c ****     
 251:.\Generated_Source\PSoC4/BLE.c ****     #ifdef CYBLE_CTS
 252:.\Generated_Source\PSoC4/BLE.c ****         CyBle_CtsInit();
 253:.\Generated_Source\PSoC4/BLE.c ****     #endif /* CYBLE_CTS */
 254:.\Generated_Source\PSoC4/BLE.c **** 
 255:.\Generated_Source\PSoC4/BLE.c ****     #ifdef CYBLE_CUSTOM
 256:.\Generated_Source\PSoC4/BLE.c ****         CyBle_CustomInit();
 257:.\Generated_Source\PSoC4/BLE.c ****     #endif /* CYBLE_CUSTOM */
 258:.\Generated_Source\PSoC4/BLE.c **** 
 259:.\Generated_Source\PSoC4/BLE.c ****     #ifdef CYBLE_DIS
 260:.\Generated_Source\PSoC4/BLE.c ****         CyBle_DisInit();
 261:.\Generated_Source\PSoC4/BLE.c ****     #endif /* CYBLE_DIS */
ARM GAS  C:\Users\mlgjmoor\AppData\Local\Temp\ccKDuCjD.s 			page 6


 262:.\Generated_Source\PSoC4/BLE.c **** 
 263:.\Generated_Source\PSoC4/BLE.c ****     #ifdef CYBLE_ESS
 264:.\Generated_Source\PSoC4/BLE.c ****         CyBle_EssInit();
 265:.\Generated_Source\PSoC4/BLE.c ****     #endif /* CYBLE_ESS */
 266:.\Generated_Source\PSoC4/BLE.c ****     
 267:.\Generated_Source\PSoC4/BLE.c ****     #ifdef CYBLE_GLS
 268:.\Generated_Source\PSoC4/BLE.c ****         CyBle_GlsInit();
 269:.\Generated_Source\PSoC4/BLE.c ****     #endif /* CYBLE_GLS */
 270:.\Generated_Source\PSoC4/BLE.c ****     
 271:.\Generated_Source\PSoC4/BLE.c ****     #ifdef CYBLE_HIDS
 272:.\Generated_Source\PSoC4/BLE.c ****         CyBle_HidsInit();
 273:.\Generated_Source\PSoC4/BLE.c ****     #endif /* CYBLE_HIDS */
 274:.\Generated_Source\PSoC4/BLE.c **** 
 275:.\Generated_Source\PSoC4/BLE.c ****     #ifdef CYBLE_HPS
 276:.\Generated_Source\PSoC4/BLE.c ****         CyBle_HpsInit();
 277:.\Generated_Source\PSoC4/BLE.c ****     #endif /* CYBLE_HPS */
 278:.\Generated_Source\PSoC4/BLE.c **** 
 279:.\Generated_Source\PSoC4/BLE.c ****     #ifdef CYBLE_HRS
 280:.\Generated_Source\PSoC4/BLE.c ****         CyBle_HrsInit();
 281:.\Generated_Source\PSoC4/BLE.c ****     #endif /* CYBLE_HRS */
 282:.\Generated_Source\PSoC4/BLE.c ****     
 283:.\Generated_Source\PSoC4/BLE.c ****     #ifdef CYBLE_HTS
 284:.\Generated_Source\PSoC4/BLE.c ****         CyBle_HtsInit();
 285:.\Generated_Source\PSoC4/BLE.c ****     #endif /* CYBLE_RSCS */
 286:.\Generated_Source\PSoC4/BLE.c **** 
 287:.\Generated_Source\PSoC4/BLE.c ****     #ifdef CYBLE_IAS
 288:.\Generated_Source\PSoC4/BLE.c ****         CyBle_IasInit();
 289:.\Generated_Source\PSoC4/BLE.c ****     #endif /* CYBLE_IAS */
 290:.\Generated_Source\PSoC4/BLE.c **** 
 291:.\Generated_Source\PSoC4/BLE.c ****     #ifdef CYBLE_IPS
 292:.\Generated_Source\PSoC4/BLE.c ****         CyBle_IpsInit();
 293:.\Generated_Source\PSoC4/BLE.c ****     #endif /* CYBLE_IPS */
 294:.\Generated_Source\PSoC4/BLE.c ****     
 295:.\Generated_Source\PSoC4/BLE.c ****     #ifdef CYBLE_LLS
 296:.\Generated_Source\PSoC4/BLE.c ****         CyBle_LlsInit();
 297:.\Generated_Source\PSoC4/BLE.c ****     #endif /* CYBLE_LLS */
 298:.\Generated_Source\PSoC4/BLE.c **** 
 299:.\Generated_Source\PSoC4/BLE.c ****     #ifdef CYBLE_LNS
 300:.\Generated_Source\PSoC4/BLE.c ****         CyBle_LnsInit();
 301:.\Generated_Source\PSoC4/BLE.c ****     #endif /* CYBLE_LNS */
 302:.\Generated_Source\PSoC4/BLE.c ****     
 303:.\Generated_Source\PSoC4/BLE.c ****     #ifdef CYBLE_NDCS
 304:.\Generated_Source\PSoC4/BLE.c ****         CyBle_NdcsInit();
 305:.\Generated_Source\PSoC4/BLE.c ****     #endif /* CYBLE_NDCS */
 306:.\Generated_Source\PSoC4/BLE.c ****     
 307:.\Generated_Source\PSoC4/BLE.c ****     #ifdef CYBLE_PASS
 308:.\Generated_Source\PSoC4/BLE.c ****         CyBle_PassInit();
 309:.\Generated_Source\PSoC4/BLE.c ****     #endif /* CYBLE_PASS */
 310:.\Generated_Source\PSoC4/BLE.c ****     
 311:.\Generated_Source\PSoC4/BLE.c ****     #ifdef CYBLE_RSCS
 312:.\Generated_Source\PSoC4/BLE.c ****         CyBle_RscsInit();
 313:.\Generated_Source\PSoC4/BLE.c ****     #endif /* CYBLE_RSCS */
 314:.\Generated_Source\PSoC4/BLE.c **** 
 315:.\Generated_Source\PSoC4/BLE.c ****     #ifdef CYBLE_RTUS
 316:.\Generated_Source\PSoC4/BLE.c ****         CyBle_RtusInit();
 317:.\Generated_Source\PSoC4/BLE.c ****     #endif /* CYBLE_RTUS */
 318:.\Generated_Source\PSoC4/BLE.c **** 
ARM GAS  C:\Users\mlgjmoor\AppData\Local\Temp\ccKDuCjD.s 			page 7


 319:.\Generated_Source\PSoC4/BLE.c ****     #ifdef CYBLE_SCPS
 320:.\Generated_Source\PSoC4/BLE.c ****         CyBle_ScpsInit();
 321:.\Generated_Source\PSoC4/BLE.c ****     #endif /* CYBLE_SCPS */
 322:.\Generated_Source\PSoC4/BLE.c ****     
 323:.\Generated_Source\PSoC4/BLE.c ****     #ifdef CYBLE_TPS
 324:.\Generated_Source\PSoC4/BLE.c ****         CyBle_TpsInit();
 325:.\Generated_Source\PSoC4/BLE.c ****     #endif /* CYBLE_TPS */
 326:.\Generated_Source\PSoC4/BLE.c ****     
 327:.\Generated_Source\PSoC4/BLE.c ****     #ifdef CYBLE_UDS
 328:.\Generated_Source\PSoC4/BLE.c ****         CyBle_UdsInit();
 329:.\Generated_Source\PSoC4/BLE.c ****     #endif /* CYBLE_UDS */
 330:.\Generated_Source\PSoC4/BLE.c **** 
 331:.\Generated_Source\PSoC4/BLE.c ****     #ifdef CYBLE_WPTS
 332:.\Generated_Source\PSoC4/BLE.c ****         CyBle_WptsInit();
 333:.\Generated_Source\PSoC4/BLE.c ****     #endif /* CYBLE_WPTS */
 334:.\Generated_Source\PSoC4/BLE.c **** 
 335:.\Generated_Source\PSoC4/BLE.c ****     #ifdef CYBLE_WSS
 336:.\Generated_Source\PSoC4/BLE.c ****         CyBle_WssInit();
 337:.\Generated_Source\PSoC4/BLE.c ****     #endif /* CYBLE_WSS */
 338:.\Generated_Source\PSoC4/BLE.c **** }
 339:.\Generated_Source\PSoC4/BLE.c **** 
 340:.\Generated_Source\PSoC4/BLE.c **** 
 341:.\Generated_Source\PSoC4/BLE.c **** /******************************************************************************
 342:.\Generated_Source\PSoC4/BLE.c **** * Function Name: CyBle_Start
 343:.\Generated_Source\PSoC4/BLE.c **** ***************************************************************************//**
 344:.\Generated_Source\PSoC4/BLE.c **** * 
 345:.\Generated_Source\PSoC4/BLE.c **** *  This function initializes the BLE Stack, which consists of the BLE Stack 
 346:.\Generated_Source\PSoC4/BLE.c **** *  Manager, BLE Controller, and BLE Host modules. It takes care of initializing
 347:.\Generated_Source\PSoC4/BLE.c **** *  the Profile layer, schedulers, Timer and other platform related
 348:.\Generated_Source\PSoC4/BLE.c **** *  resources required for the BLE component. It also registers the callback 
 349:.\Generated_Source\PSoC4/BLE.c **** *  function for BLE events that will be registered in the BLE stack.
 350:.\Generated_Source\PSoC4/BLE.c **** * 
 351:.\Generated_Source\PSoC4/BLE.c **** *  Note that this function does not reset the BLE Stack.
 352:.\Generated_Source\PSoC4/BLE.c **** * 
 353:.\Generated_Source\PSoC4/BLE.c **** *  For HCI-Mode of operation, this function will not initialize the BLE Host 
 354:.\Generated_Source\PSoC4/BLE.c **** *  module.
 355:.\Generated_Source\PSoC4/BLE.c **** * 
 356:.\Generated_Source\PSoC4/BLE.c **** *  Calling this function results in the generation of CYBLE_EVT_STACK_ON event
 357:.\Generated_Source\PSoC4/BLE.c **** *  on successful initialization of the BLE Stack.
 358:.\Generated_Source\PSoC4/BLE.c **** * 
 359:.\Generated_Source\PSoC4/BLE.c **** *  \param callbackFunc: Event callback function to receive events from BLE stack.
 360:.\Generated_Source\PSoC4/BLE.c **** *   CYBLE_CALLBACK_T is a function pointer type.
 361:.\Generated_Source\PSoC4/BLE.c **** * 
 362:.\Generated_Source\PSoC4/BLE.c **** * \return
 363:.\Generated_Source\PSoC4/BLE.c **** *  CYBLE_API_RESULT_T : Return value indicates if the function succeeded or 
 364:.\Generated_Source\PSoC4/BLE.c **** *  failed. Following are the possible error codes.
 365:.\Generated_Source\PSoC4/BLE.c **** * 
 366:.\Generated_Source\PSoC4/BLE.c **** *   <table>
 367:.\Generated_Source\PSoC4/BLE.c **** *  	  <tr>
 368:.\Generated_Source\PSoC4/BLE.c **** *       <th>Error codes</th>
 369:.\Generated_Source\PSoC4/BLE.c **** *       <th>Description</th>
 370:.\Generated_Source\PSoC4/BLE.c **** *     </tr>
 371:.\Generated_Source\PSoC4/BLE.c **** *     <tr>
 372:.\Generated_Source\PSoC4/BLE.c **** *       <td>CYBLE_ERROR_OK</td>
 373:.\Generated_Source\PSoC4/BLE.c **** *       <td>On successful operation.</td>
 374:.\Generated_Source\PSoC4/BLE.c **** *     </tr>
 375:.\Generated_Source\PSoC4/BLE.c **** *     <tr>
ARM GAS  C:\Users\mlgjmoor\AppData\Local\Temp\ccKDuCjD.s 			page 8


 376:.\Generated_Source\PSoC4/BLE.c **** *       <td>CYBLE_ERROR_INVALID_PARAMETER</td>
 377:.\Generated_Source\PSoC4/BLE.c **** *       <td>On passing a NULL pointer to the function when the BLE stack is not built in HCI mode. 
 378:.\Generated_Source\PSoC4/BLE.c **** *			CYBLE_ERROR_INVALID_PARAMETER is never returned in HCI mode.</td>
 379:.\Generated_Source\PSoC4/BLE.c **** *     </tr>
 380:.\Generated_Source\PSoC4/BLE.c **** *     <tr>
 381:.\Generated_Source\PSoC4/BLE.c **** *       <td>CYBLE_ERROR_REPEATED_ATTEMPTS</td>
 382:.\Generated_Source\PSoC4/BLE.c **** *       <td>On invoking this function more than once without calling CyBle_Shutdown() 
 383:.\Generated_Source\PSoC4/BLE.c **** *           function between calls to this function.</td>
 384:.\Generated_Source\PSoC4/BLE.c **** *     </tr>
 385:.\Generated_Source\PSoC4/BLE.c **** *     <tr>
 386:.\Generated_Source\PSoC4/BLE.c **** *       <td>CYBLE_ERROR_MEMORY_ALLOCATION_FAILED</td>
 387:.\Generated_Source\PSoC4/BLE.c **** *       <td>There is insufficient memory available.</td>
 388:.\Generated_Source\PSoC4/BLE.c **** *     </tr>
 389:.\Generated_Source\PSoC4/BLE.c **** *   </table>
 390:.\Generated_Source\PSoC4/BLE.c **** * 
 391:.\Generated_Source\PSoC4/BLE.c **** *  \globalvars
 392:.\Generated_Source\PSoC4/BLE.c **** *   The CyBle_initVar variable is used to indicate initial
 393:.\Generated_Source\PSoC4/BLE.c **** *   configuration of this component. The variable is initialized to zero (0u)
 394:.\Generated_Source\PSoC4/BLE.c **** *   and set to one (1u) the first time CyBle_Start() is called. This
 395:.\Generated_Source\PSoC4/BLE.c **** *   allows for component initialization without re-initialization in all
 396:.\Generated_Source\PSoC4/BLE.c **** *   subsequent calls to the CyBle_Start() routine.
 397:.\Generated_Source\PSoC4/BLE.c **** * 
 398:.\Generated_Source\PSoC4/BLE.c **** ******************************************************************************/
 399:.\Generated_Source\PSoC4/BLE.c **** CYBLE_API_RESULT_T CyBle_Start(CYBLE_CALLBACK_T callbackFunc)
 400:.\Generated_Source\PSoC4/BLE.c **** {
 401:.\Generated_Source\PSoC4/BLE.c ****     CYBLE_API_RESULT_T apiResult = CYBLE_ERROR_OK;
 402:.\Generated_Source\PSoC4/BLE.c ****     
 403:.\Generated_Source\PSoC4/BLE.c ****     #if(CYBLE_MODE_PROFILE)
 404:.\Generated_Source\PSoC4/BLE.c ****     
 405:.\Generated_Source\PSoC4/BLE.c ****     CYBLE_STK_APP_DATA_BUFF_T cyBle_stackDataBuff[CYBLE_STACK_APP_MIN_POOL] = 
 406:.\Generated_Source\PSoC4/BLE.c ****     {
 407:.\Generated_Source\PSoC4/BLE.c ****         {CYBLE_GATT_MTU_PLUS_L2CAP_MEM_EXT, CYBLE_GATT_MTU_BUFF_COUNT + CYBLE_GATT_MAX_ATTR_BUFF_CO
 408:.\Generated_Source\PSoC4/BLE.c ****         {CYBLE_L2CAP_PSM_PLUS_L2CAP_MEM_EXT, CYBLE_L2CAP_PSM_COUNT},
 409:.\Generated_Source\PSoC4/BLE.c ****         {CYBLE_L2CAP_CBFC_PLUS_L2CAP_MEM_EXT, 2u * CYBLE_L2CAP_LOGICAL_CHANNEL_COUNT},
 410:.\Generated_Source\PSoC4/BLE.c ****         {CYBLE_L2CAP_MTU_PLUS_L2CAP_MEM_EXT, CYBLE_L2CAP_LOGICAL_CHANNEL_COUNT},
 411:.\Generated_Source\PSoC4/BLE.c ****         {CYBLE_L2CAP_MPS_PLUS_L2CAP_MEM_EXT, CYBLE_L2CAP_LOGICAL_CHANNEL_COUNT * (CYBLE_L2CAP_MTU_M
 412:.\Generated_Source\PSoC4/BLE.c ****     }; 
 413:.\Generated_Source\PSoC4/BLE.c **** 
 414:.\Generated_Source\PSoC4/BLE.c ****     #endif /* CYBLE_MODE_PROFILE */
 415:.\Generated_Source\PSoC4/BLE.c ****     
 416:.\Generated_Source\PSoC4/BLE.c ****     /* If not initialized then initialize all the required hardware and software */
 417:.\Generated_Source\PSoC4/BLE.c ****     if(cyBle_initVar == 0u)
 418:.\Generated_Source\PSoC4/BLE.c ****     {
 419:.\Generated_Source\PSoC4/BLE.c ****         CyBle_Init();
 420:.\Generated_Source\PSoC4/BLE.c ****         cyBle_initVar = 1u;
 421:.\Generated_Source\PSoC4/BLE.c ****     }
 422:.\Generated_Source\PSoC4/BLE.c ****     
 423:.\Generated_Source\PSoC4/BLE.c ****     if(callbackFunc != NULL)
 424:.\Generated_Source\PSoC4/BLE.c ****     {
 425:.\Generated_Source\PSoC4/BLE.c ****         CyBle_ApplCallback = callbackFunc;
 426:.\Generated_Source\PSoC4/BLE.c ****         
 427:.\Generated_Source\PSoC4/BLE.c ****     #if(CYBLE_SHARING_MODE_EXPORT)
 428:.\Generated_Source\PSoC4/BLE.c ****         if(cyBle_stackMemoryRam == NULL)
 429:.\Generated_Source\PSoC4/BLE.c ****         {
 430:.\Generated_Source\PSoC4/BLE.c ****             cyBle_stackMemoryRam = (uint8 *)malloc(CYBLE_STACK_RAM_SIZE);
 431:.\Generated_Source\PSoC4/BLE.c ****             if(cyBle_stackMemoryRam == NULL)
 432:.\Generated_Source\PSoC4/BLE.c ****             {
ARM GAS  C:\Users\mlgjmoor\AppData\Local\Temp\ccKDuCjD.s 			page 9


 433:.\Generated_Source\PSoC4/BLE.c ****                 apiResult = CYBLE_ERROR_MEMORY_ALLOCATION_FAILED;
 434:.\Generated_Source\PSoC4/BLE.c ****             }
 435:.\Generated_Source\PSoC4/BLE.c ****         }
 436:.\Generated_Source\PSoC4/BLE.c ****     #endif /* CYBLE_SHARING_MODE_EXPORT */
 437:.\Generated_Source\PSoC4/BLE.c ****         if(apiResult == CYBLE_ERROR_OK)
 438:.\Generated_Source\PSoC4/BLE.c ****         {
 439:.\Generated_Source\PSoC4/BLE.c ****             CYBLE_DLE_CONFIG_PARAM_T dleConfigParams;
 440:.\Generated_Source\PSoC4/BLE.c ****             CYBLE_PRIVACY_1_2_CONFIG_PARAM_T privacyConfigParams;
 441:.\Generated_Source\PSoC4/BLE.c ****             CYBLE_STACK_CONFIG_PARAM_T stackConfig;
 442:.\Generated_Source\PSoC4/BLE.c ****             uint16 featureHeapReq;
 443:.\Generated_Source\PSoC4/BLE.c ****             
 444:.\Generated_Source\PSoC4/BLE.c ****             stackConfig.privacyConfig = &privacyConfigParams;
 445:.\Generated_Source\PSoC4/BLE.c ****             stackConfig.dleConfig = &dleConfigParams;
 446:.\Generated_Source\PSoC4/BLE.c ****             
 447:.\Generated_Source\PSoC4/BLE.c ****             /* Configure default BLE 4.1 features and enabled 4.2 features */
 448:.\Generated_Source\PSoC4/BLE.c ****             stackConfig.feature_mask = CYBLE_DLE_FEATURE | CYBLE_LL_PRIVACY_FEATURE | 
 449:.\Generated_Source\PSoC4/BLE.c ****                                        CYBLE_SECURE_CONN_FEATURE;
 450:.\Generated_Source\PSoC4/BLE.c **** 
 451:.\Generated_Source\PSoC4/BLE.c ****             /* Configure DLE */
 452:.\Generated_Source\PSoC4/BLE.c ****             dleConfigParams.dleMaxTxCapability = CYBLE_LL_MAX_TX_PAYLOAD_SIZE;
 453:.\Generated_Source\PSoC4/BLE.c ****             dleConfigParams.dleMaxRxCapability = CYBLE_LL_MAX_RX_PAYLOAD_SIZE;
 454:.\Generated_Source\PSoC4/BLE.c ****             dleConfigParams.dleNumTxBuffer = CYBLE_LL_DEFAULT_NUM_ACL_TX_PACKETS;
 455:.\Generated_Source\PSoC4/BLE.c ****         #if(CYBLE_DLE_FEATURE_ENABLED)
 456:.\Generated_Source\PSoC4/BLE.c ****             CyBle_EnableDleFeature();              /* Enable DLE code in stack */
 457:.\Generated_Source\PSoC4/BLE.c ****         #endif /* CYBLE_DLE_FEATURE_ENABLED */
 458:.\Generated_Source\PSoC4/BLE.c ****         
 459:.\Generated_Source\PSoC4/BLE.c ****             /* Configure LL Privacy */
 460:.\Generated_Source\PSoC4/BLE.c ****             privacyConfigParams.resolvingListSize = CYBLE_MAX_RESOLVABLE_DEVICES;
 461:.\Generated_Source\PSoC4/BLE.c ****         #if(CYBLE_LL_PRIVACY_FEATURE_ENABLED)
 462:.\Generated_Source\PSoC4/BLE.c ****             CyBle_EnablePrivacyFeature();          /* Enable LL Privacy code in stack */
 463:.\Generated_Source\PSoC4/BLE.c ****         #endif /* CYBLE_LL_PRIVACY_FEATURE_ENABLED */
 464:.\Generated_Source\PSoC4/BLE.c **** 
 465:.\Generated_Source\PSoC4/BLE.c ****             apiResult = CyBle_StackSetFeatureConfig(&stackConfig, &featureHeapReq);
 466:.\Generated_Source\PSoC4/BLE.c ****             }
 467:.\Generated_Source\PSoC4/BLE.c ****     
 468:.\Generated_Source\PSoC4/BLE.c ****         if(apiResult == CYBLE_ERROR_OK)
 469:.\Generated_Source\PSoC4/BLE.c ****         {
 470:.\Generated_Source\PSoC4/BLE.c ****             
 471:.\Generated_Source\PSoC4/BLE.c ****         #if(CYBLE_MODE_PROFILE)
 472:.\Generated_Source\PSoC4/BLE.c ****             #if(CYBLE_BONDING_REQUIREMENT == CYBLE_BONDING_YES)
 473:.\Generated_Source\PSoC4/BLE.c ****                 apiResult = CyBle_StackInit(&CyBle_EventHandler, cyBle_stackMemoryRam, 
 474:.\Generated_Source\PSoC4/BLE.c ****                     CYBLE_STACK_RAM_SIZE - CYBLE_GATT_PREPARE_WRITE_BUFF_LEN, cyBle_stackDataBuff, 
 475:.\Generated_Source\PSoC4/BLE.c ****                     CYBLE_STACK_APP_MIN_POOL, cyBle_flashStorage.stackFlashptr, CYBLE_STACK_FLASH_S
 476:.\Generated_Source\PSoC4/BLE.c ****             #else
 477:.\Generated_Source\PSoC4/BLE.c ****                 apiResult = CyBle_StackInit(&CyBle_EventHandler, cyBle_stackMemoryRam, 
 478:.\Generated_Source\PSoC4/BLE.c ****                     CYBLE_STACK_RAM_SIZE - CYBLE_GATT_PREPARE_WRITE_BUFF_LEN, cyBle_stackDataBuff, 
 479:.\Generated_Source\PSoC4/BLE.c ****                     CYBLE_STACK_APP_MIN_POOL, NULL, 0u);
 480:.\Generated_Source\PSoC4/BLE.c ****             #endif  /* CYBLE_BONDING_REQUIREMENT == CYBLE_BONDING_YES */
 481:.\Generated_Source\PSoC4/BLE.c ****         #else
 482:.\Generated_Source\PSoC4/BLE.c ****             apiResult = CyBle_StackInit(&CyBle_EventHandler, cyBle_stackMemoryRam, CYBLE_STACK_RAM_
 483:.\Generated_Source\PSoC4/BLE.c ****                 NULL, 0u, NULL, 0u);
 484:.\Generated_Source\PSoC4/BLE.c ****         #endif /* CYBLE_MODE_PROFILE */
 485:.\Generated_Source\PSoC4/BLE.c **** 
 486:.\Generated_Source\PSoC4/BLE.c ****             if(apiResult == CYBLE_ERROR_OK)
 487:.\Generated_Source\PSoC4/BLE.c ****             {
 488:.\Generated_Source\PSoC4/BLE.c ****                 CyBle_SetState(CYBLE_STATE_INITIALIZING);
 489:.\Generated_Source\PSoC4/BLE.c ****                 
ARM GAS  C:\Users\mlgjmoor\AppData\Local\Temp\ccKDuCjD.s 			page 10


 490:.\Generated_Source\PSoC4/BLE.c ****             #if (CYBLE_GATT_ROLE_CLIENT)
 491:.\Generated_Source\PSoC4/BLE.c ****                 CyBle_SetClientState(CYBLE_CLIENT_STATE_DISCONNECTED);
 492:.\Generated_Source\PSoC4/BLE.c ****             #endif /* CYBLE_GATT_ROLE_CLIENT */
 493:.\Generated_Source\PSoC4/BLE.c ****                 
 494:.\Generated_Source\PSoC4/BLE.c ****             #if(CYBLE_GATT_ROLE_SERVER)
 495:.\Generated_Source\PSoC4/BLE.c ****                 apiResult = CyBle_GattsDbRegister(cyBle_gattDB, CYBLE_GATT_DB_INDEX_COUNT, CYBLE_GA
 496:.\Generated_Source\PSoC4/BLE.c ****             #endif /* CYBLE_GATT_ROLE_SERVER */
 497:.\Generated_Source\PSoC4/BLE.c ****             }
 498:.\Generated_Source\PSoC4/BLE.c ****         }
 499:.\Generated_Source\PSoC4/BLE.c ****     }
 500:.\Generated_Source\PSoC4/BLE.c ****     else
 501:.\Generated_Source\PSoC4/BLE.c ****     {
 502:.\Generated_Source\PSoC4/BLE.c ****         apiResult = CYBLE_ERROR_INVALID_PARAMETER;
 503:.\Generated_Source\PSoC4/BLE.c ****     }
 504:.\Generated_Source\PSoC4/BLE.c **** 
 505:.\Generated_Source\PSoC4/BLE.c ****     return (apiResult);
 506:.\Generated_Source\PSoC4/BLE.c **** }
 507:.\Generated_Source\PSoC4/BLE.c **** 
 508:.\Generated_Source\PSoC4/BLE.c **** 
 509:.\Generated_Source\PSoC4/BLE.c **** /******************************************************************************
 510:.\Generated_Source\PSoC4/BLE.c **** * Function Name: CyBle_Stop
 511:.\Generated_Source\PSoC4/BLE.c **** ***************************************************************************//**
 512:.\Generated_Source\PSoC4/BLE.c **** * 
 513:.\Generated_Source\PSoC4/BLE.c **** *  This function stops any ongoing operation in the BLE Stack and forces the 
 514:.\Generated_Source\PSoC4/BLE.c **** *  BLE Stack to shut down. The only function that can be called after calling
 515:.\Generated_Source\PSoC4/BLE.c **** *  this function is CyBle_Start(). 
 516:.\Generated_Source\PSoC4/BLE.c **** * 
 517:.\Generated_Source\PSoC4/BLE.c **** * \return
 518:.\Generated_Source\PSoC4/BLE.c **** *  None
 519:.\Generated_Source\PSoC4/BLE.c **** * 
 520:.\Generated_Source\PSoC4/BLE.c **** ******************************************************************************/
 521:.\Generated_Source\PSoC4/BLE.c **** void CyBle_Stop(void)
 522:.\Generated_Source\PSoC4/BLE.c **** {
 523:.\Generated_Source\PSoC4/BLE.c ****     CyBle_Shutdown();                         /* Stop all ongoing activities */
 524:.\Generated_Source\PSoC4/BLE.c ****     CyBle_SetState(CYBLE_STATE_STOPPED);
 525:.\Generated_Source\PSoC4/BLE.c ****     #if(CYBLE_SHARING_MODE_EXPORT)
 526:.\Generated_Source\PSoC4/BLE.c ****         if(cyBle_stackMemoryRam != NULL)
 527:.\Generated_Source\PSoC4/BLE.c ****         {
 528:.\Generated_Source\PSoC4/BLE.c ****             free(cyBle_stackMemoryRam);
 529:.\Generated_Source\PSoC4/BLE.c ****         }
 530:.\Generated_Source\PSoC4/BLE.c ****     #endif /* CYBLE_SHARING_MODE_EXPORT */
 531:.\Generated_Source\PSoC4/BLE.c **** }
 532:.\Generated_Source\PSoC4/BLE.c **** 
 533:.\Generated_Source\PSoC4/BLE.c **** 
 534:.\Generated_Source\PSoC4/BLE.c **** #if((CYBLE_GAP_ROLE_PERIPHERAL || CYBLE_GAP_ROLE_CENTRAL) && (CYBLE_BONDING_REQUIREMENT == CYBLE_BO
 535:.\Generated_Source\PSoC4/BLE.c **** 
 536:.\Generated_Source\PSoC4/BLE.c ****     
 537:.\Generated_Source\PSoC4/BLE.c **** /******************************************************************************
 538:.\Generated_Source\PSoC4/BLE.c **** * Function Name: CyBle_StoreBondingData
 539:.\Generated_Source\PSoC4/BLE.c **** ***************************************************************************//**
 540:.\Generated_Source\PSoC4/BLE.c **** * 
 541:.\Generated_Source\PSoC4/BLE.c **** *  This function writes the new bonding data from RAM to the dedicated Flash 
 542:.\Generated_Source\PSoC4/BLE.c **** *  location as defined by the component. It performs data comparing between RAM
 543:.\Generated_Source\PSoC4/BLE.c **** *  and Flash before writing to Flash. If there is no change between RAM and Flash
 544:.\Generated_Source\PSoC4/BLE.c **** *  data, then no write is performed. It writes only one flash row in one call.
 545:.\Generated_Source\PSoC4/BLE.c **** *  Application should keep calling this function till API return CYBLE_ERROR_OK. 
 546:.\Generated_Source\PSoC4/BLE.c **** *  This function is available only when Bonding requirement is selected in
ARM GAS  C:\Users\mlgjmoor\AppData\Local\Temp\ccKDuCjD.s 			page 11


 547:.\Generated_Source\PSoC4/BLE.c **** *  Security settings.    
 548:.\Generated_Source\PSoC4/BLE.c **** * 
 549:.\Generated_Source\PSoC4/BLE.c **** *  \param isForceWrite:  If value is set to 0, then stack will check if flash write 
 550:.\Generated_Source\PSoC4/BLE.c **** *                 is permissible. 
 551:.\Generated_Source\PSoC4/BLE.c **** *  
 552:.\Generated_Source\PSoC4/BLE.c **** * \return
 553:.\Generated_Source\PSoC4/BLE.c **** *  Return value is of type CYBLE_API_RESULT_T.
 554:.\Generated_Source\PSoC4/BLE.c **** *
 555:.\Generated_Source\PSoC4/BLE.c **** *   Errors codes                         | Description
 556:.\Generated_Source\PSoC4/BLE.c **** *   ----------------------------------   | ------------------------------------
 557:.\Generated_Source\PSoC4/BLE.c **** *   CYBLE_ERROR_OK                       | On successful operation
 558:.\Generated_Source\PSoC4/BLE.c **** *   CYBLE_ERROR_FLASH_WRITE_NOT_PERMITED | Flash Write is not complete
 559:.\Generated_Source\PSoC4/BLE.c **** *    
 560:.\Generated_Source\PSoC4/BLE.c **** *  \sideeffect
 561:.\Generated_Source\PSoC4/BLE.c **** *   For BLE devices with 128K of Flash memory this API will automatically 
 562:.\Generated_Source\PSoC4/BLE.c **** *   modify the clock settings for the device.
 563:.\Generated_Source\PSoC4/BLE.c **** *   Writing to flash requires changes to be done to the IMO (set to 48 MHz)
 564:.\Generated_Source\PSoC4/BLE.c **** *   and HFCLK (source set to IMO) settings. The configuration is restored before
 565:.\Generated_Source\PSoC4/BLE.c **** *   returning. This will impact the operation of most of the hardware in the
 566:.\Generated_Source\PSoC4/BLE.c **** *   device.
 567:.\Generated_Source\PSoC4/BLE.c **** * 
 568:.\Generated_Source\PSoC4/BLE.c **** *  \globalvars
 569:.\Generated_Source\PSoC4/BLE.c **** *   The cyBle_pendingFlashWrite variable is used to detect status
 570:.\Generated_Source\PSoC4/BLE.c **** *   of pending write to flash operation for stack data and CCCD.
 571:.\Generated_Source\PSoC4/BLE.c **** *   This API automatically clears pending bits after write operation complete.
 572:.\Generated_Source\PSoC4/BLE.c **** *     
 573:.\Generated_Source\PSoC4/BLE.c **** ******************************************************************************/
 574:.\Generated_Source\PSoC4/BLE.c **** CYBLE_API_RESULT_T CyBle_StoreBondingData(uint8 isForceWrite)
 575:.\Generated_Source\PSoC4/BLE.c **** {
 576:.\Generated_Source\PSoC4/BLE.c ****     CYBLE_API_RESULT_T apiResult = CYBLE_ERROR_OK;
 577:.\Generated_Source\PSoC4/BLE.c ****     
 578:.\Generated_Source\PSoC4/BLE.c ****     /* Store Stack data */
 579:.\Generated_Source\PSoC4/BLE.c ****     if((cyBle_pendingFlashWrite & CYBLE_PENDING_STACK_FLASH_WRITE_BIT) != 0u)
 580:.\Generated_Source\PSoC4/BLE.c ****     {
 581:.\Generated_Source\PSoC4/BLE.c ****         apiResult = CyBle_StoreStackData(isForceWrite);
 582:.\Generated_Source\PSoC4/BLE.c ****         if(apiResult == CYBLE_ERROR_OK)
 583:.\Generated_Source\PSoC4/BLE.c ****         {
 584:.\Generated_Source\PSoC4/BLE.c ****             cyBle_pendingFlashWrite &= (uint8)~CYBLE_PENDING_STACK_FLASH_WRITE_BIT;
 585:.\Generated_Source\PSoC4/BLE.c ****             /* Change apiResult if there are more pending data to store */
 586:.\Generated_Source\PSoC4/BLE.c ****             if((cyBle_pendingFlashWrite & CYBLE_PENDING_CCCD_FLASH_WRITE_BIT) != 0u)
 587:.\Generated_Source\PSoC4/BLE.c ****             {
 588:.\Generated_Source\PSoC4/BLE.c ****                 apiResult = CYBLE_ERROR_FLASH_WRITE_NOT_PERMITED;
 589:.\Generated_Source\PSoC4/BLE.c ****             }
 590:.\Generated_Source\PSoC4/BLE.c ****         }
 591:.\Generated_Source\PSoC4/BLE.c ****     }
 592:.\Generated_Source\PSoC4/BLE.c **** #if(CYBLE_GATT_DB_CCCD_COUNT != 0u)
 593:.\Generated_Source\PSoC4/BLE.c ****     /* Store CCCD values */
 594:.\Generated_Source\PSoC4/BLE.c ****     if( ((apiResult == CYBLE_ERROR_OK) || (isForceWrite != 0u)) && 
 595:.\Generated_Source\PSoC4/BLE.c ****         ((cyBle_pendingFlashWrite & CYBLE_PENDING_CCCD_FLASH_WRITE_BIT) != 0u) &&
 596:.\Generated_Source\PSoC4/BLE.c ****         (cyBle_connHandle.bdHandle <= CYBLE_GAP_MAX_BONDED_DEVICE))
 597:.\Generated_Source\PSoC4/BLE.c ****     {
 598:.\Generated_Source\PSoC4/BLE.c ****         apiResult = CyBle_StoreAppData(cyBle_attValuesCCCD, cyBle_flashStorage.attValuesCCCDFlashMe
 599:.\Generated_Source\PSoC4/BLE.c ****                         cyBle_connHandle.bdHandle], CYBLE_GATT_DB_CCCD_COUNT, isForceWrite);
 600:.\Generated_Source\PSoC4/BLE.c ****         if(apiResult == CYBLE_ERROR_OK)
 601:.\Generated_Source\PSoC4/BLE.c ****         {
 602:.\Generated_Source\PSoC4/BLE.c ****             cyBle_pendingFlashWrite &= (uint8)~CYBLE_PENDING_CCCD_FLASH_WRITE_BIT;
 603:.\Generated_Source\PSoC4/BLE.c ****         }
ARM GAS  C:\Users\mlgjmoor\AppData\Local\Temp\ccKDuCjD.s 			page 12


 604:.\Generated_Source\PSoC4/BLE.c ****     }
 605:.\Generated_Source\PSoC4/BLE.c ****     /* Clear requested CCCD values */
 606:.\Generated_Source\PSoC4/BLE.c ****     if( ((apiResult == CYBLE_ERROR_OK) || (isForceWrite != 0u)) && 
 607:.\Generated_Source\PSoC4/BLE.c ****         ((cyBle_pendingFlashWrite & CYBLE_PENDING_CCCD_FLASH_CLEAR_MASK) != 0u) )
 608:.\Generated_Source\PSoC4/BLE.c ****     {
 609:.\Generated_Source\PSoC4/BLE.c ****         if((cyBle_pendingFlashWrite & CYBLE_PENDING_CCCD_FLASH_CLEAR_ALL_BIT) != 0u)
 610:.\Generated_Source\PSoC4/BLE.c ****         {
 611:.\Generated_Source\PSoC4/BLE.c ****             /* Remove cccd values for all bonded devices */
 612:.\Generated_Source\PSoC4/BLE.c ****             uint8 defaultValuesCCCD[CYBLE_GAP_MAX_BONDED_DEVICE + 1u][CYBLE_GATT_DB_CCCD_COUNT];
 613:.\Generated_Source\PSoC4/BLE.c ****             
 614:.\Generated_Source\PSoC4/BLE.c ****             (void)memset(defaultValuesCCCD, 0, sizeof(defaultValuesCCCD));
 615:.\Generated_Source\PSoC4/BLE.c **** 
 616:.\Generated_Source\PSoC4/BLE.c ****             apiResult = CyBle_StoreAppData((uint8 *)defaultValuesCCCD, 
 617:.\Generated_Source\PSoC4/BLE.c ****                 (const uint8 *)cyBle_flashStorage.attValuesCCCDFlashMemory, sizeof(defaultValuesCCC
 618:.\Generated_Source\PSoC4/BLE.c ****             if(apiResult == CYBLE_ERROR_OK)
 619:.\Generated_Source\PSoC4/BLE.c ****             {
 620:.\Generated_Source\PSoC4/BLE.c ****                 cyBle_pendingFlashWrite &= (uint8)~CYBLE_PENDING_CCCD_FLASH_CLEAR_ALL_BIT;
 621:.\Generated_Source\PSoC4/BLE.c ****             }
 622:.\Generated_Source\PSoC4/BLE.c ****         }
 623:.\Generated_Source\PSoC4/BLE.c ****         else /* Remove cccd values for particular device */
 624:.\Generated_Source\PSoC4/BLE.c ****         {
 625:.\Generated_Source\PSoC4/BLE.c ****             uint8 defaultValuesCCCD[CYBLE_GATT_DB_CCCD_COUNT] = {0u};
 626:.\Generated_Source\PSoC4/BLE.c ****             
 627:.\Generated_Source\PSoC4/BLE.c ****             apiResult = CyBle_StoreAppData(defaultValuesCCCD, cyBle_flashStorage.attValuesCCCDFlash
 628:.\Generated_Source\PSoC4/BLE.c ****                                     cyBle_pendingFlashClearCccdHandle], CYBLE_GATT_DB_CCCD_COUNT, i
 629:.\Generated_Source\PSoC4/BLE.c ****             if(apiResult == CYBLE_ERROR_OK)
 630:.\Generated_Source\PSoC4/BLE.c ****             {
 631:.\Generated_Source\PSoC4/BLE.c ****                 cyBle_pendingFlashWrite &= (uint8)~CYBLE_PENDING_CCCD_FLASH_CLEAR_BIT;
 632:.\Generated_Source\PSoC4/BLE.c ****             }
 633:.\Generated_Source\PSoC4/BLE.c ****         }
 634:.\Generated_Source\PSoC4/BLE.c ****     }
 635:.\Generated_Source\PSoC4/BLE.c **** #endif /* CYBLE_GATT_DB_CCCD_COUNT != 0u */
 636:.\Generated_Source\PSoC4/BLE.c ****     return(apiResult);
 637:.\Generated_Source\PSoC4/BLE.c **** }
 638:.\Generated_Source\PSoC4/BLE.c **** 
 639:.\Generated_Source\PSoC4/BLE.c **** 
 640:.\Generated_Source\PSoC4/BLE.c **** /******************************************************************************
 641:.\Generated_Source\PSoC4/BLE.c **** * Function Name: CyBle_GapRemoveBondedDevice
 642:.\Generated_Source\PSoC4/BLE.c **** ***************************************************************************//**
 643:.\Generated_Source\PSoC4/BLE.c **** * 
 644:.\Generated_Source\PSoC4/BLE.c **** *  This function marks the device untrusted. It removes the bonding information
 645:.\Generated_Source\PSoC4/BLE.c **** *  of the device including CCCD values. This function removes device from the
 646:.\Generated_Source\PSoC4/BLE.c **** *  white list also when autopopulate white list with bonded devices option is
 647:.\Generated_Source\PSoC4/BLE.c **** *  enabled.
 648:.\Generated_Source\PSoC4/BLE.c **** * 
 649:.\Generated_Source\PSoC4/BLE.c **** *  This function is available only when Bonding requirement is selected in
 650:.\Generated_Source\PSoC4/BLE.c **** *  Security settings.    
 651:.\Generated_Source\PSoC4/BLE.c **** *
 652:.\Generated_Source\PSoC4/BLE.c **** *  \param bdAddr: Pointer to peer device address, of type CYBLE_GAP_BD_ADDR_T.
 653:.\Generated_Source\PSoC4/BLE.c **** *                 If device address is set to 0, then all devices shall be
 654:.\Generated_Source\PSoC4/BLE.c **** *                 removed from trusted list and white list.
 655:.\Generated_Source\PSoC4/BLE.c **** *
 656:.\Generated_Source\PSoC4/BLE.c **** * \return
 657:.\Generated_Source\PSoC4/BLE.c **** *  CYBLE_API_RESULT_T : Return value indicates if the function succeeded or
 658:.\Generated_Source\PSoC4/BLE.c **** *  failed. Following are the possible error codes.
 659:.\Generated_Source\PSoC4/BLE.c **** *
 660:.\Generated_Source\PSoC4/BLE.c **** *   Errors codes                     | Description
ARM GAS  C:\Users\mlgjmoor\AppData\Local\Temp\ccKDuCjD.s 			page 13


 661:.\Generated_Source\PSoC4/BLE.c **** *   ---------------------------------| ------------------------------------
 662:.\Generated_Source\PSoC4/BLE.c **** *   CYBLE_ERROR_OK                   | On successful operation.
 663:.\Generated_Source\PSoC4/BLE.c **** *   CYBLE_ERROR_INVALID_PARAMETER    | On specifying NULL as input parameter for 'bdAddr'.
 664:.\Generated_Source\PSoC4/BLE.c **** *   CYBLE_ERROR_INVALID_OPERATION    | Whitelist is already in use or there is pending write to fla
 665:.\Generated_Source\PSoC4/BLE.c **** *   CYBLE_ERROR_NO_DEVICE_ENTITY     | Device does not exist in the bond list.
 666:.\Generated_Source\PSoC4/BLE.c **** *
 667:.\Generated_Source\PSoC4/BLE.c **** *  \globalvars
 668:.\Generated_Source\PSoC4/BLE.c **** *   The bdHandle is set in cyBle_pendingFlashWrite variable to indicate that
 669:.\Generated_Source\PSoC4/BLE.c **** *   data should be stored to flash by CyBle_StoreBondingData afterwards. 
 670:.\Generated_Source\PSoC4/BLE.c **** *     
 671:.\Generated_Source\PSoC4/BLE.c **** ******************************************************************************/
 672:.\Generated_Source\PSoC4/BLE.c **** CYBLE_API_RESULT_T CyBle_GapRemoveBondedDevice(CYBLE_GAP_BD_ADDR_T* bdAddr)
 673:.\Generated_Source\PSoC4/BLE.c **** {
 674:.\Generated_Source\PSoC4/BLE.c ****     CYBLE_API_RESULT_T apiResult = CYBLE_ERROR_OK;
 675:.\Generated_Source\PSoC4/BLE.c ****     
 676:.\Generated_Source\PSoC4/BLE.c ****     if(cyBle_pendingFlashWrite == 0u)
 677:.\Generated_Source\PSoC4/BLE.c ****     {
 678:.\Generated_Source\PSoC4/BLE.c ****         
 679:.\Generated_Source\PSoC4/BLE.c ****     #if(CYBLE_GATT_DB_CCCD_COUNT != 0u)
 680:.\Generated_Source\PSoC4/BLE.c ****         /* Request to clear CCCD values which will be done by CyBle_StoreBondingData API */
 681:.\Generated_Source\PSoC4/BLE.c ****         uint8 bDevHandle;
 682:.\Generated_Source\PSoC4/BLE.c ****         CYBLE_GAP_BD_ADDR_T invalidBdAddr = {{0u,0u,0u,0u,0u,0u}, 0u};
 683:.\Generated_Source\PSoC4/BLE.c **** 
 684:.\Generated_Source\PSoC4/BLE.c ****         if(memcmp(((uint8 *) &(bdAddr->bdAddr)), ((uint8 *) &(invalidBdAddr.bdAddr)), CYBLE_GAP_BD_
 685:.\Generated_Source\PSoC4/BLE.c **** 	    {
 686:.\Generated_Source\PSoC4/BLE.c ****             /* Request to remove all bonded devices by cyBle_StoreBondingData API */
 687:.\Generated_Source\PSoC4/BLE.c ****             cyBle_pendingFlashWrite |= CYBLE_PENDING_CCCD_FLASH_CLEAR_ALL_BIT;
 688:.\Generated_Source\PSoC4/BLE.c ****         }
 689:.\Generated_Source\PSoC4/BLE.c ****         else
 690:.\Generated_Source\PSoC4/BLE.c ****         {
 691:.\Generated_Source\PSoC4/BLE.c ****             /* Get the BD handle from Address */
 692:.\Generated_Source\PSoC4/BLE.c ****             apiResult = CyBle_GapGetPeerBdHandle(&bDevHandle, bdAddr);
 693:.\Generated_Source\PSoC4/BLE.c ****             if(apiResult == CYBLE_ERROR_OK)
 694:.\Generated_Source\PSoC4/BLE.c ****             {
 695:.\Generated_Source\PSoC4/BLE.c ****                 /* Store BD handle to clear cccd values by CyBle_StoreBondingData API */
 696:.\Generated_Source\PSoC4/BLE.c ****                 cyBle_pendingFlashWrite |= CYBLE_PENDING_CCCD_FLASH_CLEAR_BIT;
 697:.\Generated_Source\PSoC4/BLE.c ****                 cyBle_pendingFlashClearCccdHandle = bDevHandle;
 698:.\Generated_Source\PSoC4/BLE.c ****             }
 699:.\Generated_Source\PSoC4/BLE.c ****         }
 700:.\Generated_Source\PSoC4/BLE.c ****         if(apiResult == CYBLE_ERROR_OK)
 701:.\Generated_Source\PSoC4/BLE.c ****         {
 702:.\Generated_Source\PSoC4/BLE.c ****             #if(CYBLE_AUTO_POPULATE_WHITELIST != 0u)
 703:.\Generated_Source\PSoC4/BLE.c ****                 apiResult = CyBle_GapRemoveDeviceFromWhiteList(bdAddr);
 704:.\Generated_Source\PSoC4/BLE.c ****             #else
 705:.\Generated_Source\PSoC4/BLE.c ****                 apiResult = CyBle_GapRemDeviceFromBondList(bdAddr);
 706:.\Generated_Source\PSoC4/BLE.c ****             #endif
 707:.\Generated_Source\PSoC4/BLE.c ****         }
 708:.\Generated_Source\PSoC4/BLE.c ****     #endif /* CYBLE_GATT_DB_CCCD_COUNT != 0u */
 709:.\Generated_Source\PSoC4/BLE.c ****     }
 710:.\Generated_Source\PSoC4/BLE.c ****     else
 711:.\Generated_Source\PSoC4/BLE.c ****     {
 712:.\Generated_Source\PSoC4/BLE.c ****         apiResult = CYBLE_ERROR_INVALID_OPERATION;
 713:.\Generated_Source\PSoC4/BLE.c ****     }
 714:.\Generated_Source\PSoC4/BLE.c ****     
 715:.\Generated_Source\PSoC4/BLE.c ****     return(apiResult);
 716:.\Generated_Source\PSoC4/BLE.c **** }
 717:.\Generated_Source\PSoC4/BLE.c **** 
ARM GAS  C:\Users\mlgjmoor\AppData\Local\Temp\ccKDuCjD.s 			page 14


 718:.\Generated_Source\PSoC4/BLE.c **** 
 719:.\Generated_Source\PSoC4/BLE.c **** #endif /* (CYBLE_GAP_ROLE_PERIPHERAL || CYBLE_GAP_ROLE_CENTRAL) && (CYBLE_BONDING_REQUIREMENT == CY
 720:.\Generated_Source\PSoC4/BLE.c **** 
 721:.\Generated_Source\PSoC4/BLE.c **** 
 722:.\Generated_Source\PSoC4/BLE.c **** #if(CYBLE_GAP_ROLE_PERIPHERAL || CYBLE_GAP_ROLE_BROADCASTER)
 723:.\Generated_Source\PSoC4/BLE.c **** 
 724:.\Generated_Source\PSoC4/BLE.c ****     /******************************************************************************
 725:.\Generated_Source\PSoC4/BLE.c ****     *  Function Name: CyBle_GappStartAdvertisement
 726:.\Generated_Source\PSoC4/BLE.c ****     ***************************************************************************//**
 727:.\Generated_Source\PSoC4/BLE.c ****     *     
 728:.\Generated_Source\PSoC4/BLE.c ****     *  This function is used to start the advertisement using the advertisement data 
 729:.\Generated_Source\PSoC4/BLE.c ****     *  set in the component customizer's GUI. After invoking this API, the device 
 730:.\Generated_Source\PSoC4/BLE.c ****     *  will be available for connection by the devices configured for GAP central 
 731:.\Generated_Source\PSoC4/BLE.c ****     *  role. It is only included if the device is configured for GAP Peripheral or 
 732:.\Generated_Source\PSoC4/BLE.c ****     *  GAP Peripheral + Central role.
 733:.\Generated_Source\PSoC4/BLE.c ****     *  
 734:.\Generated_Source\PSoC4/BLE.c ****     *  On start of advertisement, GAP Peripheral receives the
 735:.\Generated_Source\PSoC4/BLE.c ****     *  CYBLE_EVT_GAPP_ADVERTISEMENT_START_STOP event. The following events are 
 736:.\Generated_Source\PSoC4/BLE.c ****     *  possible on invoking this function:
 737:.\Generated_Source\PSoC4/BLE.c ****     *  
 738:.\Generated_Source\PSoC4/BLE.c ****     *  * CYBLE_EVT_GAP_DEVICE_CONNECTED - If the device connects to a GAP Central and 
 739:.\Generated_Source\PSoC4/BLE.c ****     *    Link Layer Privacy is disabled in component customizer.
 740:.\Generated_Source\PSoC4/BLE.c ****     *  * CYBLE_EVT_GAP_ENHANCE_CONN_COMPLETE - If the device connects to a GAP Central and 
 741:.\Generated_Source\PSoC4/BLE.c ****     *    Link Layer Privacy is enabled in component customizer.
 742:.\Generated_Source\PSoC4/BLE.c ****     *  * CYBLE_EVT_TIMEOUT: If no device in GAP Central mode connects to this 
 743:.\Generated_Source\PSoC4/BLE.c ****     *                       device within the specified timeout limit. Stack 
 744:.\Generated_Source\PSoC4/BLE.c ****     *                       automatically initiate stop advertising when Slow 
 745:.\Generated_Source\PSoC4/BLE.c ****     *                       advertising was initiated, or starts Slow advertising
 746:.\Generated_Source\PSoC4/BLE.c ****     *                       after Fast advertising timeout occur.
 747:.\Generated_Source\PSoC4/BLE.c ****     *  * CYBLE_EVT_GAPP_ADVERTISEMENT_START_STOP: If device started or stopped
 748:.\Generated_Source\PSoC4/BLE.c ****     *                                               advertising. Use CyBle_GetState()
 749:.\Generated_Source\PSoC4/BLE.c ****     *                                               to determine the state. Sequential 
 750:.\Generated_Source\PSoC4/BLE.c ****     *                                               advertising could be started when
 751:.\Generated_Source\PSoC4/BLE.c ****     *                                               CYBLE_STATE_DISCONNECTED state is
 752:.\Generated_Source\PSoC4/BLE.c ****     *                                               returned.
 753:.\Generated_Source\PSoC4/BLE.c ****     * 
 754:.\Generated_Source\PSoC4/BLE.c ****     *  \param advertisingIntervalType: Fast or slow advertising interval with timings
 755:.\Generated_Source\PSoC4/BLE.c ****     *                                 entered in Advertising settings section of the
 756:.\Generated_Source\PSoC4/BLE.c ****     *                                 customizer.
 757:.\Generated_Source\PSoC4/BLE.c ****     *  * CYBLE_ADVERTISING_FAST   0x00u
 758:.\Generated_Source\PSoC4/BLE.c ****     *  * CYBLE_ADVERTISING_SLOW   0x01u
 759:.\Generated_Source\PSoC4/BLE.c ****     *  * CYBLE_ADVERTISING_CUSTOM 0x02u
 760:.\Generated_Source\PSoC4/BLE.c ****     * 
 761:.\Generated_Source\PSoC4/BLE.c ****     * \return
 762:.\Generated_Source\PSoC4/BLE.c ****     *  CYBLE_API_RESULT_T : Return value indicates if the function succeeded or
 763:.\Generated_Source\PSoC4/BLE.c ****     *  failed. Following are the possible error codes.
 764:.\Generated_Source\PSoC4/BLE.c ****     * 
 765:.\Generated_Source\PSoC4/BLE.c ****     *   Errors codes                      |  Description
 766:.\Generated_Source\PSoC4/BLE.c ****     *   --------------------------------- |  --------------------------------
 767:.\Generated_Source\PSoC4/BLE.c ****     *   CYBLE_ERROR_OK                    |  On successful operation.
 768:.\Generated_Source\PSoC4/BLE.c ****     *   CYBLE_ERROR_INVALID_PARAMETER     |  On passing an invalid parameter.
 769:.\Generated_Source\PSoC4/BLE.c ****     *   CYBLE_ERROR_INVALID_STATE         |  On calling this API not in Disconnected state.
 770:.\Generated_Source\PSoC4/BLE.c ****     *
 771:.\Generated_Source\PSoC4/BLE.c ****     * 
 772:.\Generated_Source\PSoC4/BLE.c ****     *******************************************************************************/
 773:.\Generated_Source\PSoC4/BLE.c ****     CYBLE_API_RESULT_T CyBle_GappStartAdvertisement(uint8 advertisingIntervalType)
 774:.\Generated_Source\PSoC4/BLE.c ****     {
ARM GAS  C:\Users\mlgjmoor\AppData\Local\Temp\ccKDuCjD.s 			page 15


 775:.\Generated_Source\PSoC4/BLE.c ****         CYBLE_API_RESULT_T apiResult;
 776:.\Generated_Source\PSoC4/BLE.c ****         
 777:.\Generated_Source\PSoC4/BLE.c ****         if(advertisingIntervalType > CYBLE_ADVERTISING_CUSTOM)
 778:.\Generated_Source\PSoC4/BLE.c ****         {
 779:.\Generated_Source\PSoC4/BLE.c ****             apiResult = CYBLE_ERROR_INVALID_PARAMETER;
 780:.\Generated_Source\PSoC4/BLE.c ****         }
 781:.\Generated_Source\PSoC4/BLE.c ****         else if((CYBLE_STATE_DISCONNECTED == CyBle_GetState()) && ((cyBle_eventHandlerFlag & CYBLE_
 782:.\Generated_Source\PSoC4/BLE.c ****         {   
 783:.\Generated_Source\PSoC4/BLE.c ****             if(advertisingIntervalType == CYBLE_ADVERTISING_FAST)
 784:.\Generated_Source\PSoC4/BLE.c ****             {
 785:.\Generated_Source\PSoC4/BLE.c ****                 cyBle_discoveryModeInfo.advTo = CYBLE_FAST_ADV_TIMEOUT;
 786:.\Generated_Source\PSoC4/BLE.c ****                 cyBle_discoveryModeInfo.advParam->advIntvMin = CYBLE_FAST_ADV_INT_MIN;
 787:.\Generated_Source\PSoC4/BLE.c ****                 cyBle_discoveryModeInfo.advParam->advIntvMax = CYBLE_FAST_ADV_INT_MAX;
 788:.\Generated_Source\PSoC4/BLE.c ****             }
 789:.\Generated_Source\PSoC4/BLE.c ****             else if(advertisingIntervalType == CYBLE_ADVERTISING_SLOW)
 790:.\Generated_Source\PSoC4/BLE.c ****             {
 791:.\Generated_Source\PSoC4/BLE.c ****                 cyBle_discoveryModeInfo.advTo = CYBLE_SLOW_ADV_TIMEOUT;
 792:.\Generated_Source\PSoC4/BLE.c ****                 cyBle_discoveryModeInfo.advParam->advIntvMin = CYBLE_SLOW_ADV_INT_MIN;
 793:.\Generated_Source\PSoC4/BLE.c ****                 cyBle_discoveryModeInfo.advParam->advIntvMax = CYBLE_SLOW_ADV_INT_MAX;
 794:.\Generated_Source\PSoC4/BLE.c ****             }       
 795:.\Generated_Source\PSoC4/BLE.c ****             else /* Do not update advertising intervals */
 796:.\Generated_Source\PSoC4/BLE.c ****             {
 797:.\Generated_Source\PSoC4/BLE.c ****             }
 798:.\Generated_Source\PSoC4/BLE.c ****             cyBle_advertisingIntervalType = advertisingIntervalType;
 799:.\Generated_Source\PSoC4/BLE.c ****             apiResult = CyBle_GappEnterDiscoveryMode(&cyBle_discoveryModeInfo);
 800:.\Generated_Source\PSoC4/BLE.c ****         
 801:.\Generated_Source\PSoC4/BLE.c ****             if(CYBLE_ERROR_OK == apiResult)
 802:.\Generated_Source\PSoC4/BLE.c ****             {
 803:.\Generated_Source\PSoC4/BLE.c ****                 cyBle_eventHandlerFlag |= CYBLE_START_FLAG;
 804:.\Generated_Source\PSoC4/BLE.c ****             }
 805:.\Generated_Source\PSoC4/BLE.c ****         }
 806:.\Generated_Source\PSoC4/BLE.c ****         else
 807:.\Generated_Source\PSoC4/BLE.c ****         {
 808:.\Generated_Source\PSoC4/BLE.c ****             apiResult = CYBLE_ERROR_INVALID_STATE;
 809:.\Generated_Source\PSoC4/BLE.c ****         }
 810:.\Generated_Source\PSoC4/BLE.c **** 
 811:.\Generated_Source\PSoC4/BLE.c ****         return (apiResult);
 812:.\Generated_Source\PSoC4/BLE.c ****     }
 813:.\Generated_Source\PSoC4/BLE.c **** 
 814:.\Generated_Source\PSoC4/BLE.c ****     
 815:.\Generated_Source\PSoC4/BLE.c ****     /******************************************************************************
 816:.\Generated_Source\PSoC4/BLE.c ****     * Function Name: CyBle_GappStopAdvertisement
 817:.\Generated_Source\PSoC4/BLE.c ****     ***************************************************************************//**
 818:.\Generated_Source\PSoC4/BLE.c ****     * 
 819:.\Generated_Source\PSoC4/BLE.c ****     *   This function can be used to exit from discovery mode. After the execution 
 820:.\Generated_Source\PSoC4/BLE.c ****     *   of this function, there will no longer be any advertisements. On stopping 
 821:.\Generated_Source\PSoC4/BLE.c ****     *   advertising, GAP Peripheral receives CYBLE_EVT_GAPP_ADVERTISEMENT_START_STOP
 822:.\Generated_Source\PSoC4/BLE.c ****     *   event. It is expected that the application layer tracks the function call 
 823:.\Generated_Source\PSoC4/BLE.c ****     *   performed before occurrence of this event as this event can occur on making 
 824:.\Generated_Source\PSoC4/BLE.c ****     *   a call to Cy_BleGappStartAdvertisement(), CyBle_GappEnterDiscoveryMode(), 
 825:.\Generated_Source\PSoC4/BLE.c ****     *   or CyBle_GappStartAdvertisement() functions as well.
 826:.\Generated_Source\PSoC4/BLE.c ****     *   
 827:.\Generated_Source\PSoC4/BLE.c ****     *   The following event occurs on invoking this function:
 828:.\Generated_Source\PSoC4/BLE.c ****     *   * CYBLE_EVT_GAPP_ADVERTISEMENT_START_STOP
 829:.\Generated_Source\PSoC4/BLE.c ****     * 
 830:.\Generated_Source\PSoC4/BLE.c ****     *  \return
 831:.\Generated_Source\PSoC4/BLE.c ****     *   None
ARM GAS  C:\Users\mlgjmoor\AppData\Local\Temp\ccKDuCjD.s 			page 16


 832:.\Generated_Source\PSoC4/BLE.c ****     * 
 833:.\Generated_Source\PSoC4/BLE.c ****     *******************************************************************************/
 834:.\Generated_Source\PSoC4/BLE.c ****     void CyBle_GappStopAdvertisement(void)
 835:.\Generated_Source\PSoC4/BLE.c ****     {
 836:.\Generated_Source\PSoC4/BLE.c ****         CyBle_GappExitDiscoveryMode();
 837:.\Generated_Source\PSoC4/BLE.c ****         cyBle_eventHandlerFlag |= CYBLE_STOP_FLAG;
 838:.\Generated_Source\PSoC4/BLE.c ****     }
 839:.\Generated_Source\PSoC4/BLE.c ****     
 840:.\Generated_Source\PSoC4/BLE.c ****     
 841:.\Generated_Source\PSoC4/BLE.c ****     /******************************************************************************
 842:.\Generated_Source\PSoC4/BLE.c ****     * Function Name: CyBle_ChangeAdDeviceAddress
 843:.\Generated_Source\PSoC4/BLE.c ****     ***************************************************************************//**
 844:.\Generated_Source\PSoC4/BLE.c ****     * 
 845:.\Generated_Source\PSoC4/BLE.c ****     *  This API is used to set the Bluetooth device address into the advertisement 
 846:.\Generated_Source\PSoC4/BLE.c ****     *  or scan response data structure.
 847:.\Generated_Source\PSoC4/BLE.c ****     * 
 848:.\Generated_Source\PSoC4/BLE.c ****     *  \param bdAddr: Bluetooth Device address. The variable is of type CYBLE_GAP_BD_ADDR_T
 849:.\Generated_Source\PSoC4/BLE.c ****     *  \param dest: 0 - selects advertisement structure, not zero value selects scan 
 850:.\Generated_Source\PSoC4/BLE.c ****     *               response structure.
 851:.\Generated_Source\PSoC4/BLE.c ****     * 
 852:.\Generated_Source\PSoC4/BLE.c ****     * \return
 853:.\Generated_Source\PSoC4/BLE.c ****     *  None
 854:.\Generated_Source\PSoC4/BLE.c ****     *  
 855:.\Generated_Source\PSoC4/BLE.c ****     *******************************************************************************/
 856:.\Generated_Source\PSoC4/BLE.c ****     void CyBle_ChangeAdDeviceAddress(const CYBLE_GAP_BD_ADDR_T* bdAddr, uint8 dest)
 857:.\Generated_Source\PSoC4/BLE.c ****     {
 858:.\Generated_Source\PSoC4/BLE.c ****         uint8 i;
 859:.\Generated_Source\PSoC4/BLE.c ****         uint8 *destBuffer = NULL;
 860:.\Generated_Source\PSoC4/BLE.c ****         
 861:.\Generated_Source\PSoC4/BLE.c ****         if(dest == 0u)      /* Destination - advertising structure */
 862:.\Generated_Source\PSoC4/BLE.c ****         {
 863:.\Generated_Source\PSoC4/BLE.c ****             #ifdef CYBLE_ADV_PKT_INDEX_BLUETOOTH_DEVICE_ADDRESS
 864:.\Generated_Source\PSoC4/BLE.c ****                 destBuffer = &cyBle_discoveryData.advData[CYBLE_ADV_PKT_INDEX_BLUETOOTH_DEVICE_ADDR
 865:.\Generated_Source\PSoC4/BLE.c ****             #endif /* CYBLE_ADV_PKT_INDEX_BLUETOOTH_DEVICE_ADDRESS */
 866:.\Generated_Source\PSoC4/BLE.c ****         }
 867:.\Generated_Source\PSoC4/BLE.c ****         else                /* Destination - scan response structure */
 868:.\Generated_Source\PSoC4/BLE.c ****         {
 869:.\Generated_Source\PSoC4/BLE.c ****             #ifdef CYBLE_SCN_PKT_INDEX_BLUETOOTH_DEVICE_ADDRESS
 870:.\Generated_Source\PSoC4/BLE.c ****                 destBuffer = &cyBle_scanRspData.scanRspData[CYBLE_SCN_PKT_INDEX_BLUETOOTH_DEVICE_AD
 871:.\Generated_Source\PSoC4/BLE.c ****             #endif /* CYBLE_SCN_PKT_INDEX_BLUETOOTH_DEVICE_ADDRESS */    
 872:.\Generated_Source\PSoC4/BLE.c ****         }
 873:.\Generated_Source\PSoC4/BLE.c ****         
 874:.\Generated_Source\PSoC4/BLE.c ****         if(destBuffer != NULL)
 875:.\Generated_Source\PSoC4/BLE.c ****         {
 876:.\Generated_Source\PSoC4/BLE.c ****             /* Update Device Address type */
 877:.\Generated_Source\PSoC4/BLE.c ****             destBuffer[0u] = bdAddr->type;
 878:.\Generated_Source\PSoC4/BLE.c ****             
 879:.\Generated_Source\PSoC4/BLE.c ****             for(i = 0u; i < CYBLE_GAP_BD_ADDR_SIZE; i++)
 880:.\Generated_Source\PSoC4/BLE.c ****             {
 881:.\Generated_Source\PSoC4/BLE.c ****                 destBuffer[i + 1u] = bdAddr->bdAddr[i];
 882:.\Generated_Source\PSoC4/BLE.c ****             }
 883:.\Generated_Source\PSoC4/BLE.c ****         }
 884:.\Generated_Source\PSoC4/BLE.c ****     }
 885:.\Generated_Source\PSoC4/BLE.c ****   
 886:.\Generated_Source\PSoC4/BLE.c **** #endif /* CYBLE_GAP_ROLE_PERIPHERAL || CYBLE_GAP_ROLE_BROADCASTER */
 887:.\Generated_Source\PSoC4/BLE.c **** 
 888:.\Generated_Source\PSoC4/BLE.c **** 
ARM GAS  C:\Users\mlgjmoor\AppData\Local\Temp\ccKDuCjD.s 			page 17


 889:.\Generated_Source\PSoC4/BLE.c **** #if(CYBLE_GAP_ROLE_CENTRAL || CYBLE_GAP_ROLE_OBSERVER)
 890:.\Generated_Source\PSoC4/BLE.c **** 
 891:.\Generated_Source\PSoC4/BLE.c ****     /******************************************************************************
 892:.\Generated_Source\PSoC4/BLE.c ****     * Function Name: CyBle_GapcStartScan
 893:.\Generated_Source\PSoC4/BLE.c ****     ***************************************************************************//**
 894:.\Generated_Source\PSoC4/BLE.c ****     * 
 895:.\Generated_Source\PSoC4/BLE.c ****     *   This function is used for discovering GAP peripheral devices that are 
 896:.\Generated_Source\PSoC4/BLE.c ****     *   available for connection. It performs the scanning routine using the 
 897:.\Generated_Source\PSoC4/BLE.c ****     *   parameters entered in the component's customizer.
 898:.\Generated_Source\PSoC4/BLE.c ****     *   
 899:.\Generated_Source\PSoC4/BLE.c ****     *   As soon as the discovery operation starts, CYBLE_EVT_GAPC_SCAN_START_STOP 
 900:.\Generated_Source\PSoC4/BLE.c ****     *   event is generated. The CYBLE_EVT_GAPC_SCAN_PROGRESS_RESULT event is 
 901:.\Generated_Source\PSoC4/BLE.c ****     *   generated when a GAP peripheral device is located. There are three discovery
 902:.\Generated_Source\PSoC4/BLE.c ****     *   procedures can be selected in the customizer's GUI:
 903:.\Generated_Source\PSoC4/BLE.c ****     *   
 904:.\Generated_Source\PSoC4/BLE.c ****     *   * Observation procedure: A device performing the observer role receives only
 905:.\Generated_Source\PSoC4/BLE.c ****     *                            advertisement data from devices irrespective of 
 906:.\Generated_Source\PSoC4/BLE.c ****     *                            their discoverable mode settings. Advertisement 
 907:.\Generated_Source\PSoC4/BLE.c ****     *                            data received is provided by the event,      
 908:.\Generated_Source\PSoC4/BLE.c ****     *                            CYBLE_EVT_GAPC_SCAN_PROGRESS_RESULT. This procedure
 909:.\Generated_Source\PSoC4/BLE.c ****     *                            requires the scanType sub parameter to be passive
 910:.\Generated_Source\PSoC4/BLE.c ****     *                            scanning. 
 911:.\Generated_Source\PSoC4/BLE.c ****     *   
 912:.\Generated_Source\PSoC4/BLE.c ****     *   * Limited Discovery procedure: A device performing the limited discovery
 913:.\Generated_Source\PSoC4/BLE.c ****     *                                  procedure receives advertisement data and 
 914:.\Generated_Source\PSoC4/BLE.c ****     *                                  scan# response data from devices in the 
 915:.\Generated_Source\PSoC4/BLE.c ****     *                                  limited discoverable mode only. Received data
 916:.\Generated_Source\PSoC4/BLE.c ****     *                                  is provided by the event, 
 917:.\Generated_Source\PSoC4/BLE.c ****     *                                  CYBLE_EVT_GAPC_SCAN_PROGRESS_RESULT. This 
 918:.\Generated_Source\PSoC4/BLE.c ****     *                                  procedure requires the scanType sub-parameter 
 919:.\Generated_Source\PSoC4/BLE.c ****     *                                  to be active scanning.
 920:.\Generated_Source\PSoC4/BLE.c ****     *   
 921:.\Generated_Source\PSoC4/BLE.c ****     *   * General Discovery procedure: A device performing the general discovery 
 922:.\Generated_Source\PSoC4/BLE.c ****     *                                  procedure receives the advertisement data and
 923:.\Generated_Source\PSoC4/BLE.c ****     *                                  scan response data from devices in both 
 924:.\Generated_Source\PSoC4/BLE.c ****     *                                  limited discoverable mode and the general 
 925:.\Generated_Source\PSoC4/BLE.c ****     *                                  discoverable mode. Received data is provided
 926:.\Generated_Source\PSoC4/BLE.c ****     *                                  by the event,
 927:.\Generated_Source\PSoC4/BLE.c ****     *                                  CYBLE_EVT_GAPC_SCAN_PROGRESS_RESULT. This 
 928:.\Generated_Source\PSoC4/BLE.c ****     *                                  procedure requires the scanType sub-parameter
 929:.\Generated_Source\PSoC4/BLE.c ****     *                                  to be active scanning.
 930:.\Generated_Source\PSoC4/BLE.c ****     *   
 931:.\Generated_Source\PSoC4/BLE.c ****     *   Every Advertisement / Scan response packet received results in a new event, 
 932:.\Generated_Source\PSoC4/BLE.c ****     *   CYBLE_EVT_GAPC_SCAN_PROGRESS_RESULT.
 933:.\Generated_Source\PSoC4/BLE.c ****     *   If 'scanTo' sub-parameter is a non-zero value, then upon commencement of 
 934:.\Generated_Source\PSoC4/BLE.c ****     *   discovery procedure and elapsed time = 'scanTo', CYBLE_EVT_TIMEOUT event
 935:.\Generated_Source\PSoC4/BLE.c ****     *   is generated with the event parameter indicating CYBLE_GAP_SCAN_TO.
 936:.\Generated_Source\PSoC4/BLE.c ****     *   Possible generated events are:
 937:.\Generated_Source\PSoC4/BLE.c ****     *   * CYBLE_EVT_GAPC_SCAN_START_STOP: If a device started or stopped scanning. 
 938:.\Generated_Source\PSoC4/BLE.c ****     *                                     Use CyBle_GetState() to determine the 
 939:.\Generated_Source\PSoC4/BLE.c ****     *                                     state. Sequential scanning could be 
 940:.\Generated_Source\PSoC4/BLE.c ****     *                                     started when CYBLE_STATE_DISCONNECTED 
 941:.\Generated_Source\PSoC4/BLE.c ****     *                                     state is returned. 
 942:.\Generated_Source\PSoC4/BLE.c ****     *   * CYBLE_EVT_GAPC_SCAN_PROGRESS_RESULT 
 943:.\Generated_Source\PSoC4/BLE.c ****     *   * CYBLE_EVT_TIMEOUT (CYBLE_GAP_SCAN_TO)
 944:.\Generated_Source\PSoC4/BLE.c ****     * 
 945:.\Generated_Source\PSoC4/BLE.c ****     *   \param scanningIntervalType:  Fast or slow scanning interval with
ARM GAS  C:\Users\mlgjmoor\AppData\Local\Temp\ccKDuCjD.s 			page 18


 946:.\Generated_Source\PSoC4/BLE.c ****     *       timings entered in Scan settings section of the customizer.
 947:.\Generated_Source\PSoC4/BLE.c ****     * 	  * CYBLE_SCANNING_FAST   0x00u
 948:.\Generated_Source\PSoC4/BLE.c ****     * 	  * CYBLE_SCANNING_SLOW   0x01u
 949:.\Generated_Source\PSoC4/BLE.c ****     * 	  * CYBLE_SCANNING_CUSTOM 0x02u
 950:.\Generated_Source\PSoC4/BLE.c ****     * 
 951:.\Generated_Source\PSoC4/BLE.c ****     * \return
 952:.\Generated_Source\PSoC4/BLE.c ****     *  CYBLE_API_RESULT_T : Return value indicates if the function succeeded or
 953:.\Generated_Source\PSoC4/BLE.c ****     *  failed. Following are the possible error codes.
 954:.\Generated_Source\PSoC4/BLE.c ****     *
 955:.\Generated_Source\PSoC4/BLE.c ****     *   Errors codes                       | Description
 956:.\Generated_Source\PSoC4/BLE.c ****     *   ---------------------------------- | -----------------------------------
 957:.\Generated_Source\PSoC4/BLE.c ****     *   CYBLE_ERROR_OK                     | On successful operation.
 958:.\Generated_Source\PSoC4/BLE.c ****     *   CYBLE_ERROR_STACK_INTERNAL         | An error occurred in the BLE stack.
 959:.\Generated_Source\PSoC4/BLE.c ****     *   CYBLE_ERROR_INVALID_PARAMETER      | On passing an invalid parameter.
 960:.\Generated_Source\PSoC4/BLE.c ****     *  
 961:.\Generated_Source\PSoC4/BLE.c ****     *******************************************************************************/
 962:.\Generated_Source\PSoC4/BLE.c ****     CYBLE_API_RESULT_T CyBle_GapcStartScan(uint8 scanningIntervalType)
 963:.\Generated_Source\PSoC4/BLE.c ****     {
 964:.\Generated_Source\PSoC4/BLE.c ****         CYBLE_API_RESULT_T apiResult;
 965:.\Generated_Source\PSoC4/BLE.c **** 
 966:.\Generated_Source\PSoC4/BLE.c ****         if(scanningIntervalType > CYBLE_SCANNING_CUSTOM)
 967:.\Generated_Source\PSoC4/BLE.c ****         {
 968:.\Generated_Source\PSoC4/BLE.c ****             apiResult = CYBLE_ERROR_INVALID_PARAMETER;
 969:.\Generated_Source\PSoC4/BLE.c ****         }
 970:.\Generated_Source\PSoC4/BLE.c ****         else
 971:.\Generated_Source\PSoC4/BLE.c ****         {
 972:.\Generated_Source\PSoC4/BLE.c ****             if(scanningIntervalType == CYBLE_SCANNING_FAST)
 973:.\Generated_Source\PSoC4/BLE.c ****             {
 974:.\Generated_Source\PSoC4/BLE.c ****                 cyBle_discoveryInfo.scanTo = CYBLE_FAST_SCAN_TIMEOUT;
 975:.\Generated_Source\PSoC4/BLE.c ****                 cyBle_discoveryInfo.scanIntv = CYBLE_FAST_SCAN_INTERVAL;
 976:.\Generated_Source\PSoC4/BLE.c ****                 cyBle_discoveryInfo.scanWindow = CYBLE_FAST_SCAN_WINDOW;
 977:.\Generated_Source\PSoC4/BLE.c ****             }
 978:.\Generated_Source\PSoC4/BLE.c ****             else if(scanningIntervalType == CYBLE_SCANNING_SLOW)
 979:.\Generated_Source\PSoC4/BLE.c ****             {
 980:.\Generated_Source\PSoC4/BLE.c ****                 cyBle_discoveryInfo.scanTo = CYBLE_SLOW_SCAN_TIMEOUT;
 981:.\Generated_Source\PSoC4/BLE.c ****                 cyBle_discoveryInfo.scanIntv = CYBLE_SLOW_SCAN_INTERVAL;
 982:.\Generated_Source\PSoC4/BLE.c ****                 cyBle_discoveryInfo.scanWindow = CYBLE_SLOW_SCAN_WINDOW;
 983:.\Generated_Source\PSoC4/BLE.c ****             }       
 984:.\Generated_Source\PSoC4/BLE.c ****             else /* Do not update scanning intervals */
 985:.\Generated_Source\PSoC4/BLE.c ****             {
 986:.\Generated_Source\PSoC4/BLE.c ****             }
 987:.\Generated_Source\PSoC4/BLE.c ****             
 988:.\Generated_Source\PSoC4/BLE.c ****             cyBle_scanningIntervalType = scanningIntervalType;
 989:.\Generated_Source\PSoC4/BLE.c ****             apiResult = CyBle_GapcStartDiscovery(&cyBle_discoveryInfo);
 990:.\Generated_Source\PSoC4/BLE.c ****         
 991:.\Generated_Source\PSoC4/BLE.c ****             if(CYBLE_ERROR_OK == apiResult)
 992:.\Generated_Source\PSoC4/BLE.c ****             {
 993:.\Generated_Source\PSoC4/BLE.c ****                 cyBle_eventHandlerFlag |= CYBLE_START_FLAG;
 994:.\Generated_Source\PSoC4/BLE.c ****             }
 995:.\Generated_Source\PSoC4/BLE.c ****         }
 996:.\Generated_Source\PSoC4/BLE.c ****        
 997:.\Generated_Source\PSoC4/BLE.c ****         return (apiResult);
 998:.\Generated_Source\PSoC4/BLE.c ****     }
 999:.\Generated_Source\PSoC4/BLE.c ****     
1000:.\Generated_Source\PSoC4/BLE.c ****     
1001:.\Generated_Source\PSoC4/BLE.c ****     /******************************************************************************
1002:.\Generated_Source\PSoC4/BLE.c ****     * Function Name: CyBle_GapcStopScan
ARM GAS  C:\Users\mlgjmoor\AppData\Local\Temp\ccKDuCjD.s 			page 19


1003:.\Generated_Source\PSoC4/BLE.c ****     ***************************************************************************//**
1004:.\Generated_Source\PSoC4/BLE.c ****     * 
1005:.\Generated_Source\PSoC4/BLE.c ****     *   This function used to stop the discovery of devices. On stopping discovery
1006:.\Generated_Source\PSoC4/BLE.c ****     *   operation, CYBLE_EVT_GAPC_SCAN_START_STOP event is generated. Application
1007:.\Generated_Source\PSoC4/BLE.c ****     *   layer needs to keep track of the function call made before receiving this
1008:.\Generated_Source\PSoC4/BLE.c ****     *   event to associate this event with either the start or stop discovery
1009:.\Generated_Source\PSoC4/BLE.c ****     *   function.
1010:.\Generated_Source\PSoC4/BLE.c ****     * 
1011:.\Generated_Source\PSoC4/BLE.c ****     *   Possible events generated are:
1012:.\Generated_Source\PSoC4/BLE.c ****     *    * CYBLE_EVT_GAPC_SCAN_START_STOP
1013:.\Generated_Source\PSoC4/BLE.c ****     * 
1014:.\Generated_Source\PSoC4/BLE.c ****     *  \return
1015:.\Generated_Source\PSoC4/BLE.c ****     *   None
1016:.\Generated_Source\PSoC4/BLE.c ****     * 
1017:.\Generated_Source\PSoC4/BLE.c ****     *******************************************************************************/
1018:.\Generated_Source\PSoC4/BLE.c ****     void CyBle_GapcStopScan(void)
1019:.\Generated_Source\PSoC4/BLE.c ****     {
1020:.\Generated_Source\PSoC4/BLE.c ****         CyBle_GapcStopDiscovery();
1021:.\Generated_Source\PSoC4/BLE.c ****         
1022:.\Generated_Source\PSoC4/BLE.c ****         cyBle_eventHandlerFlag |= CYBLE_STOP_FLAG;
1023:.\Generated_Source\PSoC4/BLE.c ****     }
1024:.\Generated_Source\PSoC4/BLE.c **** 
1025:.\Generated_Source\PSoC4/BLE.c ****     
1026:.\Generated_Source\PSoC4/BLE.c **** #endif /* CYBLE_GAP_ROLE_CENTRAL || CYBLE_GAP_ROLE_OBSERVER */
1027:.\Generated_Source\PSoC4/BLE.c **** 
1028:.\Generated_Source\PSoC4/BLE.c **** 
1029:.\Generated_Source\PSoC4/BLE.c **** #if(CYBLE_GAP_ROLE_CENTRAL)
1030:.\Generated_Source\PSoC4/BLE.c **** 
1031:.\Generated_Source\PSoC4/BLE.c ****     /******************************************************************************
1032:.\Generated_Source\PSoC4/BLE.c ****     * Function Name: CyBle_GapcConnectDevice
1033:.\Generated_Source\PSoC4/BLE.c ****     ***************************************************************************//**
1034:.\Generated_Source\PSoC4/BLE.c ****     * 
1035:.\Generated_Source\PSoC4/BLE.c ****     *  This function is used to send a connection request to the remote device with
1036:.\Generated_Source\PSoC4/BLE.c ****     *  the connection parameters set in the component customizer. This function needs
1037:.\Generated_Source\PSoC4/BLE.c ****     *  to be called only once after the target device is discovered by 
1038:.\Generated_Source\PSoC4/BLE.c ****     *  CyBle_GapcStartScan() and further scanning has stopped. Scanning is 
1039:.\Generated_Source\PSoC4/BLE.c ****     *  successfully stopped on invoking CyBle_GapcStopScan() and then receiving the
1040:.\Generated_Source\PSoC4/BLE.c ****     *  event CYBLE_EVT_GAPC_SCAN_START_STOP with sub-parameter 'success' = 0x01u.
1041:.\Generated_Source\PSoC4/BLE.c ****     *  
1042:.\Generated_Source\PSoC4/BLE.c ****     *  On successful connection, the following events are generated at the GAP 
1043:.\Generated_Source\PSoC4/BLE.c ****     *  Central device (as well as the GAP Peripheral device), in the following order.
1044:.\Generated_Source\PSoC4/BLE.c ****     *  * CYBLE_EVT_GATT_CONNECT_IND
1045:.\Generated_Source\PSoC4/BLE.c ****     *  * CYBLE_EVT_GAP_DEVICE_CONNECTED - If the device connects to a GAP Central and 
1046:.\Generated_Source\PSoC4/BLE.c ****     *    Link Layer Privacy is disabled in component customizer.
1047:.\Generated_Source\PSoC4/BLE.c ****     *  * CYBLE_EVT_GAP_ENHANCE_CONN_COMPLETE - If the device connects to a GAP Central and 
1048:.\Generated_Source\PSoC4/BLE.c ****     *    Link Layer Privacy is enabled in component customizer.
1049:.\Generated_Source\PSoC4/BLE.c ****     *  * CYBLE_EVT_GAP_DEVICE_CONNECTED
1050:.\Generated_Source\PSoC4/BLE.c ****     *  
1051:.\Generated_Source\PSoC4/BLE.c ****     *  A procedure is considered to have timed out if a connection response packet is 
1052:.\Generated_Source\PSoC4/BLE.c ****     *  not received within time set by cyBle_connectingTimeout global variable
1053:.\Generated_Source\PSoC4/BLE.c ****     *  (30 seconds by default). CYBLE_EVT_TIMEOUT event with CYBLE_GENERIC_TO parameter
1054:.\Generated_Source\PSoC4/BLE.c ****     *  will indicate about connection procedure timeout. Connection will automatically
1055:.\Generated_Source\PSoC4/BLE.c ****     *  be canceled and state will be changed to CYBLE_STATE_DISCONNECTED.
1056:.\Generated_Source\PSoC4/BLE.c ****     * 
1057:.\Generated_Source\PSoC4/BLE.c ****     *  \param address: The device address of the remote device to connect to. 
1058:.\Generated_Source\PSoC4/BLE.c ****     *  
1059:.\Generated_Source\PSoC4/BLE.c ****     * \return
ARM GAS  C:\Users\mlgjmoor\AppData\Local\Temp\ccKDuCjD.s 			page 20


1060:.\Generated_Source\PSoC4/BLE.c ****     *  CYBLE_API_RESULT_T : Return value indicates if the function succeeded or 
1061:.\Generated_Source\PSoC4/BLE.c ****     *  failed. Following are the possible error codes.
1062:.\Generated_Source\PSoC4/BLE.c ****     *
1063:.\Generated_Source\PSoC4/BLE.c ****     *   Errors codes                       | Description
1064:.\Generated_Source\PSoC4/BLE.c ****     *   ------------                       | -----------
1065:.\Generated_Source\PSoC4/BLE.c ****     *   CYBLE_ERROR_OK                     | On successful operation.
1066:.\Generated_Source\PSoC4/BLE.c ****     *   CYBLE_ERROR_STACK_INTERNAL         | On error occurred in the BLE stack.
1067:.\Generated_Source\PSoC4/BLE.c ****     *   CYBLE_ERROR_INVALID_PARAMETER      | On passing an invalid parameter.
1068:.\Generated_Source\PSoC4/BLE.c ****     *   CYBLE_ERROR_INVALID_STATE          | On calling this API not in Disconnected state.
1069:.\Generated_Source\PSoC4/BLE.c ****     *  
1070:.\Generated_Source\PSoC4/BLE.c ****     ******************************************************************************/
1071:.\Generated_Source\PSoC4/BLE.c ****     CYBLE_API_RESULT_T CyBle_GapcConnectDevice(const CYBLE_GAP_BD_ADDR_T * address)
1072:.\Generated_Source\PSoC4/BLE.c ****     {
1073:.\Generated_Source\PSoC4/BLE.c ****         CYBLE_API_RESULT_T apiResult;
1074:.\Generated_Source\PSoC4/BLE.c ****         uint8 i;
1075:.\Generated_Source\PSoC4/BLE.c **** 
1076:.\Generated_Source\PSoC4/BLE.c ****         if(CyBle_GetState() != CYBLE_STATE_DISCONNECTED)
1077:.\Generated_Source\PSoC4/BLE.c ****         {
1078:.\Generated_Source\PSoC4/BLE.c ****             apiResult = CYBLE_ERROR_INVALID_STATE;
1079:.\Generated_Source\PSoC4/BLE.c ****         }
1080:.\Generated_Source\PSoC4/BLE.c ****         else if(address == NULL)
1081:.\Generated_Source\PSoC4/BLE.c ****         {
1082:.\Generated_Source\PSoC4/BLE.c ****             apiResult = CYBLE_ERROR_INVALID_PARAMETER;
1083:.\Generated_Source\PSoC4/BLE.c ****         }
1084:.\Generated_Source\PSoC4/BLE.c ****         else
1085:.\Generated_Source\PSoC4/BLE.c ****         {
1086:.\Generated_Source\PSoC4/BLE.c ****             for(i = 0u; i < CYBLE_GAP_BD_ADDR_SIZE; i++)
1087:.\Generated_Source\PSoC4/BLE.c ****             {
1088:.\Generated_Source\PSoC4/BLE.c ****                 cyBle_connectionParameters.peerBdAddr[i] = address->bdAddr[i];
1089:.\Generated_Source\PSoC4/BLE.c ****             }
1090:.\Generated_Source\PSoC4/BLE.c ****             cyBle_connectionParameters.peerAddrType = address -> type;
1091:.\Generated_Source\PSoC4/BLE.c ****             apiResult = CyBle_GapcInitConnection(&cyBle_connectionParameters);
1092:.\Generated_Source\PSoC4/BLE.c ****             
1093:.\Generated_Source\PSoC4/BLE.c ****             if(apiResult == CYBLE_ERROR_OK)
1094:.\Generated_Source\PSoC4/BLE.c ****             {
1095:.\Generated_Source\PSoC4/BLE.c ****                 CyBle_SetState(CYBLE_STATE_CONNECTING);
1096:.\Generated_Source\PSoC4/BLE.c ****                 if(cyBle_connectingTimeout != 0u)
1097:.\Generated_Source\PSoC4/BLE.c ****                 {
1098:.\Generated_Source\PSoC4/BLE.c ****                     (void)CyBle_StartTimer(cyBle_connectingTimeout);
1099:.\Generated_Source\PSoC4/BLE.c ****                 }
1100:.\Generated_Source\PSoC4/BLE.c ****             }
1101:.\Generated_Source\PSoC4/BLE.c ****         }
1102:.\Generated_Source\PSoC4/BLE.c ****         return (apiResult);
1103:.\Generated_Source\PSoC4/BLE.c ****     }
1104:.\Generated_Source\PSoC4/BLE.c ****     
1105:.\Generated_Source\PSoC4/BLE.c **** 
1106:.\Generated_Source\PSoC4/BLE.c ****     /******************************************************************************
1107:.\Generated_Source\PSoC4/BLE.c ****     * Function Name: CyBle_GapcCancelDeviceConnection
1108:.\Generated_Source\PSoC4/BLE.c ****     ***************************************************************************//**
1109:.\Generated_Source\PSoC4/BLE.c ****     * 
1110:.\Generated_Source\PSoC4/BLE.c ****     *  This function cancels a previously initiated connection with the remote 
1111:.\Generated_Source\PSoC4/BLE.c ****     *  device. It is a blocking function. No event is generated on calling this 
1112:.\Generated_Source\PSoC4/BLE.c ****     *  function. If the devices are already connected then this function should not
1113:.\Generated_Source\PSoC4/BLE.c ****     *  be used. If you intend to disconnect from an existing connection, the function
1114:.\Generated_Source\PSoC4/BLE.c ****     *  CyBle_GapDisconnect() should be used.
1115:.\Generated_Source\PSoC4/BLE.c ****     * 
1116:.\Generated_Source\PSoC4/BLE.c ****     * \return
ARM GAS  C:\Users\mlgjmoor\AppData\Local\Temp\ccKDuCjD.s 			page 21


1117:.\Generated_Source\PSoC4/BLE.c ****     *  CYBLE_API_RESULT_T : Return value indicates if the function succeeded or 
1118:.\Generated_Source\PSoC4/BLE.c ****     *  failed. Following are the possible error codes.
1119:.\Generated_Source\PSoC4/BLE.c ****     *
1120:.\Generated_Source\PSoC4/BLE.c ****     *   Errors codes                       | Description
1121:.\Generated_Source\PSoC4/BLE.c ****     *   ---------------------------------- | --------------------------------------
1122:.\Generated_Source\PSoC4/BLE.c ****     *   CYBLE_ERROR_OK                     | On successful operation.
1123:.\Generated_Source\PSoC4/BLE.c ****     *   CYBLE_ERROR_STACK_INTERNAL         | An error occurred in the BLE stack.
1124:.\Generated_Source\PSoC4/BLE.c ****     *   CYBLE_ERROR_INVALID_STATE          | On calling this API not in Connecting state.
1125:.\Generated_Source\PSoC4/BLE.c ****     *  
1126:.\Generated_Source\PSoC4/BLE.c ****     *******************************************************************************/
1127:.\Generated_Source\PSoC4/BLE.c ****     CYBLE_API_RESULT_T CyBle_GapcCancelDeviceConnection(void)
1128:.\Generated_Source\PSoC4/BLE.c ****     {
1129:.\Generated_Source\PSoC4/BLE.c ****         CYBLE_API_RESULT_T apiResult;
1130:.\Generated_Source\PSoC4/BLE.c ****         
1131:.\Generated_Source\PSoC4/BLE.c ****         if(CyBle_GetState() != CYBLE_STATE_CONNECTING)
1132:.\Generated_Source\PSoC4/BLE.c ****         {
1133:.\Generated_Source\PSoC4/BLE.c ****             apiResult = CYBLE_ERROR_INVALID_STATE;
1134:.\Generated_Source\PSoC4/BLE.c ****         }
1135:.\Generated_Source\PSoC4/BLE.c ****         else 
1136:.\Generated_Source\PSoC4/BLE.c ****         {
1137:.\Generated_Source\PSoC4/BLE.c ****             apiResult = CyBle_GapcCancelConnection();
1138:.\Generated_Source\PSoC4/BLE.c ****             
1139:.\Generated_Source\PSoC4/BLE.c ****             if(cyBle_connectingTimeout != 0u)
1140:.\Generated_Source\PSoC4/BLE.c ****             {
1141:.\Generated_Source\PSoC4/BLE.c ****                 (void)CyBle_StopTimer();
1142:.\Generated_Source\PSoC4/BLE.c ****             }
1143:.\Generated_Source\PSoC4/BLE.c **** 
1144:.\Generated_Source\PSoC4/BLE.c ****             if(apiResult == CYBLE_ERROR_OK)
1145:.\Generated_Source\PSoC4/BLE.c ****             {
1146:.\Generated_Source\PSoC4/BLE.c ****                 CyBle_SetState(CYBLE_STATE_DISCONNECTED);
1147:.\Generated_Source\PSoC4/BLE.c ****             }
1148:.\Generated_Source\PSoC4/BLE.c ****         }
1149:.\Generated_Source\PSoC4/BLE.c ****         return (apiResult);
1150:.\Generated_Source\PSoC4/BLE.c ****     }    
1151:.\Generated_Source\PSoC4/BLE.c **** 
1152:.\Generated_Source\PSoC4/BLE.c ****     
1153:.\Generated_Source\PSoC4/BLE.c **** #endif /* CYBLE_GAP_ROLE_CENTRAL */
1154:.\Generated_Source\PSoC4/BLE.c **** 
1155:.\Generated_Source\PSoC4/BLE.c **** 
1156:.\Generated_Source\PSoC4/BLE.c **** #if(CYBLE_GATT_ROLE_SERVER)
1157:.\Generated_Source\PSoC4/BLE.c **** 
1158:.\Generated_Source\PSoC4/BLE.c **** #if(CYBLE_GAP_ROLE_PERIPHERAL)
1159:.\Generated_Source\PSoC4/BLE.c **** 
1160:.\Generated_Source\PSoC4/BLE.c ****         /******************************************************************************
1161:.\Generated_Source\PSoC4/BLE.c ****         * Function Name: CyBle_ChangeAdLocalName
1162:.\Generated_Source\PSoC4/BLE.c ****         ***************************************************************************//**
1163:.\Generated_Source\PSoC4/BLE.c ****         *  This API is used to set the local device name in the advertisement or scan 
1164:.\Generated_Source\PSoC4/BLE.c ****         *  response data structure.
1165:.\Generated_Source\PSoC4/BLE.c ****         * 
1166:.\Generated_Source\PSoC4/BLE.c ****         *  \param name: The local device name string to be set in advertisement data 
1167:.\Generated_Source\PSoC4/BLE.c ****         *            structure.
1168:.\Generated_Source\PSoC4/BLE.c ****         *  \param dest: 0 - advertisement structure, not zero value selects scan response
1169:.\Generated_Source\PSoC4/BLE.c ****         *              structure.
1170:.\Generated_Source\PSoC4/BLE.c ****         * 
1171:.\Generated_Source\PSoC4/BLE.c ****         * \return
1172:.\Generated_Source\PSoC4/BLE.c ****         *  None
1173:.\Generated_Source\PSoC4/BLE.c ****         *  
ARM GAS  C:\Users\mlgjmoor\AppData\Local\Temp\ccKDuCjD.s 			page 22


1174:.\Generated_Source\PSoC4/BLE.c ****         *******************************************************************************/
1175:.\Generated_Source\PSoC4/BLE.c ****         static void CyBle_ChangeAdLocalName(const char8 name[], uint8 dest)
1176:.\Generated_Source\PSoC4/BLE.c ****         {
  25              		.loc 1 1176 0
  26              		.cfi_startproc
  27              	.LVL0:
  28 0000 70B5     		push	{r4, r5, r6, lr}
  29              		.cfi_def_cfa_offset 16
  30              		.cfi_offset 4, -16
  31              		.cfi_offset 5, -12
  32              		.cfi_offset 6, -8
  33              		.cfi_offset 14, -4
  34              	.LVL1:
1177:.\Generated_Source\PSoC4/BLE.c ****             uint8 i;
1178:.\Generated_Source\PSoC4/BLE.c ****             uint8 flag = 0u;
1179:.\Generated_Source\PSoC4/BLE.c ****             uint8 adLength = 0u;
1180:.\Generated_Source\PSoC4/BLE.c ****             uint8 byteCounter = 0u;
1181:.\Generated_Source\PSoC4/BLE.c ****             uint8 *destBuffer;
1182:.\Generated_Source\PSoC4/BLE.c ****             uint8 maxLength;
1183:.\Generated_Source\PSoC4/BLE.c ****             
1184:.\Generated_Source\PSoC4/BLE.c ****             if(dest == 0u)      /* Destination - advertising structure */
  35              		.loc 1 1184 0
  36 0002 0029     		cmp	r1, #0
  37 0004 05D1     		bne	.L2
  38              	.LVL2:
1185:.\Generated_Source\PSoC4/BLE.c ****             {
1186:.\Generated_Source\PSoC4/BLE.c ****                 destBuffer = cyBle_discoveryData.advData;
1187:.\Generated_Source\PSoC4/BLE.c ****                 maxLength = cyBle_discoveryData.advDataLen;
  39              		.loc 1 1187 0
  40 0006 1A4C     		ldr	r4, .L15
  41 0008 E67F     		ldrb	r6, [r4, #31]
  42              	.LVL3:
  43              	.L4:
1188:.\Generated_Source\PSoC4/BLE.c ****             }
1189:.\Generated_Source\PSoC4/BLE.c ****             else                /* Destination - scan response structure */
1190:.\Generated_Source\PSoC4/BLE.c ****             {
1191:.\Generated_Source\PSoC4/BLE.c ****                 destBuffer = cyBle_scanRspData.scanRspData;
1192:.\Generated_Source\PSoC4/BLE.c ****                 maxLength = cyBle_scanRspData.scanRspDataLen;
1193:.\Generated_Source\PSoC4/BLE.c ****             }
1194:.\Generated_Source\PSoC4/BLE.c ****             
1195:.\Generated_Source\PSoC4/BLE.c ****             while((byteCounter < maxLength) && (0u == flag))
1196:.\Generated_Source\PSoC4/BLE.c ****             {
1197:.\Generated_Source\PSoC4/BLE.c ****                 adLength = destBuffer[byteCounter];
1198:.\Generated_Source\PSoC4/BLE.c ****                 
1199:.\Generated_Source\PSoC4/BLE.c ****                 if(0u != adLength)
1200:.\Generated_Source\PSoC4/BLE.c ****                 {
1201:.\Generated_Source\PSoC4/BLE.c ****                     /* Increment byte counter so it can point to AD type */
1202:.\Generated_Source\PSoC4/BLE.c ****                     byteCounter++;
1203:.\Generated_Source\PSoC4/BLE.c ****                     
1204:.\Generated_Source\PSoC4/BLE.c ****                     if((CYBLE_SHORT_LOCAL_NAME == destBuffer[byteCounter]) || 
1205:.\Generated_Source\PSoC4/BLE.c ****                        (CYBLE_COMPLETE_LOCAL_NAME == destBuffer[byteCounter]))
1206:.\Generated_Source\PSoC4/BLE.c ****                     {
1207:.\Generated_Source\PSoC4/BLE.c ****                         /* Start of the Local Name AD type was fount. Set flag and exit the loop. *
1208:.\Generated_Source\PSoC4/BLE.c ****                         flag = 1u;
  44              		.loc 1 1208 0
  45 000a 0023     		mov	r3, #0
  46 000c 0022     		mov	r2, #0
ARM GAS  C:\Users\mlgjmoor\AppData\Local\Temp\ccKDuCjD.s 			page 23


  47 000e 0025     		mov	r5, #0
  48 0010 0FE0     		b	.L3
  49              	.LVL4:
  50              	.L2:
1192:.\Generated_Source\PSoC4/BLE.c ****             }
  51              		.loc 1 1192 0
  52 0012 184C     		ldr	r4, .L15+4
  53 0014 E67F     		ldrb	r6, [r4, #31]
  54              	.LVL5:
  55 0016 F8E7     		b	.L4
  56              	.LVL6:
  57              	.L7:
1197:.\Generated_Source\PSoC4/BLE.c ****                 
  58              		.loc 1 1197 0
  59 0018 E25C     		ldrb	r2, [r4, r3]
  60              	.LVL7:
1199:.\Generated_Source\PSoC4/BLE.c ****                 {
  61              		.loc 1 1199 0
  62 001a 002A     		cmp	r2, #0
  63 001c 0DD0     		beq	.L5
1202:.\Generated_Source\PSoC4/BLE.c ****                     
  64              		.loc 1 1202 0
  65 001e 0133     		add	r3, r3, #1
  66              	.LVL8:
  67 0020 DBB2     		uxtb	r3, r3
  68              	.LVL9:
1204:.\Generated_Source\PSoC4/BLE.c ****                        (CYBLE_COMPLETE_LOCAL_NAME == destBuffer[byteCounter]))
  69              		.loc 1 1204 0
  70 0022 E15C     		ldrb	r1, [r4, r3]
  71 0024 0839     		sub	r1, r1, #8
  72 0026 0129     		cmp	r1, #1
  73 0028 02D9     		bls	.L14
1209:.\Generated_Source\PSoC4/BLE.c ****                     }
1210:.\Generated_Source\PSoC4/BLE.c ****                     else
1211:.\Generated_Source\PSoC4/BLE.c ****                     {
1212:.\Generated_Source\PSoC4/BLE.c ****                         byteCounter += adLength;
  74              		.loc 1 1212 0
  75 002a 9B18     		add	r3, r3, r2
  76              	.LVL10:
  77 002c DBB2     		uxtb	r3, r3
  78              	.LVL11:
  79 002e 00E0     		b	.L3
  80              	.L14:
1208:.\Generated_Source\PSoC4/BLE.c ****                     }
  81              		.loc 1 1208 0
  82 0030 0125     		mov	r5, #1
  83              	.LVL12:
  84              	.L3:
1195:.\Generated_Source\PSoC4/BLE.c ****             {
  85              		.loc 1 1195 0
  86 0032 B342     		cmp	r3, r6
  87 0034 01D2     		bcs	.L5
1195:.\Generated_Source\PSoC4/BLE.c ****             {
  88              		.loc 1 1195 0 is_stmt 0 discriminator 1
  89 0036 002D     		cmp	r5, #0
  90 0038 EED0     		beq	.L7
  91              	.L5:
ARM GAS  C:\Users\mlgjmoor\AppData\Local\Temp\ccKDuCjD.s 			page 24


1213:.\Generated_Source\PSoC4/BLE.c ****                     }
1214:.\Generated_Source\PSoC4/BLE.c ****                 }
1215:.\Generated_Source\PSoC4/BLE.c ****                 else
1216:.\Generated_Source\PSoC4/BLE.c ****                 {
1217:.\Generated_Source\PSoC4/BLE.c ****                     /* The end of advertisement data structure was encountered though exit the loop
1218:.\Generated_Source\PSoC4/BLE.c ****                     break;
1219:.\Generated_Source\PSoC4/BLE.c ****                 }
1220:.\Generated_Source\PSoC4/BLE.c ****             }
1221:.\Generated_Source\PSoC4/BLE.c ****             
1222:.\Generated_Source\PSoC4/BLE.c ****             if(0u != flag)
  92              		.loc 1 1222 0 is_stmt 1
  93 003a 002D     		cmp	r5, #0
  94 003c 16D0     		beq	.L1
1223:.\Generated_Source\PSoC4/BLE.c ****             {
1224:.\Generated_Source\PSoC4/BLE.c ****                 /* Reuse "adLength" to hold location of the last character of local name in 
1225:.\Generated_Source\PSoC4/BLE.c ****                    AD structure. */
1226:.\Generated_Source\PSoC4/BLE.c ****                 adLength += byteCounter;
  95              		.loc 1 1226 0
  96 003e D218     		add	r2, r2, r3
  97              	.LVL13:
  98 0040 D1B2     		uxtb	r1, r2
  99              	.LVL14:
1227:.\Generated_Source\PSoC4/BLE.c ****                 
1228:.\Generated_Source\PSoC4/BLE.c ****                 /* Increment byte counter to point to start of the local Name string */
1229:.\Generated_Source\PSoC4/BLE.c ****                 byteCounter++;
 100              		.loc 1 1229 0
 101 0042 0133     		add	r3, r3, #1
 102              	.LVL15:
 103 0044 DBB2     		uxtb	r3, r3
 104              	.LVL16:
1230:.\Generated_Source\PSoC4/BLE.c ****                 
1231:.\Generated_Source\PSoC4/BLE.c ****                 for(i = byteCounter; ((i < (adLength)) && (CYBLE_NULL_CHARCTER != name[i - byteCoun
 105              		.loc 1 1231 0
 106 0046 1A1C     		mov	r2, r3
 107 0048 02E0     		b	.L9
 108              	.LVL17:
 109              	.L11:
1232:.\Generated_Source\PSoC4/BLE.c ****                 {
1233:.\Generated_Source\PSoC4/BLE.c ****                     destBuffer[i] = (uint8)name[i - byteCounter];
 110              		.loc 1 1233 0 discriminator 4
 111 004a A554     		strb	r5, [r4, r2]
1231:.\Generated_Source\PSoC4/BLE.c ****                 {
 112              		.loc 1 1231 0 discriminator 4
 113 004c 0132     		add	r2, r2, #1
 114              	.LVL18:
 115 004e D2B2     		uxtb	r2, r2
 116              	.LVL19:
 117              	.L9:
1231:.\Generated_Source\PSoC4/BLE.c ****                 {
 118              		.loc 1 1231 0 is_stmt 0 discriminator 1
 119 0050 8A42     		cmp	r2, r1
 120 0052 09D2     		bcs	.L12
1231:.\Generated_Source\PSoC4/BLE.c ****                 {
 121              		.loc 1 1231 0 discriminator 3
 122 0054 D51A     		sub	r5, r2, r3
 123 0056 455D     		ldrb	r5, [r0, r5]
 124 0058 002D     		cmp	r5, #0
ARM GAS  C:\Users\mlgjmoor\AppData\Local\Temp\ccKDuCjD.s 			page 25


 125 005a F6D1     		bne	.L11
 126 005c 04E0     		b	.L12
 127              	.LVL20:
 128              	.L13:
1234:.\Generated_Source\PSoC4/BLE.c ****                 }
1235:.\Generated_Source\PSoC4/BLE.c ****                 
1236:.\Generated_Source\PSoC4/BLE.c ****                 /* This loop handles the case when new local name is shorted than old one.
1237:.\Generated_Source\PSoC4/BLE.c ****                    In this case all remaining characters should be null characters. */
1238:.\Generated_Source\PSoC4/BLE.c ****                 while(adLength > i)
1239:.\Generated_Source\PSoC4/BLE.c ****                 {
1240:.\Generated_Source\PSoC4/BLE.c ****                     /* Terminate string */
1241:.\Generated_Source\PSoC4/BLE.c ****                     destBuffer[i] = (uint8)CYBLE_NULL_CHARCTER;
 129              		.loc 1 1241 0 is_stmt 1
 130 005e A318     		add	r3, r4, r2
 131 0060 0020     		mov	r0, #0
 132 0062 1870     		strb	r0, [r3]
1242:.\Generated_Source\PSoC4/BLE.c ****                     i++;
 133              		.loc 1 1242 0
 134 0064 0132     		add	r2, r2, #1
 135              	.LVL21:
 136 0066 D2B2     		uxtb	r2, r2
 137              	.LVL22:
 138              	.L12:
1238:.\Generated_Source\PSoC4/BLE.c ****                 {
 139              		.loc 1 1238 0
 140 0068 9142     		cmp	r1, r2
 141 006a F8D8     		bhi	.L13
 142              	.LVL23:
 143              	.L1:
1243:.\Generated_Source\PSoC4/BLE.c ****                 }
1244:.\Generated_Source\PSoC4/BLE.c ****             }
1245:.\Generated_Source\PSoC4/BLE.c ****         }
 144              		.loc 1 1245 0
 145              		@ sp needed
 146              	.LVL24:
 147              	.LVL25:
 148 006c 70BD     		pop	{r4, r5, r6, pc}
 149              	.L16:
 150 006e C046     		.align	2
 151              	.L15:
 152 0070 00000000 		.word	.LANCHOR0
 153 0074 00000000 		.word	.LANCHOR1
 154              		.cfi_endproc
 155              	.LFE11:
 156              		.size	CyBle_ChangeAdLocalName, .-CyBle_ChangeAdLocalName
 157              		.section	.text.CyBle_ServiceInit,"ax",%progbits
 158              		.align	2
 159              		.global	CyBle_ServiceInit
 160              		.code	16
 161              		.thumb_func
 162              		.type	CyBle_ServiceInit, %function
 163              	CyBle_ServiceInit:
 164              	.LFB3:
 202:.\Generated_Source\PSoC4/BLE.c ****     #if(CYBLE_GATT_ROLE_CLIENT)
 165              		.loc 1 202 0
 166              		.cfi_startproc
 167 0000 08B5     		push	{r3, lr}
ARM GAS  C:\Users\mlgjmoor\AppData\Local\Temp\ccKDuCjD.s 			page 26


 168              		.cfi_def_cfa_offset 8
 169              		.cfi_offset 3, -8
 170              		.cfi_offset 14, -4
 256:.\Generated_Source\PSoC4/BLE.c ****     #endif /* CYBLE_CUSTOM */
 171              		.loc 1 256 0
 172 0002 FFF7FEFF 		bl	CyBle_CustomInit
 173              	.LVL26:
 338:.\Generated_Source\PSoC4/BLE.c **** 
 174              		.loc 1 338 0
 175              		@ sp needed
 176 0006 08BD     		pop	{r3, pc}
 177              		.cfi_endproc
 178              	.LFE3:
 179              		.size	CyBle_ServiceInit, .-CyBle_ServiceInit
 180              		.section	.text.CyBle_Init,"ax",%progbits
 181              		.align	2
 182              		.global	CyBle_Init
 183              		.code	16
 184              		.thumb_func
 185              		.type	CyBle_Init, %function
 186              	CyBle_Init:
 187              	.LFB2:
 153:.\Generated_Source\PSoC4/BLE.c ****     cyBle_eventHandlerFlag = 0u;
 188              		.loc 1 153 0
 189              		.cfi_startproc
 190 0000 10B5     		push	{r4, lr}
 191              		.cfi_def_cfa_offset 8
 192              		.cfi_offset 4, -8
 193              		.cfi_offset 14, -4
 154:.\Generated_Source\PSoC4/BLE.c ****     cyBle_busyStatus = CYBLE_STACK_STATE_FREE;
 194              		.loc 1 154 0
 195 0002 0024     		mov	r4, #0
 196 0004 064B     		ldr	r3, .L19
 197 0006 1C70     		strb	r4, [r3]
 155:.\Generated_Source\PSoC4/BLE.c **** 
 198              		.loc 1 155 0
 199 0008 064B     		ldr	r3, .L19+4
 200 000a 1C70     		strb	r4, [r3]
 158:.\Generated_Source\PSoC4/BLE.c ****     #endif /* (CYBLE_GAP_ROLE_PERIPHERAL || CYBLE_GAP_ROLE_BROADCASTER)  */
 201              		.loc 1 158 0
 202 000c 064B     		ldr	r3, .L19+8
 203 000e 1C70     		strb	r4, [r3]
 181:.\Generated_Source\PSoC4/BLE.c **** 
 204              		.loc 1 181 0
 205 0010 FFF7FEFF 		bl	CyBle_ServiceInit
 206              	.LVL27:
 184:.\Generated_Source\PSoC4/BLE.c ****         cyBle_peerBonding = CYBLE_GAP_BONDING_NONE;
 207              		.loc 1 184 0
 208 0014 054B     		ldr	r3, .L19+12
 209 0016 1C70     		strb	r4, [r3]
 185:.\Generated_Source\PSoC4/BLE.c ****     #endif  /* (CYBLE_BONDING_REQUIREMENT == CYBLE_BONDING_YES) */
 210              		.loc 1 185 0
 211 0018 054B     		ldr	r3, .L19+16
 212 001a 1C70     		strb	r4, [r3]
 188:.\Generated_Source\PSoC4/BLE.c **** 
 213              		.loc 1 188 0
 214              		@ sp needed
ARM GAS  C:\Users\mlgjmoor\AppData\Local\Temp\ccKDuCjD.s 			page 27


 215 001c 10BD     		pop	{r4, pc}
 216              	.L20:
 217 001e C046     		.align	2
 218              	.L19:
 219 0020 00000000 		.word	cyBle_eventHandlerFlag
 220 0024 00000000 		.word	cyBle_busyStatus
 221 0028 00000000 		.word	cyBle_advertisingIntervalType
 222 002c 00000000 		.word	cyBle_pendingFlashWrite
 223 0030 00000000 		.word	cyBle_peerBonding
 224              		.cfi_endproc
 225              	.LFE2:
 226              		.size	CyBle_Init, .-CyBle_Init
 227              		.section	.text.CyBle_Start,"ax",%progbits
 228              		.align	2
 229              		.global	CyBle_Start
 230              		.code	16
 231              		.thumb_func
 232              		.type	CyBle_Start, %function
 233              	CyBle_Start:
 234              	.LFB4:
 400:.\Generated_Source\PSoC4/BLE.c ****     CYBLE_API_RESULT_T apiResult = CYBLE_ERROR_OK;
 235              		.loc 1 400 0
 236              		.cfi_startproc
 237              	.LVL28:
 238 0000 10B5     		push	{r4, lr}
 239              		.cfi_def_cfa_offset 8
 240              		.cfi_offset 4, -8
 241              		.cfi_offset 14, -4
 242 0002 90B0     		sub	sp, sp, #64
 243              		.cfi_def_cfa_offset 72
 244 0004 041C     		mov	r4, r0
 245              	.LVL29:
 405:.\Generated_Source\PSoC4/BLE.c ****     {
 246              		.loc 1 405 0
 247 0006 0BA8     		add	r0, sp, #44
 248              	.LVL30:
 249 0008 2249     		ldr	r1, .L25
 250 000a 1422     		mov	r2, #20
 251 000c FFF7FEFF 		bl	memcpy
 252              	.LVL31:
 417:.\Generated_Source\PSoC4/BLE.c ****     {
 253              		.loc 1 417 0
 254 0010 2023     		mov	r3, #32
 255 0012 214A     		ldr	r2, .L25+4
 256 0014 D35C     		ldrb	r3, [r2, r3]
 257 0016 002B     		cmp	r3, #0
 258 0018 05D1     		bne	.L22
 419:.\Generated_Source\PSoC4/BLE.c ****         cyBle_initVar = 1u;
 259              		.loc 1 419 0
 260 001a FFF7FEFF 		bl	CyBle_Init
 261              	.LVL32:
 420:.\Generated_Source\PSoC4/BLE.c ****     }
 262              		.loc 1 420 0
 263 001e 0121     		mov	r1, #1
 264 0020 2023     		mov	r3, #32
 265 0022 1D4A     		ldr	r2, .L25+4
 266 0024 D154     		strb	r1, [r2, r3]
ARM GAS  C:\Users\mlgjmoor\AppData\Local\Temp\ccKDuCjD.s 			page 28


 267              	.L22:
 423:.\Generated_Source\PSoC4/BLE.c ****     {
 268              		.loc 1 423 0
 269 0026 002C     		cmp	r4, #0
 270 0028 30D0     		beq	.L24
 425:.\Generated_Source\PSoC4/BLE.c ****         
 271              		.loc 1 425 0
 272 002a 1C4B     		ldr	r3, .L25+8
 273 002c 1C60     		str	r4, [r3]
 274              	.LBB2:
 444:.\Generated_Source\PSoC4/BLE.c ****             stackConfig.dleConfig = &dleConfigParams;
 275              		.loc 1 444 0
 276 002e 08AC     		add	r4, sp, #32
 277              	.LVL33:
 278 0030 05AA     		add	r2, sp, #20
 279 0032 0992     		str	r2, [sp, #36]
 445:.\Generated_Source\PSoC4/BLE.c ****             
 280              		.loc 1 445 0
 281 0034 06AB     		add	r3, sp, #24
 282 0036 0893     		str	r3, [sp, #32]
 448:.\Generated_Source\PSoC4/BLE.c ****                                        CYBLE_SECURE_CONN_FEATURE;
 283              		.loc 1 448 0
 284 0038 0221     		mov	r1, #2
 285 003a 2181     		strh	r1, [r4, #8]
 452:.\Generated_Source\PSoC4/BLE.c ****             dleConfigParams.dleMaxRxCapability = CYBLE_LL_MAX_RX_PAYLOAD_SIZE;
 286              		.loc 1 452 0
 287 003c 1931     		add	r1, r1, #25
 288 003e 1980     		strh	r1, [r3]
 453:.\Generated_Source\PSoC4/BLE.c ****             dleConfigParams.dleNumTxBuffer = CYBLE_LL_DEFAULT_NUM_ACL_TX_PACKETS;
 289              		.loc 1 453 0
 290 0040 5980     		strh	r1, [r3, #2]
 454:.\Generated_Source\PSoC4/BLE.c ****         #if(CYBLE_DLE_FEATURE_ENABLED)
 291              		.loc 1 454 0
 292 0042 1739     		sub	r1, r1, #23
 293 0044 1971     		strb	r1, [r3, #4]
 460:.\Generated_Source\PSoC4/BLE.c ****         #if(CYBLE_LL_PRIVACY_FEATURE_ENABLED)
 294              		.loc 1 460 0
 295 0046 0823     		mov	r3, #8
 296 0048 1370     		strb	r3, [r2]
 462:.\Generated_Source\PSoC4/BLE.c ****         #endif /* CYBLE_LL_PRIVACY_FEATURE_ENABLED */
 297              		.loc 1 462 0
 298 004a FFF7FEFF 		bl	CyBle_EnablePrivacyFeature
 299              	.LVL34:
 465:.\Generated_Source\PSoC4/BLE.c ****             }
 300              		.loc 1 465 0
 301 004e 201C     		mov	r0, r4
 302 0050 1621     		mov	r1, #22
 303 0052 6944     		add	r1, r1, sp
 304 0054 FFF7FEFF 		bl	CyBle_StackSetFeatureConfig
 305              	.LVL35:
 306              	.LBE2:
 468:.\Generated_Source\PSoC4/BLE.c ****         {
 307              		.loc 1 468 0
 308 0058 0028     		cmp	r0, #0
 309 005a 18D1     		bne	.L23
 473:.\Generated_Source\PSoC4/BLE.c ****                     CYBLE_STACK_RAM_SIZE - CYBLE_GATT_PREPARE_WRITE_BUFF_LEN, cyBle_stackDataBuff, 
 310              		.loc 1 473 0
ARM GAS  C:\Users\mlgjmoor\AppData\Local\Temp\ccKDuCjD.s 			page 29


 311 005c 0523     		mov	r3, #5
 312 005e 0093     		str	r3, [sp]
 313 0060 0F4B     		ldr	r3, .L25+12
 314 0062 0193     		str	r3, [sp, #4]
 315 0064 0F4B     		ldr	r3, .L25+16
 316 0066 0293     		str	r3, [sp, #8]
 317 0068 0F48     		ldr	r0, .L25+20
 318              	.LVL36:
 319 006a 1049     		ldr	r1, .L25+24
 320 006c D822     		mov	r2, #216
 321 006e 1201     		lsl	r2, r2, #4
 322 0070 0BAB     		add	r3, sp, #44
 323 0072 FFF7FEFF 		bl	CyBle_StackInit
 324              	.LVL37:
 486:.\Generated_Source\PSoC4/BLE.c ****             {
 325              		.loc 1 486 0
 326 0076 0028     		cmp	r0, #0
 327 0078 09D1     		bne	.L23
 488:.\Generated_Source\PSoC4/BLE.c ****                 
 328              		.loc 1 488 0
 329 007a 0122     		mov	r2, #1
 330 007c 0C4B     		ldr	r3, .L25+28
 331 007e 1A70     		strb	r2, [r3]
 495:.\Generated_Source\PSoC4/BLE.c ****             #endif /* CYBLE_GATT_ROLE_SERVER */
 332              		.loc 1 495 0
 333 0080 0C48     		ldr	r0, .L25+32
 334              	.LVL38:
 335 0082 1421     		mov	r1, #20
 336 0084 1332     		add	r2, r2, #19
 337 0086 FFF7FEFF 		bl	CyBle_GattsDbRegister
 338              	.LVL39:
 339 008a 00E0     		b	.L23
 340              	.LVL40:
 341              	.L24:
 502:.\Generated_Source\PSoC4/BLE.c ****     }
 342              		.loc 1 502 0
 343 008c 0120     		mov	r0, #1
 344              	.LVL41:
 345              	.L23:
 506:.\Generated_Source\PSoC4/BLE.c **** 
 346              		.loc 1 506 0
 347 008e 10B0     		add	sp, sp, #64
 348              		@ sp needed
 349 0090 10BD     		pop	{r4, pc}
 350              	.L26:
 351 0092 C046     		.align	2
 352              	.L25:
 353 0094 00000000 		.word	.LANCHOR2
 354 0098 00000000 		.word	.LANCHOR1
 355 009c 00000000 		.word	CyBle_ApplCallback
 356 00a0 00000000 		.word	cyBle_flashStorage
 357 00a4 79020000 		.word	633
 358 00a8 00000000 		.word	CyBle_EventHandler
 359 00ac 00000000 		.word	.LANCHOR3
 360 00b0 00000000 		.word	cyBle_state
 361 00b4 00000000 		.word	cyBle_gattDB
 362              		.cfi_endproc
ARM GAS  C:\Users\mlgjmoor\AppData\Local\Temp\ccKDuCjD.s 			page 30


 363              	.LFE4:
 364              		.size	CyBle_Start, .-CyBle_Start
 365              		.section	.text.CyBle_Stop,"ax",%progbits
 366              		.align	2
 367              		.global	CyBle_Stop
 368              		.code	16
 369              		.thumb_func
 370              		.type	CyBle_Stop, %function
 371              	CyBle_Stop:
 372              	.LFB5:
 522:.\Generated_Source\PSoC4/BLE.c ****     CyBle_Shutdown();                         /* Stop all ongoing activities */
 373              		.loc 1 522 0
 374              		.cfi_startproc
 375 0000 08B5     		push	{r3, lr}
 376              		.cfi_def_cfa_offset 8
 377              		.cfi_offset 3, -8
 378              		.cfi_offset 14, -4
 523:.\Generated_Source\PSoC4/BLE.c ****     CyBle_SetState(CYBLE_STATE_STOPPED);
 379              		.loc 1 523 0
 380 0002 FFF7FEFF 		bl	CyBle_Shutdown
 381              	.LVL42:
 524:.\Generated_Source\PSoC4/BLE.c ****     #if(CYBLE_SHARING_MODE_EXPORT)
 382              		.loc 1 524 0
 383 0006 0022     		mov	r2, #0
 384 0008 014B     		ldr	r3, .L28
 385 000a 1A70     		strb	r2, [r3]
 531:.\Generated_Source\PSoC4/BLE.c **** 
 386              		.loc 1 531 0
 387              		@ sp needed
 388 000c 08BD     		pop	{r3, pc}
 389              	.L29:
 390 000e C046     		.align	2
 391              	.L28:
 392 0010 00000000 		.word	cyBle_state
 393              		.cfi_endproc
 394              	.LFE5:
 395              		.size	CyBle_Stop, .-CyBle_Stop
 396              		.section	.text.CyBle_StoreBondingData,"ax",%progbits
 397              		.align	2
 398              		.global	CyBle_StoreBondingData
 399              		.code	16
 400              		.thumb_func
 401              		.type	CyBle_StoreBondingData, %function
 402              	CyBle_StoreBondingData:
 403              	.LFB6:
 575:.\Generated_Source\PSoC4/BLE.c ****     CYBLE_API_RESULT_T apiResult = CYBLE_ERROR_OK;
 404              		.loc 1 575 0
 405              		.cfi_startproc
 406              	.LVL43:
 407 0000 10B5     		push	{r4, lr}
 408              		.cfi_def_cfa_offset 8
 409              		.cfi_offset 4, -8
 410              		.cfi_offset 14, -4
 411 0002 84B0     		sub	sp, sp, #16
 412              		.cfi_def_cfa_offset 24
 413 0004 041C     		mov	r4, r0
 414              	.LVL44:
ARM GAS  C:\Users\mlgjmoor\AppData\Local\Temp\ccKDuCjD.s 			page 31


 579:.\Generated_Source\PSoC4/BLE.c ****     {
 415              		.loc 1 579 0
 416 0006 334B     		ldr	r3, .L41
 417 0008 1B78     		ldrb	r3, [r3]
 418 000a DB07     		lsl	r3, r3, #31
 419 000c 0BD5     		bpl	.L39
 581:.\Generated_Source\PSoC4/BLE.c ****         if(apiResult == CYBLE_ERROR_OK)
 420              		.loc 1 581 0
 421 000e FFF7FEFF 		bl	CyBle_StoreStackData
 422              	.LVL45:
 582:.\Generated_Source\PSoC4/BLE.c ****         {
 423              		.loc 1 582 0
 424 0012 0028     		cmp	r0, #0
 425 0014 0AD1     		bne	.L31
 584:.\Generated_Source\PSoC4/BLE.c ****             /* Change apiResult if there are more pending data to store */
 426              		.loc 1 584 0
 427 0016 2F4A     		ldr	r2, .L41
 428 0018 1378     		ldrb	r3, [r2]
 429 001a 0121     		mov	r1, #1
 430 001c 8B43     		bic	r3, r1
 431 001e 1370     		strb	r3, [r2]
 586:.\Generated_Source\PSoC4/BLE.c ****             {
 432              		.loc 1 586 0
 433 0020 9B07     		lsl	r3, r3, #30
 434 0022 02D4     		bmi	.L40
 435 0024 02E0     		b	.L31
 436              	.LVL46:
 437              	.L39:
 576:.\Generated_Source\PSoC4/BLE.c ****     
 438              		.loc 1 576 0
 439 0026 0020     		mov	r0, #0
 440              	.LVL47:
 441 0028 00E0     		b	.L31
 442              	.LVL48:
 443              	.L40:
 588:.\Generated_Source\PSoC4/BLE.c ****             }
 444              		.loc 1 588 0
 445 002a 2820     		mov	r0, #40
 446              	.LVL49:
 447              	.L31:
 594:.\Generated_Source\PSoC4/BLE.c ****         ((cyBle_pendingFlashWrite & CYBLE_PENDING_CCCD_FLASH_WRITE_BIT) != 0u) &&
 448              		.loc 1 594 0
 449 002c 0028     		cmp	r0, #0
 450 002e 01D0     		beq	.L32
 594:.\Generated_Source\PSoC4/BLE.c ****         ((cyBle_pendingFlashWrite & CYBLE_PENDING_CCCD_FLASH_WRITE_BIT) != 0u) &&
 451              		.loc 1 594 0 is_stmt 0 discriminator 2
 452 0030 002C     		cmp	r4, #0
 453 0032 19D0     		beq	.L33
 454              	.L32:
 595:.\Generated_Source\PSoC4/BLE.c ****         (cyBle_connHandle.bdHandle <= CYBLE_GAP_MAX_BONDED_DEVICE))
 455              		.loc 1 595 0 is_stmt 1 discriminator 3
 456 0034 274B     		ldr	r3, .L41
 457 0036 1B78     		ldrb	r3, [r3]
 594:.\Generated_Source\PSoC4/BLE.c ****         ((cyBle_pendingFlashWrite & CYBLE_PENDING_CCCD_FLASH_WRITE_BIT) != 0u) &&
 458              		.loc 1 594 0 discriminator 3
 459 0038 9B07     		lsl	r3, r3, #30
 460 003a 15D5     		bpl	.L33
ARM GAS  C:\Users\mlgjmoor\AppData\Local\Temp\ccKDuCjD.s 			page 32


 596:.\Generated_Source\PSoC4/BLE.c ****     {
 461              		.loc 1 596 0
 462 003c 264B     		ldr	r3, .L41+4
 463 003e 1B78     		ldrb	r3, [r3]
 595:.\Generated_Source\PSoC4/BLE.c ****         (cyBle_connHandle.bdHandle <= CYBLE_GAP_MAX_BONDED_DEVICE))
 464              		.loc 1 595 0
 465 0040 042B     		cmp	r3, #4
 466 0042 11D8     		bhi	.L33
 598:.\Generated_Source\PSoC4/BLE.c ****                         cyBle_connHandle.bdHandle], CYBLE_GATT_DB_CCCD_COUNT, isForceWrite);
 467              		.loc 1 598 0
 468 0044 3D33     		add	r3, r3, #61
 469 0046 FF33     		add	r3, r3, #255
 470 0048 5B00     		lsl	r3, r3, #1
 471 004a 2449     		ldr	r1, .L41+8
 472 004c 5918     		add	r1, r3, r1
 473 004e 0131     		add	r1, r1, #1
 474 0050 2348     		ldr	r0, .L41+12
 475              	.LVL50:
 476 0052 0222     		mov	r2, #2
 477 0054 231C     		mov	r3, r4
 478 0056 FFF7FEFF 		bl	CyBle_StoreAppData
 479              	.LVL51:
 600:.\Generated_Source\PSoC4/BLE.c ****         {
 480              		.loc 1 600 0
 481 005a 0028     		cmp	r0, #0
 482 005c 04D1     		bne	.L33
 602:.\Generated_Source\PSoC4/BLE.c ****         }
 483              		.loc 1 602 0
 484 005e 1D4A     		ldr	r2, .L41
 485 0060 1378     		ldrb	r3, [r2]
 486 0062 0221     		mov	r1, #2
 487 0064 8B43     		bic	r3, r1
 488 0066 1370     		strb	r3, [r2]
 489              	.LVL52:
 490              	.L33:
 606:.\Generated_Source\PSoC4/BLE.c ****         ((cyBle_pendingFlashWrite & CYBLE_PENDING_CCCD_FLASH_CLEAR_MASK) != 0u) )
 491              		.loc 1 606 0
 492 0068 0028     		cmp	r0, #0
 493 006a 01D0     		beq	.L34
 606:.\Generated_Source\PSoC4/BLE.c ****         ((cyBle_pendingFlashWrite & CYBLE_PENDING_CCCD_FLASH_CLEAR_MASK) != 0u) )
 494              		.loc 1 606 0 is_stmt 0 discriminator 2
 495 006c 002C     		cmp	r4, #0
 496 006e 2FD0     		beq	.L35
 497              	.L34:
 607:.\Generated_Source\PSoC4/BLE.c ****     {
 498              		.loc 1 607 0 is_stmt 1 discriminator 3
 499 0070 184B     		ldr	r3, .L41
 500 0072 1B78     		ldrb	r3, [r3]
 606:.\Generated_Source\PSoC4/BLE.c ****         ((cyBle_pendingFlashWrite & CYBLE_PENDING_CCCD_FLASH_CLEAR_MASK) != 0u) )
 501              		.loc 1 606 0 discriminator 3
 502 0074 0C22     		mov	r2, #12
 503 0076 1A42     		tst	r2, r3
 504 0078 2AD0     		beq	.L35
 609:.\Generated_Source\PSoC4/BLE.c ****         {
 505              		.loc 1 609 0
 506 007a 1B07     		lsl	r3, r3, #28
 507 007c 11D5     		bpl	.L36
ARM GAS  C:\Users\mlgjmoor\AppData\Local\Temp\ccKDuCjD.s 			page 33


 508              	.LBB3:
 614:.\Generated_Source\PSoC4/BLE.c **** 
 509              		.loc 1 614 0
 510 007e 01A8     		add	r0, sp, #4
 511              	.LVL53:
 512 0080 0023     		mov	r3, #0
 513 0082 0193     		str	r3, [sp, #4]
 514 0084 4360     		str	r3, [r0, #4]
 515 0086 0381     		strh	r3, [r0, #8]
 616:.\Generated_Source\PSoC4/BLE.c ****                 (const uint8 *)cyBle_flashStorage.attValuesCCCDFlashMemory, sizeof(defaultValuesCCC
 516              		.loc 1 616 0
 517 0088 1649     		ldr	r1, .L41+16
 518 008a 023A     		sub	r2, r2, #2
 519 008c 231C     		mov	r3, r4
 520 008e FFF7FEFF 		bl	CyBle_StoreAppData
 521              	.LVL54:
 618:.\Generated_Source\PSoC4/BLE.c ****             {
 522              		.loc 1 618 0
 523 0092 0028     		cmp	r0, #0
 524 0094 1CD1     		bne	.L35
 620:.\Generated_Source\PSoC4/BLE.c ****             }
 525              		.loc 1 620 0
 526 0096 0F4A     		ldr	r2, .L41
 527 0098 1378     		ldrb	r3, [r2]
 528 009a 0821     		mov	r1, #8
 529 009c 8B43     		bic	r3, r1
 530 009e 1370     		strb	r3, [r2]
 531 00a0 16E0     		b	.L35
 532              	.L36:
 533              	.LBE3:
 534              	.LBB4:
 625:.\Generated_Source\PSoC4/BLE.c ****             
 535              		.loc 1 625 0
 536 00a2 01A8     		add	r0, sp, #4
 537              	.LVL55:
 538 00a4 0023     		mov	r3, #0
 539 00a6 0380     		strh	r3, [r0]
 627:.\Generated_Source\PSoC4/BLE.c ****                                     cyBle_pendingFlashClearCccdHandle], CYBLE_GATT_DB_CCCD_COUNT, i
 540              		.loc 1 627 0
 541 00a8 2133     		add	r3, r3, #33
 542 00aa 0F4A     		ldr	r2, .L41+20
 543 00ac D15C     		ldrb	r1, [r2, r3]
 544 00ae 3D31     		add	r1, r1, #61
 545 00b0 FF31     		add	r1, r1, #255
 546 00b2 4900     		lsl	r1, r1, #1
 547 00b4 094B     		ldr	r3, .L41+8
 548 00b6 C918     		add	r1, r1, r3
 549 00b8 0131     		add	r1, r1, #1
 550 00ba 0222     		mov	r2, #2
 551 00bc 231C     		mov	r3, r4
 552 00be FFF7FEFF 		bl	CyBle_StoreAppData
 553              	.LVL56:
 629:.\Generated_Source\PSoC4/BLE.c ****             {
 554              		.loc 1 629 0
 555 00c2 0028     		cmp	r0, #0
 556 00c4 04D1     		bne	.L35
 631:.\Generated_Source\PSoC4/BLE.c ****             }
ARM GAS  C:\Users\mlgjmoor\AppData\Local\Temp\ccKDuCjD.s 			page 34


 557              		.loc 1 631 0
 558 00c6 034A     		ldr	r2, .L41
 559 00c8 1378     		ldrb	r3, [r2]
 560 00ca 0421     		mov	r1, #4
 561 00cc 8B43     		bic	r3, r1
 562 00ce 1370     		strb	r3, [r2]
 563              	.LVL57:
 564              	.L35:
 565              	.LBE4:
 637:.\Generated_Source\PSoC4/BLE.c **** 
 566              		.loc 1 637 0
 567 00d0 04B0     		add	sp, sp, #16
 568              		@ sp needed
 569 00d2 10BD     		pop	{r4, pc}
 570              	.L42:
 571              		.align	2
 572              	.L41:
 573 00d4 00000000 		.word	cyBle_pendingFlashWrite
 574 00d8 00000000 		.word	cyBle_connHandle
 575 00dc 00000000 		.word	cyBle_flashStorage
 576 00e0 00000000 		.word	cyBle_attValuesCCCD
 577 00e4 79020000 		.word	cyBle_flashStorage+633
 578 00e8 00000000 		.word	.LANCHOR1
 579              		.cfi_endproc
 580              	.LFE6:
 581              		.size	CyBle_StoreBondingData, .-CyBle_StoreBondingData
 582              		.section	.text.CyBle_GapRemoveBondedDevice,"ax",%progbits
 583              		.align	2
 584              		.global	CyBle_GapRemoveBondedDevice
 585              		.code	16
 586              		.thumb_func
 587              		.type	CyBle_GapRemoveBondedDevice, %function
 588              	CyBle_GapRemoveBondedDevice:
 589              	.LFB7:
 673:.\Generated_Source\PSoC4/BLE.c ****     CYBLE_API_RESULT_T apiResult = CYBLE_ERROR_OK;
 590              		.loc 1 673 0
 591              		.cfi_startproc
 592              	.LVL58:
 593 0000 30B5     		push	{r4, r5, lr}
 594              		.cfi_def_cfa_offset 12
 595              		.cfi_offset 4, -12
 596              		.cfi_offset 5, -8
 597              		.cfi_offset 14, -4
 598 0002 85B0     		sub	sp, sp, #20
 599              		.cfi_def_cfa_offset 32
 600              	.LVL59:
 676:.\Generated_Source\PSoC4/BLE.c ****     {
 601              		.loc 1 676 0
 602 0004 184B     		ldr	r3, .L49
 603 0006 1D78     		ldrb	r5, [r3]
 604 0008 002D     		cmp	r5, #0
 605 000a 2AD1     		bne	.L48
 606 000c 041C     		mov	r4, r0
 607              	.LBB5:
 682:.\Generated_Source\PSoC4/BLE.c **** 
 608              		.loc 1 682 0
 609 000e 02A9     		add	r1, sp, #8
ARM GAS  C:\Users\mlgjmoor\AppData\Local\Temp\ccKDuCjD.s 			page 35


 610 0010 0023     		mov	r3, #0
 611 0012 0B70     		strb	r3, [r1]
 612 0014 4B70     		strb	r3, [r1, #1]
 613 0016 8B70     		strb	r3, [r1, #2]
 614 0018 CB70     		strb	r3, [r1, #3]
 615 001a 0B71     		strb	r3, [r1, #4]
 616 001c 4B71     		strb	r3, [r1, #5]
 617 001e 8B71     		strb	r3, [r1, #6]
 684:.\Generated_Source\PSoC4/BLE.c **** 	    {
 618              		.loc 1 684 0
 619 0020 0622     		mov	r2, #6
 620 0022 FFF7FEFF 		bl	memcmp
 621              	.LVL60:
 622 0026 0028     		cmp	r0, #0
 623 0028 04D1     		bne	.L45
 687:.\Generated_Source\PSoC4/BLE.c ****         }
 624              		.loc 1 687 0
 625 002a 0823     		mov	r3, #8
 626 002c 1D43     		orr	r5, r3
 627 002e 0E4B     		ldr	r3, .L49
 628 0030 1D70     		strb	r5, [r3]
 629 0032 10E0     		b	.L46
 630              	.L45:
 692:.\Generated_Source\PSoC4/BLE.c ****             if(apiResult == CYBLE_ERROR_OK)
 631              		.loc 1 692 0
 632 0034 6B46     		mov	r3, sp
 633 0036 D81D     		add	r0, r3, #7
 634 0038 211C     		mov	r1, r4
 635 003a FFF7FEFF 		bl	CyBle_GapGetPeerBdHandle
 636              	.LVL61:
 693:.\Generated_Source\PSoC4/BLE.c ****             {
 637              		.loc 1 693 0
 638 003e 0028     		cmp	r0, #0
 639 0040 09D1     		bne	.L46
 696:.\Generated_Source\PSoC4/BLE.c ****                 cyBle_pendingFlashClearCccdHandle = bDevHandle;
 640              		.loc 1 696 0
 641 0042 094A     		ldr	r2, .L49
 642 0044 1178     		ldrb	r1, [r2]
 643 0046 0423     		mov	r3, #4
 644 0048 0B43     		orr	r3, r1
 645 004a 1370     		strb	r3, [r2]
 697:.\Generated_Source\PSoC4/BLE.c ****             }
 646              		.loc 1 697 0
 647 004c 6B46     		mov	r3, sp
 648 004e D979     		ldrb	r1, [r3, #7]
 649 0050 2123     		mov	r3, #33
 650 0052 064A     		ldr	r2, .L49+4
 651 0054 D154     		strb	r1, [r2, r3]
 652              	.LVL62:
 653              	.L46:
 700:.\Generated_Source\PSoC4/BLE.c ****         {
 654              		.loc 1 700 0
 655 0056 0028     		cmp	r0, #0
 656 0058 04D1     		bne	.L44
 703:.\Generated_Source\PSoC4/BLE.c ****             #else
 657              		.loc 1 703 0
 658 005a 201C     		mov	r0, r4
ARM GAS  C:\Users\mlgjmoor\AppData\Local\Temp\ccKDuCjD.s 			page 36


 659              	.LVL63:
 660 005c FFF7FEFF 		bl	CyBle_GapRemoveDeviceFromWhiteList
 661              	.LVL64:
 662 0060 00E0     		b	.L44
 663              	.LVL65:
 664              	.L48:
 665              	.LBE5:
 712:.\Generated_Source\PSoC4/BLE.c ****     }
 666              		.loc 1 712 0
 667 0062 0220     		mov	r0, #2
 668              	.LVL66:
 669              	.L44:
 716:.\Generated_Source\PSoC4/BLE.c **** 
 670              		.loc 1 716 0
 671 0064 05B0     		add	sp, sp, #20
 672              		@ sp needed
 673 0066 30BD     		pop	{r4, r5, pc}
 674              	.L50:
 675              		.align	2
 676              	.L49:
 677 0068 00000000 		.word	cyBle_pendingFlashWrite
 678 006c 00000000 		.word	.LANCHOR1
 679              		.cfi_endproc
 680              	.LFE7:
 681              		.size	CyBle_GapRemoveBondedDevice, .-CyBle_GapRemoveBondedDevice
 682              		.section	.text.CyBle_GappStartAdvertisement,"ax",%progbits
 683              		.align	2
 684              		.global	CyBle_GappStartAdvertisement
 685              		.code	16
 686              		.thumb_func
 687              		.type	CyBle_GappStartAdvertisement, %function
 688              	CyBle_GappStartAdvertisement:
 689              	.LFB8:
 774:.\Generated_Source\PSoC4/BLE.c ****         CYBLE_API_RESULT_T apiResult;
 690              		.loc 1 774 0
 691              		.cfi_startproc
 692              	.LVL67:
 693 0000 08B5     		push	{r3, lr}
 694              		.cfi_def_cfa_offset 8
 695              		.cfi_offset 3, -8
 696              		.cfi_offset 14, -4
 777:.\Generated_Source\PSoC4/BLE.c ****         {
 697              		.loc 1 777 0
 698 0002 0228     		cmp	r0, #2
 699 0004 2ED8     		bhi	.L55
 781:.\Generated_Source\PSoC4/BLE.c ****         {   
 700              		.loc 1 781 0
 701 0006 1B4B     		ldr	r3, .L58
 702 0008 1B78     		ldrb	r3, [r3]
 703 000a 042B     		cmp	r3, #4
 704 000c 2CD1     		bne	.L56
 781:.\Generated_Source\PSoC4/BLE.c ****         {   
 705              		.loc 1 781 0 is_stmt 0 discriminator 1
 706 000e 1A4B     		ldr	r3, .L58+4
 707 0010 1B78     		ldrb	r3, [r3]
 708 0012 5B07     		lsl	r3, r3, #29
 709 0014 2BD4     		bmi	.L57
ARM GAS  C:\Users\mlgjmoor\AppData\Local\Temp\ccKDuCjD.s 			page 37


 783:.\Generated_Source\PSoC4/BLE.c ****             {
 710              		.loc 1 783 0 is_stmt 1
 711 0016 0028     		cmp	r0, #0
 712 0018 09D1     		bne	.L53
 785:.\Generated_Source\PSoC4/BLE.c ****                 cyBle_discoveryModeInfo.advParam->advIntvMin = CYBLE_FAST_ADV_INT_MIN;
 713              		.loc 1 785 0
 714 001a 184B     		ldr	r3, .L58+8
 715 001c 1E22     		mov	r2, #30
 716 001e 1A86     		strh	r2, [r3, #48]
 786:.\Generated_Source\PSoC4/BLE.c ****                 cyBle_discoveryModeInfo.advParam->advIntvMax = CYBLE_FAST_ADV_INT_MAX;
 717              		.loc 1 786 0
 718 0020 0232     		add	r2, r2, #2
 719 0022 596A     		ldr	r1, [r3, #36]
 720 0024 0A80     		strh	r2, [r1]
 787:.\Generated_Source\PSoC4/BLE.c ****             }
 721              		.loc 1 787 0
 722 0026 5B6A     		ldr	r3, [r3, #36]
 723 0028 1032     		add	r2, r2, #16
 724 002a 5A80     		strh	r2, [r3, #2]
 725 002c 0CE0     		b	.L54
 726              	.L53:
 789:.\Generated_Source\PSoC4/BLE.c ****             {
 727              		.loc 1 789 0
 728 002e 0128     		cmp	r0, #1
 729 0030 0AD1     		bne	.L54
 791:.\Generated_Source\PSoC4/BLE.c ****                 cyBle_discoveryModeInfo.advParam->advIntvMin = CYBLE_SLOW_ADV_INT_MIN;
 730              		.loc 1 791 0
 731 0032 124B     		ldr	r3, .L58+8
 732 0034 9622     		mov	r2, #150
 733 0036 1A86     		strh	r2, [r3, #48]
 792:.\Generated_Source\PSoC4/BLE.c ****                 cyBle_discoveryModeInfo.advParam->advIntvMax = CYBLE_SLOW_ADV_INT_MAX;
 734              		.loc 1 792 0
 735 0038 C822     		mov	r2, #200
 736 003a D200     		lsl	r2, r2, #3
 737 003c 596A     		ldr	r1, [r3, #36]
 738 003e 0A80     		strh	r2, [r1]
 793:.\Generated_Source\PSoC4/BLE.c ****             }       
 739              		.loc 1 793 0
 740 0040 5B6A     		ldr	r3, [r3, #36]
 741 0042 8022     		mov	r2, #128
 742 0044 D201     		lsl	r2, r2, #7
 743 0046 5A80     		strh	r2, [r3, #2]
 744              	.L54:
 798:.\Generated_Source\PSoC4/BLE.c ****             apiResult = CyBle_GappEnterDiscoveryMode(&cyBle_discoveryModeInfo);
 745              		.loc 1 798 0
 746 0048 0D4B     		ldr	r3, .L58+12
 747 004a 1870     		strb	r0, [r3]
 799:.\Generated_Source\PSoC4/BLE.c ****         
 748              		.loc 1 799 0
 749 004c 0B48     		ldr	r0, .L58+8
 750              	.LVL68:
 751 004e 2030     		add	r0, r0, #32
 752 0050 FFF7FEFF 		bl	CyBle_GappEnterDiscoveryMode
 753              	.LVL69:
 801:.\Generated_Source\PSoC4/BLE.c ****             {
 754              		.loc 1 801 0
 755 0054 0028     		cmp	r0, #0
ARM GAS  C:\Users\mlgjmoor\AppData\Local\Temp\ccKDuCjD.s 			page 38


 756 0056 0CD1     		bne	.L52
 803:.\Generated_Source\PSoC4/BLE.c ****             }
 757              		.loc 1 803 0
 758 0058 074A     		ldr	r2, .L58+4
 759 005a 1178     		ldrb	r1, [r2]
 760 005c 0423     		mov	r3, #4
 761 005e 0B43     		orr	r3, r1
 762 0060 1370     		strb	r3, [r2]
 763 0062 06E0     		b	.L52
 764              	.LVL70:
 765              	.L55:
 779:.\Generated_Source\PSoC4/BLE.c ****         }
 766              		.loc 1 779 0
 767 0064 0120     		mov	r0, #1
 768              	.LVL71:
 769 0066 04E0     		b	.L52
 770              	.LVL72:
 771              	.L56:
 808:.\Generated_Source\PSoC4/BLE.c ****         }
 772              		.loc 1 808 0
 773 0068 0420     		mov	r0, #4
 774              	.LVL73:
 775 006a FF30     		add	r0, r0, #255
 776 006c 01E0     		b	.L52
 777              	.LVL74:
 778              	.L57:
 779 006e 0420     		mov	r0, #4
 780              	.LVL75:
 781 0070 FF30     		add	r0, r0, #255
 782              	.L52:
 783              	.LVL76:
 812:.\Generated_Source\PSoC4/BLE.c **** 
 784              		.loc 1 812 0
 785              		@ sp needed
 786 0072 08BD     		pop	{r3, pc}
 787              	.L59:
 788              		.align	2
 789              	.L58:
 790 0074 00000000 		.word	cyBle_state
 791 0078 00000000 		.word	cyBle_eventHandlerFlag
 792 007c 00000000 		.word	.LANCHOR0
 793 0080 00000000 		.word	cyBle_advertisingIntervalType
 794              		.cfi_endproc
 795              	.LFE8:
 796              		.size	CyBle_GappStartAdvertisement, .-CyBle_GappStartAdvertisement
 797              		.section	.text.CyBle_GappStopAdvertisement,"ax",%progbits
 798              		.align	2
 799              		.global	CyBle_GappStopAdvertisement
 800              		.code	16
 801              		.thumb_func
 802              		.type	CyBle_GappStopAdvertisement, %function
 803              	CyBle_GappStopAdvertisement:
 804              	.LFB9:
 835:.\Generated_Source\PSoC4/BLE.c ****         CyBle_GappExitDiscoveryMode();
 805              		.loc 1 835 0
 806              		.cfi_startproc
 807 0000 08B5     		push	{r3, lr}
ARM GAS  C:\Users\mlgjmoor\AppData\Local\Temp\ccKDuCjD.s 			page 39


 808              		.cfi_def_cfa_offset 8
 809              		.cfi_offset 3, -8
 810              		.cfi_offset 14, -4
 836:.\Generated_Source\PSoC4/BLE.c ****         cyBle_eventHandlerFlag |= CYBLE_STOP_FLAG;
 811              		.loc 1 836 0
 812 0002 FFF7FEFF 		bl	CyBle_GappExitDiscoveryMode
 813              	.LVL77:
 837:.\Generated_Source\PSoC4/BLE.c ****     }
 814              		.loc 1 837 0
 815 0006 034A     		ldr	r2, .L61
 816 0008 1178     		ldrb	r1, [r2]
 817 000a 0823     		mov	r3, #8
 818 000c 0B43     		orr	r3, r1
 819 000e 1370     		strb	r3, [r2]
 838:.\Generated_Source\PSoC4/BLE.c ****     
 820              		.loc 1 838 0
 821              		@ sp needed
 822 0010 08BD     		pop	{r3, pc}
 823              	.L62:
 824 0012 C046     		.align	2
 825              	.L61:
 826 0014 00000000 		.word	cyBle_eventHandlerFlag
 827              		.cfi_endproc
 828              	.LFE9:
 829              		.size	CyBle_GappStopAdvertisement, .-CyBle_GappStopAdvertisement
 830              		.section	.text.CyBle_ChangeAdDeviceAddress,"ax",%progbits
 831              		.align	2
 832              		.global	CyBle_ChangeAdDeviceAddress
 833              		.code	16
 834              		.thumb_func
 835              		.type	CyBle_ChangeAdDeviceAddress, %function
 836              	CyBle_ChangeAdDeviceAddress:
 837              	.LFB10:
 857:.\Generated_Source\PSoC4/BLE.c ****         uint8 i;
 838              		.loc 1 857 0
 839              		.cfi_startproc
 840              	.LVL78:
 884:.\Generated_Source\PSoC4/BLE.c ****   
 841              		.loc 1 884 0
 842              		@ sp needed
 843 0000 7047     		bx	lr
 844              		.cfi_endproc
 845              	.LFE10:
 846              		.size	CyBle_ChangeAdDeviceAddress, .-CyBle_ChangeAdDeviceAddress
 847 0002 C046     		.section	.text.CyBle_GapSetLocalName,"ax",%progbits
 848              		.align	2
 849              		.global	CyBle_GapSetLocalName
 850              		.code	16
 851              		.thumb_func
 852              		.type	CyBle_GapSetLocalName, %function
 853              	CyBle_GapSetLocalName:
 854              	.LFB12:
1246:.\Generated_Source\PSoC4/BLE.c ****         
1247:.\Generated_Source\PSoC4/BLE.c **** #endif /* (CYBLE_GAP_ROLE_PERIPHERAL) */  
1248:.\Generated_Source\PSoC4/BLE.c ****     
1249:.\Generated_Source\PSoC4/BLE.c ****     
1250:.\Generated_Source\PSoC4/BLE.c ****     /******************************************************************************
ARM GAS  C:\Users\mlgjmoor\AppData\Local\Temp\ccKDuCjD.s 			page 40


1251:.\Generated_Source\PSoC4/BLE.c ****     * Function Name: CyBle_GapSetLocalName
1252:.\Generated_Source\PSoC4/BLE.c ****     ***************************************************************************//**
1253:.\Generated_Source\PSoC4/BLE.c ****     *  This API is used to set the local device name - a Characteristic of the 
1254:.\Generated_Source\PSoC4/BLE.c ****     *  GAP Service. If the characteristic length entered in the component customizer
1255:.\Generated_Source\PSoC4/BLE.c ****     *  is shorter than the string specified by the "name" parameter, the local device
1256:.\Generated_Source\PSoC4/BLE.c ****     *  name will be cut to the length specified in the customizer.
1257:.\Generated_Source\PSoC4/BLE.c ****     * 
1258:.\Generated_Source\PSoC4/BLE.c ****     *  \param name: The local device name string. The name string to be written as
1259:.\Generated_Source\PSoC4/BLE.c ****     *              the local device name. It represents a UTF-8 encoded User
1260:.\Generated_Source\PSoC4/BLE.c ****     *              Friendly Descriptive Name for the device. The length of the local
1261:.\Generated_Source\PSoC4/BLE.c ****     *              device string is entered into the component customizer and it can
1262:.\Generated_Source\PSoC4/BLE.c ****     *              be set to a value from 0 to 248 bytes. If the name contained in
1263:.\Generated_Source\PSoC4/BLE.c ****     *              the parameter is shorter than the length from the customizer, the
1264:.\Generated_Source\PSoC4/BLE.c ****     *              end of the name is indicated by a NULL octet (0x00).
1265:.\Generated_Source\PSoC4/BLE.c ****     * 
1266:.\Generated_Source\PSoC4/BLE.c ****     * \return
1267:.\Generated_Source\PSoC4/BLE.c ****     *  CYBLE_API_RESULT_T : Return value indicates if the function succeeded or 
1268:.\Generated_Source\PSoC4/BLE.c ****     *  failed. Following are the possible error codes.
1269:.\Generated_Source\PSoC4/BLE.c ****     *
1270:.\Generated_Source\PSoC4/BLE.c ****     *   Errors codes                       | Description
1271:.\Generated_Source\PSoC4/BLE.c ****     *   ------------                       | -----------
1272:.\Generated_Source\PSoC4/BLE.c ****     *   CYBLE_ERROR_OK                     | Function completed successfully.
1273:.\Generated_Source\PSoC4/BLE.c ****     *   CYBLE_ERROR_INVALID_PARAMETER      | On specifying NULL as input parameter
1274:.\Generated_Source\PSoC4/BLE.c ****     *  
1275:.\Generated_Source\PSoC4/BLE.c ****     *******************************************************************************/
1276:.\Generated_Source\PSoC4/BLE.c ****     CYBLE_API_RESULT_T CyBle_GapSetLocalName(const char8 name[])
1277:.\Generated_Source\PSoC4/BLE.c ****     {
 855              		.loc 1 1277 0
 856              		.cfi_startproc
 857              	.LVL79:
 858 0000 10B5     		push	{r4, lr}
 859              		.cfi_def_cfa_offset 8
 860              		.cfi_offset 4, -8
 861              		.cfi_offset 14, -4
 862              	.LVL80:
1278:.\Generated_Source\PSoC4/BLE.c ****         CYBLE_API_RESULT_T apiResult = CYBLE_ERROR_OK;
1279:.\Generated_Source\PSoC4/BLE.c ****         uint8 i;
1280:.\Generated_Source\PSoC4/BLE.c ****         char8 *ptr;
1281:.\Generated_Source\PSoC4/BLE.c ****         uint8 charLen;
1282:.\Generated_Source\PSoC4/BLE.c **** 
1283:.\Generated_Source\PSoC4/BLE.c ****         if(NULL != name)
 863              		.loc 1 1283 0
 864 0002 0028     		cmp	r0, #0
 865 0004 1DD0     		beq	.L70
1284:.\Generated_Source\PSoC4/BLE.c ****         {
1285:.\Generated_Source\PSoC4/BLE.c ****             /* Get the pointer to the Device Name characteristic  */
1286:.\Generated_Source\PSoC4/BLE.c ****             ptr = (char8 *) CYBLE_GATT_DB_ATTR_GET_ATTR_GEN_PTR(CYBLE_GAP_DEVICE_NAME_INDEX + 1u);
 866              		.loc 1 1286 0
 867 0006 104B     		ldr	r3, .L71
 868 0008 9A6B     		ldr	r2, [r3, #56]
 869 000a 5468     		ldr	r4, [r2, #4]
 870              	.LVL81:
1287:.\Generated_Source\PSoC4/BLE.c **** 
1288:.\Generated_Source\PSoC4/BLE.c ****             /* First need to get the maximum length of the characteristic data in the GATT
1289:.\Generated_Source\PSoC4/BLE.c ****                 database to make sure there is enough place for the data. The length
1290:.\Generated_Source\PSoC4/BLE.c ****                 can't be longer than 248, so only the LSB of 16 bit of length is to
1291:.\Generated_Source\PSoC4/BLE.c ****                 be used. */
ARM GAS  C:\Users\mlgjmoor\AppData\Local\Temp\ccKDuCjD.s 			page 41


1292:.\Generated_Source\PSoC4/BLE.c ****             charLen = (uint8)CYBLE_GATT_DB_ATTR_GET_ATTR_GEN_MAX_LEN(CYBLE_GAP_DEVICE_NAME_INDEX + 
 871              		.loc 1 1292 0
 872 000c 998E     		ldrh	r1, [r3, #52]
 873 000e C9B2     		uxtb	r1, r1
 874              	.LVL82:
1293:.\Generated_Source\PSoC4/BLE.c **** 
1294:.\Generated_Source\PSoC4/BLE.c ****             /* Copy name into characteristic */
1295:.\Generated_Source\PSoC4/BLE.c ****             for(i = 0u; ((i < charLen) && (CYBLE_NULL_CHARCTER != name[i])); i++)
 875              		.loc 1 1295 0
 876 0010 0023     		mov	r3, #0
 877 0012 02E0     		b	.L66
 878              	.LVL83:
 879              	.L68:
1296:.\Generated_Source\PSoC4/BLE.c ****             {
1297:.\Generated_Source\PSoC4/BLE.c ****                 ptr[i] = name[i];
 880              		.loc 1 1297 0 discriminator 4
 881 0014 E254     		strb	r2, [r4, r3]
1295:.\Generated_Source\PSoC4/BLE.c ****             {
 882              		.loc 1 1295 0 discriminator 4
 883 0016 0133     		add	r3, r3, #1
 884              	.LVL84:
 885 0018 DBB2     		uxtb	r3, r3
 886              	.LVL85:
 887              	.L66:
1295:.\Generated_Source\PSoC4/BLE.c ****             {
 888              		.loc 1 1295 0 is_stmt 0 discriminator 1
 889 001a 8B42     		cmp	r3, r1
 890 001c 02D2     		bcs	.L67
1295:.\Generated_Source\PSoC4/BLE.c ****             {
 891              		.loc 1 1295 0 discriminator 3
 892 001e C25C     		ldrb	r2, [r0, r3]
 893 0020 002A     		cmp	r2, #0
 894 0022 F7D1     		bne	.L68
 895              	.L67:
1298:.\Generated_Source\PSoC4/BLE.c ****             }
1299:.\Generated_Source\PSoC4/BLE.c **** 
1300:.\Generated_Source\PSoC4/BLE.c ****             if(i < charLen)
 896              		.loc 1 1300 0 is_stmt 1
 897 0024 8B42     		cmp	r3, r1
 898 0026 02D2     		bcs	.L69
1301:.\Generated_Source\PSoC4/BLE.c ****             {
1302:.\Generated_Source\PSoC4/BLE.c ****                 /* Terminate string */
1303:.\Generated_Source\PSoC4/BLE.c ****                 ptr[i] = CYBLE_NULL_CHARCTER;
 899              		.loc 1 1303 0
 900 0028 E318     		add	r3, r4, r3
 901              	.LVL86:
 902 002a 0022     		mov	r2, #0
 903 002c 1A70     		strb	r2, [r3]
 904              	.L69:
 905 002e 041C     		mov	r4, r0
 906              	.LVL87:
1304:.\Generated_Source\PSoC4/BLE.c ****             }
1305:.\Generated_Source\PSoC4/BLE.c ****             
1306:.\Generated_Source\PSoC4/BLE.c ****             /* Set new actual length */
1307:.\Generated_Source\PSoC4/BLE.c ****             
1308:.\Generated_Source\PSoC4/BLE.c ****             /* Update device name in advertising and scan response structure */
1309:.\Generated_Source\PSoC4/BLE.c ****             #if(CYBLE_GAP_ROLE_PERIPHERAL)
ARM GAS  C:\Users\mlgjmoor\AppData\Local\Temp\ccKDuCjD.s 			page 42


1310:.\Generated_Source\PSoC4/BLE.c ****                 CyBle_ChangeAdLocalName(name, 0u);
 907              		.loc 1 1310 0
 908 0030 0021     		mov	r1, #0
 909              	.LVL88:
 910 0032 FFF7FEFF 		bl	CyBle_ChangeAdLocalName
 911              	.LVL89:
1311:.\Generated_Source\PSoC4/BLE.c ****                 CyBle_ChangeAdLocalName(name, 1u);
 912              		.loc 1 1311 0
 913 0036 201C     		mov	r0, r4
 914 0038 0121     		mov	r1, #1
 915 003a FFF7FEFF 		bl	CyBle_ChangeAdLocalName
 916              	.LVL90:
1278:.\Generated_Source\PSoC4/BLE.c ****         uint8 i;
 917              		.loc 1 1278 0
 918 003e 0020     		mov	r0, #0
 919 0040 00E0     		b	.L65
 920              	.LVL91:
 921              	.L70:
1312:.\Generated_Source\PSoC4/BLE.c ****             #endif /* (CYBLE_GAP_ROLE_PERIPHERAL) */
1313:.\Generated_Source\PSoC4/BLE.c ****         }
1314:.\Generated_Source\PSoC4/BLE.c ****         else
1315:.\Generated_Source\PSoC4/BLE.c ****         {
1316:.\Generated_Source\PSoC4/BLE.c ****             apiResult = CYBLE_ERROR_INVALID_PARAMETER;
 922              		.loc 1 1316 0
 923 0042 0120     		mov	r0, #1
 924              	.LVL92:
 925              	.L65:
1317:.\Generated_Source\PSoC4/BLE.c ****         }
1318:.\Generated_Source\PSoC4/BLE.c ****         
1319:.\Generated_Source\PSoC4/BLE.c ****         return(apiResult);
1320:.\Generated_Source\PSoC4/BLE.c ****     }
 926              		.loc 1 1320 0
 927              		@ sp needed
 928 0044 10BD     		pop	{r4, pc}
 929              	.L72:
 930 0046 C046     		.align	2
 931              	.L71:
 932 0048 00000000 		.word	cyBle_gattDB
 933              		.cfi_endproc
 934              	.LFE12:
 935              		.size	CyBle_GapSetLocalName, .-CyBle_GapSetLocalName
 936              		.section	.text.CyBle_GapGetLocalName,"ax",%progbits
 937              		.align	2
 938              		.global	CyBle_GapGetLocalName
 939              		.code	16
 940              		.thumb_func
 941              		.type	CyBle_GapGetLocalName, %function
 942              	CyBle_GapGetLocalName:
 943              	.LFB13:
1321:.\Generated_Source\PSoC4/BLE.c **** 
1322:.\Generated_Source\PSoC4/BLE.c **** 
1323:.\Generated_Source\PSoC4/BLE.c ****     /******************************************************************************
1324:.\Generated_Source\PSoC4/BLE.c ****     * Function Name: CyBle_GapGetLocalName
1325:.\Generated_Source\PSoC4/BLE.c ****     ***************************************************************************//**
1326:.\Generated_Source\PSoC4/BLE.c ****     *  
1327:.\Generated_Source\PSoC4/BLE.c ****     *  This API is used to read the local device name - a Characteristic of the 
1328:.\Generated_Source\PSoC4/BLE.c ****     *  GAP Service.
ARM GAS  C:\Users\mlgjmoor\AppData\Local\Temp\ccKDuCjD.s 			page 43


1329:.\Generated_Source\PSoC4/BLE.c ****     * 
1330:.\Generated_Source\PSoC4/BLE.c ****     * \param name: The local device name string. Used to read the local name to the
1331:.\Generated_Source\PSoC4/BLE.c ****     *             given string array. It represents a UTF-8 encoded User Friendly 
1332:.\Generated_Source\PSoC4/BLE.c ****     *             Descriptive Name for the device. The length of the local device
1333:.\Generated_Source\PSoC4/BLE.c ****     *             string is entered into the component customizer and it can be set
1334:.\Generated_Source\PSoC4/BLE.c ****     *             to a value from 0 to 248 bytes. If the name contained in the
1335:.\Generated_Source\PSoC4/BLE.c ****     *             parameter is shorter than the length from the customizer, the end
1336:.\Generated_Source\PSoC4/BLE.c ****     *             of the name is indicated by a NULL octet (0x00).
1337:.\Generated_Source\PSoC4/BLE.c ****     * 
1338:.\Generated_Source\PSoC4/BLE.c ****     * \return
1339:.\Generated_Source\PSoC4/BLE.c ****     *  CYBLE_API_RESULT_T : Return value indicates if the function succeeded or 
1340:.\Generated_Source\PSoC4/BLE.c ****     *  failed. Following are the possible error codes.
1341:.\Generated_Source\PSoC4/BLE.c ****     *
1342:.\Generated_Source\PSoC4/BLE.c ****     *   Errors codes                       | Description
1343:.\Generated_Source\PSoC4/BLE.c ****     *   ------------                       | -----------
1344:.\Generated_Source\PSoC4/BLE.c ****     *   CYBLE_ERROR_OK                     | Function completed successfully.
1345:.\Generated_Source\PSoC4/BLE.c ****     *   CYBLE_ERROR_INVALID_PARAMETER      | On specifying NULL as input parameter
1346:.\Generated_Source\PSoC4/BLE.c ****     *
1347:.\Generated_Source\PSoC4/BLE.c ****     *******************************************************************************/
1348:.\Generated_Source\PSoC4/BLE.c ****     CYBLE_API_RESULT_T CyBle_GapGetLocalName(char8 name[])
1349:.\Generated_Source\PSoC4/BLE.c ****     {
 944              		.loc 1 1349 0
 945              		.cfi_startproc
 946              	.LVL93:
 947 0000 10B5     		push	{r4, lr}
 948              		.cfi_def_cfa_offset 8
 949              		.cfi_offset 4, -8
 950              		.cfi_offset 14, -4
 951              	.LVL94:
1350:.\Generated_Source\PSoC4/BLE.c ****         CYBLE_API_RESULT_T apiResult = CYBLE_ERROR_OK;
1351:.\Generated_Source\PSoC4/BLE.c ****         uint8 charLen;
1352:.\Generated_Source\PSoC4/BLE.c ****         uint8 i;
1353:.\Generated_Source\PSoC4/BLE.c ****         char8 *ptr;
1354:.\Generated_Source\PSoC4/BLE.c **** 
1355:.\Generated_Source\PSoC4/BLE.c ****         if(NULL != name)
 952              		.loc 1 1355 0
 953 0002 0028     		cmp	r0, #0
 954 0004 12D0     		beq	.L78
1356:.\Generated_Source\PSoC4/BLE.c ****         {
1357:.\Generated_Source\PSoC4/BLE.c ****             /* Get the pointer to the Device Name characteristic  */
1358:.\Generated_Source\PSoC4/BLE.c ****             ptr = (char8 *) CYBLE_GATT_DB_ATTR_GET_ATTR_GEN_PTR(CYBLE_GAP_DEVICE_NAME_INDEX + 1u);
 955              		.loc 1 1358 0
 956 0006 0A4B     		ldr	r3, .L79
 957 0008 9B6B     		ldr	r3, [r3, #56]
 958 000a 5C68     		ldr	r4, [r3, #4]
 959              	.LVL95:
1359:.\Generated_Source\PSoC4/BLE.c **** 
1360:.\Generated_Source\PSoC4/BLE.c ****             /* First need to get the length of the characteristic data in the GATT
1361:.\Generated_Source\PSoC4/BLE.c ****                 database to make sure there is enough place for the data. The length
1362:.\Generated_Source\PSoC4/BLE.c ****                 can't be longer than 248, so only the LSB of 16 bit of length is to
1363:.\Generated_Source\PSoC4/BLE.c ****                 be used. */
1364:.\Generated_Source\PSoC4/BLE.c ****             charLen = (uint8)CYBLE_GATT_DB_ATTR_GET_ATTR_GEN_LEN(CYBLE_GAP_DEVICE_NAME_INDEX + 1u);
 960              		.loc 1 1364 0
 961 000c 1978     		ldrb	r1, [r3]
 962              	.LVL96:
1365:.\Generated_Source\PSoC4/BLE.c **** 
1366:.\Generated_Source\PSoC4/BLE.c ****             /* Copy name from characteristic */
ARM GAS  C:\Users\mlgjmoor\AppData\Local\Temp\ccKDuCjD.s 			page 44


1367:.\Generated_Source\PSoC4/BLE.c ****             for(i = 0u; ((i < charLen) && (CYBLE_NULL_CHARCTER != ptr[i])); i++)
 963              		.loc 1 1367 0
 964 000e 0023     		mov	r3, #0
 965 0010 02E0     		b	.L75
 966              	.LVL97:
 967              	.L77:
1368:.\Generated_Source\PSoC4/BLE.c ****             {
1369:.\Generated_Source\PSoC4/BLE.c ****                 name[i] = ptr[i];
 968              		.loc 1 1369 0 discriminator 4
 969 0012 C254     		strb	r2, [r0, r3]
1367:.\Generated_Source\PSoC4/BLE.c ****             {
 970              		.loc 1 1367 0 discriminator 4
 971 0014 0133     		add	r3, r3, #1
 972              	.LVL98:
 973 0016 DBB2     		uxtb	r3, r3
 974              	.LVL99:
 975              	.L75:
1367:.\Generated_Source\PSoC4/BLE.c ****             {
 976              		.loc 1 1367 0 is_stmt 0 discriminator 1
 977 0018 8B42     		cmp	r3, r1
 978 001a 02D2     		bcs	.L76
1367:.\Generated_Source\PSoC4/BLE.c ****             {
 979              		.loc 1 1367 0 discriminator 3
 980 001c E25C     		ldrb	r2, [r4, r3]
 981 001e 002A     		cmp	r2, #0
 982 0020 F7D1     		bne	.L77
 983              	.L76:
1370:.\Generated_Source\PSoC4/BLE.c ****             }
1371:.\Generated_Source\PSoC4/BLE.c **** 
1372:.\Generated_Source\PSoC4/BLE.c ****             /* Terminate string */
1373:.\Generated_Source\PSoC4/BLE.c ****             name[i] = CYBLE_NULL_CHARCTER;
 984              		.loc 1 1373 0 is_stmt 1
 985 0022 C318     		add	r3, r0, r3
 986              	.LVL100:
 987 0024 0022     		mov	r2, #0
 988 0026 1A70     		strb	r2, [r3]
1350:.\Generated_Source\PSoC4/BLE.c ****         uint8 charLen;
 989              		.loc 1 1350 0
 990 0028 0020     		mov	r0, #0
 991              	.LVL101:
 992 002a 00E0     		b	.L74
 993              	.LVL102:
 994              	.L78:
1374:.\Generated_Source\PSoC4/BLE.c ****         }
1375:.\Generated_Source\PSoC4/BLE.c ****         else
1376:.\Generated_Source\PSoC4/BLE.c ****         {
1377:.\Generated_Source\PSoC4/BLE.c ****             apiResult = CYBLE_ERROR_INVALID_PARAMETER;
 995              		.loc 1 1377 0
 996 002c 0120     		mov	r0, #1
 997              	.LVL103:
 998              	.L74:
1378:.\Generated_Source\PSoC4/BLE.c ****         }
1379:.\Generated_Source\PSoC4/BLE.c ****         
1380:.\Generated_Source\PSoC4/BLE.c ****         return(apiResult);
1381:.\Generated_Source\PSoC4/BLE.c ****     }
 999              		.loc 1 1381 0
 1000              		@ sp needed
ARM GAS  C:\Users\mlgjmoor\AppData\Local\Temp\ccKDuCjD.s 			page 45


 1001 002e 10BD     		pop	{r4, pc}
 1002              	.L80:
 1003              		.align	2
 1004              	.L79:
 1005 0030 00000000 		.word	cyBle_gattDB
 1006              		.cfi_endproc
 1007              	.LFE13:
 1008              		.size	CyBle_GapGetLocalName, .-CyBle_GapGetLocalName
 1009              		.section	.text.CyBle_Get16ByPtr,"ax",%progbits
 1010              		.align	2
 1011              		.global	CyBle_Get16ByPtr
 1012              		.code	16
 1013              		.thumb_func
 1014              		.type	CyBle_Get16ByPtr, %function
 1015              	CyBle_Get16ByPtr:
 1016              	.LFB14:
1382:.\Generated_Source\PSoC4/BLE.c **** 
1383:.\Generated_Source\PSoC4/BLE.c **** #endif /* (CYBLE_GATT_ROLE_SERVER) */
1384:.\Generated_Source\PSoC4/BLE.c **** 
1385:.\Generated_Source\PSoC4/BLE.c **** 
1386:.\Generated_Source\PSoC4/BLE.c **** /******************************************************************************
1387:.\Generated_Source\PSoC4/BLE.c **** * Function Name: CyBle_Get16ByPtr
1388:.\Generated_Source\PSoC4/BLE.c **** ***************************************************************************//**
1389:.\Generated_Source\PSoC4/BLE.c **** * 
1390:.\Generated_Source\PSoC4/BLE.c **** *  Returns the two-bytes value by using a pointer to the LSB.
1391:.\Generated_Source\PSoC4/BLE.c **** * 
1392:.\Generated_Source\PSoC4/BLE.c **** *  \param ptr: Pointer to the LSB of two-bytes data (little endian).
1393:.\Generated_Source\PSoC4/BLE.c **** * 
1394:.\Generated_Source\PSoC4/BLE.c **** *  \return
1395:.\Generated_Source\PSoC4/BLE.c **** *  uint16: Two-bytes data.
1396:.\Generated_Source\PSoC4/BLE.c **** * 
1397:.\Generated_Source\PSoC4/BLE.c **** ******************************************************************************/
1398:.\Generated_Source\PSoC4/BLE.c **** uint16 CyBle_Get16ByPtr(const uint8 ptr[])
1399:.\Generated_Source\PSoC4/BLE.c **** {
 1017              		.loc 1 1399 0
 1018              		.cfi_startproc
 1019              	.LVL104:
1400:.\Generated_Source\PSoC4/BLE.c ****     return ((uint16) ptr[0u] | ((uint16) (((uint16) ptr[1u]) << 8u)));
 1020              		.loc 1 1400 0
 1021 0000 0378     		ldrb	r3, [r0]
 1022 0002 4078     		ldrb	r0, [r0, #1]
 1023              	.LVL105:
 1024 0004 0002     		lsl	r0, r0, #8
 1025 0006 1843     		orr	r0, r3
1401:.\Generated_Source\PSoC4/BLE.c **** }
 1026              		.loc 1 1401 0
 1027              		@ sp needed
 1028 0008 7047     		bx	lr
 1029              		.cfi_endproc
 1030              	.LFE14:
 1031              		.size	CyBle_Get16ByPtr, .-CyBle_Get16ByPtr
 1032 000a C046     		.section	.text.CyBle_Set16ByPtr,"ax",%progbits
 1033              		.align	2
 1034              		.global	CyBle_Set16ByPtr
 1035              		.code	16
 1036              		.thumb_func
 1037              		.type	CyBle_Set16ByPtr, %function
ARM GAS  C:\Users\mlgjmoor\AppData\Local\Temp\ccKDuCjD.s 			page 46


 1038              	CyBle_Set16ByPtr:
 1039              	.LFB15:
1402:.\Generated_Source\PSoC4/BLE.c **** 
1403:.\Generated_Source\PSoC4/BLE.c **** 
1404:.\Generated_Source\PSoC4/BLE.c **** /******************************************************************************
1405:.\Generated_Source\PSoC4/BLE.c **** * Function Name: CyBle_Set16ByPtr
1406:.\Generated_Source\PSoC4/BLE.c **** ***************************************************************************//**
1407:.\Generated_Source\PSoC4/BLE.c **** * 
1408:.\Generated_Source\PSoC4/BLE.c **** *  Sets the two-bytes value by using a pointer to the LSB.
1409:.\Generated_Source\PSoC4/BLE.c **** * 
1410:.\Generated_Source\PSoC4/BLE.c **** *  \param ptr:    Pointer to the LSB of two-bytes data (little endian).
1411:.\Generated_Source\PSoC4/BLE.c **** *  \param value:  Two-bytes data to be written.
1412:.\Generated_Source\PSoC4/BLE.c **** * 
1413:.\Generated_Source\PSoC4/BLE.c **** *  \return
1414:.\Generated_Source\PSoC4/BLE.c **** *  None
1415:.\Generated_Source\PSoC4/BLE.c **** * 
1416:.\Generated_Source\PSoC4/BLE.c **** ******************************************************************************/
1417:.\Generated_Source\PSoC4/BLE.c **** void CyBle_Set16ByPtr(uint8 ptr[], uint16 value)
1418:.\Generated_Source\PSoC4/BLE.c **** {
 1040              		.loc 1 1418 0
 1041              		.cfi_startproc
 1042              	.LVL106:
1419:.\Generated_Source\PSoC4/BLE.c ****     ptr[0u] = (uint8) value;
 1043              		.loc 1 1419 0
 1044 0000 0170     		strb	r1, [r0]
1420:.\Generated_Source\PSoC4/BLE.c ****     ptr[1u] = (uint8) (value >> 8u);
 1045              		.loc 1 1420 0
 1046 0002 090A     		lsr	r1, r1, #8
 1047              	.LVL107:
 1048 0004 4170     		strb	r1, [r0, #1]
1421:.\Generated_Source\PSoC4/BLE.c **** }
 1049              		.loc 1 1421 0
 1050              		@ sp needed
 1051 0006 7047     		bx	lr
 1052              		.cfi_endproc
 1053              	.LFE15:
 1054              		.size	CyBle_Set16ByPtr, .-CyBle_Set16ByPtr
 1055              		.global	cyBle_sflashDeviceAddress
 1056              		.global	cyBle_deviceAddress
 1057              		.comm	CyBle_ApplCallback,4,4
 1058              		.comm	cyBle_pendingFlashWrite,1,1
 1059              		.comm	cyBle_peerBonding,1,1
 1060              		.global	cyBle_discoveryModeInfo
 1061              		.global	cyBle_scanRspData
 1062              		.global	cyBle_discoveryData
 1063              		.global	cyBle_discoveryParam
 1064              		.global	cyBle_stackMemoryRam
 1065              		.global	cyBle_initVar
 1066              		.section	.rodata
 1067              		.align	2
 1068              		.set	.LANCHOR2,. + 0
 1069              	.LC0:
 1070 0000 2400     		.short	36
 1071 0002 03       		.byte	3
 1072 0003 00       		.space	1
 1073 0004 3000     		.short	48
 1074 0006 01       		.byte	1
ARM GAS  C:\Users\mlgjmoor\AppData\Local\Temp\ccKDuCjD.s 			page 47


 1075 0007 00       		.space	1
 1076 0008 2800     		.short	40
 1077 000a 02       		.byte	2
 1078 000b 00       		.space	1
 1079 000c 2400     		.short	36
 1080 000e 01       		.byte	1
 1081 000f 00       		.space	1
 1082 0010 2400     		.short	36
 1083 0012 01       		.byte	1
 1084 0013 00       		.space	1
 1085              		.data
 1086              		.align	2
 1087              		.set	.LANCHOR0,. + 0
 1088              		.type	cyBle_discoveryData, %object
 1089              		.size	cyBle_discoveryData, 32
 1090              	cyBle_discoveryData:
 1091 0000 02       		.byte	2
 1092 0001 01       		.byte	1
 1093 0002 06       		.byte	6
 1094 0003 08       		.byte	8
 1095 0004 09       		.byte	9
 1096 0005 4E       		.byte	78
 1097 0006 6F       		.byte	111
 1098 0007 64       		.byte	100
 1099 0008 75       		.byte	117
 1100 0009 73       		.byte	115
 1101 000a 20       		.byte	32
 1102 000b 43       		.byte	67
 1103 000c 11       		.byte	17
 1104 000d 07       		.byte	7
 1105 000e FB       		.byte	-5
 1106 000f 34       		.byte	52
 1107 0010 9B       		.byte	-101
 1108 0011 5F       		.byte	95
 1109 0012 80       		.byte	-128
 1110 0013 00       		.byte	0
 1111 0014 00       		.byte	0
 1112 0015 80       		.byte	-128
 1113 0016 00       		.byte	0
 1114 0017 10       		.byte	16
 1115 0018 00       		.byte	0
 1116 0019 00       		.byte	0
 1117 001a 00       		.byte	0
 1118 001b 00       		.byte	0
 1119 001c 00       		.byte	0
 1120 001d 00       		.byte	0
 1121 001e 00       		.byte	0
 1122 001f 1E       		.byte	30
 1123              		.type	cyBle_discoveryModeInfo, %object
 1124              		.size	cyBle_discoveryModeInfo, 20
 1125              	cyBle_discoveryModeInfo:
 1126 0020 02       		.byte	2
 1127 0021 000000   		.space	3
 1128 0024 00000000 		.word	cyBle_discoveryParam
 1129 0028 00000000 		.word	cyBle_discoveryData
 1130 002c 00000000 		.word	cyBle_scanRspData
 1131 0030 1E00     		.short	30
ARM GAS  C:\Users\mlgjmoor\AppData\Local\Temp\ccKDuCjD.s 			page 48


 1132 0032 0000     		.space	2
 1133              		.type	cyBle_sflashDeviceAddress, %object
 1134              		.size	cyBle_sflashDeviceAddress, 4
 1135              	cyBle_sflashDeviceAddress:
 1136 0034 00F4FF0F 		.word	268432384
 1137              		.type	cyBle_deviceAddress, %object
 1138              		.size	cyBle_deviceAddress, 7
 1139              	cyBle_deviceAddress:
 1140 0038 00       		.byte	0
 1141 0039 00       		.byte	0
 1142 003a 00       		.byte	0
 1143 003b 50       		.byte	80
 1144 003c A0       		.byte	-96
 1145 003d 00       		.byte	0
 1146 003e 00       		.byte	0
 1147 003f 00       		.space	1
 1148              		.type	cyBle_discoveryParam, %object
 1149              		.size	cyBle_discoveryParam, 16
 1150              	cyBle_discoveryParam:
 1151 0040 2000     		.short	32
 1152 0042 3000     		.short	48
 1153 0044 00       		.byte	0
 1154 0045 00       		.byte	0
 1155 0046 00       		.byte	0
 1156 0047 00       		.byte	0
 1157 0048 00       		.byte	0
 1158 0049 00       		.byte	0
 1159 004a 50       		.byte	80
 1160 004b A0       		.byte	-96
 1161 004c 00       		.byte	0
 1162 004d 07       		.byte	7
 1163 004e 00       		.byte	0
 1164 004f 00       		.space	1
 1165              		.section	.noinit,"aw",%progbits
 1166              		.align	3
 1167              		.set	.LANCHOR3,. + 0
 1168              		.type	cyBle_stackMemoryRam, %object
 1169              		.size	cyBle_stackMemoryRam, 3456
 1170              	cyBle_stackMemoryRam:
 1171 0000 00000000 		.space	3456
 1171      00000000 
 1171      00000000 
 1171      00000000 
 1171      00000000 
 1172              		.bss
 1173              		.align	2
 1174              		.set	.LANCHOR1,. + 0
 1175              		.type	cyBle_scanRspData, %object
 1176              		.size	cyBle_scanRspData, 32
 1177              	cyBle_scanRspData:
 1178 0000 00000000 		.space	32
 1178      00000000 
 1178      00000000 
 1178      00000000 
 1178      00000000 
 1179              		.type	cyBle_initVar, %object
 1180              		.size	cyBle_initVar, 1
ARM GAS  C:\Users\mlgjmoor\AppData\Local\Temp\ccKDuCjD.s 			page 49


 1181              	cyBle_initVar:
 1182 0020 00       		.space	1
 1183              		.type	cyBle_pendingFlashClearCccdHandle, %object
 1184              		.size	cyBle_pendingFlashClearCccdHandle, 1
 1185              	cyBle_pendingFlashClearCccdHandle:
 1186 0021 00       		.space	1
 1187 0022 0000     		.text
 1188              	.Letext0:
 1189              		.file 2 ".\\Generated_Source\\PSoC4\\cytypes.h"
 1190              		.file 3 "c:\\program files (x86)\\cypress\\psoc creator\\3.3\\psoc creator\\import\\gnu\\arm\\4.9.
 1191              		.file 4 ".\\Generated_Source\\PSoC4\\BLE_Stack.h"
 1192              		.file 5 ".\\Generated_Source\\PSoC4\\BLE_StackGap.h"
 1193              		.file 6 ".\\Generated_Source\\PSoC4\\BLE_StackGatt.h"
 1194              		.file 7 ".\\Generated_Source\\PSoC4\\BLE_StackGattDb.h"
 1195              		.file 8 ".\\Generated_Source\\PSoC4\\BLE.h"
 1196              		.file 9 ".\\Generated_Source\\PSoC4\\BLE_gatt.h"
 1197              		.file 10 ".\\Generated_Source\\PSoC4\\BLE_eventHandler.h"
 1198              		.file 11 ".\\Generated_Source\\PSoC4\\BLE_custom.h"
 1199              		.file 12 ".\\Generated_Source\\PSoC4\\BLE_StackHostMain.h"
 1200              		.file 13 "c:\\program files (x86)\\cypress\\psoc creator\\3.3\\psoc creator\\import\\gnu\\arm\\4.9
 1201              		.section	.debug_info,"",%progbits
 1202              	.Ldebug_info0:
 1203 0000 C2100000 		.4byte	0x10c2
 1204 0004 0400     		.2byte	0x4
 1205 0006 00000000 		.4byte	.Ldebug_abbrev0
 1206 000a 04       		.byte	0x4
 1207 000b 01       		.uleb128 0x1
 1208 000c 4D0A0000 		.4byte	.LASF256
 1209 0010 01       		.byte	0x1
 1210 0011 22060000 		.4byte	.LASF257
 1211 0015 2E000000 		.4byte	.LASF258
 1212 0019 00000000 		.4byte	.Ldebug_ranges0+0
 1213 001d 00000000 		.4byte	0
 1214 0021 00000000 		.4byte	.Ldebug_line0
 1215 0025 02       		.uleb128 0x2
 1216 0026 01       		.byte	0x1
 1217 0027 06       		.byte	0x6
 1218 0028 40040000 		.4byte	.LASF0
 1219 002c 02       		.uleb128 0x2
 1220 002d 01       		.byte	0x1
 1221 002e 08       		.byte	0x8
 1222 002f D7040000 		.4byte	.LASF1
 1223 0033 02       		.uleb128 0x2
 1224 0034 02       		.byte	0x2
 1225 0035 05       		.byte	0x5
 1226 0036 29130000 		.4byte	.LASF2
 1227 003a 02       		.uleb128 0x2
 1228 003b 02       		.byte	0x2
 1229 003c 07       		.byte	0x7
 1230 003d 0C160000 		.4byte	.LASF3
 1231 0041 02       		.uleb128 0x2
 1232 0042 04       		.byte	0x4
 1233 0043 05       		.byte	0x5
 1234 0044 BD020000 		.4byte	.LASF4
 1235 0048 02       		.uleb128 0x2
 1236 0049 04       		.byte	0x4
 1237 004a 07       		.byte	0x7
ARM GAS  C:\Users\mlgjmoor\AppData\Local\Temp\ccKDuCjD.s 			page 50


 1238 004b B8090000 		.4byte	.LASF5
 1239 004f 02       		.uleb128 0x2
 1240 0050 08       		.byte	0x8
 1241 0051 05       		.byte	0x5
 1242 0052 050C0000 		.4byte	.LASF6
 1243 0056 02       		.uleb128 0x2
 1244 0057 08       		.byte	0x8
 1245 0058 07       		.byte	0x7
 1246 0059 73100000 		.4byte	.LASF7
 1247 005d 03       		.uleb128 0x3
 1248 005e 04       		.byte	0x4
 1249 005f 05       		.byte	0x5
 1250 0060 696E7400 		.ascii	"int\000"
 1251 0064 02       		.uleb128 0x2
 1252 0065 04       		.byte	0x4
 1253 0066 07       		.byte	0x7
 1254 0067 DC0D0000 		.4byte	.LASF8
 1255 006b 04       		.uleb128 0x4
 1256 006c E0120000 		.4byte	.LASF9
 1257 0070 02       		.byte	0x2
 1258 0071 9801     		.2byte	0x198
 1259 0073 2C000000 		.4byte	0x2c
 1260 0077 04       		.uleb128 0x4
 1261 0078 71170000 		.4byte	.LASF10
 1262 007c 02       		.byte	0x2
 1263 007d 9901     		.2byte	0x199
 1264 007f 3A000000 		.4byte	0x3a
 1265 0083 04       		.uleb128 0x4
 1266 0084 F0000000 		.4byte	.LASF11
 1267 0088 02       		.byte	0x2
 1268 0089 9A01     		.2byte	0x19a
 1269 008b 48000000 		.4byte	0x48
 1270 008f 02       		.uleb128 0x2
 1271 0090 04       		.byte	0x4
 1272 0091 04       		.byte	0x4
 1273 0092 670D0000 		.4byte	.LASF12
 1274 0096 02       		.uleb128 0x2
 1275 0097 08       		.byte	0x8
 1276 0098 04       		.byte	0x4
 1277 0099 5F0C0000 		.4byte	.LASF13
 1278 009d 04       		.uleb128 0x4
 1279 009e 6E010000 		.4byte	.LASF14
 1280 00a2 02       		.byte	0x2
 1281 00a3 A901     		.2byte	0x1a9
 1282 00a5 A9000000 		.4byte	0xa9
 1283 00a9 02       		.uleb128 0x2
 1284 00aa 01       		.byte	0x1
 1285 00ab 08       		.byte	0x8
 1286 00ac FF050000 		.4byte	.LASF15
 1287 00b0 05       		.uleb128 0x5
 1288 00b1 6B000000 		.4byte	0x6b
 1289 00b5 06       		.uleb128 0x6
 1290 00b6 1E000000 		.4byte	.LASF16
 1291 00ba 03       		.byte	0x3
 1292 00bb D4       		.byte	0xd4
 1293 00bc 64000000 		.4byte	0x64
 1294 00c0 02       		.uleb128 0x2
ARM GAS  C:\Users\mlgjmoor\AppData\Local\Temp\ccKDuCjD.s 			page 51


 1295 00c1 04       		.byte	0x4
 1296 00c2 07       		.byte	0x7
 1297 00c3 25000000 		.4byte	.LASF17
 1298 00c7 07       		.uleb128 0x7
 1299 00c8 04       		.byte	0x4
 1300 00c9 04       		.uleb128 0x4
 1301 00ca F90F0000 		.4byte	.LASF18
 1302 00ce 04       		.byte	0x4
 1303 00cf 3101     		.2byte	0x131
 1304 00d1 D5000000 		.4byte	0xd5
 1305 00d5 08       		.uleb128 0x8
 1306 00d6 04       		.byte	0x4
 1307 00d7 DB000000 		.4byte	0xdb
 1308 00db 09       		.uleb128 0x9
 1309 00dc EB000000 		.4byte	0xeb
 1310 00e0 0A       		.uleb128 0xa
 1311 00e1 6B000000 		.4byte	0x6b
 1312 00e5 0A       		.uleb128 0xa
 1313 00e6 C7000000 		.4byte	0xc7
 1314 00ea 00       		.byte	0
 1315 00eb 0B       		.uleb128 0xb
 1316 00ec 01       		.byte	0x1
 1317 00ed 04       		.byte	0x4
 1318 00ee 4201     		.2byte	0x142
 1319 00f0 A8020000 		.4byte	0x2a8
 1320 00f4 0C       		.uleb128 0xc
 1321 00f5 60060000 		.4byte	.LASF19
 1322 00f9 00       		.sleb128 0
 1323 00fa 0C       		.uleb128 0xc
 1324 00fb 35030000 		.4byte	.LASF20
 1325 00ff 01       		.sleb128 1
 1326 0100 0C       		.uleb128 0xc
 1327 0101 8A100000 		.4byte	.LASF21
 1328 0105 02       		.sleb128 2
 1329 0106 0C       		.uleb128 0xc
 1330 0107 74040000 		.4byte	.LASF22
 1331 010b 03       		.sleb128 3
 1332 010c 0C       		.uleb128 0xc
 1333 010d B4160000 		.4byte	.LASF23
 1334 0111 04       		.sleb128 4
 1335 0112 0C       		.uleb128 0xc
 1336 0113 92150000 		.4byte	.LASF24
 1337 0117 05       		.sleb128 5
 1338 0118 0C       		.uleb128 0xc
 1339 0119 0E100000 		.4byte	.LASF25
 1340 011d 06       		.sleb128 6
 1341 011e 0C       		.uleb128 0xc
 1342 011f 34140000 		.4byte	.LASF26
 1343 0123 20       		.sleb128 32
 1344 0124 0C       		.uleb128 0xc
 1345 0125 E4010000 		.4byte	.LASF27
 1346 0129 21       		.sleb128 33
 1347 012a 0C       		.uleb128 0xc
 1348 012b A00B0000 		.4byte	.LASF28
 1349 012f 22       		.sleb128 34
 1350 0130 0C       		.uleb128 0xc
 1351 0131 0C0F0000 		.4byte	.LASF29
ARM GAS  C:\Users\mlgjmoor\AppData\Local\Temp\ccKDuCjD.s 			page 52


 1352 0135 23       		.sleb128 35
 1353 0136 0C       		.uleb128 0xc
 1354 0137 20090000 		.4byte	.LASF30
 1355 013b 24       		.sleb128 36
 1356 013c 0C       		.uleb128 0xc
 1357 013d 4C090000 		.4byte	.LASF31
 1358 0141 25       		.sleb128 37
 1359 0142 0C       		.uleb128 0xc
 1360 0143 8A120000 		.4byte	.LASF32
 1361 0147 26       		.sleb128 38
 1362 0148 0C       		.uleb128 0xc
 1363 0149 9E000000 		.4byte	.LASF33
 1364 014d 27       		.sleb128 39
 1365 014e 0C       		.uleb128 0xc
 1366 014f 2E170000 		.4byte	.LASF34
 1367 0153 28       		.sleb128 40
 1368 0154 0C       		.uleb128 0xc
 1369 0155 38100000 		.4byte	.LASF35
 1370 0159 29       		.sleb128 41
 1371 015a 0C       		.uleb128 0xc
 1372 015b 050B0000 		.4byte	.LASF36
 1373 015f 2A       		.sleb128 42
 1374 0160 0C       		.uleb128 0xc
 1375 0161 730E0000 		.4byte	.LASF37
 1376 0165 2B       		.sleb128 43
 1377 0166 0C       		.uleb128 0xc
 1378 0167 AE150000 		.4byte	.LASF38
 1379 016b 2C       		.sleb128 44
 1380 016c 0C       		.uleb128 0xc
 1381 016d 6B000000 		.4byte	.LASF39
 1382 0171 2D       		.sleb128 45
 1383 0172 0C       		.uleb128 0xc
 1384 0173 F4120000 		.4byte	.LASF40
 1385 0177 2E       		.sleb128 46
 1386 0178 0C       		.uleb128 0xc
 1387 0179 54020000 		.4byte	.LASF41
 1388 017d 2F       		.sleb128 47
 1389 017e 0C       		.uleb128 0xc
 1390 017f DE050000 		.4byte	.LASF42
 1391 0183 30       		.sleb128 48
 1392 0184 0C       		.uleb128 0xc
 1393 0185 D30C0000 		.4byte	.LASF43
 1394 0189 31       		.sleb128 49
 1395 018a 0C       		.uleb128 0xc
 1396 018b A9060000 		.4byte	.LASF44
 1397 018f 32       		.sleb128 50
 1398 0190 0C       		.uleb128 0xc
 1399 0191 03050000 		.4byte	.LASF45
 1400 0195 33       		.sleb128 51
 1401 0196 0C       		.uleb128 0xc
 1402 0197 AB130000 		.4byte	.LASF46
 1403 019b C000     		.sleb128 64
 1404 019d 0C       		.uleb128 0xc
 1405 019e BD000000 		.4byte	.LASF47
 1406 01a2 C100     		.sleb128 65
 1407 01a4 0C       		.uleb128 0xc
 1408 01a5 C9160000 		.4byte	.LASF48
ARM GAS  C:\Users\mlgjmoor\AppData\Local\Temp\ccKDuCjD.s 			page 53


 1409 01a9 C200     		.sleb128 66
 1410 01ab 0C       		.uleb128 0xc
 1411 01ac 55100000 		.4byte	.LASF49
 1412 01b0 C300     		.sleb128 67
 1413 01b2 0C       		.uleb128 0xc
 1414 01b3 E5040000 		.4byte	.LASF50
 1415 01b7 C400     		.sleb128 68
 1416 01b9 0C       		.uleb128 0xc
 1417 01ba 9C040000 		.4byte	.LASF51
 1418 01be C500     		.sleb128 69
 1419 01c0 0C       		.uleb128 0xc
 1420 01c1 AD110000 		.4byte	.LASF52
 1421 01c5 C600     		.sleb128 70
 1422 01c7 0C       		.uleb128 0xc
 1423 01c8 8F110000 		.4byte	.LASF53
 1424 01cc C700     		.sleb128 71
 1425 01ce 0C       		.uleb128 0xc
 1426 01cf B7050000 		.4byte	.LASF54
 1427 01d3 C800     		.sleb128 72
 1428 01d5 0C       		.uleb128 0xc
 1429 01d6 640F0000 		.4byte	.LASF55
 1430 01da C900     		.sleb128 73
 1431 01dc 0C       		.uleb128 0xc
 1432 01dd E7060000 		.4byte	.LASF56
 1433 01e1 CA00     		.sleb128 74
 1434 01e3 0C       		.uleb128 0xc
 1435 01e4 41060000 		.4byte	.LASF57
 1436 01e8 CB00     		.sleb128 75
 1437 01ea 0C       		.uleb128 0xc
 1438 01eb B40E0000 		.4byte	.LASF58
 1439 01ef CC00     		.sleb128 76
 1440 01f1 0C       		.uleb128 0xc
 1441 01f2 20120000 		.4byte	.LASF59
 1442 01f6 CD00     		.sleb128 77
 1443 01f8 0C       		.uleb128 0xc
 1444 01f9 9F020000 		.4byte	.LASF60
 1445 01fd CE00     		.sleb128 78
 1446 01ff 0C       		.uleb128 0xc
 1447 0200 F60D0000 		.4byte	.LASF61
 1448 0204 CF00     		.sleb128 79
 1449 0206 0C       		.uleb128 0xc
 1450 0207 15140000 		.4byte	.LASF62
 1451 020b D000     		.sleb128 80
 1452 020d 0C       		.uleb128 0xc
 1453 020e 05070000 		.4byte	.LASF63
 1454 0212 D100     		.sleb128 81
 1455 0214 0C       		.uleb128 0xc
 1456 0215 C3010000 		.4byte	.LASF64
 1457 0219 D200     		.sleb128 82
 1458 021b 0C       		.uleb128 0xc
 1459 021c 4C150000 		.4byte	.LASF65
 1460 0220 D300     		.sleb128 83
 1461 0222 0C       		.uleb128 0xc
 1462 0223 50170000 		.4byte	.LASF66
 1463 0227 D400     		.sleb128 84
 1464 0229 0C       		.uleb128 0xc
 1465 022a D60E0000 		.4byte	.LASF67
ARM GAS  C:\Users\mlgjmoor\AppData\Local\Temp\ccKDuCjD.s 			page 54


 1466 022e D500     		.sleb128 85
 1467 0230 0C       		.uleb128 0xc
 1468 0231 2F070000 		.4byte	.LASF68
 1469 0235 D600     		.sleb128 86
 1470 0237 0C       		.uleb128 0xc
 1471 0238 920D0000 		.4byte	.LASF69
 1472 023c D700     		.sleb128 87
 1473 023e 0C       		.uleb128 0xc
 1474 023f 0B170000 		.4byte	.LASF70
 1475 0243 D800     		.sleb128 88
 1476 0245 0C       		.uleb128 0xc
 1477 0246 D2150000 		.4byte	.LASF71
 1478 024a F000     		.sleb128 112
 1479 024c 0C       		.uleb128 0xc
 1480 024d CA080000 		.4byte	.LASF72
 1481 0251 F100     		.sleb128 113
 1482 0253 0C       		.uleb128 0xc
 1483 0254 FC030000 		.4byte	.LASF73
 1484 0258 F200     		.sleb128 114
 1485 025a 0C       		.uleb128 0xc
 1486 025b F7130000 		.4byte	.LASF74
 1487 025f F300     		.sleb128 115
 1488 0261 0C       		.uleb128 0xc
 1489 0262 A90F0000 		.4byte	.LASF75
 1490 0266 F400     		.sleb128 116
 1491 0268 0C       		.uleb128 0xc
 1492 0269 740B0000 		.4byte	.LASF76
 1493 026d F500     		.sleb128 117
 1494 026f 0C       		.uleb128 0xc
 1495 0270 96050000 		.4byte	.LASF77
 1496 0274 F600     		.sleb128 118
 1497 0276 0C       		.uleb128 0xc
 1498 0277 C3100000 		.4byte	.LASF78
 1499 027b F700     		.sleb128 119
 1500 027d 0C       		.uleb128 0xc
 1501 027e 74010000 		.4byte	.LASF79
 1502 0282 F800     		.sleb128 120
 1503 0284 0C       		.uleb128 0xc
 1504 0285 2A050000 		.4byte	.LASF80
 1505 0289 F900     		.sleb128 121
 1506 028b 0C       		.uleb128 0xc
 1507 028c E7160000 		.4byte	.LASF81
 1508 0290 FA00     		.sleb128 122
 1509 0292 0C       		.uleb128 0xc
 1510 0293 880C0000 		.4byte	.LASF82
 1511 0297 FA01     		.sleb128 250
 1512 0299 0C       		.uleb128 0xc
 1513 029a 06150000 		.4byte	.LASF83
 1514 029e FB01     		.sleb128 251
 1515 02a0 0C       		.uleb128 0xc
 1516 02a1 650E0000 		.4byte	.LASF84
 1517 02a5 FF01     		.sleb128 255
 1518 02a7 00       		.byte	0
 1519 02a8 0B       		.uleb128 0xb
 1520 02a9 02       		.byte	0x2
 1521 02aa 04       		.byte	0x4
 1522 02ab FF02     		.2byte	0x2ff
ARM GAS  C:\Users\mlgjmoor\AppData\Local\Temp\ccKDuCjD.s 			page 55


 1523 02ad 78030000 		.4byte	0x378
 1524 02b1 0C       		.uleb128 0xc
 1525 02b2 8D040000 		.4byte	.LASF85
 1526 02b6 00       		.sleb128 0
 1527 02b7 0C       		.uleb128 0xc
 1528 02b8 CB070000 		.4byte	.LASF86
 1529 02bc 01       		.sleb128 1
 1530 02bd 0C       		.uleb128 0xc
 1531 02be 8D160000 		.4byte	.LASF87
 1532 02c2 02       		.sleb128 2
 1533 02c3 0C       		.uleb128 0xc
 1534 02c4 47080000 		.4byte	.LASF88
 1535 02c8 03       		.sleb128 3
 1536 02c9 0C       		.uleb128 0xc
 1537 02ca 95090000 		.4byte	.LASF89
 1538 02ce 04       		.sleb128 4
 1539 02cf 0C       		.uleb128 0xc
 1540 02d0 410C0000 		.4byte	.LASF90
 1541 02d4 05       		.sleb128 5
 1542 02d5 0C       		.uleb128 0xc
 1543 02d6 D9140000 		.4byte	.LASF91
 1544 02da 06       		.sleb128 6
 1545 02db 0C       		.uleb128 0xc
 1546 02dc CA060000 		.4byte	.LASF92
 1547 02e0 07       		.sleb128 7
 1548 02e1 0C       		.uleb128 0xc
 1549 02e2 490D0000 		.4byte	.LASF93
 1550 02e6 08       		.sleb128 8
 1551 02e7 0C       		.uleb128 0xc
 1552 02e8 7A140000 		.4byte	.LASF94
 1553 02ec 09       		.sleb128 9
 1554 02ed 0C       		.uleb128 0xc
 1555 02ee 84170000 		.4byte	.LASF95
 1556 02f2 0A       		.sleb128 10
 1557 02f3 0C       		.uleb128 0xc
 1558 02f4 1C020000 		.4byte	.LASF96
 1559 02f8 0B       		.sleb128 11
 1560 02f9 0C       		.uleb128 0xc
 1561 02fa 6D150000 		.4byte	.LASF97
 1562 02fe 0C       		.sleb128 12
 1563 02ff 0C       		.uleb128 0xc
 1564 0300 380E0000 		.4byte	.LASF98
 1565 0304 0D       		.sleb128 13
 1566 0305 0C       		.uleb128 0xc
 1567 0306 240A0000 		.4byte	.LASF99
 1568 030a 0E       		.sleb128 14
 1569 030b 0C       		.uleb128 0xc
 1570 030c 1C0C0000 		.4byte	.LASF100
 1571 0310 0F       		.sleb128 15
 1572 0311 0C       		.uleb128 0xc
 1573 0312 0B010000 		.4byte	.LASF101
 1574 0316 10       		.sleb128 16
 1575 0317 0C       		.uleb128 0xc
 1576 0318 F70C0000 		.4byte	.LASF102
 1577 031c 11       		.sleb128 17
 1578 031d 0C       		.uleb128 0xc
 1579 031e 48030000 		.4byte	.LASF103
ARM GAS  C:\Users\mlgjmoor\AppData\Local\Temp\ccKDuCjD.s 			page 56


 1580 0322 12       		.sleb128 18
 1581 0323 0C       		.uleb128 0xc
 1582 0324 18040000 		.4byte	.LASF104
 1583 0328 13       		.sleb128 19
 1584 0329 0C       		.uleb128 0xc
 1585 032a 660C0000 		.4byte	.LASF105
 1586 032e 27       		.sleb128 39
 1587 032f 0C       		.uleb128 0xc
 1588 0330 6D0D0000 		.4byte	.LASF106
 1589 0334 28       		.sleb128 40
 1590 0335 0C       		.uleb128 0xc
 1591 0336 39010000 		.4byte	.LASF107
 1592 033a 29       		.sleb128 41
 1593 033b 0C       		.uleb128 0xc
 1594 033c 78130000 		.4byte	.LASF108
 1595 0340 2A       		.sleb128 42
 1596 0341 0C       		.uleb128 0xc
 1597 0342 CA090000 		.4byte	.LASF109
 1598 0346 2B       		.sleb128 43
 1599 0347 0C       		.uleb128 0xc
 1600 0348 04110000 		.4byte	.LASF110
 1601 034c 2C       		.sleb128 44
 1602 034d 0C       		.uleb128 0xc
 1603 034e AF070000 		.4byte	.LASF111
 1604 0352 FE01     		.sleb128 254
 1605 0354 0C       		.uleb128 0xc
 1606 0355 BA080000 		.4byte	.LASF112
 1607 0359 FF01     		.sleb128 255
 1608 035b 0C       		.uleb128 0xc
 1609 035c 4B0F0000 		.4byte	.LASF113
 1610 0360 8002     		.sleb128 256
 1611 0362 0C       		.uleb128 0xc
 1612 0363 320F0000 		.4byte	.LASF114
 1613 0367 8102     		.sleb128 257
 1614 0369 0C       		.uleb128 0xc
 1615 036a A7030000 		.4byte	.LASF115
 1616 036e 8202     		.sleb128 258
 1617 0370 0C       		.uleb128 0xc
 1618 0371 A9100000 		.4byte	.LASF116
 1619 0375 8302     		.sleb128 259
 1620 0377 00       		.byte	0
 1621 0378 04       		.uleb128 0x4
 1622 0379 25150000 		.4byte	.LASF117
 1623 037d 04       		.byte	0x4
 1624 037e 6B03     		.2byte	0x36b
 1625 0380 A8020000 		.4byte	0x2a8
 1626 0384 0D       		.uleb128 0xd
 1627 0385 07       		.byte	0x7
 1628 0386 04       		.byte	0x4
 1629 0387 2804     		.2byte	0x428
 1630 0389 A8030000 		.4byte	0x3a8
 1631 038d 0E       		.uleb128 0xe
 1632 038e A4140000 		.4byte	.LASF118
 1633 0392 04       		.byte	0x4
 1634 0393 2B04     		.2byte	0x42b
 1635 0395 A8030000 		.4byte	0x3a8
 1636 0399 00       		.byte	0
ARM GAS  C:\Users\mlgjmoor\AppData\Local\Temp\ccKDuCjD.s 			page 57


 1637 039a 0E       		.uleb128 0xe
 1638 039b AD010000 		.4byte	.LASF119
 1639 039f 04       		.byte	0x4
 1640 03a0 2D04     		.2byte	0x42d
 1641 03a2 6B000000 		.4byte	0x6b
 1642 03a6 06       		.byte	0x6
 1643 03a7 00       		.byte	0
 1644 03a8 0F       		.uleb128 0xf
 1645 03a9 6B000000 		.4byte	0x6b
 1646 03ad B8030000 		.4byte	0x3b8
 1647 03b1 10       		.uleb128 0x10
 1648 03b2 C0000000 		.4byte	0xc0
 1649 03b6 05       		.byte	0x5
 1650 03b7 00       		.byte	0
 1651 03b8 04       		.uleb128 0x4
 1652 03b9 1C110000 		.4byte	.LASF120
 1653 03bd 04       		.byte	0x4
 1654 03be 2E04     		.2byte	0x42e
 1655 03c0 84030000 		.4byte	0x384
 1656 03c4 0D       		.uleb128 0xd
 1657 03c5 04       		.byte	0x4
 1658 03c6 04       		.byte	0x4
 1659 03c7 3804     		.2byte	0x438
 1660 03c9 E8030000 		.4byte	0x3e8
 1661 03cd 0E       		.uleb128 0xe
 1662 03ce 66090000 		.4byte	.LASF121
 1663 03d2 04       		.byte	0x4
 1664 03d3 3B04     		.2byte	0x43b
 1665 03d5 77000000 		.4byte	0x77
 1666 03d9 00       		.byte	0
 1667 03da 0E       		.uleb128 0xe
 1668 03db 68040000 		.4byte	.LASF122
 1669 03df 04       		.byte	0x4
 1670 03e0 3D04     		.2byte	0x43d
 1671 03e2 6B000000 		.4byte	0x6b
 1672 03e6 02       		.byte	0x2
 1673 03e7 00       		.byte	0
 1674 03e8 04       		.uleb128 0x4
 1675 03e9 F0020000 		.4byte	.LASF123
 1676 03ed 04       		.byte	0x4
 1677 03ee 3E04     		.2byte	0x43e
 1678 03f0 C4030000 		.4byte	0x3c4
 1679 03f4 0D       		.uleb128 0xd
 1680 03f5 06       		.byte	0x6
 1681 03f6 04       		.byte	0x4
 1682 03f7 4204     		.2byte	0x442
 1683 03f9 25040000 		.4byte	0x425
 1684 03fd 0E       		.uleb128 0xe
 1685 03fe DF0B0000 		.4byte	.LASF124
 1686 0402 04       		.byte	0x4
 1687 0403 4504     		.2byte	0x445
 1688 0405 77000000 		.4byte	0x77
 1689 0409 00       		.byte	0
 1690 040a 0E       		.uleb128 0xe
 1691 040b 40160000 		.4byte	.LASF125
 1692 040f 04       		.byte	0x4
 1693 0410 4804     		.2byte	0x448
ARM GAS  C:\Users\mlgjmoor\AppData\Local\Temp\ccKDuCjD.s 			page 58


 1694 0412 77000000 		.4byte	0x77
 1695 0416 02       		.byte	0x2
 1696 0417 0E       		.uleb128 0xe
 1697 0418 CD0D0000 		.4byte	.LASF126
 1698 041c 04       		.byte	0x4
 1699 041d 4B04     		.2byte	0x44b
 1700 041f 6B000000 		.4byte	0x6b
 1701 0423 04       		.byte	0x4
 1702 0424 00       		.byte	0
 1703 0425 04       		.uleb128 0x4
 1704 0426 86020000 		.4byte	.LASF127
 1705 042a 04       		.byte	0x4
 1706 042b 4C04     		.2byte	0x44c
 1707 042d F4030000 		.4byte	0x3f4
 1708 0431 0D       		.uleb128 0xd
 1709 0432 01       		.byte	0x1
 1710 0433 04       		.byte	0x4
 1711 0434 4F04     		.2byte	0x44f
 1712 0436 48040000 		.4byte	0x448
 1713 043a 0E       		.uleb128 0xe
 1714 043b 120A0000 		.4byte	.LASF128
 1715 043f 04       		.byte	0x4
 1716 0440 5204     		.2byte	0x452
 1717 0442 6B000000 		.4byte	0x6b
 1718 0446 00       		.byte	0
 1719 0447 00       		.byte	0
 1720 0448 04       		.uleb128 0x4
 1721 0449 1B0D0000 		.4byte	.LASF129
 1722 044d 04       		.byte	0x4
 1723 044e 5304     		.2byte	0x453
 1724 0450 31040000 		.4byte	0x431
 1725 0454 0D       		.uleb128 0xd
 1726 0455 0C       		.byte	0xc
 1727 0456 04       		.byte	0x4
 1728 0457 5904     		.2byte	0x459
 1729 0459 85040000 		.4byte	0x485
 1730 045d 0E       		.uleb128 0xe
 1731 045e 0A030000 		.4byte	.LASF130
 1732 0462 04       		.byte	0x4
 1733 0463 5C04     		.2byte	0x45c
 1734 0465 85040000 		.4byte	0x485
 1735 0469 00       		.byte	0
 1736 046a 0E       		.uleb128 0xe
 1737 046b 30110000 		.4byte	.LASF131
 1738 046f 04       		.byte	0x4
 1739 0470 5F04     		.2byte	0x45f
 1740 0472 8B040000 		.4byte	0x48b
 1741 0476 04       		.byte	0x4
 1742 0477 0E       		.uleb128 0xe
 1743 0478 E90D0000 		.4byte	.LASF132
 1744 047c 04       		.byte	0x4
 1745 047d 6504     		.2byte	0x465
 1746 047f 77000000 		.4byte	0x77
 1747 0483 08       		.byte	0x8
 1748 0484 00       		.byte	0
 1749 0485 08       		.uleb128 0x8
 1750 0486 04       		.byte	0x4
ARM GAS  C:\Users\mlgjmoor\AppData\Local\Temp\ccKDuCjD.s 			page 59


 1751 0487 25040000 		.4byte	0x425
 1752 048b 08       		.uleb128 0x8
 1753 048c 04       		.byte	0x4
 1754 048d 48040000 		.4byte	0x448
 1755 0491 04       		.uleb128 0x4
 1756 0492 C40B0000 		.4byte	.LASF133
 1757 0496 04       		.byte	0x4
 1758 0497 6604     		.2byte	0x466
 1759 0499 54040000 		.4byte	0x454
 1760 049d 11       		.uleb128 0x11
 1761 049e 01       		.byte	0x1
 1762 049f 05       		.byte	0x5
 1763 04a0 D0       		.byte	0xd0
 1764 04a1 C4040000 		.4byte	0x4c4
 1765 04a5 0C       		.uleb128 0xc
 1766 04a6 61160000 		.4byte	.LASF134
 1767 04aa 00       		.sleb128 0
 1768 04ab 0C       		.uleb128 0xc
 1769 04ac 7D0F0000 		.4byte	.LASF135
 1770 04b0 01       		.sleb128 1
 1771 04b1 0C       		.uleb128 0xc
 1772 04b2 D3130000 		.4byte	.LASF136
 1773 04b6 02       		.sleb128 2
 1774 04b7 0C       		.uleb128 0xc
 1775 04b8 D2030000 		.4byte	.LASF137
 1776 04bc 03       		.sleb128 3
 1777 04bd 0C       		.uleb128 0xc
 1778 04be 1C080000 		.4byte	.LASF138
 1779 04c2 04       		.sleb128 4
 1780 04c3 00       		.byte	0
 1781 04c4 06       		.uleb128 0x6
 1782 04c5 A30E0000 		.4byte	.LASF139
 1783 04c9 05       		.byte	0x5
 1784 04ca E0       		.byte	0xe0
 1785 04cb 9D040000 		.4byte	0x49d
 1786 04cf 0D       		.uleb128 0xd
 1787 04d0 10       		.byte	0x10
 1788 04d1 05       		.byte	0x5
 1789 04d2 0902     		.2byte	0x209
 1790 04d4 41050000 		.4byte	0x541
 1791 04d8 0E       		.uleb128 0xe
 1792 04d9 4D050000 		.4byte	.LASF140
 1793 04dd 05       		.byte	0x5
 1794 04de 0F02     		.2byte	0x20f
 1795 04e0 77000000 		.4byte	0x77
 1796 04e4 00       		.byte	0
 1797 04e5 0E       		.uleb128 0xe
 1798 04e6 9E170000 		.4byte	.LASF141
 1799 04ea 05       		.byte	0x5
 1800 04eb 1502     		.2byte	0x215
 1801 04ed 77000000 		.4byte	0x77
 1802 04f1 02       		.byte	0x2
 1803 04f2 0E       		.uleb128 0xe
 1804 04f3 8D090000 		.4byte	.LASF142
 1805 04f7 05       		.byte	0x5
 1806 04f8 1E02     		.2byte	0x21e
 1807 04fa C4040000 		.4byte	0x4c4
ARM GAS  C:\Users\mlgjmoor\AppData\Local\Temp\ccKDuCjD.s 			page 60


 1808 04fe 04       		.byte	0x4
 1809 04ff 0E       		.uleb128 0xe
 1810 0500 78170000 		.4byte	.LASF143
 1811 0504 05       		.byte	0x5
 1812 0505 2602     		.2byte	0x226
 1813 0507 6B000000 		.4byte	0x6b
 1814 050b 05       		.byte	0x5
 1815 050c 0E       		.uleb128 0xe
 1816 050d C40C0000 		.4byte	.LASF144
 1817 0511 05       		.byte	0x5
 1818 0512 2D02     		.2byte	0x22d
 1819 0514 6B000000 		.4byte	0x6b
 1820 0518 06       		.byte	0x6
 1821 0519 0E       		.uleb128 0xe
 1822 051a 1F160000 		.4byte	.LASF145
 1823 051e 05       		.byte	0x5
 1824 051f 3302     		.2byte	0x233
 1825 0521 A8030000 		.4byte	0x3a8
 1826 0525 07       		.byte	0x7
 1827 0526 0E       		.uleb128 0xe
 1828 0527 53160000 		.4byte	.LASF146
 1829 052b 05       		.byte	0x5
 1830 052c 3B02     		.2byte	0x23b
 1831 052e 6B000000 		.4byte	0x6b
 1832 0532 0D       		.byte	0xd
 1833 0533 0E       		.uleb128 0xe
 1834 0534 3C090000 		.4byte	.LASF147
 1835 0538 05       		.byte	0x5
 1836 0539 4702     		.2byte	0x247
 1837 053b 6B000000 		.4byte	0x6b
 1838 053f 0E       		.byte	0xe
 1839 0540 00       		.byte	0
 1840 0541 04       		.uleb128 0x4
 1841 0542 FE080000 		.4byte	.LASF148
 1842 0546 05       		.byte	0x5
 1843 0547 4902     		.2byte	0x249
 1844 0549 CF040000 		.4byte	0x4cf
 1845 054d 0D       		.uleb128 0xd
 1846 054e 20       		.byte	0x20
 1847 054f 05       		.byte	0x5
 1848 0550 4C02     		.2byte	0x24c
 1849 0552 71050000 		.4byte	0x571
 1850 0556 0E       		.uleb128 0xe
 1851 0557 CE0E0000 		.4byte	.LASF149
 1852 055b 05       		.byte	0x5
 1853 055c 4F02     		.2byte	0x24f
 1854 055e 71050000 		.4byte	0x571
 1855 0562 00       		.byte	0
 1856 0563 0E       		.uleb128 0xe
 1857 0564 4B110000 		.4byte	.LASF150
 1858 0568 05       		.byte	0x5
 1859 0569 5202     		.2byte	0x252
 1860 056b 6B000000 		.4byte	0x6b
 1861 056f 1F       		.byte	0x1f
 1862 0570 00       		.byte	0
 1863 0571 0F       		.uleb128 0xf
 1864 0572 6B000000 		.4byte	0x6b
ARM GAS  C:\Users\mlgjmoor\AppData\Local\Temp\ccKDuCjD.s 			page 61


 1865 0576 81050000 		.4byte	0x581
 1866 057a 10       		.uleb128 0x10
 1867 057b C0000000 		.4byte	0xc0
 1868 057f 1E       		.byte	0x1e
 1869 0580 00       		.byte	0
 1870 0581 04       		.uleb128 0x4
 1871 0582 7F050000 		.4byte	.LASF151
 1872 0586 05       		.byte	0x5
 1873 0587 5402     		.2byte	0x254
 1874 0589 4D050000 		.4byte	0x54d
 1875 058d 0D       		.uleb128 0xd
 1876 058e 20       		.byte	0x20
 1877 058f 05       		.byte	0x5
 1878 0590 5702     		.2byte	0x257
 1879 0592 B1050000 		.4byte	0x5b1
 1880 0596 0E       		.uleb128 0xe
 1881 0597 12000000 		.4byte	.LASF152
 1882 059b 05       		.byte	0x5
 1883 059c 5B02     		.2byte	0x25b
 1884 059e 71050000 		.4byte	0x571
 1885 05a2 00       		.byte	0
 1886 05a3 0E       		.uleb128 0xe
 1887 05a4 69130000 		.4byte	.LASF153
 1888 05a8 05       		.byte	0x5
 1889 05a9 5E02     		.2byte	0x25e
 1890 05ab 6B000000 		.4byte	0x6b
 1891 05af 1F       		.byte	0x1f
 1892 05b0 00       		.byte	0
 1893 05b1 04       		.uleb128 0x4
 1894 05b2 B2120000 		.4byte	.LASF154
 1895 05b6 05       		.byte	0x5
 1896 05b7 6002     		.2byte	0x260
 1897 05b9 8D050000 		.4byte	0x58d
 1898 05bd 0D       		.uleb128 0xd
 1899 05be 14       		.byte	0x14
 1900 05bf 05       		.byte	0x5
 1901 05c0 6302     		.2byte	0x263
 1902 05c2 08060000 		.4byte	0x608
 1903 05c6 0E       		.uleb128 0xe
 1904 05c7 02010000 		.4byte	.LASF155
 1905 05cb 05       		.byte	0x5
 1906 05cc 6B02     		.2byte	0x26b
 1907 05ce 6B000000 		.4byte	0x6b
 1908 05d2 00       		.byte	0
 1909 05d3 0E       		.uleb128 0xe
 1910 05d4 130C0000 		.4byte	.LASF156
 1911 05d8 05       		.byte	0x5
 1912 05d9 6E02     		.2byte	0x26e
 1913 05db 08060000 		.4byte	0x608
 1914 05df 04       		.byte	0x4
 1915 05e0 0E       		.uleb128 0xe
 1916 05e1 CE0E0000 		.4byte	.LASF149
 1917 05e5 05       		.byte	0x5
 1918 05e6 7002     		.2byte	0x270
 1919 05e8 0E060000 		.4byte	0x60e
 1920 05ec 08       		.byte	0x8
 1921 05ed 0E       		.uleb128 0xe
ARM GAS  C:\Users\mlgjmoor\AppData\Local\Temp\ccKDuCjD.s 			page 62


 1922 05ee 12000000 		.4byte	.LASF152
 1923 05f2 05       		.byte	0x5
 1924 05f3 7202     		.2byte	0x272
 1925 05f5 14060000 		.4byte	0x614
 1926 05f9 0C       		.byte	0xc
 1927 05fa 0E       		.uleb128 0xe
 1928 05fb 08100000 		.4byte	.LASF157
 1929 05ff 05       		.byte	0x5
 1930 0600 7C02     		.2byte	0x27c
 1931 0602 77000000 		.4byte	0x77
 1932 0606 10       		.byte	0x10
 1933 0607 00       		.byte	0
 1934 0608 08       		.uleb128 0x8
 1935 0609 04       		.byte	0x4
 1936 060a 41050000 		.4byte	0x541
 1937 060e 08       		.uleb128 0x8
 1938 060f 04       		.byte	0x4
 1939 0610 81050000 		.4byte	0x581
 1940 0614 08       		.uleb128 0x8
 1941 0615 04       		.byte	0x4
 1942 0616 B1050000 		.4byte	0x5b1
 1943 061a 04       		.uleb128 0x4
 1944 061b 5B110000 		.4byte	.LASF158
 1945 061f 05       		.byte	0x5
 1946 0620 7E02     		.2byte	0x27e
 1947 0622 BD050000 		.4byte	0x5bd
 1948 0626 08       		.uleb128 0x8
 1949 0627 04       		.byte	0x4
 1950 0628 6B000000 		.4byte	0x6b
 1951 062c 0D       		.uleb128 0xd
 1952 062d 02       		.byte	0x2
 1953 062e 06       		.byte	0x6
 1954 062f 9C01     		.2byte	0x19c
 1955 0631 50060000 		.4byte	0x650
 1956 0635 0E       		.uleb128 0xe
 1957 0636 7D020000 		.4byte	.LASF159
 1958 063a 06       		.byte	0x6
 1959 063b A301     		.2byte	0x1a3
 1960 063d 6B000000 		.4byte	0x6b
 1961 0641 00       		.byte	0
 1962 0642 0E       		.uleb128 0xe
 1963 0643 87160000 		.4byte	.LASF160
 1964 0647 06       		.byte	0x6
 1965 0648 A901     		.2byte	0x1a9
 1966 064a 6B000000 		.4byte	0x6b
 1967 064e 01       		.byte	0x1
 1968 064f 00       		.byte	0
 1969 0650 04       		.uleb128 0x4
 1970 0651 FB010000 		.4byte	.LASF161
 1971 0655 06       		.byte	0x6
 1972 0656 AB01     		.2byte	0x1ab
 1973 0658 2C060000 		.4byte	0x62c
 1974 065c 08       		.uleb128 0x8
 1975 065d 04       		.byte	0x4
 1976 065e 77000000 		.4byte	0x77
 1977 0662 12       		.uleb128 0x12
 1978 0663 08       		.byte	0x8
ARM GAS  C:\Users\mlgjmoor\AppData\Local\Temp\ccKDuCjD.s 			page 63


 1979 0664 07       		.byte	0x7
 1980 0665 C3       		.byte	0xc3
 1981 0666 83060000 		.4byte	0x683
 1982 066a 13       		.uleb128 0x13
 1983 066b 3E110000 		.4byte	.LASF162
 1984 066f 07       		.byte	0x7
 1985 0670 C6       		.byte	0xc6
 1986 0671 77000000 		.4byte	0x77
 1987 0675 00       		.byte	0
 1988 0676 13       		.uleb128 0x13
 1989 0677 CD120000 		.4byte	.LASF163
 1990 067b 07       		.byte	0x7
 1991 067c CB       		.byte	0xcb
 1992 067d C7000000 		.4byte	0xc7
 1993 0681 04       		.byte	0x4
 1994 0682 00       		.byte	0
 1995 0683 06       		.uleb128 0x6
 1996 0684 DB0F0000 		.4byte	.LASF164
 1997 0688 07       		.byte	0x7
 1998 0689 CD       		.byte	0xcd
 1999 068a 62060000 		.4byte	0x662
 2000 068e 12       		.uleb128 0x12
 2001 068f 08       		.byte	0x8
 2002 0690 07       		.byte	0x7
 2003 0691 D0       		.byte	0xd0
 2004 0692 AF060000 		.4byte	0x6af
 2005 0696 13       		.uleb128 0x13
 2006 0697 14060000 		.4byte	.LASF165
 2007 069b 07       		.byte	0x7
 2008 069c D3       		.byte	0xd3
 2009 069d 77000000 		.4byte	0x77
 2010 06a1 00       		.byte	0
 2011 06a2 13       		.uleb128 0x13
 2012 06a3 49130000 		.4byte	.LASF166
 2013 06a7 07       		.byte	0x7
 2014 06a8 D8       		.byte	0xd8
 2015 06a9 AF060000 		.4byte	0x6af
 2016 06ad 04       		.byte	0x4
 2017 06ae 00       		.byte	0
 2018 06af 08       		.uleb128 0x8
 2019 06b0 04       		.byte	0x4
 2020 06b1 83060000 		.4byte	0x683
 2021 06b5 06       		.uleb128 0x6
 2022 06b6 6B120000 		.4byte	.LASF167
 2023 06ba 07       		.byte	0x7
 2024 06bb DA       		.byte	0xda
 2025 06bc 8E060000 		.4byte	0x68e
 2026 06c0 14       		.uleb128 0x14
 2027 06c1 08       		.byte	0x8
 2028 06c2 07       		.byte	0x7
 2029 06c3 DD       		.byte	0xdd
 2030 06c4 DF060000 		.4byte	0x6df
 2031 06c8 15       		.uleb128 0x15
 2032 06c9 5A130000 		.4byte	.LASF168
 2033 06cd 07       		.byte	0x7
 2034 06ce E4       		.byte	0xe4
 2035 06cf B5060000 		.4byte	0x6b5
ARM GAS  C:\Users\mlgjmoor\AppData\Local\Temp\ccKDuCjD.s 			page 64


 2036 06d3 15       		.uleb128 0x15
 2037 06d4 DB0A0000 		.4byte	.LASF169
 2038 06d8 07       		.byte	0x7
 2039 06d9 E7       		.byte	0xe7
 2040 06da 77000000 		.4byte	0x77
 2041 06de 00       		.byte	0
 2042 06df 06       		.uleb128 0x6
 2043 06e0 53120000 		.4byte	.LASF170
 2044 06e4 07       		.byte	0x7
 2045 06e5 E9       		.byte	0xe9
 2046 06e6 C0060000 		.4byte	0x6c0
 2047 06ea 12       		.uleb128 0x12
 2048 06eb 14       		.byte	0x14
 2049 06ec 07       		.byte	0x7
 2050 06ed EC       		.byte	0xec
 2051 06ee 31070000 		.4byte	0x731
 2052 06f2 13       		.uleb128 0x13
 2053 06f3 58050000 		.4byte	.LASF171
 2054 06f7 07       		.byte	0x7
 2055 06f8 EF       		.byte	0xef
 2056 06f9 77000000 		.4byte	0x77
 2057 06fd 00       		.byte	0
 2058 06fe 13       		.uleb128 0x13
 2059 06ff CA030000 		.4byte	.LASF172
 2060 0703 07       		.byte	0x7
 2061 0704 F5       		.byte	0xf5
 2062 0705 77000000 		.4byte	0x77
 2063 0709 02       		.byte	0x2
 2064 070a 13       		.uleb128 0x13
 2065 070b A2010000 		.4byte	.LASF173
 2066 070f 07       		.byte	0x7
 2067 0710 FF       		.byte	0xff
 2068 0711 83000000 		.4byte	0x83
 2069 0715 04       		.byte	0x4
 2070 0716 0E       		.uleb128 0xe
 2071 0717 150E0000 		.4byte	.LASF174
 2072 071b 07       		.byte	0x7
 2073 071c 0201     		.2byte	0x102
 2074 071e 77000000 		.4byte	0x77
 2075 0722 08       		.byte	0x8
 2076 0723 0E       		.uleb128 0xe
 2077 0724 E8100000 		.4byte	.LASF175
 2078 0728 07       		.byte	0x7
 2079 0729 0B01     		.2byte	0x10b
 2080 072b DF060000 		.4byte	0x6df
 2081 072f 0C       		.byte	0xc
 2082 0730 00       		.byte	0
 2083 0731 04       		.uleb128 0x4
 2084 0732 51070000 		.4byte	.LASF176
 2085 0736 07       		.byte	0x7
 2086 0737 0C01     		.2byte	0x10c
 2087 0739 EA060000 		.4byte	0x6ea
 2088 073d 04       		.uleb128 0x4
 2089 073e B2010000 		.4byte	.LASF177
 2090 0742 08       		.byte	0x8
 2091 0743 E601     		.2byte	0x1e6
 2092 0745 49070000 		.4byte	0x749
ARM GAS  C:\Users\mlgjmoor\AppData\Local\Temp\ccKDuCjD.s 			page 65


 2093 0749 08       		.uleb128 0x8
 2094 074a 04       		.byte	0x4
 2095 074b 4F070000 		.4byte	0x74f
 2096 074f 09       		.uleb128 0x9
 2097 0750 5F070000 		.4byte	0x75f
 2098 0754 0A       		.uleb128 0xa
 2099 0755 83000000 		.4byte	0x83
 2100 0759 0A       		.uleb128 0xa
 2101 075a C7000000 		.4byte	0xc7
 2102 075e 00       		.byte	0
 2103 075f 16       		.uleb128 0x16
 2104 0760 8502     		.2byte	0x285
 2105 0762 09       		.byte	0x9
 2106 0763 9C       		.byte	0x9c
 2107 0764 9C070000 		.4byte	0x79c
 2108 0768 13       		.uleb128 0x13
 2109 0769 F0080000 		.4byte	.LASF178
 2110 076d 09       		.byte	0x9
 2111 076e 9F       		.byte	0x9f
 2112 076f 9C070000 		.4byte	0x79c
 2113 0773 00       		.byte	0
 2114 0774 17       		.uleb128 0x17
 2115 0775 86080000 		.4byte	.LASF179
 2116 0779 09       		.byte	0x9
 2117 077a A2       		.byte	0xa2
 2118 077b AD070000 		.4byte	0x7ad
 2119 077f 7902     		.2byte	0x279
 2120 0781 17       		.uleb128 0x17
 2121 0782 58140000 		.4byte	.LASF180
 2122 0786 09       		.byte	0x9
 2123 0787 A5       		.byte	0xa5
 2124 0788 6B000000 		.4byte	0x6b
 2125 078c 8302     		.2byte	0x283
 2126 078e 17       		.uleb128 0x17
 2127 078f FD070000 		.4byte	.LASF181
 2128 0793 09       		.byte	0x9
 2129 0794 A8       		.byte	0xa8
 2130 0795 6B000000 		.4byte	0x6b
 2131 0799 8402     		.2byte	0x284
 2132 079b 00       		.byte	0
 2133 079c 0F       		.uleb128 0xf
 2134 079d 6B000000 		.4byte	0x6b
 2135 07a1 AD070000 		.4byte	0x7ad
 2136 07a5 18       		.uleb128 0x18
 2137 07a6 C0000000 		.4byte	0xc0
 2138 07aa 7802     		.2byte	0x278
 2139 07ac 00       		.byte	0
 2140 07ad 0F       		.uleb128 0xf
 2141 07ae 6B000000 		.4byte	0x6b
 2142 07b2 C3070000 		.4byte	0x7c3
 2143 07b6 10       		.uleb128 0x10
 2144 07b7 C0000000 		.4byte	0xc0
 2145 07bb 04       		.byte	0x4
 2146 07bc 10       		.uleb128 0x10
 2147 07bd C0000000 		.4byte	0xc0
 2148 07c1 01       		.byte	0x1
 2149 07c2 00       		.byte	0
ARM GAS  C:\Users\mlgjmoor\AppData\Local\Temp\ccKDuCjD.s 			page 66


 2150 07c3 06       		.uleb128 0x6
 2151 07c4 FD090000 		.4byte	.LASF182
 2152 07c8 09       		.byte	0x9
 2153 07c9 A9       		.byte	0xa9
 2154 07ca 5F070000 		.4byte	0x75f
 2155 07ce 0B       		.uleb128 0xb
 2156 07cf 01       		.byte	0x1
 2157 07d0 0A       		.byte	0xa
 2158 07d1 BF07     		.2byte	0x7bf
 2159 07d3 F6070000 		.4byte	0x7f6
 2160 07d7 0C       		.uleb128 0xc
 2161 07d8 C3040000 		.4byte	.LASF183
 2162 07dc 00       		.sleb128 0
 2163 07dd 0C       		.uleb128 0xc
 2164 07de 5B0B0000 		.4byte	.LASF184
 2165 07e2 01       		.sleb128 1
 2166 07e3 0C       		.uleb128 0xc
 2167 07e4 2A160000 		.4byte	.LASF185
 2168 07e8 02       		.sleb128 2
 2169 07e9 0C       		.uleb128 0xc
 2170 07ea 3C020000 		.4byte	.LASF186
 2171 07ee 03       		.sleb128 3
 2172 07ef 0C       		.uleb128 0xc
 2173 07f0 3A120000 		.4byte	.LASF187
 2174 07f4 04       		.sleb128 4
 2175 07f5 00       		.byte	0
 2176 07f6 04       		.uleb128 0x4
 2177 07f7 C5130000 		.4byte	.LASF188
 2178 07fb 0A       		.byte	0xa
 2179 07fc CD07     		.2byte	0x7cd
 2180 07fe CE070000 		.4byte	0x7ce
 2181 0802 08       		.uleb128 0x8
 2182 0803 04       		.byte	0x4
 2183 0804 08080000 		.4byte	0x808
 2184 0808 19       		.uleb128 0x19
 2185 0809 1A       		.uleb128 0x1a
 2186 080a D8000000 		.4byte	.LASF259
 2187 080e 01       		.byte	0x1
 2188 080f 9704     		.2byte	0x497
 2189 0811 00000000 		.4byte	.LFB11
 2190 0815 78000000 		.4byte	.LFE11-.LFB11
 2191 0819 01       		.uleb128 0x1
 2192 081a 9C       		.byte	0x9c
 2193 081b 9E080000 		.4byte	0x89e
 2194 081f 1B       		.uleb128 0x1b
 2195 0820 DB120000 		.4byte	.LASF189
 2196 0824 01       		.byte	0x1
 2197 0825 9704     		.2byte	0x497
 2198 0827 9E080000 		.4byte	0x89e
 2199 082b 00000000 		.4byte	.LLST0
 2200 082f 1B       		.uleb128 0x1b
 2201 0830 56110000 		.4byte	.LASF190
 2202 0834 01       		.byte	0x1
 2203 0835 9704     		.2byte	0x497
 2204 0837 6B000000 		.4byte	0x6b
 2205 083b 21000000 		.4byte	.LLST1
 2206 083f 1C       		.uleb128 0x1c
ARM GAS  C:\Users\mlgjmoor\AppData\Local\Temp\ccKDuCjD.s 			page 67


 2207 0840 6900     		.ascii	"i\000"
 2208 0842 01       		.byte	0x1
 2209 0843 9904     		.2byte	0x499
 2210 0845 6B000000 		.4byte	0x6b
 2211 0849 42000000 		.4byte	.LLST2
 2212 084d 1D       		.uleb128 0x1d
 2213 084e 220E0000 		.4byte	.LASF191
 2214 0852 01       		.byte	0x1
 2215 0853 9A04     		.2byte	0x49a
 2216 0855 6B000000 		.4byte	0x6b
 2217 0859 76000000 		.4byte	.LLST3
 2218 085d 1D       		.uleb128 0x1d
 2219 085e AB160000 		.4byte	.LASF192
 2220 0862 01       		.byte	0x1
 2221 0863 9B04     		.2byte	0x49b
 2222 0865 6B000000 		.4byte	0x6b
 2223 0869 95000000 		.4byte	.LLST4
 2224 086d 1D       		.uleb128 0x1d
 2225 086e FA140000 		.4byte	.LASF193
 2226 0872 01       		.byte	0x1
 2227 0873 9C04     		.2byte	0x49c
 2228 0875 6B000000 		.4byte	0x6b
 2229 0879 BF000000 		.4byte	.LLST5
 2230 087d 1D       		.uleb128 0x1d
 2231 087e F7000000 		.4byte	.LASF194
 2232 0882 01       		.byte	0x1
 2233 0883 9D04     		.2byte	0x49d
 2234 0885 26060000 		.4byte	0x626
 2235 0889 FF000000 		.4byte	.LLST6
 2236 088d 1D       		.uleb128 0x1d
 2237 088e 16090000 		.4byte	.LASF195
 2238 0892 01       		.byte	0x1
 2239 0893 9E04     		.2byte	0x49e
 2240 0895 6B000000 		.4byte	0x6b
 2241 0899 32010000 		.4byte	.LLST7
 2242 089d 00       		.byte	0
 2243 089e 08       		.uleb128 0x8
 2244 089f 04       		.byte	0x4
 2245 08a0 A4080000 		.4byte	0x8a4
 2246 08a4 1E       		.uleb128 0x1e
 2247 08a5 9D000000 		.4byte	0x9d
 2248 08a9 1F       		.uleb128 0x1f
 2249 08aa C6020000 		.4byte	.LASF196
 2250 08ae 01       		.byte	0x1
 2251 08af C9       		.byte	0xc9
 2252 08b0 00000000 		.4byte	.LFB3
 2253 08b4 08000000 		.4byte	.LFE3-.LFB3
 2254 08b8 01       		.uleb128 0x1
 2255 08b9 9C       		.byte	0x9c
 2256 08ba C8080000 		.4byte	0x8c8
 2257 08be 20       		.uleb128 0x20
 2258 08bf 06000000 		.4byte	.LVL26
 2259 08c3 590F0000 		.4byte	0xf59
 2260 08c7 00       		.byte	0
 2261 08c8 1F       		.uleb128 0x1f
 2262 08c9 24070000 		.4byte	.LASF197
 2263 08cd 01       		.byte	0x1
ARM GAS  C:\Users\mlgjmoor\AppData\Local\Temp\ccKDuCjD.s 			page 68


 2264 08ce 98       		.byte	0x98
 2265 08cf 00000000 		.4byte	.LFB2
 2266 08d3 34000000 		.4byte	.LFE2-.LFB2
 2267 08d7 01       		.uleb128 0x1
 2268 08d8 9C       		.byte	0x9c
 2269 08d9 E7080000 		.4byte	0x8e7
 2270 08dd 20       		.uleb128 0x20
 2271 08de 14000000 		.4byte	.LVL27
 2272 08e2 A9080000 		.4byte	0x8a9
 2273 08e6 00       		.byte	0
 2274 08e7 21       		.uleb128 0x21
 2275 08e8 F1110000 		.4byte	.LASF206
 2276 08ec 01       		.byte	0x1
 2277 08ed 8F01     		.2byte	0x18f
 2278 08ef 78030000 		.4byte	0x378
 2279 08f3 00000000 		.4byte	.LFB4
 2280 08f7 B8000000 		.4byte	.LFE4-.LFB4
 2281 08fb 01       		.uleb128 0x1
 2282 08fc 9C       		.byte	0x9c
 2283 08fd 0B0A0000 		.4byte	0xa0b
 2284 0901 1B       		.uleb128 0x1b
 2285 0902 0F020000 		.4byte	.LASF198
 2286 0906 01       		.byte	0x1
 2287 0907 8F01     		.2byte	0x18f
 2288 0909 3D070000 		.4byte	0x73d
 2289 090d 50010000 		.4byte	.LLST8
 2290 0911 1D       		.uleb128 0x1d
 2291 0912 94000000 		.4byte	.LASF199
 2292 0916 01       		.byte	0x1
 2293 0917 9101     		.2byte	0x191
 2294 0919 78030000 		.4byte	0x378
 2295 091d A4010000 		.4byte	.LLST9
 2296 0921 22       		.uleb128 0x22
 2297 0922 E9070000 		.4byte	.LASF200
 2298 0926 01       		.byte	0x1
 2299 0927 9501     		.2byte	0x195
 2300 0929 0B0A0000 		.4byte	0xa0b
 2301 092d 02       		.uleb128 0x2
 2302 092e 91       		.byte	0x91
 2303 092f 64       		.sleb128 -28
 2304 0930 23       		.uleb128 0x23
 2305 0931 2E000000 		.4byte	.LBB2
 2306 0935 2A000000 		.4byte	.LBE2-.LBB2
 2307 0939 99090000 		.4byte	0x999
 2308 093d 22       		.uleb128 0x22
 2309 093e 09120000 		.4byte	.LASF201
 2310 0942 01       		.byte	0x1
 2311 0943 B701     		.2byte	0x1b7
 2312 0945 25040000 		.4byte	0x425
 2313 0949 02       		.uleb128 0x2
 2314 094a 91       		.byte	0x91
 2315 094b 50       		.sleb128 -48
 2316 094c 22       		.uleb128 0x22
 2317 094d C70F0000 		.4byte	.LASF202
 2318 0951 01       		.byte	0x1
 2319 0952 B801     		.2byte	0x1b8
 2320 0954 48040000 		.4byte	0x448
ARM GAS  C:\Users\mlgjmoor\AppData\Local\Temp\ccKDuCjD.s 			page 69


 2321 0958 02       		.uleb128 0x2
 2322 0959 91       		.byte	0x91
 2323 095a 4C       		.sleb128 -52
 2324 095b 22       		.uleb128 0x22
 2325 095c 29030000 		.4byte	.LASF203
 2326 0960 01       		.byte	0x1
 2327 0961 B901     		.2byte	0x1b9
 2328 0963 91040000 		.4byte	0x491
 2329 0967 02       		.uleb128 0x2
 2330 0968 91       		.byte	0x91
 2331 0969 58       		.sleb128 -40
 2332 096a 22       		.uleb128 0x22
 2333 096b 0D080000 		.4byte	.LASF204
 2334 096f 01       		.byte	0x1
 2335 0970 BA01     		.2byte	0x1ba
 2336 0972 77000000 		.4byte	0x77
 2337 0976 02       		.uleb128 0x2
 2338 0977 91       		.byte	0x91
 2339 0978 4E       		.sleb128 -50
 2340 0979 20       		.uleb128 0x20
 2341 097a 4E000000 		.4byte	.LVL34
 2342 097e 600F0000 		.4byte	0xf60
 2343 0982 24       		.uleb128 0x24
 2344 0983 58000000 		.4byte	.LVL35
 2345 0987 680F0000 		.4byte	0xf68
 2346 098b 25       		.uleb128 0x25
 2347 098c 01       		.uleb128 0x1
 2348 098d 51       		.byte	0x51
 2349 098e 02       		.uleb128 0x2
 2350 098f 91       		.byte	0x91
 2351 0990 4E       		.sleb128 -50
 2352 0991 25       		.uleb128 0x25
 2353 0992 01       		.uleb128 0x1
 2354 0993 50       		.byte	0x50
 2355 0994 02       		.uleb128 0x2
 2356 0995 74       		.byte	0x74
 2357 0996 00       		.sleb128 0
 2358 0997 00       		.byte	0
 2359 0998 00       		.byte	0
 2360 0999 26       		.uleb128 0x26
 2361 099a 10000000 		.4byte	.LVL31
 2362 099e 8E0F0000 		.4byte	0xf8e
 2363 09a2 BB090000 		.4byte	0x9bb
 2364 09a6 25       		.uleb128 0x25
 2365 09a7 01       		.uleb128 0x1
 2366 09a8 52       		.byte	0x52
 2367 09a9 01       		.uleb128 0x1
 2368 09aa 44       		.byte	0x44
 2369 09ab 25       		.uleb128 0x25
 2370 09ac 01       		.uleb128 0x1
 2371 09ad 51       		.byte	0x51
 2372 09ae 05       		.uleb128 0x5
 2373 09af 03       		.byte	0x3
 2374 09b0 00000000 		.4byte	.LANCHOR2
 2375 09b4 25       		.uleb128 0x25
 2376 09b5 01       		.uleb128 0x1
 2377 09b6 50       		.byte	0x50
ARM GAS  C:\Users\mlgjmoor\AppData\Local\Temp\ccKDuCjD.s 			page 70


 2378 09b7 02       		.uleb128 0x2
 2379 09b8 91       		.byte	0x91
 2380 09b9 64       		.sleb128 -28
 2381 09ba 00       		.byte	0
 2382 09bb 20       		.uleb128 0x20
 2383 09bc 1E000000 		.4byte	.LVL32
 2384 09c0 C8080000 		.4byte	0x8c8
 2385 09c4 26       		.uleb128 0x26
 2386 09c5 76000000 		.4byte	.LVL37
 2387 09c9 AB0F0000 		.4byte	0xfab
 2388 09cd F6090000 		.4byte	0x9f6
 2389 09d1 25       		.uleb128 0x25
 2390 09d2 01       		.uleb128 0x1
 2391 09d3 53       		.byte	0x53
 2392 09d4 02       		.uleb128 0x2
 2393 09d5 91       		.byte	0x91
 2394 09d6 64       		.sleb128 -28
 2395 09d7 25       		.uleb128 0x25
 2396 09d8 01       		.uleb128 0x1
 2397 09d9 52       		.byte	0x52
 2398 09da 03       		.uleb128 0x3
 2399 09db 0A       		.byte	0xa
 2400 09dc 800D     		.2byte	0xd80
 2401 09de 25       		.uleb128 0x25
 2402 09df 01       		.uleb128 0x1
 2403 09e0 51       		.byte	0x51
 2404 09e1 05       		.uleb128 0x5
 2405 09e2 03       		.byte	0x3
 2406 09e3 00000000 		.4byte	.LANCHOR3
 2407 09e7 25       		.uleb128 0x25
 2408 09e8 02       		.uleb128 0x2
 2409 09e9 7D       		.byte	0x7d
 2410 09ea 08       		.sleb128 8
 2411 09eb 03       		.uleb128 0x3
 2412 09ec 0A       		.byte	0xa
 2413 09ed 7902     		.2byte	0x279
 2414 09ef 25       		.uleb128 0x25
 2415 09f0 02       		.uleb128 0x2
 2416 09f1 7D       		.byte	0x7d
 2417 09f2 00       		.sleb128 0
 2418 09f3 01       		.uleb128 0x1
 2419 09f4 35       		.byte	0x35
 2420 09f5 00       		.byte	0
 2421 09f6 24       		.uleb128 0x24
 2422 09f7 8A000000 		.4byte	.LVL39
 2423 09fb E50F0000 		.4byte	0xfe5
 2424 09ff 25       		.uleb128 0x25
 2425 0a00 01       		.uleb128 0x1
 2426 0a01 52       		.byte	0x52
 2427 0a02 01       		.uleb128 0x1
 2428 0a03 44       		.byte	0x44
 2429 0a04 25       		.uleb128 0x25
 2430 0a05 01       		.uleb128 0x1
 2431 0a06 51       		.byte	0x51
 2432 0a07 01       		.uleb128 0x1
 2433 0a08 44       		.byte	0x44
 2434 0a09 00       		.byte	0
ARM GAS  C:\Users\mlgjmoor\AppData\Local\Temp\ccKDuCjD.s 			page 71


 2435 0a0a 00       		.byte	0
 2436 0a0b 0F       		.uleb128 0xf
 2437 0a0c E8030000 		.4byte	0x3e8
 2438 0a10 1B0A0000 		.4byte	0xa1b
 2439 0a14 10       		.uleb128 0x10
 2440 0a15 C0000000 		.4byte	0xc0
 2441 0a19 04       		.byte	0x4
 2442 0a1a 00       		.byte	0
 2443 0a1b 27       		.uleb128 0x27
 2444 0a1c 950B0000 		.4byte	.LASF205
 2445 0a20 01       		.byte	0x1
 2446 0a21 0902     		.2byte	0x209
 2447 0a23 00000000 		.4byte	.LFB5
 2448 0a27 14000000 		.4byte	.LFE5-.LFB5
 2449 0a2b 01       		.uleb128 0x1
 2450 0a2c 9C       		.byte	0x9c
 2451 0a2d 3B0A0000 		.4byte	0xa3b
 2452 0a31 20       		.uleb128 0x20
 2453 0a32 06000000 		.4byte	.LVL42
 2454 0a36 10100000 		.4byte	0x1010
 2455 0a3a 00       		.byte	0
 2456 0a3b 21       		.uleb128 0x21
 2457 0a3c C2140000 		.4byte	.LASF207
 2458 0a40 01       		.byte	0x1
 2459 0a41 3E02     		.2byte	0x23e
 2460 0a43 78030000 		.4byte	0x378
 2461 0a47 00000000 		.4byte	.LFB6
 2462 0a4b EC000000 		.4byte	.LFE6-.LFB6
 2463 0a4f 01       		.uleb128 0x1
 2464 0a50 9C       		.byte	0x9c
 2465 0a51 0F0B0000 		.4byte	0xb0f
 2466 0a55 1B       		.uleb128 0x1b
 2467 0a56 9C100000 		.4byte	.LASF208
 2468 0a5a 01       		.byte	0x1
 2469 0a5b 3E02     		.2byte	0x23e
 2470 0a5d 6B000000 		.4byte	0x6b
 2471 0a61 F0010000 		.4byte	.LLST10
 2472 0a65 1D       		.uleb128 0x1d
 2473 0a66 94000000 		.4byte	.LASF199
 2474 0a6a 01       		.byte	0x1
 2475 0a6b 4002     		.2byte	0x240
 2476 0a6d 78030000 		.4byte	0x378
 2477 0a71 2A020000 		.4byte	.LLST11
 2478 0a75 23       		.uleb128 0x23
 2479 0a76 7E000000 		.4byte	.LBB3
 2480 0a7a 24000000 		.4byte	.LBE3-.LBB3
 2481 0a7e AD0A0000 		.4byte	0xaad
 2482 0a82 22       		.uleb128 0x22
 2483 0a83 BB0D0000 		.4byte	.LASF209
 2484 0a87 01       		.byte	0x1
 2485 0a88 6402     		.2byte	0x264
 2486 0a8a AD070000 		.4byte	0x7ad
 2487 0a8e 02       		.uleb128 0x2
 2488 0a8f 91       		.byte	0x91
 2489 0a90 6C       		.sleb128 -20
 2490 0a91 24       		.uleb128 0x24
 2491 0a92 92000000 		.4byte	.LVL54
ARM GAS  C:\Users\mlgjmoor\AppData\Local\Temp\ccKDuCjD.s 			page 72


 2492 0a96 18100000 		.4byte	0x1018
 2493 0a9a 25       		.uleb128 0x25
 2494 0a9b 01       		.uleb128 0x1
 2495 0a9c 53       		.byte	0x53
 2496 0a9d 02       		.uleb128 0x2
 2497 0a9e 74       		.byte	0x74
 2498 0a9f 00       		.sleb128 0
 2499 0aa0 25       		.uleb128 0x25
 2500 0aa1 01       		.uleb128 0x1
 2501 0aa2 52       		.byte	0x52
 2502 0aa3 01       		.uleb128 0x1
 2503 0aa4 3A       		.byte	0x3a
 2504 0aa5 25       		.uleb128 0x25
 2505 0aa6 01       		.uleb128 0x1
 2506 0aa7 50       		.byte	0x50
 2507 0aa8 02       		.uleb128 0x2
 2508 0aa9 91       		.byte	0x91
 2509 0aaa 6C       		.sleb128 -20
 2510 0aab 00       		.byte	0
 2511 0aac 00       		.byte	0
 2512 0aad 23       		.uleb128 0x23
 2513 0aae A2000000 		.4byte	.LBB4
 2514 0ab2 2E000000 		.4byte	.LBE4-.LBB4
 2515 0ab6 E50A0000 		.4byte	0xae5
 2516 0aba 22       		.uleb128 0x22
 2517 0abb BB0D0000 		.4byte	.LASF209
 2518 0abf 01       		.byte	0x1
 2519 0ac0 7102     		.2byte	0x271
 2520 0ac2 0F0B0000 		.4byte	0xb0f
 2521 0ac6 02       		.uleb128 0x2
 2522 0ac7 91       		.byte	0x91
 2523 0ac8 6C       		.sleb128 -20
 2524 0ac9 24       		.uleb128 0x24
 2525 0aca C2000000 		.4byte	.LVL56
 2526 0ace 18100000 		.4byte	0x1018
 2527 0ad2 25       		.uleb128 0x25
 2528 0ad3 01       		.uleb128 0x1
 2529 0ad4 53       		.byte	0x53
 2530 0ad5 02       		.uleb128 0x2
 2531 0ad6 74       		.byte	0x74
 2532 0ad7 00       		.sleb128 0
 2533 0ad8 25       		.uleb128 0x25
 2534 0ad9 01       		.uleb128 0x1
 2535 0ada 52       		.byte	0x52
 2536 0adb 01       		.uleb128 0x1
 2537 0adc 32       		.byte	0x32
 2538 0add 25       		.uleb128 0x25
 2539 0ade 01       		.uleb128 0x1
 2540 0adf 50       		.byte	0x50
 2541 0ae0 02       		.uleb128 0x2
 2542 0ae1 91       		.byte	0x91
 2543 0ae2 6C       		.sleb128 -20
 2544 0ae3 00       		.byte	0
 2545 0ae4 00       		.byte	0
 2546 0ae5 26       		.uleb128 0x26
 2547 0ae6 12000000 		.4byte	.LVL45
 2548 0aea 3C100000 		.4byte	0x103c
ARM GAS  C:\Users\mlgjmoor\AppData\Local\Temp\ccKDuCjD.s 			page 73


 2549 0aee F90A0000 		.4byte	0xaf9
 2550 0af2 25       		.uleb128 0x25
 2551 0af3 01       		.uleb128 0x1
 2552 0af4 50       		.byte	0x50
 2553 0af5 02       		.uleb128 0x2
 2554 0af6 74       		.byte	0x74
 2555 0af7 00       		.sleb128 0
 2556 0af8 00       		.byte	0
 2557 0af9 24       		.uleb128 0x24
 2558 0afa 5A000000 		.4byte	.LVL51
 2559 0afe 18100000 		.4byte	0x1018
 2560 0b02 25       		.uleb128 0x25
 2561 0b03 01       		.uleb128 0x1
 2562 0b04 53       		.byte	0x53
 2563 0b05 02       		.uleb128 0x2
 2564 0b06 74       		.byte	0x74
 2565 0b07 00       		.sleb128 0
 2566 0b08 25       		.uleb128 0x25
 2567 0b09 01       		.uleb128 0x1
 2568 0b0a 52       		.byte	0x52
 2569 0b0b 01       		.uleb128 0x1
 2570 0b0c 32       		.byte	0x32
 2571 0b0d 00       		.byte	0
 2572 0b0e 00       		.byte	0
 2573 0b0f 0F       		.uleb128 0xf
 2574 0b10 6B000000 		.4byte	0x6b
 2575 0b14 1F0B0000 		.4byte	0xb1f
 2576 0b18 10       		.uleb128 0x10
 2577 0b19 C0000000 		.4byte	0xc0
 2578 0b1d 01       		.byte	0x1
 2579 0b1e 00       		.byte	0
 2580 0b1f 21       		.uleb128 0x21
 2581 0b20 4C040000 		.4byte	.LASF210
 2582 0b24 01       		.byte	0x1
 2583 0b25 A002     		.2byte	0x2a0
 2584 0b27 78030000 		.4byte	0x378
 2585 0b2b 00000000 		.4byte	.LFB7
 2586 0b2f 70000000 		.4byte	.LFE7-.LFB7
 2587 0b33 01       		.uleb128 0x1
 2588 0b34 9C       		.byte	0x9c
 2589 0b35 CB0B0000 		.4byte	0xbcb
 2590 0b39 1B       		.uleb128 0x1b
 2591 0b3a A4140000 		.4byte	.LASF118
 2592 0b3e 01       		.byte	0x1
 2593 0b3f A002     		.2byte	0x2a0
 2594 0b41 CB0B0000 		.4byte	0xbcb
 2595 0b45 81020000 		.4byte	.LLST12
 2596 0b49 1D       		.uleb128 0x1d
 2597 0b4a 94000000 		.4byte	.LASF199
 2598 0b4e 01       		.byte	0x1
 2599 0b4f A202     		.2byte	0x2a2
 2600 0b51 78030000 		.4byte	0x378
 2601 0b55 B8020000 		.4byte	.LLST13
 2602 0b59 28       		.uleb128 0x28
 2603 0b5a 0E000000 		.4byte	.LBB5
 2604 0b5e 54000000 		.4byte	.LBE5-.LBB5
 2605 0b62 22       		.uleb128 0x22
ARM GAS  C:\Users\mlgjmoor\AppData\Local\Temp\ccKDuCjD.s 			page 74


 2606 0b63 97010000 		.4byte	.LASF211
 2607 0b67 01       		.byte	0x1
 2608 0b68 A902     		.2byte	0x2a9
 2609 0b6a 6B000000 		.4byte	0x6b
 2610 0b6e 02       		.uleb128 0x2
 2611 0b6f 91       		.byte	0x91
 2612 0b70 67       		.sleb128 -25
 2613 0b71 22       		.uleb128 0x22
 2614 0b72 84150000 		.4byte	.LASF212
 2615 0b76 01       		.byte	0x1
 2616 0b77 AA02     		.2byte	0x2aa
 2617 0b79 B8030000 		.4byte	0x3b8
 2618 0b7d 02       		.uleb128 0x2
 2619 0b7e 91       		.byte	0x91
 2620 0b7f 68       		.sleb128 -24
 2621 0b80 26       		.uleb128 0x26
 2622 0b81 26000000 		.4byte	.LVL60
 2623 0b85 51100000 		.4byte	0x1051
 2624 0b89 9F0B0000 		.4byte	0xb9f
 2625 0b8d 25       		.uleb128 0x25
 2626 0b8e 01       		.uleb128 0x1
 2627 0b8f 52       		.byte	0x52
 2628 0b90 01       		.uleb128 0x1
 2629 0b91 36       		.byte	0x36
 2630 0b92 25       		.uleb128 0x25
 2631 0b93 01       		.uleb128 0x1
 2632 0b94 51       		.byte	0x51
 2633 0b95 02       		.uleb128 0x2
 2634 0b96 91       		.byte	0x91
 2635 0b97 68       		.sleb128 -24
 2636 0b98 25       		.uleb128 0x25
 2637 0b99 01       		.uleb128 0x1
 2638 0b9a 50       		.byte	0x50
 2639 0b9b 02       		.uleb128 0x2
 2640 0b9c 74       		.byte	0x74
 2641 0b9d 00       		.sleb128 0
 2642 0b9e 00       		.byte	0
 2643 0b9f 26       		.uleb128 0x26
 2644 0ba0 3E000000 		.4byte	.LVL61
 2645 0ba4 70100000 		.4byte	0x1070
 2646 0ba8 B90B0000 		.4byte	0xbb9
 2647 0bac 25       		.uleb128 0x25
 2648 0bad 01       		.uleb128 0x1
 2649 0bae 51       		.byte	0x51
 2650 0baf 02       		.uleb128 0x2
 2651 0bb0 74       		.byte	0x74
 2652 0bb1 00       		.sleb128 0
 2653 0bb2 25       		.uleb128 0x25
 2654 0bb3 01       		.uleb128 0x1
 2655 0bb4 50       		.byte	0x50
 2656 0bb5 02       		.uleb128 0x2
 2657 0bb6 7D       		.byte	0x7d
 2658 0bb7 07       		.sleb128 7
 2659 0bb8 00       		.byte	0
 2660 0bb9 24       		.uleb128 0x24
 2661 0bba 60000000 		.4byte	.LVL64
 2662 0bbe 8B100000 		.4byte	0x108b
ARM GAS  C:\Users\mlgjmoor\AppData\Local\Temp\ccKDuCjD.s 			page 75


 2663 0bc2 25       		.uleb128 0x25
 2664 0bc3 01       		.uleb128 0x1
 2665 0bc4 50       		.byte	0x50
 2666 0bc5 02       		.uleb128 0x2
 2667 0bc6 74       		.byte	0x74
 2668 0bc7 00       		.sleb128 0
 2669 0bc8 00       		.byte	0
 2670 0bc9 00       		.byte	0
 2671 0bca 00       		.byte	0
 2672 0bcb 08       		.uleb128 0x8
 2673 0bcc 04       		.byte	0x4
 2674 0bcd B8030000 		.4byte	0x3b8
 2675 0bd1 21       		.uleb128 0x21
 2676 0bd2 62050000 		.4byte	.LASF213
 2677 0bd6 01       		.byte	0x1
 2678 0bd7 0503     		.2byte	0x305
 2679 0bd9 78030000 		.4byte	0x378
 2680 0bdd 00000000 		.4byte	.LFB8
 2681 0be1 84000000 		.4byte	.LFE8-.LFB8
 2682 0be5 01       		.uleb128 0x1
 2683 0be6 9C       		.byte	0x9c
 2684 0be7 1F0C0000 		.4byte	0xc1f
 2685 0beb 1B       		.uleb128 0x1b
 2686 0bec D8020000 		.4byte	.LASF214
 2687 0bf0 01       		.byte	0x1
 2688 0bf1 0503     		.2byte	0x305
 2689 0bf3 6B000000 		.4byte	0x6b
 2690 0bf7 F9020000 		.4byte	.LLST14
 2691 0bfb 1D       		.uleb128 0x1d
 2692 0bfc 94000000 		.4byte	.LASF199
 2693 0c00 01       		.byte	0x1
 2694 0c01 0703     		.2byte	0x307
 2695 0c03 78030000 		.4byte	0x378
 2696 0c07 71030000 		.4byte	.LLST15
 2697 0c0b 24       		.uleb128 0x24
 2698 0c0c 54000000 		.4byte	.LVL69
 2699 0c10 A1100000 		.4byte	0x10a1
 2700 0c14 25       		.uleb128 0x25
 2701 0c15 01       		.uleb128 0x1
 2702 0c16 50       		.byte	0x50
 2703 0c17 05       		.uleb128 0x5
 2704 0c18 03       		.byte	0x3
 2705 0c19 20000000 		.4byte	.LANCHOR0+32
 2706 0c1d 00       		.byte	0
 2707 0c1e 00       		.byte	0
 2708 0c1f 27       		.uleb128 0x27
 2709 0c20 84070000 		.4byte	.LASF215
 2710 0c24 01       		.byte	0x1
 2711 0c25 4203     		.2byte	0x342
 2712 0c27 00000000 		.4byte	.LFB9
 2713 0c2b 18000000 		.4byte	.LFE9-.LFB9
 2714 0c2f 01       		.uleb128 0x1
 2715 0c30 9C       		.byte	0x9c
 2716 0c31 3F0C0000 		.4byte	0xc3f
 2717 0c35 20       		.uleb128 0x20
 2718 0c36 06000000 		.4byte	.LVL77
 2719 0c3a BD100000 		.4byte	0x10bd
ARM GAS  C:\Users\mlgjmoor\AppData\Local\Temp\ccKDuCjD.s 			page 76


 2720 0c3e 00       		.byte	0
 2721 0c3f 27       		.uleb128 0x27
 2722 0c40 3F0B0000 		.4byte	.LASF216
 2723 0c44 01       		.byte	0x1
 2724 0c45 5803     		.2byte	0x358
 2725 0c47 00000000 		.4byte	.LFB10
 2726 0c4b 02000000 		.4byte	.LFE10-.LFB10
 2727 0c4f 01       		.uleb128 0x1
 2728 0c50 9C       		.byte	0x9c
 2729 0c51 890C0000 		.4byte	0xc89
 2730 0c55 29       		.uleb128 0x29
 2731 0c56 A4140000 		.4byte	.LASF118
 2732 0c5a 01       		.byte	0x1
 2733 0c5b 5803     		.2byte	0x358
 2734 0c5d 890C0000 		.4byte	0xc89
 2735 0c61 01       		.uleb128 0x1
 2736 0c62 50       		.byte	0x50
 2737 0c63 29       		.uleb128 0x29
 2738 0c64 56110000 		.4byte	.LASF190
 2739 0c68 01       		.byte	0x1
 2740 0c69 5803     		.2byte	0x358
 2741 0c6b 6B000000 		.4byte	0x6b
 2742 0c6f 01       		.uleb128 0x1
 2743 0c70 51       		.byte	0x51
 2744 0c71 2A       		.uleb128 0x2a
 2745 0c72 6900     		.ascii	"i\000"
 2746 0c74 01       		.byte	0x1
 2747 0c75 5A03     		.2byte	0x35a
 2748 0c77 6B000000 		.4byte	0x6b
 2749 0c7b 2B       		.uleb128 0x2b
 2750 0c7c F7000000 		.4byte	.LASF194
 2751 0c80 01       		.byte	0x1
 2752 0c81 5B03     		.2byte	0x35b
 2753 0c83 26060000 		.4byte	0x626
 2754 0c87 00       		.byte	0
 2755 0c88 00       		.byte	0
 2756 0c89 08       		.uleb128 0x8
 2757 0c8a 04       		.byte	0x4
 2758 0c8b 8F0C0000 		.4byte	0xc8f
 2759 0c8f 1E       		.uleb128 0x1e
 2760 0c90 B8030000 		.4byte	0x3b8
 2761 0c94 21       		.uleb128 0x21
 2762 0c95 33130000 		.4byte	.LASF217
 2763 0c99 01       		.byte	0x1
 2764 0c9a FC04     		.2byte	0x4fc
 2765 0c9c 78030000 		.4byte	0x378
 2766 0ca0 00000000 		.4byte	.LFB12
 2767 0ca4 4C000000 		.4byte	.LFE12-.LFB12
 2768 0ca8 01       		.uleb128 0x1
 2769 0ca9 9C       		.byte	0x9c
 2770 0caa 2B0D0000 		.4byte	0xd2b
 2771 0cae 1B       		.uleb128 0x1b
 2772 0caf DB120000 		.4byte	.LASF189
 2773 0cb3 01       		.byte	0x1
 2774 0cb4 FC04     		.2byte	0x4fc
 2775 0cb6 9E080000 		.4byte	0x89e
 2776 0cba 8F030000 		.4byte	.LLST16
ARM GAS  C:\Users\mlgjmoor\AppData\Local\Temp\ccKDuCjD.s 			page 77


 2777 0cbe 1D       		.uleb128 0x1d
 2778 0cbf 94000000 		.4byte	.LASF199
 2779 0cc3 01       		.byte	0x1
 2780 0cc4 FE04     		.2byte	0x4fe
 2781 0cc6 78030000 		.4byte	0x378
 2782 0cca C6030000 		.4byte	.LLST17
 2783 0cce 1C       		.uleb128 0x1c
 2784 0ccf 6900     		.ascii	"i\000"
 2785 0cd1 01       		.byte	0x1
 2786 0cd2 FF04     		.2byte	0x4ff
 2787 0cd4 6B000000 		.4byte	0x6b
 2788 0cd8 E5030000 		.4byte	.LLST18
 2789 0cdc 1C       		.uleb128 0x1c
 2790 0cdd 70747200 		.ascii	"ptr\000"
 2791 0ce1 01       		.byte	0x1
 2792 0ce2 0005     		.2byte	0x500
 2793 0ce4 2B0D0000 		.4byte	0xd2b
 2794 0ce8 0F040000 		.4byte	.LLST19
 2795 0cec 1D       		.uleb128 0x1d
 2796 0ced 5D0E0000 		.4byte	.LASF218
 2797 0cf1 01       		.byte	0x1
 2798 0cf2 0105     		.2byte	0x501
 2799 0cf4 6B000000 		.4byte	0x6b
 2800 0cf8 22040000 		.4byte	.LLST20
 2801 0cfc 26       		.uleb128 0x26
 2802 0cfd 36000000 		.4byte	.LVL89
 2803 0d01 09080000 		.4byte	0x809
 2804 0d05 150D0000 		.4byte	0xd15
 2805 0d09 25       		.uleb128 0x25
 2806 0d0a 01       		.uleb128 0x1
 2807 0d0b 51       		.byte	0x51
 2808 0d0c 01       		.uleb128 0x1
 2809 0d0d 30       		.byte	0x30
 2810 0d0e 25       		.uleb128 0x25
 2811 0d0f 01       		.uleb128 0x1
 2812 0d10 50       		.byte	0x50
 2813 0d11 02       		.uleb128 0x2
 2814 0d12 74       		.byte	0x74
 2815 0d13 00       		.sleb128 0
 2816 0d14 00       		.byte	0
 2817 0d15 24       		.uleb128 0x24
 2818 0d16 3E000000 		.4byte	.LVL90
 2819 0d1a 09080000 		.4byte	0x809
 2820 0d1e 25       		.uleb128 0x25
 2821 0d1f 01       		.uleb128 0x1
 2822 0d20 51       		.byte	0x51
 2823 0d21 01       		.uleb128 0x1
 2824 0d22 31       		.byte	0x31
 2825 0d23 25       		.uleb128 0x25
 2826 0d24 01       		.uleb128 0x1
 2827 0d25 50       		.byte	0x50
 2828 0d26 02       		.uleb128 0x2
 2829 0d27 74       		.byte	0x74
 2830 0d28 00       		.sleb128 0
 2831 0d29 00       		.byte	0
 2832 0d2a 00       		.byte	0
 2833 0d2b 08       		.uleb128 0x8
ARM GAS  C:\Users\mlgjmoor\AppData\Local\Temp\ccKDuCjD.s 			page 78


 2834 0d2c 04       		.byte	0x4
 2835 0d2d 9D000000 		.4byte	0x9d
 2836 0d31 21       		.uleb128 0x21
 2837 0d32 93060000 		.4byte	.LASF219
 2838 0d36 01       		.byte	0x1
 2839 0d37 4405     		.2byte	0x544
 2840 0d39 78030000 		.4byte	0x378
 2841 0d3d 00000000 		.4byte	.LFB13
 2842 0d41 34000000 		.4byte	.LFE13-.LFB13
 2843 0d45 01       		.uleb128 0x1
 2844 0d46 9C       		.byte	0x9c
 2845 0d47 9A0D0000 		.4byte	0xd9a
 2846 0d4b 1B       		.uleb128 0x1b
 2847 0d4c DB120000 		.4byte	.LASF189
 2848 0d50 01       		.byte	0x1
 2849 0d51 4405     		.2byte	0x544
 2850 0d53 2B0D0000 		.4byte	0xd2b
 2851 0d57 35040000 		.4byte	.LLST21
 2852 0d5b 1D       		.uleb128 0x1d
 2853 0d5c 94000000 		.4byte	.LASF199
 2854 0d60 01       		.byte	0x1
 2855 0d61 4605     		.2byte	0x546
 2856 0d63 78030000 		.4byte	0x378
 2857 0d67 6F040000 		.4byte	.LLST22
 2858 0d6b 1D       		.uleb128 0x1d
 2859 0d6c 5D0E0000 		.4byte	.LASF218
 2860 0d70 01       		.byte	0x1
 2861 0d71 4705     		.2byte	0x547
 2862 0d73 6B000000 		.4byte	0x6b
 2863 0d77 8E040000 		.4byte	.LLST23
 2864 0d7b 1C       		.uleb128 0x1c
 2865 0d7c 6900     		.ascii	"i\000"
 2866 0d7e 01       		.byte	0x1
 2867 0d7f 4805     		.2byte	0x548
 2868 0d81 6B000000 		.4byte	0x6b
 2869 0d85 A1040000 		.4byte	.LLST24
 2870 0d89 1C       		.uleb128 0x1c
 2871 0d8a 70747200 		.ascii	"ptr\000"
 2872 0d8e 01       		.byte	0x1
 2873 0d8f 4905     		.2byte	0x549
 2874 0d91 2B0D0000 		.4byte	0xd2b
 2875 0d95 CB040000 		.4byte	.LLST25
 2876 0d99 00       		.byte	0
 2877 0d9a 21       		.uleb128 0x21
 2878 0d9b 27100000 		.4byte	.LASF220
 2879 0d9f 01       		.byte	0x1
 2880 0da0 7605     		.2byte	0x576
 2881 0da2 77000000 		.4byte	0x77
 2882 0da6 00000000 		.4byte	.LFB14
 2883 0daa 0A000000 		.4byte	.LFE14-.LFB14
 2884 0dae 01       		.uleb128 0x1
 2885 0daf 9C       		.byte	0x9c
 2886 0db0 C50D0000 		.4byte	0xdc5
 2887 0db4 2C       		.uleb128 0x2c
 2888 0db5 70747200 		.ascii	"ptr\000"
 2889 0db9 01       		.byte	0x1
 2890 0dba 7605     		.2byte	0x576
ARM GAS  C:\Users\mlgjmoor\AppData\Local\Temp\ccKDuCjD.s 			page 79


 2891 0dbc C50D0000 		.4byte	0xdc5
 2892 0dc0 DE040000 		.4byte	.LLST26
 2893 0dc4 00       		.byte	0
 2894 0dc5 08       		.uleb128 0x8
 2895 0dc6 04       		.byte	0x4
 2896 0dc7 CB0D0000 		.4byte	0xdcb
 2897 0dcb 1E       		.uleb128 0x1e
 2898 0dcc 6B000000 		.4byte	0x6b
 2899 0dd0 27       		.uleb128 0x27
 2900 0dd1 270E0000 		.4byte	.LASF221
 2901 0dd5 01       		.byte	0x1
 2902 0dd6 8905     		.2byte	0x589
 2903 0dd8 00000000 		.4byte	.LFB15
 2904 0ddc 08000000 		.4byte	.LFE15-.LFB15
 2905 0de0 01       		.uleb128 0x1
 2906 0de1 9C       		.byte	0x9c
 2907 0de2 050E0000 		.4byte	0xe05
 2908 0de6 2D       		.uleb128 0x2d
 2909 0de7 70747200 		.ascii	"ptr\000"
 2910 0deb 01       		.byte	0x1
 2911 0dec 8905     		.2byte	0x589
 2912 0dee 26060000 		.4byte	0x626
 2913 0df2 01       		.uleb128 0x1
 2914 0df3 50       		.byte	0x50
 2915 0df4 1B       		.uleb128 0x1b
 2916 0df5 E2100000 		.4byte	.LASF222
 2917 0df9 01       		.byte	0x1
 2918 0dfa 8905     		.2byte	0x589
 2919 0dfc 77000000 		.4byte	0x77
 2920 0e00 FF040000 		.4byte	.LLST27
 2921 0e04 00       		.byte	0
 2922 0e05 2E       		.uleb128 0x2e
 2923 0e06 62070000 		.4byte	.LASF223
 2924 0e0a 01       		.byte	0x1
 2925 0e0b 84       		.byte	0x84
 2926 0e0c 6B000000 		.4byte	0x6b
 2927 0e10 05       		.uleb128 0x5
 2928 0e11 03       		.byte	0x3
 2929 0e12 21000000 		.4byte	cyBle_pendingFlashClearCccdHandle
 2930 0e16 2F       		.uleb128 0x2f
 2931 0e17 F1100000 		.4byte	.LASF224
 2932 0e1b 01       		.byte	0x1
 2933 0e1c 89       		.byte	0x89
 2934 0e1d 3D070000 		.4byte	0x73d
 2935 0e21 05       		.uleb128 0x5
 2936 0e22 03       		.byte	0x3
 2937 0e23 00000000 		.4byte	CyBle_ApplCallback
 2938 0e27 2F       		.uleb128 0x2f
 2939 0e28 E6120000 		.4byte	.LASF225
 2940 0e2c 01       		.byte	0x1
 2941 0e2d 2B       		.byte	0x2b
 2942 0e2e 6B000000 		.4byte	0x6b
 2943 0e32 05       		.uleb128 0x5
 2944 0e33 03       		.byte	0x3
 2945 0e34 00000000 		.4byte	cyBle_initVar
 2946 0e38 0F       		.uleb128 0xf
 2947 0e39 6B000000 		.4byte	0x6b
ARM GAS  C:\Users\mlgjmoor\AppData\Local\Temp\ccKDuCjD.s 			page 80


 2948 0e3d 490E0000 		.4byte	0xe49
 2949 0e41 18       		.uleb128 0x18
 2950 0e42 C0000000 		.4byte	0xc0
 2951 0e46 7F0D     		.2byte	0xd7f
 2952 0e48 00       		.byte	0
 2953 0e49 2F       		.uleb128 0x2f
 2954 0e4a 8F140000 		.4byte	.LASF226
 2955 0e4e 01       		.byte	0x1
 2956 0e4f 36       		.byte	0x36
 2957 0e50 380E0000 		.4byte	0xe38
 2958 0e54 05       		.uleb128 0x5
 2959 0e55 03       		.byte	0x3
 2960 0e56 00000000 		.4byte	cyBle_stackMemoryRam
 2961 0e5a 30       		.uleb128 0x30
 2962 0e5b AB140000 		.4byte	.LASF227
 2963 0e5f 08       		.byte	0x8
 2964 0e60 8602     		.2byte	0x286
 2965 0e62 B0000000 		.4byte	0xb0
 2966 0e66 2F       		.uleb128 0x2f
 2967 0e67 93030000 		.4byte	.LASF228
 2968 0e6b 01       		.byte	0x1
 2969 0e6c 8A       		.byte	0x8a
 2970 0e6d B8030000 		.4byte	0x3b8
 2971 0e71 05       		.uleb128 0x5
 2972 0e72 03       		.byte	0x3
 2973 0e73 00000000 		.4byte	cyBle_deviceAddress
 2974 0e77 2F       		.uleb128 0x2f
 2975 0e78 6C080000 		.4byte	.LASF229
 2976 0e7c 01       		.byte	0x1
 2977 0e7d 8B       		.byte	0x8b
 2978 0e7e CB0B0000 		.4byte	0xbcb
 2979 0e82 05       		.uleb128 0x5
 2980 0e83 03       		.byte	0x3
 2981 0e84 00000000 		.4byte	cyBle_sflashDeviceAddress
 2982 0e88 2F       		.uleb128 0x2f
 2983 0e89 6B030000 		.4byte	.LASF230
 2984 0e8d 01       		.byte	0x1
 2985 0e8e 3C       		.byte	0x3c
 2986 0e8f 41050000 		.4byte	0x541
 2987 0e93 05       		.uleb128 0x5
 2988 0e94 03       		.byte	0x3
 2989 0e95 00000000 		.4byte	cyBle_discoveryParam
 2990 0e99 2F       		.uleb128 0x2f
 2991 0e9a F8150000 		.4byte	.LASF231
 2992 0e9e 01       		.byte	0x1
 2993 0e9f 48       		.byte	0x48
 2994 0ea0 81050000 		.4byte	0x581
 2995 0ea4 05       		.uleb128 0x5
 2996 0ea5 03       		.byte	0x3
 2997 0ea6 00000000 		.4byte	cyBle_discoveryData
 2998 0eaa 2F       		.uleb128 0x2f
 2999 0eab FA0E0000 		.4byte	.LASF232
 3000 0eaf 01       		.byte	0x1
 3001 0eb0 51       		.byte	0x51
 3002 0eb1 B1050000 		.4byte	0x5b1
 3003 0eb5 05       		.uleb128 0x5
 3004 0eb6 03       		.byte	0x3
ARM GAS  C:\Users\mlgjmoor\AppData\Local\Temp\ccKDuCjD.s 			page 81


 3005 0eb7 00000000 		.4byte	cyBle_scanRspData
 3006 0ebb 2F       		.uleb128 0x2f
 3007 0ebc 62140000 		.4byte	.LASF233
 3008 0ec0 01       		.byte	0x1
 3009 0ec1 61       		.byte	0x61
 3010 0ec2 1A060000 		.4byte	0x61a
 3011 0ec6 05       		.uleb128 0x5
 3012 0ec7 03       		.byte	0x3
 3013 0ec8 00000000 		.4byte	cyBle_discoveryModeInfo
 3014 0ecc 2F       		.uleb128 0x2f
 3015 0ecd 77110000 		.4byte	.LASF234
 3016 0ed1 01       		.byte	0x1
 3017 0ed2 81       		.byte	0x81
 3018 0ed3 6B000000 		.4byte	0x6b
 3019 0ed7 05       		.uleb128 0x5
 3020 0ed8 03       		.byte	0x3
 3021 0ed9 00000000 		.4byte	cyBle_pendingFlashWrite
 3022 0edd 2F       		.uleb128 0x2f
 3023 0ede 00000000 		.4byte	.LASF235
 3024 0ee2 01       		.byte	0x1
 3025 0ee3 80       		.byte	0x80
 3026 0ee4 6B000000 		.4byte	0x6b
 3027 0ee8 05       		.uleb128 0x5
 3028 0ee9 03       		.byte	0x3
 3029 0eea 00000000 		.4byte	cyBle_peerBonding
 3030 0eee 0F       		.uleb128 0xf
 3031 0eef 31070000 		.4byte	0x731
 3032 0ef3 FE0E0000 		.4byte	0xefe
 3033 0ef7 10       		.uleb128 0x10
 3034 0ef8 C0000000 		.4byte	0xc0
 3035 0efc 13       		.byte	0x13
 3036 0efd 00       		.byte	0
 3037 0efe 31       		.uleb128 0x31
 3038 0eff 3C0D0000 		.4byte	.LASF236
 3039 0f03 09       		.byte	0x9
 3040 0f04 E8       		.byte	0xe8
 3041 0f05 090F0000 		.4byte	0xf09
 3042 0f09 1E       		.uleb128 0x1e
 3043 0f0a EE0E0000 		.4byte	0xeee
 3044 0f0e 31       		.uleb128 0x31
 3045 0f0f 38150000 		.4byte	.LASF237
 3046 0f13 09       		.byte	0x9
 3047 0f14 EC       		.byte	0xec
 3048 0f15 0F0B0000 		.4byte	0xb0f
 3049 0f19 31       		.uleb128 0x31
 3050 0f1a F20B0000 		.4byte	.LASF238
 3051 0f1e 09       		.byte	0x9
 3052 0f1f F4       		.byte	0xf4
 3053 0f20 240F0000 		.4byte	0xf24
 3054 0f24 1E       		.uleb128 0x1e
 3055 0f25 C3070000 		.4byte	0x7c3
 3056 0f29 30       		.uleb128 0x30
 3057 0f2a FD110000 		.4byte	.LASF239
 3058 0f2e 0A       		.byte	0xa
 3059 0f2f DA09     		.2byte	0x9da
 3060 0f31 F6070000 		.4byte	0x7f6
 3061 0f35 30       		.uleb128 0x30
ARM GAS  C:\Users\mlgjmoor\AppData\Local\Temp\ccKDuCjD.s 			page 82


 3062 0f36 18130000 		.4byte	.LASF240
 3063 0f3a 0A       		.byte	0xa
 3064 0f3b DB09     		.2byte	0x9db
 3065 0f3d 50060000 		.4byte	0x650
 3066 0f41 30       		.uleb128 0x30
 3067 0f42 2E0B0000 		.4byte	.LASF241
 3068 0f46 0A       		.byte	0xa
 3069 0f47 DC09     		.2byte	0x9dc
 3070 0f49 B0000000 		.4byte	0xb0
 3071 0f4d 30       		.uleb128 0x30
 3072 0f4e A60C0000 		.4byte	.LASF242
 3073 0f52 0A       		.byte	0xa
 3074 0f53 DF09     		.2byte	0x9df
 3075 0f55 6B000000 		.4byte	0x6b
 3076 0f59 32       		.uleb128 0x32
 3077 0f5a 920E0000 		.4byte	.LASF243
 3078 0f5e 0B       		.byte	0xb
 3079 0f5f A8       		.byte	0xa8
 3080 0f60 33       		.uleb128 0x33
 3081 0f61 9F080000 		.4byte	.LASF244
 3082 0f65 04       		.byte	0x4
 3083 0f66 7009     		.2byte	0x970
 3084 0f68 34       		.uleb128 0x34
 3085 0f69 71090000 		.4byte	.LASF245
 3086 0f6d 04       		.byte	0x4
 3087 0f6e 8F04     		.2byte	0x48f
 3088 0f70 78030000 		.4byte	0x378
 3089 0f74 830F0000 		.4byte	0xf83
 3090 0f78 0A       		.uleb128 0xa
 3091 0f79 830F0000 		.4byte	0xf83
 3092 0f7d 0A       		.uleb128 0xa
 3093 0f7e 5C060000 		.4byte	0x65c
 3094 0f82 00       		.byte	0
 3095 0f83 08       		.uleb128 0x8
 3096 0f84 04       		.byte	0x4
 3097 0f85 890F0000 		.4byte	0xf89
 3098 0f89 1E       		.uleb128 0x1e
 3099 0f8a 91040000 		.4byte	0x491
 3100 0f8e 35       		.uleb128 0x35
 3101 0f8f F3140000 		.4byte	.LASF260
 3102 0f93 C7000000 		.4byte	0xc7
 3103 0f97 AB0F0000 		.4byte	0xfab
 3104 0f9b 0A       		.uleb128 0xa
 3105 0f9c C7000000 		.4byte	0xc7
 3106 0fa0 0A       		.uleb128 0xa
 3107 0fa1 02080000 		.4byte	0x802
 3108 0fa5 0A       		.uleb128 0xa
 3109 0fa6 C0000000 		.4byte	0xc0
 3110 0faa 00       		.byte	0
 3111 0fab 34       		.uleb128 0x34
 3112 0fac 04060000 		.4byte	.LASF246
 3113 0fb0 04       		.byte	0x4
 3114 0fb1 5705     		.2byte	0x557
 3115 0fb3 78030000 		.4byte	0x378
 3116 0fb7 DF0F0000 		.4byte	0xfdf
 3117 0fbb 0A       		.uleb128 0xa
 3118 0fbc C9000000 		.4byte	0xc9
ARM GAS  C:\Users\mlgjmoor\AppData\Local\Temp\ccKDuCjD.s 			page 83


 3119 0fc0 0A       		.uleb128 0xa
 3120 0fc1 26060000 		.4byte	0x626
 3121 0fc5 0A       		.uleb128 0xa
 3122 0fc6 77000000 		.4byte	0x77
 3123 0fca 0A       		.uleb128 0xa
 3124 0fcb DF0F0000 		.4byte	0xfdf
 3125 0fcf 0A       		.uleb128 0xa
 3126 0fd0 6B000000 		.4byte	0x6b
 3127 0fd4 0A       		.uleb128 0xa
 3128 0fd5 C50D0000 		.4byte	0xdc5
 3129 0fd9 0A       		.uleb128 0xa
 3130 0fda 83000000 		.4byte	0x83
 3131 0fde 00       		.byte	0
 3132 0fdf 08       		.uleb128 0x8
 3133 0fe0 04       		.byte	0x4
 3134 0fe1 E8030000 		.4byte	0x3e8
 3135 0fe5 34       		.uleb128 0x34
 3136 0fe6 95130000 		.4byte	.LASF247
 3137 0fea 07       		.byte	0x7
 3138 0feb 4E01     		.2byte	0x14e
 3139 0fed 78030000 		.4byte	0x378
 3140 0ff1 05100000 		.4byte	0x1005
 3141 0ff5 0A       		.uleb128 0xa
 3142 0ff6 05100000 		.4byte	0x1005
 3143 0ffa 0A       		.uleb128 0xa
 3144 0ffb 77000000 		.4byte	0x77
 3145 0fff 0A       		.uleb128 0xa
 3146 1000 77000000 		.4byte	0x77
 3147 1004 00       		.byte	0
 3148 1005 08       		.uleb128 0x8
 3149 1006 04       		.byte	0x4
 3150 1007 0B100000 		.4byte	0x100b
 3151 100b 1E       		.uleb128 0x1e
 3152 100c 31070000 		.4byte	0x731
 3153 1010 33       		.uleb128 0x33
 3154 1011 A0070000 		.4byte	.LASF248
 3155 1015 04       		.byte	0x4
 3156 1016 7205     		.2byte	0x572
 3157 1018 36       		.uleb128 0x36
 3158 1019 80030000 		.4byte	.LASF249
 3159 101d 0C       		.byte	0xc
 3160 101e 7F       		.byte	0x7f
 3161 101f 78030000 		.4byte	0x378
 3162 1023 3C100000 		.4byte	0x103c
 3163 1027 0A       		.uleb128 0xa
 3164 1028 26060000 		.4byte	0x626
 3165 102c 0A       		.uleb128 0xa
 3166 102d C50D0000 		.4byte	0xdc5
 3167 1031 0A       		.uleb128 0xa
 3168 1032 83000000 		.4byte	0x83
 3169 1036 0A       		.uleb128 0xa
 3170 1037 6B000000 		.4byte	0x6b
 3171 103b 00       		.byte	0
 3172 103c 36       		.uleb128 0x36
 3173 103d 14030000 		.4byte	.LASF250
 3174 1041 0C       		.byte	0xc
 3175 1042 61       		.byte	0x61
ARM GAS  C:\Users\mlgjmoor\AppData\Local\Temp\ccKDuCjD.s 			page 84


 3176 1043 78030000 		.4byte	0x378
 3177 1047 51100000 		.4byte	0x1051
 3178 104b 0A       		.uleb128 0xa
 3179 104c 6B000000 		.4byte	0x6b
 3180 1050 00       		.byte	0
 3181 1051 36       		.uleb128 0x36
 3182 1052 19120000 		.4byte	.LASF251
 3183 1056 0D       		.byte	0xd
 3184 1057 16       		.byte	0x16
 3185 1058 5D000000 		.4byte	0x5d
 3186 105c 70100000 		.4byte	0x1070
 3187 1060 0A       		.uleb128 0xa
 3188 1061 02080000 		.4byte	0x802
 3189 1065 0A       		.uleb128 0xa
 3190 1066 02080000 		.4byte	0x802
 3191 106a 0A       		.uleb128 0xa
 3192 106b B5000000 		.4byte	0xb5
 3193 106f 00       		.byte	0
 3194 1070 34       		.uleb128 0x34
 3195 1071 55010000 		.4byte	.LASF252
 3196 1075 05       		.byte	0x5
 3197 1076 0705     		.2byte	0x507
 3198 1078 78030000 		.4byte	0x378
 3199 107c 8B100000 		.4byte	0x108b
 3200 1080 0A       		.uleb128 0xa
 3201 1081 26060000 		.4byte	0x626
 3202 1085 0A       		.uleb128 0xa
 3203 1086 CB0B0000 		.4byte	0xbcb
 3204 108a 00       		.byte	0
 3205 108b 34       		.uleb128 0x34
 3206 108c CE110000 		.4byte	.LASF253
 3207 1090 05       		.byte	0x5
 3208 1091 1308     		.2byte	0x813
 3209 1093 78030000 		.4byte	0x378
 3210 1097 A1100000 		.4byte	0x10a1
 3211 109b 0A       		.uleb128 0xa
 3212 109c CB0B0000 		.4byte	0xbcb
 3213 10a0 00       		.byte	0
 3214 10a1 34       		.uleb128 0x34
 3215 10a2 E80A0000 		.4byte	.LASF254
 3216 10a6 05       		.byte	0x5
 3217 10a7 6305     		.2byte	0x563
 3218 10a9 78030000 		.4byte	0x378
 3219 10ad B7100000 		.4byte	0x10b7
 3220 10b1 0A       		.uleb128 0xa
 3221 10b2 B7100000 		.4byte	0x10b7
 3222 10b6 00       		.byte	0
 3223 10b7 08       		.uleb128 0x8
 3224 10b8 04       		.byte	0x4
 3225 10b9 1A060000 		.4byte	0x61a
 3226 10bd 33       		.uleb128 0x33
 3227 10be 77060000 		.4byte	.LASF255
 3228 10c2 05       		.byte	0x5
 3229 10c3 7405     		.2byte	0x574
 3230 10c5 00       		.byte	0
 3231              		.section	.debug_abbrev,"",%progbits
 3232              	.Ldebug_abbrev0:
ARM GAS  C:\Users\mlgjmoor\AppData\Local\Temp\ccKDuCjD.s 			page 85


 3233 0000 01       		.uleb128 0x1
 3234 0001 11       		.uleb128 0x11
 3235 0002 01       		.byte	0x1
 3236 0003 25       		.uleb128 0x25
 3237 0004 0E       		.uleb128 0xe
 3238 0005 13       		.uleb128 0x13
 3239 0006 0B       		.uleb128 0xb
 3240 0007 03       		.uleb128 0x3
 3241 0008 0E       		.uleb128 0xe
 3242 0009 1B       		.uleb128 0x1b
 3243 000a 0E       		.uleb128 0xe
 3244 000b 55       		.uleb128 0x55
 3245 000c 17       		.uleb128 0x17
 3246 000d 11       		.uleb128 0x11
 3247 000e 01       		.uleb128 0x1
 3248 000f 10       		.uleb128 0x10
 3249 0010 17       		.uleb128 0x17
 3250 0011 00       		.byte	0
 3251 0012 00       		.byte	0
 3252 0013 02       		.uleb128 0x2
 3253 0014 24       		.uleb128 0x24
 3254 0015 00       		.byte	0
 3255 0016 0B       		.uleb128 0xb
 3256 0017 0B       		.uleb128 0xb
 3257 0018 3E       		.uleb128 0x3e
 3258 0019 0B       		.uleb128 0xb
 3259 001a 03       		.uleb128 0x3
 3260 001b 0E       		.uleb128 0xe
 3261 001c 00       		.byte	0
 3262 001d 00       		.byte	0
 3263 001e 03       		.uleb128 0x3
 3264 001f 24       		.uleb128 0x24
 3265 0020 00       		.byte	0
 3266 0021 0B       		.uleb128 0xb
 3267 0022 0B       		.uleb128 0xb
 3268 0023 3E       		.uleb128 0x3e
 3269 0024 0B       		.uleb128 0xb
 3270 0025 03       		.uleb128 0x3
 3271 0026 08       		.uleb128 0x8
 3272 0027 00       		.byte	0
 3273 0028 00       		.byte	0
 3274 0029 04       		.uleb128 0x4
 3275 002a 16       		.uleb128 0x16
 3276 002b 00       		.byte	0
 3277 002c 03       		.uleb128 0x3
 3278 002d 0E       		.uleb128 0xe
 3279 002e 3A       		.uleb128 0x3a
 3280 002f 0B       		.uleb128 0xb
 3281 0030 3B       		.uleb128 0x3b
 3282 0031 05       		.uleb128 0x5
 3283 0032 49       		.uleb128 0x49
 3284 0033 13       		.uleb128 0x13
 3285 0034 00       		.byte	0
 3286 0035 00       		.byte	0
 3287 0036 05       		.uleb128 0x5
 3288 0037 35       		.uleb128 0x35
 3289 0038 00       		.byte	0
ARM GAS  C:\Users\mlgjmoor\AppData\Local\Temp\ccKDuCjD.s 			page 86


 3290 0039 49       		.uleb128 0x49
 3291 003a 13       		.uleb128 0x13
 3292 003b 00       		.byte	0
 3293 003c 00       		.byte	0
 3294 003d 06       		.uleb128 0x6
 3295 003e 16       		.uleb128 0x16
 3296 003f 00       		.byte	0
 3297 0040 03       		.uleb128 0x3
 3298 0041 0E       		.uleb128 0xe
 3299 0042 3A       		.uleb128 0x3a
 3300 0043 0B       		.uleb128 0xb
 3301 0044 3B       		.uleb128 0x3b
 3302 0045 0B       		.uleb128 0xb
 3303 0046 49       		.uleb128 0x49
 3304 0047 13       		.uleb128 0x13
 3305 0048 00       		.byte	0
 3306 0049 00       		.byte	0
 3307 004a 07       		.uleb128 0x7
 3308 004b 0F       		.uleb128 0xf
 3309 004c 00       		.byte	0
 3310 004d 0B       		.uleb128 0xb
 3311 004e 0B       		.uleb128 0xb
 3312 004f 00       		.byte	0
 3313 0050 00       		.byte	0
 3314 0051 08       		.uleb128 0x8
 3315 0052 0F       		.uleb128 0xf
 3316 0053 00       		.byte	0
 3317 0054 0B       		.uleb128 0xb
 3318 0055 0B       		.uleb128 0xb
 3319 0056 49       		.uleb128 0x49
 3320 0057 13       		.uleb128 0x13
 3321 0058 00       		.byte	0
 3322 0059 00       		.byte	0
 3323 005a 09       		.uleb128 0x9
 3324 005b 15       		.uleb128 0x15
 3325 005c 01       		.byte	0x1
 3326 005d 27       		.uleb128 0x27
 3327 005e 19       		.uleb128 0x19
 3328 005f 01       		.uleb128 0x1
 3329 0060 13       		.uleb128 0x13
 3330 0061 00       		.byte	0
 3331 0062 00       		.byte	0
 3332 0063 0A       		.uleb128 0xa
 3333 0064 05       		.uleb128 0x5
 3334 0065 00       		.byte	0
 3335 0066 49       		.uleb128 0x49
 3336 0067 13       		.uleb128 0x13
 3337 0068 00       		.byte	0
 3338 0069 00       		.byte	0
 3339 006a 0B       		.uleb128 0xb
 3340 006b 04       		.uleb128 0x4
 3341 006c 01       		.byte	0x1
 3342 006d 0B       		.uleb128 0xb
 3343 006e 0B       		.uleb128 0xb
 3344 006f 3A       		.uleb128 0x3a
 3345 0070 0B       		.uleb128 0xb
 3346 0071 3B       		.uleb128 0x3b
ARM GAS  C:\Users\mlgjmoor\AppData\Local\Temp\ccKDuCjD.s 			page 87


 3347 0072 05       		.uleb128 0x5
 3348 0073 01       		.uleb128 0x1
 3349 0074 13       		.uleb128 0x13
 3350 0075 00       		.byte	0
 3351 0076 00       		.byte	0
 3352 0077 0C       		.uleb128 0xc
 3353 0078 28       		.uleb128 0x28
 3354 0079 00       		.byte	0
 3355 007a 03       		.uleb128 0x3
 3356 007b 0E       		.uleb128 0xe
 3357 007c 1C       		.uleb128 0x1c
 3358 007d 0D       		.uleb128 0xd
 3359 007e 00       		.byte	0
 3360 007f 00       		.byte	0
 3361 0080 0D       		.uleb128 0xd
 3362 0081 13       		.uleb128 0x13
 3363 0082 01       		.byte	0x1
 3364 0083 0B       		.uleb128 0xb
 3365 0084 0B       		.uleb128 0xb
 3366 0085 3A       		.uleb128 0x3a
 3367 0086 0B       		.uleb128 0xb
 3368 0087 3B       		.uleb128 0x3b
 3369 0088 05       		.uleb128 0x5
 3370 0089 01       		.uleb128 0x1
 3371 008a 13       		.uleb128 0x13
 3372 008b 00       		.byte	0
 3373 008c 00       		.byte	0
 3374 008d 0E       		.uleb128 0xe
 3375 008e 0D       		.uleb128 0xd
 3376 008f 00       		.byte	0
 3377 0090 03       		.uleb128 0x3
 3378 0091 0E       		.uleb128 0xe
 3379 0092 3A       		.uleb128 0x3a
 3380 0093 0B       		.uleb128 0xb
 3381 0094 3B       		.uleb128 0x3b
 3382 0095 05       		.uleb128 0x5
 3383 0096 49       		.uleb128 0x49
 3384 0097 13       		.uleb128 0x13
 3385 0098 38       		.uleb128 0x38
 3386 0099 0B       		.uleb128 0xb
 3387 009a 00       		.byte	0
 3388 009b 00       		.byte	0
 3389 009c 0F       		.uleb128 0xf
 3390 009d 01       		.uleb128 0x1
 3391 009e 01       		.byte	0x1
 3392 009f 49       		.uleb128 0x49
 3393 00a0 13       		.uleb128 0x13
 3394 00a1 01       		.uleb128 0x1
 3395 00a2 13       		.uleb128 0x13
 3396 00a3 00       		.byte	0
 3397 00a4 00       		.byte	0
 3398 00a5 10       		.uleb128 0x10
 3399 00a6 21       		.uleb128 0x21
 3400 00a7 00       		.byte	0
 3401 00a8 49       		.uleb128 0x49
 3402 00a9 13       		.uleb128 0x13
 3403 00aa 2F       		.uleb128 0x2f
ARM GAS  C:\Users\mlgjmoor\AppData\Local\Temp\ccKDuCjD.s 			page 88


 3404 00ab 0B       		.uleb128 0xb
 3405 00ac 00       		.byte	0
 3406 00ad 00       		.byte	0
 3407 00ae 11       		.uleb128 0x11
 3408 00af 04       		.uleb128 0x4
 3409 00b0 01       		.byte	0x1
 3410 00b1 0B       		.uleb128 0xb
 3411 00b2 0B       		.uleb128 0xb
 3412 00b3 3A       		.uleb128 0x3a
 3413 00b4 0B       		.uleb128 0xb
 3414 00b5 3B       		.uleb128 0x3b
 3415 00b6 0B       		.uleb128 0xb
 3416 00b7 01       		.uleb128 0x1
 3417 00b8 13       		.uleb128 0x13
 3418 00b9 00       		.byte	0
 3419 00ba 00       		.byte	0
 3420 00bb 12       		.uleb128 0x12
 3421 00bc 13       		.uleb128 0x13
 3422 00bd 01       		.byte	0x1
 3423 00be 0B       		.uleb128 0xb
 3424 00bf 0B       		.uleb128 0xb
 3425 00c0 3A       		.uleb128 0x3a
 3426 00c1 0B       		.uleb128 0xb
 3427 00c2 3B       		.uleb128 0x3b
 3428 00c3 0B       		.uleb128 0xb
 3429 00c4 01       		.uleb128 0x1
 3430 00c5 13       		.uleb128 0x13
 3431 00c6 00       		.byte	0
 3432 00c7 00       		.byte	0
 3433 00c8 13       		.uleb128 0x13
 3434 00c9 0D       		.uleb128 0xd
 3435 00ca 00       		.byte	0
 3436 00cb 03       		.uleb128 0x3
 3437 00cc 0E       		.uleb128 0xe
 3438 00cd 3A       		.uleb128 0x3a
 3439 00ce 0B       		.uleb128 0xb
 3440 00cf 3B       		.uleb128 0x3b
 3441 00d0 0B       		.uleb128 0xb
 3442 00d1 49       		.uleb128 0x49
 3443 00d2 13       		.uleb128 0x13
 3444 00d3 38       		.uleb128 0x38
 3445 00d4 0B       		.uleb128 0xb
 3446 00d5 00       		.byte	0
 3447 00d6 00       		.byte	0
 3448 00d7 14       		.uleb128 0x14
 3449 00d8 17       		.uleb128 0x17
 3450 00d9 01       		.byte	0x1
 3451 00da 0B       		.uleb128 0xb
 3452 00db 0B       		.uleb128 0xb
 3453 00dc 3A       		.uleb128 0x3a
 3454 00dd 0B       		.uleb128 0xb
 3455 00de 3B       		.uleb128 0x3b
 3456 00df 0B       		.uleb128 0xb
 3457 00e0 01       		.uleb128 0x1
 3458 00e1 13       		.uleb128 0x13
 3459 00e2 00       		.byte	0
 3460 00e3 00       		.byte	0
ARM GAS  C:\Users\mlgjmoor\AppData\Local\Temp\ccKDuCjD.s 			page 89


 3461 00e4 15       		.uleb128 0x15
 3462 00e5 0D       		.uleb128 0xd
 3463 00e6 00       		.byte	0
 3464 00e7 03       		.uleb128 0x3
 3465 00e8 0E       		.uleb128 0xe
 3466 00e9 3A       		.uleb128 0x3a
 3467 00ea 0B       		.uleb128 0xb
 3468 00eb 3B       		.uleb128 0x3b
 3469 00ec 0B       		.uleb128 0xb
 3470 00ed 49       		.uleb128 0x49
 3471 00ee 13       		.uleb128 0x13
 3472 00ef 00       		.byte	0
 3473 00f0 00       		.byte	0
 3474 00f1 16       		.uleb128 0x16
 3475 00f2 13       		.uleb128 0x13
 3476 00f3 01       		.byte	0x1
 3477 00f4 0B       		.uleb128 0xb
 3478 00f5 05       		.uleb128 0x5
 3479 00f6 3A       		.uleb128 0x3a
 3480 00f7 0B       		.uleb128 0xb
 3481 00f8 3B       		.uleb128 0x3b
 3482 00f9 0B       		.uleb128 0xb
 3483 00fa 01       		.uleb128 0x1
 3484 00fb 13       		.uleb128 0x13
 3485 00fc 00       		.byte	0
 3486 00fd 00       		.byte	0
 3487 00fe 17       		.uleb128 0x17
 3488 00ff 0D       		.uleb128 0xd
 3489 0100 00       		.byte	0
 3490 0101 03       		.uleb128 0x3
 3491 0102 0E       		.uleb128 0xe
 3492 0103 3A       		.uleb128 0x3a
 3493 0104 0B       		.uleb128 0xb
 3494 0105 3B       		.uleb128 0x3b
 3495 0106 0B       		.uleb128 0xb
 3496 0107 49       		.uleb128 0x49
 3497 0108 13       		.uleb128 0x13
 3498 0109 38       		.uleb128 0x38
 3499 010a 05       		.uleb128 0x5
 3500 010b 00       		.byte	0
 3501 010c 00       		.byte	0
 3502 010d 18       		.uleb128 0x18
 3503 010e 21       		.uleb128 0x21
 3504 010f 00       		.byte	0
 3505 0110 49       		.uleb128 0x49
 3506 0111 13       		.uleb128 0x13
 3507 0112 2F       		.uleb128 0x2f
 3508 0113 05       		.uleb128 0x5
 3509 0114 00       		.byte	0
 3510 0115 00       		.byte	0
 3511 0116 19       		.uleb128 0x19
 3512 0117 26       		.uleb128 0x26
 3513 0118 00       		.byte	0
 3514 0119 00       		.byte	0
 3515 011a 00       		.byte	0
 3516 011b 1A       		.uleb128 0x1a
 3517 011c 2E       		.uleb128 0x2e
ARM GAS  C:\Users\mlgjmoor\AppData\Local\Temp\ccKDuCjD.s 			page 90


 3518 011d 01       		.byte	0x1
 3519 011e 03       		.uleb128 0x3
 3520 011f 0E       		.uleb128 0xe
 3521 0120 3A       		.uleb128 0x3a
 3522 0121 0B       		.uleb128 0xb
 3523 0122 3B       		.uleb128 0x3b
 3524 0123 05       		.uleb128 0x5
 3525 0124 27       		.uleb128 0x27
 3526 0125 19       		.uleb128 0x19
 3527 0126 11       		.uleb128 0x11
 3528 0127 01       		.uleb128 0x1
 3529 0128 12       		.uleb128 0x12
 3530 0129 06       		.uleb128 0x6
 3531 012a 40       		.uleb128 0x40
 3532 012b 18       		.uleb128 0x18
 3533 012c 9742     		.uleb128 0x2117
 3534 012e 19       		.uleb128 0x19
 3535 012f 01       		.uleb128 0x1
 3536 0130 13       		.uleb128 0x13
 3537 0131 00       		.byte	0
 3538 0132 00       		.byte	0
 3539 0133 1B       		.uleb128 0x1b
 3540 0134 05       		.uleb128 0x5
 3541 0135 00       		.byte	0
 3542 0136 03       		.uleb128 0x3
 3543 0137 0E       		.uleb128 0xe
 3544 0138 3A       		.uleb128 0x3a
 3545 0139 0B       		.uleb128 0xb
 3546 013a 3B       		.uleb128 0x3b
 3547 013b 05       		.uleb128 0x5
 3548 013c 49       		.uleb128 0x49
 3549 013d 13       		.uleb128 0x13
 3550 013e 02       		.uleb128 0x2
 3551 013f 17       		.uleb128 0x17
 3552 0140 00       		.byte	0
 3553 0141 00       		.byte	0
 3554 0142 1C       		.uleb128 0x1c
 3555 0143 34       		.uleb128 0x34
 3556 0144 00       		.byte	0
 3557 0145 03       		.uleb128 0x3
 3558 0146 08       		.uleb128 0x8
 3559 0147 3A       		.uleb128 0x3a
 3560 0148 0B       		.uleb128 0xb
 3561 0149 3B       		.uleb128 0x3b
 3562 014a 05       		.uleb128 0x5
 3563 014b 49       		.uleb128 0x49
 3564 014c 13       		.uleb128 0x13
 3565 014d 02       		.uleb128 0x2
 3566 014e 17       		.uleb128 0x17
 3567 014f 00       		.byte	0
 3568 0150 00       		.byte	0
 3569 0151 1D       		.uleb128 0x1d
 3570 0152 34       		.uleb128 0x34
 3571 0153 00       		.byte	0
 3572 0154 03       		.uleb128 0x3
 3573 0155 0E       		.uleb128 0xe
 3574 0156 3A       		.uleb128 0x3a
ARM GAS  C:\Users\mlgjmoor\AppData\Local\Temp\ccKDuCjD.s 			page 91


 3575 0157 0B       		.uleb128 0xb
 3576 0158 3B       		.uleb128 0x3b
 3577 0159 05       		.uleb128 0x5
 3578 015a 49       		.uleb128 0x49
 3579 015b 13       		.uleb128 0x13
 3580 015c 02       		.uleb128 0x2
 3581 015d 17       		.uleb128 0x17
 3582 015e 00       		.byte	0
 3583 015f 00       		.byte	0
 3584 0160 1E       		.uleb128 0x1e
 3585 0161 26       		.uleb128 0x26
 3586 0162 00       		.byte	0
 3587 0163 49       		.uleb128 0x49
 3588 0164 13       		.uleb128 0x13
 3589 0165 00       		.byte	0
 3590 0166 00       		.byte	0
 3591 0167 1F       		.uleb128 0x1f
 3592 0168 2E       		.uleb128 0x2e
 3593 0169 01       		.byte	0x1
 3594 016a 3F       		.uleb128 0x3f
 3595 016b 19       		.uleb128 0x19
 3596 016c 03       		.uleb128 0x3
 3597 016d 0E       		.uleb128 0xe
 3598 016e 3A       		.uleb128 0x3a
 3599 016f 0B       		.uleb128 0xb
 3600 0170 3B       		.uleb128 0x3b
 3601 0171 0B       		.uleb128 0xb
 3602 0172 27       		.uleb128 0x27
 3603 0173 19       		.uleb128 0x19
 3604 0174 11       		.uleb128 0x11
 3605 0175 01       		.uleb128 0x1
 3606 0176 12       		.uleb128 0x12
 3607 0177 06       		.uleb128 0x6
 3608 0178 40       		.uleb128 0x40
 3609 0179 18       		.uleb128 0x18
 3610 017a 9742     		.uleb128 0x2117
 3611 017c 19       		.uleb128 0x19
 3612 017d 01       		.uleb128 0x1
 3613 017e 13       		.uleb128 0x13
 3614 017f 00       		.byte	0
 3615 0180 00       		.byte	0
 3616 0181 20       		.uleb128 0x20
 3617 0182 898201   		.uleb128 0x4109
 3618 0185 00       		.byte	0
 3619 0186 11       		.uleb128 0x11
 3620 0187 01       		.uleb128 0x1
 3621 0188 31       		.uleb128 0x31
 3622 0189 13       		.uleb128 0x13
 3623 018a 00       		.byte	0
 3624 018b 00       		.byte	0
 3625 018c 21       		.uleb128 0x21
 3626 018d 2E       		.uleb128 0x2e
 3627 018e 01       		.byte	0x1
 3628 018f 3F       		.uleb128 0x3f
 3629 0190 19       		.uleb128 0x19
 3630 0191 03       		.uleb128 0x3
 3631 0192 0E       		.uleb128 0xe
ARM GAS  C:\Users\mlgjmoor\AppData\Local\Temp\ccKDuCjD.s 			page 92


 3632 0193 3A       		.uleb128 0x3a
 3633 0194 0B       		.uleb128 0xb
 3634 0195 3B       		.uleb128 0x3b
 3635 0196 05       		.uleb128 0x5
 3636 0197 27       		.uleb128 0x27
 3637 0198 19       		.uleb128 0x19
 3638 0199 49       		.uleb128 0x49
 3639 019a 13       		.uleb128 0x13
 3640 019b 11       		.uleb128 0x11
 3641 019c 01       		.uleb128 0x1
 3642 019d 12       		.uleb128 0x12
 3643 019e 06       		.uleb128 0x6
 3644 019f 40       		.uleb128 0x40
 3645 01a0 18       		.uleb128 0x18
 3646 01a1 9742     		.uleb128 0x2117
 3647 01a3 19       		.uleb128 0x19
 3648 01a4 01       		.uleb128 0x1
 3649 01a5 13       		.uleb128 0x13
 3650 01a6 00       		.byte	0
 3651 01a7 00       		.byte	0
 3652 01a8 22       		.uleb128 0x22
 3653 01a9 34       		.uleb128 0x34
 3654 01aa 00       		.byte	0
 3655 01ab 03       		.uleb128 0x3
 3656 01ac 0E       		.uleb128 0xe
 3657 01ad 3A       		.uleb128 0x3a
 3658 01ae 0B       		.uleb128 0xb
 3659 01af 3B       		.uleb128 0x3b
 3660 01b0 05       		.uleb128 0x5
 3661 01b1 49       		.uleb128 0x49
 3662 01b2 13       		.uleb128 0x13
 3663 01b3 02       		.uleb128 0x2
 3664 01b4 18       		.uleb128 0x18
 3665 01b5 00       		.byte	0
 3666 01b6 00       		.byte	0
 3667 01b7 23       		.uleb128 0x23
 3668 01b8 0B       		.uleb128 0xb
 3669 01b9 01       		.byte	0x1
 3670 01ba 11       		.uleb128 0x11
 3671 01bb 01       		.uleb128 0x1
 3672 01bc 12       		.uleb128 0x12
 3673 01bd 06       		.uleb128 0x6
 3674 01be 01       		.uleb128 0x1
 3675 01bf 13       		.uleb128 0x13
 3676 01c0 00       		.byte	0
 3677 01c1 00       		.byte	0
 3678 01c2 24       		.uleb128 0x24
 3679 01c3 898201   		.uleb128 0x4109
 3680 01c6 01       		.byte	0x1
 3681 01c7 11       		.uleb128 0x11
 3682 01c8 01       		.uleb128 0x1
 3683 01c9 31       		.uleb128 0x31
 3684 01ca 13       		.uleb128 0x13
 3685 01cb 00       		.byte	0
 3686 01cc 00       		.byte	0
 3687 01cd 25       		.uleb128 0x25
 3688 01ce 8A8201   		.uleb128 0x410a
ARM GAS  C:\Users\mlgjmoor\AppData\Local\Temp\ccKDuCjD.s 			page 93


 3689 01d1 00       		.byte	0
 3690 01d2 02       		.uleb128 0x2
 3691 01d3 18       		.uleb128 0x18
 3692 01d4 9142     		.uleb128 0x2111
 3693 01d6 18       		.uleb128 0x18
 3694 01d7 00       		.byte	0
 3695 01d8 00       		.byte	0
 3696 01d9 26       		.uleb128 0x26
 3697 01da 898201   		.uleb128 0x4109
 3698 01dd 01       		.byte	0x1
 3699 01de 11       		.uleb128 0x11
 3700 01df 01       		.uleb128 0x1
 3701 01e0 31       		.uleb128 0x31
 3702 01e1 13       		.uleb128 0x13
 3703 01e2 01       		.uleb128 0x1
 3704 01e3 13       		.uleb128 0x13
 3705 01e4 00       		.byte	0
 3706 01e5 00       		.byte	0
 3707 01e6 27       		.uleb128 0x27
 3708 01e7 2E       		.uleb128 0x2e
 3709 01e8 01       		.byte	0x1
 3710 01e9 3F       		.uleb128 0x3f
 3711 01ea 19       		.uleb128 0x19
 3712 01eb 03       		.uleb128 0x3
 3713 01ec 0E       		.uleb128 0xe
 3714 01ed 3A       		.uleb128 0x3a
 3715 01ee 0B       		.uleb128 0xb
 3716 01ef 3B       		.uleb128 0x3b
 3717 01f0 05       		.uleb128 0x5
 3718 01f1 27       		.uleb128 0x27
 3719 01f2 19       		.uleb128 0x19
 3720 01f3 11       		.uleb128 0x11
 3721 01f4 01       		.uleb128 0x1
 3722 01f5 12       		.uleb128 0x12
 3723 01f6 06       		.uleb128 0x6
 3724 01f7 40       		.uleb128 0x40
 3725 01f8 18       		.uleb128 0x18
 3726 01f9 9742     		.uleb128 0x2117
 3727 01fb 19       		.uleb128 0x19
 3728 01fc 01       		.uleb128 0x1
 3729 01fd 13       		.uleb128 0x13
 3730 01fe 00       		.byte	0
 3731 01ff 00       		.byte	0
 3732 0200 28       		.uleb128 0x28
 3733 0201 0B       		.uleb128 0xb
 3734 0202 01       		.byte	0x1
 3735 0203 11       		.uleb128 0x11
 3736 0204 01       		.uleb128 0x1
 3737 0205 12       		.uleb128 0x12
 3738 0206 06       		.uleb128 0x6
 3739 0207 00       		.byte	0
 3740 0208 00       		.byte	0
 3741 0209 29       		.uleb128 0x29
 3742 020a 05       		.uleb128 0x5
 3743 020b 00       		.byte	0
 3744 020c 03       		.uleb128 0x3
 3745 020d 0E       		.uleb128 0xe
ARM GAS  C:\Users\mlgjmoor\AppData\Local\Temp\ccKDuCjD.s 			page 94


 3746 020e 3A       		.uleb128 0x3a
 3747 020f 0B       		.uleb128 0xb
 3748 0210 3B       		.uleb128 0x3b
 3749 0211 05       		.uleb128 0x5
 3750 0212 49       		.uleb128 0x49
 3751 0213 13       		.uleb128 0x13
 3752 0214 02       		.uleb128 0x2
 3753 0215 18       		.uleb128 0x18
 3754 0216 00       		.byte	0
 3755 0217 00       		.byte	0
 3756 0218 2A       		.uleb128 0x2a
 3757 0219 34       		.uleb128 0x34
 3758 021a 00       		.byte	0
 3759 021b 03       		.uleb128 0x3
 3760 021c 08       		.uleb128 0x8
 3761 021d 3A       		.uleb128 0x3a
 3762 021e 0B       		.uleb128 0xb
 3763 021f 3B       		.uleb128 0x3b
 3764 0220 05       		.uleb128 0x5
 3765 0221 49       		.uleb128 0x49
 3766 0222 13       		.uleb128 0x13
 3767 0223 00       		.byte	0
 3768 0224 00       		.byte	0
 3769 0225 2B       		.uleb128 0x2b
 3770 0226 34       		.uleb128 0x34
 3771 0227 00       		.byte	0
 3772 0228 03       		.uleb128 0x3
 3773 0229 0E       		.uleb128 0xe
 3774 022a 3A       		.uleb128 0x3a
 3775 022b 0B       		.uleb128 0xb
 3776 022c 3B       		.uleb128 0x3b
 3777 022d 05       		.uleb128 0x5
 3778 022e 49       		.uleb128 0x49
 3779 022f 13       		.uleb128 0x13
 3780 0230 1C       		.uleb128 0x1c
 3781 0231 0B       		.uleb128 0xb
 3782 0232 00       		.byte	0
 3783 0233 00       		.byte	0
 3784 0234 2C       		.uleb128 0x2c
 3785 0235 05       		.uleb128 0x5
 3786 0236 00       		.byte	0
 3787 0237 03       		.uleb128 0x3
 3788 0238 08       		.uleb128 0x8
 3789 0239 3A       		.uleb128 0x3a
 3790 023a 0B       		.uleb128 0xb
 3791 023b 3B       		.uleb128 0x3b
 3792 023c 05       		.uleb128 0x5
 3793 023d 49       		.uleb128 0x49
 3794 023e 13       		.uleb128 0x13
 3795 023f 02       		.uleb128 0x2
 3796 0240 17       		.uleb128 0x17
 3797 0241 00       		.byte	0
 3798 0242 00       		.byte	0
 3799 0243 2D       		.uleb128 0x2d
 3800 0244 05       		.uleb128 0x5
 3801 0245 00       		.byte	0
 3802 0246 03       		.uleb128 0x3
ARM GAS  C:\Users\mlgjmoor\AppData\Local\Temp\ccKDuCjD.s 			page 95


 3803 0247 08       		.uleb128 0x8
 3804 0248 3A       		.uleb128 0x3a
 3805 0249 0B       		.uleb128 0xb
 3806 024a 3B       		.uleb128 0x3b
 3807 024b 05       		.uleb128 0x5
 3808 024c 49       		.uleb128 0x49
 3809 024d 13       		.uleb128 0x13
 3810 024e 02       		.uleb128 0x2
 3811 024f 18       		.uleb128 0x18
 3812 0250 00       		.byte	0
 3813 0251 00       		.byte	0
 3814 0252 2E       		.uleb128 0x2e
 3815 0253 34       		.uleb128 0x34
 3816 0254 00       		.byte	0
 3817 0255 03       		.uleb128 0x3
 3818 0256 0E       		.uleb128 0xe
 3819 0257 3A       		.uleb128 0x3a
 3820 0258 0B       		.uleb128 0xb
 3821 0259 3B       		.uleb128 0x3b
 3822 025a 0B       		.uleb128 0xb
 3823 025b 49       		.uleb128 0x49
 3824 025c 13       		.uleb128 0x13
 3825 025d 02       		.uleb128 0x2
 3826 025e 18       		.uleb128 0x18
 3827 025f 00       		.byte	0
 3828 0260 00       		.byte	0
 3829 0261 2F       		.uleb128 0x2f
 3830 0262 34       		.uleb128 0x34
 3831 0263 00       		.byte	0
 3832 0264 03       		.uleb128 0x3
 3833 0265 0E       		.uleb128 0xe
 3834 0266 3A       		.uleb128 0x3a
 3835 0267 0B       		.uleb128 0xb
 3836 0268 3B       		.uleb128 0x3b
 3837 0269 0B       		.uleb128 0xb
 3838 026a 49       		.uleb128 0x49
 3839 026b 13       		.uleb128 0x13
 3840 026c 3F       		.uleb128 0x3f
 3841 026d 19       		.uleb128 0x19
 3842 026e 02       		.uleb128 0x2
 3843 026f 18       		.uleb128 0x18
 3844 0270 00       		.byte	0
 3845 0271 00       		.byte	0
 3846 0272 30       		.uleb128 0x30
 3847 0273 34       		.uleb128 0x34
 3848 0274 00       		.byte	0
 3849 0275 03       		.uleb128 0x3
 3850 0276 0E       		.uleb128 0xe
 3851 0277 3A       		.uleb128 0x3a
 3852 0278 0B       		.uleb128 0xb
 3853 0279 3B       		.uleb128 0x3b
 3854 027a 05       		.uleb128 0x5
 3855 027b 49       		.uleb128 0x49
 3856 027c 13       		.uleb128 0x13
 3857 027d 3F       		.uleb128 0x3f
 3858 027e 19       		.uleb128 0x19
 3859 027f 3C       		.uleb128 0x3c
ARM GAS  C:\Users\mlgjmoor\AppData\Local\Temp\ccKDuCjD.s 			page 96


 3860 0280 19       		.uleb128 0x19
 3861 0281 00       		.byte	0
 3862 0282 00       		.byte	0
 3863 0283 31       		.uleb128 0x31
 3864 0284 34       		.uleb128 0x34
 3865 0285 00       		.byte	0
 3866 0286 03       		.uleb128 0x3
 3867 0287 0E       		.uleb128 0xe
 3868 0288 3A       		.uleb128 0x3a
 3869 0289 0B       		.uleb128 0xb
 3870 028a 3B       		.uleb128 0x3b
 3871 028b 0B       		.uleb128 0xb
 3872 028c 49       		.uleb128 0x49
 3873 028d 13       		.uleb128 0x13
 3874 028e 3F       		.uleb128 0x3f
 3875 028f 19       		.uleb128 0x19
 3876 0290 3C       		.uleb128 0x3c
 3877 0291 19       		.uleb128 0x19
 3878 0292 00       		.byte	0
 3879 0293 00       		.byte	0
 3880 0294 32       		.uleb128 0x32
 3881 0295 2E       		.uleb128 0x2e
 3882 0296 00       		.byte	0
 3883 0297 3F       		.uleb128 0x3f
 3884 0298 19       		.uleb128 0x19
 3885 0299 03       		.uleb128 0x3
 3886 029a 0E       		.uleb128 0xe
 3887 029b 3A       		.uleb128 0x3a
 3888 029c 0B       		.uleb128 0xb
 3889 029d 3B       		.uleb128 0x3b
 3890 029e 0B       		.uleb128 0xb
 3891 029f 27       		.uleb128 0x27
 3892 02a0 19       		.uleb128 0x19
 3893 02a1 3C       		.uleb128 0x3c
 3894 02a2 19       		.uleb128 0x19
 3895 02a3 00       		.byte	0
 3896 02a4 00       		.byte	0
 3897 02a5 33       		.uleb128 0x33
 3898 02a6 2E       		.uleb128 0x2e
 3899 02a7 00       		.byte	0
 3900 02a8 3F       		.uleb128 0x3f
 3901 02a9 19       		.uleb128 0x19
 3902 02aa 03       		.uleb128 0x3
 3903 02ab 0E       		.uleb128 0xe
 3904 02ac 3A       		.uleb128 0x3a
 3905 02ad 0B       		.uleb128 0xb
 3906 02ae 3B       		.uleb128 0x3b
 3907 02af 05       		.uleb128 0x5
 3908 02b0 27       		.uleb128 0x27
 3909 02b1 19       		.uleb128 0x19
 3910 02b2 3C       		.uleb128 0x3c
 3911 02b3 19       		.uleb128 0x19
 3912 02b4 00       		.byte	0
 3913 02b5 00       		.byte	0
 3914 02b6 34       		.uleb128 0x34
 3915 02b7 2E       		.uleb128 0x2e
 3916 02b8 01       		.byte	0x1
ARM GAS  C:\Users\mlgjmoor\AppData\Local\Temp\ccKDuCjD.s 			page 97


 3917 02b9 3F       		.uleb128 0x3f
 3918 02ba 19       		.uleb128 0x19
 3919 02bb 03       		.uleb128 0x3
 3920 02bc 0E       		.uleb128 0xe
 3921 02bd 3A       		.uleb128 0x3a
 3922 02be 0B       		.uleb128 0xb
 3923 02bf 3B       		.uleb128 0x3b
 3924 02c0 05       		.uleb128 0x5
 3925 02c1 27       		.uleb128 0x27
 3926 02c2 19       		.uleb128 0x19
 3927 02c3 49       		.uleb128 0x49
 3928 02c4 13       		.uleb128 0x13
 3929 02c5 3C       		.uleb128 0x3c
 3930 02c6 19       		.uleb128 0x19
 3931 02c7 01       		.uleb128 0x1
 3932 02c8 13       		.uleb128 0x13
 3933 02c9 00       		.byte	0
 3934 02ca 00       		.byte	0
 3935 02cb 35       		.uleb128 0x35
 3936 02cc 2E       		.uleb128 0x2e
 3937 02cd 01       		.byte	0x1
 3938 02ce 3F       		.uleb128 0x3f
 3939 02cf 19       		.uleb128 0x19
 3940 02d0 03       		.uleb128 0x3
 3941 02d1 0E       		.uleb128 0xe
 3942 02d2 27       		.uleb128 0x27
 3943 02d3 19       		.uleb128 0x19
 3944 02d4 49       		.uleb128 0x49
 3945 02d5 13       		.uleb128 0x13
 3946 02d6 34       		.uleb128 0x34
 3947 02d7 19       		.uleb128 0x19
 3948 02d8 3C       		.uleb128 0x3c
 3949 02d9 19       		.uleb128 0x19
 3950 02da 01       		.uleb128 0x1
 3951 02db 13       		.uleb128 0x13
 3952 02dc 00       		.byte	0
 3953 02dd 00       		.byte	0
 3954 02de 36       		.uleb128 0x36
 3955 02df 2E       		.uleb128 0x2e
 3956 02e0 01       		.byte	0x1
 3957 02e1 3F       		.uleb128 0x3f
 3958 02e2 19       		.uleb128 0x19
 3959 02e3 03       		.uleb128 0x3
 3960 02e4 0E       		.uleb128 0xe
 3961 02e5 3A       		.uleb128 0x3a
 3962 02e6 0B       		.uleb128 0xb
 3963 02e7 3B       		.uleb128 0x3b
 3964 02e8 0B       		.uleb128 0xb
 3965 02e9 27       		.uleb128 0x27
 3966 02ea 19       		.uleb128 0x19
 3967 02eb 49       		.uleb128 0x49
 3968 02ec 13       		.uleb128 0x13
 3969 02ed 3C       		.uleb128 0x3c
 3970 02ee 19       		.uleb128 0x19
 3971 02ef 01       		.uleb128 0x1
 3972 02f0 13       		.uleb128 0x13
 3973 02f1 00       		.byte	0
ARM GAS  C:\Users\mlgjmoor\AppData\Local\Temp\ccKDuCjD.s 			page 98


 3974 02f2 00       		.byte	0
 3975 02f3 00       		.byte	0
 3976              		.section	.debug_loc,"",%progbits
 3977              	.Ldebug_loc0:
 3978              	.LLST0:
 3979 0000 00000000 		.4byte	.LVL0
 3980 0004 5E000000 		.4byte	.LVL20
 3981 0008 0100     		.2byte	0x1
 3982 000a 50       		.byte	0x50
 3983 000b 5E000000 		.4byte	.LVL20
 3984 000f 78000000 		.4byte	.LFE11
 3985 0013 0400     		.2byte	0x4
 3986 0015 F3       		.byte	0xf3
 3987 0016 01       		.uleb128 0x1
 3988 0017 50       		.byte	0x50
 3989 0018 9F       		.byte	0x9f
 3990 0019 00000000 		.4byte	0
 3991 001d 00000000 		.4byte	0
 3992              	.LLST1:
 3993 0021 00000000 		.4byte	.LVL0
 3994 0025 18000000 		.4byte	.LVL6
 3995 0029 0100     		.2byte	0x1
 3996 002b 51       		.byte	0x51
 3997 002c 18000000 		.4byte	.LVL6
 3998 0030 78000000 		.4byte	.LFE11
 3999 0034 0400     		.2byte	0x4
 4000 0036 F3       		.byte	0xf3
 4001 0037 01       		.uleb128 0x1
 4002 0038 51       		.byte	0x51
 4003 0039 9F       		.byte	0x9f
 4004 003a 00000000 		.4byte	0
 4005 003e 00000000 		.4byte	0
 4006              	.LLST2:
 4007 0042 46000000 		.4byte	.LVL16
 4008 0046 4A000000 		.4byte	.LVL17
 4009 004a 0100     		.2byte	0x1
 4010 004c 53       		.byte	0x53
 4011 004d 4A000000 		.4byte	.LVL17
 4012 0051 4E000000 		.4byte	.LVL18
 4013 0055 0100     		.2byte	0x1
 4014 0057 52       		.byte	0x52
 4015 0058 50000000 		.4byte	.LVL19
 4016 005c 66000000 		.4byte	.LVL21
 4017 0060 0100     		.2byte	0x1
 4018 0062 52       		.byte	0x52
 4019 0063 68000000 		.4byte	.LVL22
 4020 0067 6C000000 		.4byte	.LVL23
 4021 006b 0100     		.2byte	0x1
 4022 006d 52       		.byte	0x52
 4023 006e 00000000 		.4byte	0
 4024 0072 00000000 		.4byte	0
 4025              	.LLST3:
 4026 0076 02000000 		.4byte	.LVL1
 4027 007a 18000000 		.4byte	.LVL6
 4028 007e 0200     		.2byte	0x2
 4029 0080 30       		.byte	0x30
 4030 0081 9F       		.byte	0x9f
ARM GAS  C:\Users\mlgjmoor\AppData\Local\Temp\ccKDuCjD.s 			page 99


 4031 0082 18000000 		.4byte	.LVL6
 4032 0086 4A000000 		.4byte	.LVL17
 4033 008a 0100     		.2byte	0x1
 4034 008c 55       		.byte	0x55
 4035 008d 00000000 		.4byte	0
 4036 0091 00000000 		.4byte	0
 4037              	.LLST4:
 4038 0095 02000000 		.4byte	.LVL1
 4039 0099 18000000 		.4byte	.LVL6
 4040 009d 0200     		.2byte	0x2
 4041 009f 30       		.byte	0x30
 4042 00a0 9F       		.byte	0x9f
 4043 00a1 18000000 		.4byte	.LVL6
 4044 00a5 40000000 		.4byte	.LVL13
 4045 00a9 0100     		.2byte	0x1
 4046 00ab 52       		.byte	0x52
 4047 00ac 42000000 		.4byte	.LVL14
 4048 00b0 6C000000 		.4byte	.LVL23
 4049 00b4 0100     		.2byte	0x1
 4050 00b6 51       		.byte	0x51
 4051 00b7 00000000 		.4byte	0
 4052 00bb 00000000 		.4byte	0
 4053              	.LLST5:
 4054 00bf 02000000 		.4byte	.LVL1
 4055 00c3 18000000 		.4byte	.LVL6
 4056 00c7 0200     		.2byte	0x2
 4057 00c9 30       		.byte	0x30
 4058 00ca 9F       		.byte	0x9f
 4059 00cb 18000000 		.4byte	.LVL6
 4060 00cf 20000000 		.4byte	.LVL8
 4061 00d3 0100     		.2byte	0x1
 4062 00d5 53       		.byte	0x53
 4063 00d6 22000000 		.4byte	.LVL9
 4064 00da 2C000000 		.4byte	.LVL10
 4065 00de 0100     		.2byte	0x1
 4066 00e0 53       		.byte	0x53
 4067 00e1 2E000000 		.4byte	.LVL11
 4068 00e5 44000000 		.4byte	.LVL15
 4069 00e9 0100     		.2byte	0x1
 4070 00eb 53       		.byte	0x53
 4071 00ec 46000000 		.4byte	.LVL16
 4072 00f0 5E000000 		.4byte	.LVL20
 4073 00f4 0100     		.2byte	0x1
 4074 00f6 53       		.byte	0x53
 4075 00f7 00000000 		.4byte	0
 4076 00fb 00000000 		.4byte	0
 4077              	.LLST6:
 4078 00ff 06000000 		.4byte	.LVL2
 4079 0103 0A000000 		.4byte	.LVL3
 4080 0107 0600     		.2byte	0x6
 4081 0109 03       		.byte	0x3
 4082 010a 00000000 		.4byte	cyBle_discoveryData
 4083 010e 9F       		.byte	0x9f
 4084 010f 12000000 		.4byte	.LVL4
 4085 0113 18000000 		.4byte	.LVL6
 4086 0117 0600     		.2byte	0x6
 4087 0119 03       		.byte	0x3
ARM GAS  C:\Users\mlgjmoor\AppData\Local\Temp\ccKDuCjD.s 			page 100


 4088 011a 00000000 		.4byte	cyBle_scanRspData
 4089 011e 9F       		.byte	0x9f
 4090 011f 18000000 		.4byte	.LVL6
 4091 0123 6C000000 		.4byte	.LVL24
 4092 0127 0100     		.2byte	0x1
 4093 0129 54       		.byte	0x54
 4094 012a 00000000 		.4byte	0
 4095 012e 00000000 		.4byte	0
 4096              	.LLST7:
 4097 0132 0A000000 		.4byte	.LVL3
 4098 0136 12000000 		.4byte	.LVL4
 4099 013a 0100     		.2byte	0x1
 4100 013c 56       		.byte	0x56
 4101 013d 16000000 		.4byte	.LVL5
 4102 0141 6C000000 		.4byte	.LVL25
 4103 0145 0100     		.2byte	0x1
 4104 0147 56       		.byte	0x56
 4105 0148 00000000 		.4byte	0
 4106 014c 00000000 		.4byte	0
 4107              	.LLST8:
 4108 0150 00000000 		.4byte	.LVL28
 4109 0154 08000000 		.4byte	.LVL30
 4110 0158 0100     		.2byte	0x1
 4111 015a 50       		.byte	0x50
 4112 015b 08000000 		.4byte	.LVL30
 4113 015f 30000000 		.4byte	.LVL33
 4114 0163 0100     		.2byte	0x1
 4115 0165 54       		.byte	0x54
 4116 0166 30000000 		.4byte	.LVL33
 4117 016a 4D000000 		.4byte	.LVL34-1
 4118 016e 0500     		.2byte	0x5
 4119 0170 03       		.byte	0x3
 4120 0171 00000000 		.4byte	CyBle_ApplCallback
 4121 0175 4D000000 		.4byte	.LVL34-1
 4122 0179 8C000000 		.4byte	.LVL40
 4123 017d 0400     		.2byte	0x4
 4124 017f F3       		.byte	0xf3
 4125 0180 01       		.uleb128 0x1
 4126 0181 50       		.byte	0x50
 4127 0182 9F       		.byte	0x9f
 4128 0183 8C000000 		.4byte	.LVL40
 4129 0187 8E000000 		.4byte	.LVL41
 4130 018b 0100     		.2byte	0x1
 4131 018d 54       		.byte	0x54
 4132 018e 8E000000 		.4byte	.LVL41
 4133 0192 B8000000 		.4byte	.LFE4
 4134 0196 0400     		.2byte	0x4
 4135 0198 F3       		.byte	0xf3
 4136 0199 01       		.uleb128 0x1
 4137 019a 50       		.byte	0x50
 4138 019b 9F       		.byte	0x9f
 4139 019c 00000000 		.4byte	0
 4140 01a0 00000000 		.4byte	0
 4141              	.LLST9:
 4142 01a4 06000000 		.4byte	.LVL29
 4143 01a8 58000000 		.4byte	.LVL35
 4144 01ac 0200     		.2byte	0x2
ARM GAS  C:\Users\mlgjmoor\AppData\Local\Temp\ccKDuCjD.s 			page 101


 4145 01ae 30       		.byte	0x30
 4146 01af 9F       		.byte	0x9f
 4147 01b0 58000000 		.4byte	.LVL35
 4148 01b4 6A000000 		.4byte	.LVL36
 4149 01b8 0100     		.2byte	0x1
 4150 01ba 50       		.byte	0x50
 4151 01bb 76000000 		.4byte	.LVL37
 4152 01bf 82000000 		.4byte	.LVL38
 4153 01c3 0100     		.2byte	0x1
 4154 01c5 50       		.byte	0x50
 4155 01c6 8A000000 		.4byte	.LVL39
 4156 01ca 8C000000 		.4byte	.LVL40
 4157 01ce 0100     		.2byte	0x1
 4158 01d0 50       		.byte	0x50
 4159 01d1 8C000000 		.4byte	.LVL40
 4160 01d5 8E000000 		.4byte	.LVL41
 4161 01d9 0200     		.2byte	0x2
 4162 01db 30       		.byte	0x30
 4163 01dc 9F       		.byte	0x9f
 4164 01dd 8E000000 		.4byte	.LVL41
 4165 01e1 B8000000 		.4byte	.LFE4
 4166 01e5 0100     		.2byte	0x1
 4167 01e7 50       		.byte	0x50
 4168 01e8 00000000 		.4byte	0
 4169 01ec 00000000 		.4byte	0
 4170              	.LLST10:
 4171 01f0 00000000 		.4byte	.LVL43
 4172 01f4 11000000 		.4byte	.LVL45-1
 4173 01f8 0100     		.2byte	0x1
 4174 01fa 50       		.byte	0x50
 4175 01fb 11000000 		.4byte	.LVL45-1
 4176 01ff 26000000 		.4byte	.LVL46
 4177 0203 0400     		.2byte	0x4
 4178 0205 F3       		.byte	0xf3
 4179 0206 01       		.uleb128 0x1
 4180 0207 50       		.byte	0x50
 4181 0208 9F       		.byte	0x9f
 4182 0209 26000000 		.4byte	.LVL46
 4183 020d 28000000 		.4byte	.LVL47
 4184 0211 0100     		.2byte	0x1
 4185 0213 50       		.byte	0x50
 4186 0214 28000000 		.4byte	.LVL47
 4187 0218 EC000000 		.4byte	.LFE6
 4188 021c 0400     		.2byte	0x4
 4189 021e F3       		.byte	0xf3
 4190 021f 01       		.uleb128 0x1
 4191 0220 50       		.byte	0x50
 4192 0221 9F       		.byte	0x9f
 4193 0222 00000000 		.4byte	0
 4194 0226 00000000 		.4byte	0
 4195              	.LLST11:
 4196 022a 06000000 		.4byte	.LVL44
 4197 022e 12000000 		.4byte	.LVL45
 4198 0232 0200     		.2byte	0x2
 4199 0234 30       		.byte	0x30
 4200 0235 9F       		.byte	0x9f
 4201 0236 12000000 		.4byte	.LVL45
ARM GAS  C:\Users\mlgjmoor\AppData\Local\Temp\ccKDuCjD.s 			page 102


 4202 023a 26000000 		.4byte	.LVL46
 4203 023e 0100     		.2byte	0x1
 4204 0240 50       		.byte	0x50
 4205 0241 26000000 		.4byte	.LVL46
 4206 0245 2A000000 		.4byte	.LVL48
 4207 0249 0200     		.2byte	0x2
 4208 024b 30       		.byte	0x30
 4209 024c 9F       		.byte	0x9f
 4210 024d 2A000000 		.4byte	.LVL48
 4211 0251 52000000 		.4byte	.LVL50
 4212 0255 0100     		.2byte	0x1
 4213 0257 50       		.byte	0x50
 4214 0258 5A000000 		.4byte	.LVL51
 4215 025c 80000000 		.4byte	.LVL53
 4216 0260 0100     		.2byte	0x1
 4217 0262 50       		.byte	0x50
 4218 0263 92000000 		.4byte	.LVL54
 4219 0267 A4000000 		.4byte	.LVL55
 4220 026b 0100     		.2byte	0x1
 4221 026d 50       		.byte	0x50
 4222 026e C2000000 		.4byte	.LVL56
 4223 0272 EC000000 		.4byte	.LFE6
 4224 0276 0100     		.2byte	0x1
 4225 0278 50       		.byte	0x50
 4226 0279 00000000 		.4byte	0
 4227 027d 00000000 		.4byte	0
 4228              	.LLST12:
 4229 0281 00000000 		.4byte	.LVL58
 4230 0285 25000000 		.4byte	.LVL60-1
 4231 0289 0100     		.2byte	0x1
 4232 028b 50       		.byte	0x50
 4233 028c 25000000 		.4byte	.LVL60-1
 4234 0290 62000000 		.4byte	.LVL65
 4235 0294 0100     		.2byte	0x1
 4236 0296 54       		.byte	0x54
 4237 0297 62000000 		.4byte	.LVL65
 4238 029b 64000000 		.4byte	.LVL66
 4239 029f 0100     		.2byte	0x1
 4240 02a1 50       		.byte	0x50
 4241 02a2 64000000 		.4byte	.LVL66
 4242 02a6 70000000 		.4byte	.LFE7
 4243 02aa 0400     		.2byte	0x4
 4244 02ac F3       		.byte	0xf3
 4245 02ad 01       		.uleb128 0x1
 4246 02ae 50       		.byte	0x50
 4247 02af 9F       		.byte	0x9f
 4248 02b0 00000000 		.4byte	0
 4249 02b4 00000000 		.4byte	0
 4250              	.LLST13:
 4251 02b8 04000000 		.4byte	.LVL59
 4252 02bc 3E000000 		.4byte	.LVL61
 4253 02c0 0200     		.2byte	0x2
 4254 02c2 30       		.byte	0x30
 4255 02c3 9F       		.byte	0x9f
 4256 02c4 3E000000 		.4byte	.LVL61
 4257 02c8 5C000000 		.4byte	.LVL63
 4258 02cc 0100     		.2byte	0x1
ARM GAS  C:\Users\mlgjmoor\AppData\Local\Temp\ccKDuCjD.s 			page 103


 4259 02ce 50       		.byte	0x50
 4260 02cf 60000000 		.4byte	.LVL64
 4261 02d3 62000000 		.4byte	.LVL65
 4262 02d7 0100     		.2byte	0x1
 4263 02d9 50       		.byte	0x50
 4264 02da 62000000 		.4byte	.LVL65
 4265 02de 64000000 		.4byte	.LVL66
 4266 02e2 0200     		.2byte	0x2
 4267 02e4 30       		.byte	0x30
 4268 02e5 9F       		.byte	0x9f
 4269 02e6 64000000 		.4byte	.LVL66
 4270 02ea 70000000 		.4byte	.LFE7
 4271 02ee 0100     		.2byte	0x1
 4272 02f0 50       		.byte	0x50
 4273 02f1 00000000 		.4byte	0
 4274 02f5 00000000 		.4byte	0
 4275              	.LLST14:
 4276 02f9 00000000 		.4byte	.LVL67
 4277 02fd 4E000000 		.4byte	.LVL68
 4278 0301 0100     		.2byte	0x1
 4279 0303 50       		.byte	0x50
 4280 0304 4E000000 		.4byte	.LVL68
 4281 0308 53000000 		.4byte	.LVL69-1
 4282 030c 0200     		.2byte	0x2
 4283 030e 73       		.byte	0x73
 4284 030f 00       		.sleb128 0
 4285 0310 53000000 		.4byte	.LVL69-1
 4286 0314 64000000 		.4byte	.LVL70
 4287 0318 0400     		.2byte	0x4
 4288 031a F3       		.byte	0xf3
 4289 031b 01       		.uleb128 0x1
 4290 031c 50       		.byte	0x50
 4291 031d 9F       		.byte	0x9f
 4292 031e 64000000 		.4byte	.LVL70
 4293 0322 66000000 		.4byte	.LVL71
 4294 0326 0100     		.2byte	0x1
 4295 0328 50       		.byte	0x50
 4296 0329 66000000 		.4byte	.LVL71
 4297 032d 68000000 		.4byte	.LVL72
 4298 0331 0400     		.2byte	0x4
 4299 0333 F3       		.byte	0xf3
 4300 0334 01       		.uleb128 0x1
 4301 0335 50       		.byte	0x50
 4302 0336 9F       		.byte	0x9f
 4303 0337 68000000 		.4byte	.LVL72
 4304 033b 6A000000 		.4byte	.LVL73
 4305 033f 0100     		.2byte	0x1
 4306 0341 50       		.byte	0x50
 4307 0342 6A000000 		.4byte	.LVL73
 4308 0346 6E000000 		.4byte	.LVL74
 4309 034a 0400     		.2byte	0x4
 4310 034c F3       		.byte	0xf3
 4311 034d 01       		.uleb128 0x1
 4312 034e 50       		.byte	0x50
 4313 034f 9F       		.byte	0x9f
 4314 0350 6E000000 		.4byte	.LVL74
 4315 0354 70000000 		.4byte	.LVL75
ARM GAS  C:\Users\mlgjmoor\AppData\Local\Temp\ccKDuCjD.s 			page 104


 4316 0358 0100     		.2byte	0x1
 4317 035a 50       		.byte	0x50
 4318 035b 70000000 		.4byte	.LVL75
 4319 035f 84000000 		.4byte	.LFE8
 4320 0363 0400     		.2byte	0x4
 4321 0365 F3       		.byte	0xf3
 4322 0366 01       		.uleb128 0x1
 4323 0367 50       		.byte	0x50
 4324 0368 9F       		.byte	0x9f
 4325 0369 00000000 		.4byte	0
 4326 036d 00000000 		.4byte	0
 4327              	.LLST15:
 4328 0371 54000000 		.4byte	.LVL69
 4329 0375 64000000 		.4byte	.LVL70
 4330 0379 0100     		.2byte	0x1
 4331 037b 50       		.byte	0x50
 4332 037c 72000000 		.4byte	.LVL76
 4333 0380 84000000 		.4byte	.LFE8
 4334 0384 0100     		.2byte	0x1
 4335 0386 50       		.byte	0x50
 4336 0387 00000000 		.4byte	0
 4337 038b 00000000 		.4byte	0
 4338              	.LLST16:
 4339 038f 00000000 		.4byte	.LVL79
 4340 0393 35000000 		.4byte	.LVL89-1
 4341 0397 0100     		.2byte	0x1
 4342 0399 50       		.byte	0x50
 4343 039a 35000000 		.4byte	.LVL89-1
 4344 039e 42000000 		.4byte	.LVL91
 4345 03a2 0100     		.2byte	0x1
 4346 03a4 54       		.byte	0x54
 4347 03a5 42000000 		.4byte	.LVL91
 4348 03a9 44000000 		.4byte	.LVL92
 4349 03ad 0100     		.2byte	0x1
 4350 03af 50       		.byte	0x50
 4351 03b0 44000000 		.4byte	.LVL92
 4352 03b4 4C000000 		.4byte	.LFE12
 4353 03b8 0400     		.2byte	0x4
 4354 03ba F3       		.byte	0xf3
 4355 03bb 01       		.uleb128 0x1
 4356 03bc 50       		.byte	0x50
 4357 03bd 9F       		.byte	0x9f
 4358 03be 00000000 		.4byte	0
 4359 03c2 00000000 		.4byte	0
 4360              	.LLST17:
 4361 03c6 02000000 		.4byte	.LVL80
 4362 03ca 44000000 		.4byte	.LVL92
 4363 03ce 0200     		.2byte	0x2
 4364 03d0 30       		.byte	0x30
 4365 03d1 9F       		.byte	0x9f
 4366 03d2 44000000 		.4byte	.LVL92
 4367 03d6 4C000000 		.4byte	.LFE12
 4368 03da 0100     		.2byte	0x1
 4369 03dc 50       		.byte	0x50
 4370 03dd 00000000 		.4byte	0
 4371 03e1 00000000 		.4byte	0
 4372              	.LLST18:
ARM GAS  C:\Users\mlgjmoor\AppData\Local\Temp\ccKDuCjD.s 			page 105


 4373 03e5 10000000 		.4byte	.LVL82
 4374 03e9 14000000 		.4byte	.LVL83
 4375 03ed 0200     		.2byte	0x2
 4376 03ef 30       		.byte	0x30
 4377 03f0 9F       		.byte	0x9f
 4378 03f1 14000000 		.4byte	.LVL83
 4379 03f5 18000000 		.4byte	.LVL84
 4380 03f9 0100     		.2byte	0x1
 4381 03fb 53       		.byte	0x53
 4382 03fc 1A000000 		.4byte	.LVL85
 4383 0400 2A000000 		.4byte	.LVL86
 4384 0404 0100     		.2byte	0x1
 4385 0406 53       		.byte	0x53
 4386 0407 00000000 		.4byte	0
 4387 040b 00000000 		.4byte	0
 4388              	.LLST19:
 4389 040f 0C000000 		.4byte	.LVL81
 4390 0413 30000000 		.4byte	.LVL87
 4391 0417 0100     		.2byte	0x1
 4392 0419 54       		.byte	0x54
 4393 041a 00000000 		.4byte	0
 4394 041e 00000000 		.4byte	0
 4395              	.LLST20:
 4396 0422 10000000 		.4byte	.LVL82
 4397 0426 32000000 		.4byte	.LVL88
 4398 042a 0100     		.2byte	0x1
 4399 042c 51       		.byte	0x51
 4400 042d 00000000 		.4byte	0
 4401 0431 00000000 		.4byte	0
 4402              	.LLST21:
 4403 0435 00000000 		.4byte	.LVL93
 4404 0439 2A000000 		.4byte	.LVL101
 4405 043d 0100     		.2byte	0x1
 4406 043f 50       		.byte	0x50
 4407 0440 2A000000 		.4byte	.LVL101
 4408 0444 2C000000 		.4byte	.LVL102
 4409 0448 0400     		.2byte	0x4
 4410 044a F3       		.byte	0xf3
 4411 044b 01       		.uleb128 0x1
 4412 044c 50       		.byte	0x50
 4413 044d 9F       		.byte	0x9f
 4414 044e 2C000000 		.4byte	.LVL102
 4415 0452 2E000000 		.4byte	.LVL103
 4416 0456 0100     		.2byte	0x1
 4417 0458 50       		.byte	0x50
 4418 0459 2E000000 		.4byte	.LVL103
 4419 045d 34000000 		.4byte	.LFE13
 4420 0461 0400     		.2byte	0x4
 4421 0463 F3       		.byte	0xf3
 4422 0464 01       		.uleb128 0x1
 4423 0465 50       		.byte	0x50
 4424 0466 9F       		.byte	0x9f
 4425 0467 00000000 		.4byte	0
 4426 046b 00000000 		.4byte	0
 4427              	.LLST22:
 4428 046f 02000000 		.4byte	.LVL94
 4429 0473 2E000000 		.4byte	.LVL103
ARM GAS  C:\Users\mlgjmoor\AppData\Local\Temp\ccKDuCjD.s 			page 106


 4430 0477 0200     		.2byte	0x2
 4431 0479 30       		.byte	0x30
 4432 047a 9F       		.byte	0x9f
 4433 047b 2E000000 		.4byte	.LVL103
 4434 047f 34000000 		.4byte	.LFE13
 4435 0483 0100     		.2byte	0x1
 4436 0485 50       		.byte	0x50
 4437 0486 00000000 		.4byte	0
 4438 048a 00000000 		.4byte	0
 4439              	.LLST23:
 4440 048e 0E000000 		.4byte	.LVL96
 4441 0492 2C000000 		.4byte	.LVL102
 4442 0496 0100     		.2byte	0x1
 4443 0498 51       		.byte	0x51
 4444 0499 00000000 		.4byte	0
 4445 049d 00000000 		.4byte	0
 4446              	.LLST24:
 4447 04a1 0E000000 		.4byte	.LVL96
 4448 04a5 12000000 		.4byte	.LVL97
 4449 04a9 0200     		.2byte	0x2
 4450 04ab 30       		.byte	0x30
 4451 04ac 9F       		.byte	0x9f
 4452 04ad 12000000 		.4byte	.LVL97
 4453 04b1 16000000 		.4byte	.LVL98
 4454 04b5 0100     		.2byte	0x1
 4455 04b7 53       		.byte	0x53
 4456 04b8 18000000 		.4byte	.LVL99
 4457 04bc 24000000 		.4byte	.LVL100
 4458 04c0 0100     		.2byte	0x1
 4459 04c2 53       		.byte	0x53
 4460 04c3 00000000 		.4byte	0
 4461 04c7 00000000 		.4byte	0
 4462              	.LLST25:
 4463 04cb 0C000000 		.4byte	.LVL95
 4464 04cf 2C000000 		.4byte	.LVL102
 4465 04d3 0100     		.2byte	0x1
 4466 04d5 54       		.byte	0x54
 4467 04d6 00000000 		.4byte	0
 4468 04da 00000000 		.4byte	0
 4469              	.LLST26:
 4470 04de 00000000 		.4byte	.LVL104
 4471 04e2 04000000 		.4byte	.LVL105
 4472 04e6 0100     		.2byte	0x1
 4473 04e8 50       		.byte	0x50
 4474 04e9 04000000 		.4byte	.LVL105
 4475 04ed 0A000000 		.4byte	.LFE14
 4476 04f1 0400     		.2byte	0x4
 4477 04f3 F3       		.byte	0xf3
 4478 04f4 01       		.uleb128 0x1
 4479 04f5 50       		.byte	0x50
 4480 04f6 9F       		.byte	0x9f
 4481 04f7 00000000 		.4byte	0
 4482 04fb 00000000 		.4byte	0
 4483              	.LLST27:
 4484 04ff 00000000 		.4byte	.LVL106
 4485 0503 04000000 		.4byte	.LVL107
 4486 0507 0100     		.2byte	0x1
ARM GAS  C:\Users\mlgjmoor\AppData\Local\Temp\ccKDuCjD.s 			page 107


 4487 0509 51       		.byte	0x51
 4488 050a 04000000 		.4byte	.LVL107
 4489 050e 08000000 		.4byte	.LFE15
 4490 0512 0400     		.2byte	0x4
 4491 0514 F3       		.byte	0xf3
 4492 0515 01       		.uleb128 0x1
 4493 0516 51       		.byte	0x51
 4494 0517 9F       		.byte	0x9f
 4495 0518 00000000 		.4byte	0
 4496 051c 00000000 		.4byte	0
 4497              		.section	.debug_aranges,"",%progbits
 4498 0000 84000000 		.4byte	0x84
 4499 0004 0200     		.2byte	0x2
 4500 0006 00000000 		.4byte	.Ldebug_info0
 4501 000a 04       		.byte	0x4
 4502 000b 00       		.byte	0
 4503 000c 0000     		.2byte	0
 4504 000e 0000     		.2byte	0
 4505 0010 00000000 		.4byte	.LFB11
 4506 0014 78000000 		.4byte	.LFE11-.LFB11
 4507 0018 00000000 		.4byte	.LFB3
 4508 001c 08000000 		.4byte	.LFE3-.LFB3
 4509 0020 00000000 		.4byte	.LFB2
 4510 0024 34000000 		.4byte	.LFE2-.LFB2
 4511 0028 00000000 		.4byte	.LFB4
 4512 002c B8000000 		.4byte	.LFE4-.LFB4
 4513 0030 00000000 		.4byte	.LFB5
 4514 0034 14000000 		.4byte	.LFE5-.LFB5
 4515 0038 00000000 		.4byte	.LFB6
 4516 003c EC000000 		.4byte	.LFE6-.LFB6
 4517 0040 00000000 		.4byte	.LFB7
 4518 0044 70000000 		.4byte	.LFE7-.LFB7
 4519 0048 00000000 		.4byte	.LFB8
 4520 004c 84000000 		.4byte	.LFE8-.LFB8
 4521 0050 00000000 		.4byte	.LFB9
 4522 0054 18000000 		.4byte	.LFE9-.LFB9
 4523 0058 00000000 		.4byte	.LFB10
 4524 005c 02000000 		.4byte	.LFE10-.LFB10
 4525 0060 00000000 		.4byte	.LFB12
 4526 0064 4C000000 		.4byte	.LFE12-.LFB12
 4527 0068 00000000 		.4byte	.LFB13
 4528 006c 34000000 		.4byte	.LFE13-.LFB13
 4529 0070 00000000 		.4byte	.LFB14
 4530 0074 0A000000 		.4byte	.LFE14-.LFB14
 4531 0078 00000000 		.4byte	.LFB15
 4532 007c 08000000 		.4byte	.LFE15-.LFB15
 4533 0080 00000000 		.4byte	0
 4534 0084 00000000 		.4byte	0
 4535              		.section	.debug_ranges,"",%progbits
 4536              	.Ldebug_ranges0:
 4537 0000 00000000 		.4byte	.LFB11
 4538 0004 78000000 		.4byte	.LFE11
 4539 0008 00000000 		.4byte	.LFB3
 4540 000c 08000000 		.4byte	.LFE3
 4541 0010 00000000 		.4byte	.LFB2
 4542 0014 34000000 		.4byte	.LFE2
 4543 0018 00000000 		.4byte	.LFB4
ARM GAS  C:\Users\mlgjmoor\AppData\Local\Temp\ccKDuCjD.s 			page 108


 4544 001c B8000000 		.4byte	.LFE4
 4545 0020 00000000 		.4byte	.LFB5
 4546 0024 14000000 		.4byte	.LFE5
 4547 0028 00000000 		.4byte	.LFB6
 4548 002c EC000000 		.4byte	.LFE6
 4549 0030 00000000 		.4byte	.LFB7
 4550 0034 70000000 		.4byte	.LFE7
 4551 0038 00000000 		.4byte	.LFB8
 4552 003c 84000000 		.4byte	.LFE8
 4553 0040 00000000 		.4byte	.LFB9
 4554 0044 18000000 		.4byte	.LFE9
 4555 0048 00000000 		.4byte	.LFB10
 4556 004c 02000000 		.4byte	.LFE10
 4557 0050 00000000 		.4byte	.LFB12
 4558 0054 4C000000 		.4byte	.LFE12
 4559 0058 00000000 		.4byte	.LFB13
 4560 005c 34000000 		.4byte	.LFE13
 4561 0060 00000000 		.4byte	.LFB14
 4562 0064 0A000000 		.4byte	.LFE14
 4563 0068 00000000 		.4byte	.LFB15
 4564 006c 08000000 		.4byte	.LFE15
 4565 0070 00000000 		.4byte	0
 4566 0074 00000000 		.4byte	0
 4567              		.section	.debug_line,"",%progbits
 4568              	.Ldebug_line0:
 4569 0000 DE030000 		.section	.debug_str,"MS",%progbits,1
 4569      0200D501 
 4569      00000201 
 4569      FB0E0D00 
 4569      01010101 
 4570              	.LASF235:
 4571 0000 6379426C 		.ascii	"cyBle_peerBonding\000"
 4571      655F7065 
 4571      6572426F 
 4571      6E64696E 
 4571      6700
 4572              	.LASF152:
 4573 0012 7363616E 		.ascii	"scanRspData\000"
 4573      52737044 
 4573      61746100 
 4574              	.LASF16:
 4575 001e 73697A65 		.ascii	"size_t\000"
 4575      5F7400
 4576              	.LASF17:
 4577 0025 73697A65 		.ascii	"sizetype\000"
 4577      74797065 
 4577      00
 4578              	.LASF258:
 4579 002e 433A5C55 		.ascii	"C:\\Users\\mlgjmoor\\Documents\\PSoC Creator\\Nodus"
 4579      73657273 
 4579      5C6D6C67 
 4579      6A6D6F6F 
 4579      725C446F 
 4580 005c 435C6E6F 		.ascii	"C\\nodusC.cydsn\000"
 4580      64757343 
 4580      2E637964 
 4580      736E00
ARM GAS  C:\Users\mlgjmoor\AppData\Local\Temp\ccKDuCjD.s 			page 109


 4581              	.LASF39:
 4582 006b 4359424C 		.ascii	"CYBLE_EVT_GAP_NUMERIC_COMPARISON_REQUEST\000"
 4582      455F4556 
 4582      545F4741 
 4582      505F4E55 
 4582      4D455249 
 4583              	.LASF199:
 4584 0094 61706952 		.ascii	"apiResult\000"
 4584      6573756C 
 4584      7400
 4585              	.LASF33:
 4586 009e 4359424C 		.ascii	"CYBLE_EVT_GAP_DEVICE_CONNECTED\000"
 4586      455F4556 
 4586      545F4741 
 4586      505F4445 
 4586      56494345 
 4587              	.LASF47:
 4588 00bd 4359424C 		.ascii	"CYBLE_EVT_GATT_CONNECT_IND\000"
 4588      455F4556 
 4588      545F4741 
 4588      54545F43 
 4588      4F4E4E45 
 4589              	.LASF259:
 4590 00d8 4379426C 		.ascii	"CyBle_ChangeAdLocalName\000"
 4590      655F4368 
 4590      616E6765 
 4590      41644C6F 
 4590      63616C4E 
 4591              	.LASF11:
 4592 00f0 75696E74 		.ascii	"uint32\000"
 4592      333200
 4593              	.LASF194:
 4594 00f7 64657374 		.ascii	"destBuffer\000"
 4594      42756666 
 4594      657200
 4595              	.LASF155:
 4596 0102 64697363 		.ascii	"discMode\000"
 4596      4D6F6465 
 4596      00
 4597              	.LASF101:
 4598 010b 4359424C 		.ascii	"CYBLE_ERROR_L2CAP_CONNECTION_ENTITY_NOT_FOUND\000"
 4598      455F4552 
 4598      524F525F 
 4598      4C324341 
 4598      505F434F 
 4599              	.LASF107:
 4600 0139 4359424C 		.ascii	"CYBLE_ERROR_MIC_AUTH_FAILED\000"
 4600      455F4552 
 4600      524F525F 
 4600      4D49435F 
 4600      41555448 
 4601              	.LASF252:
 4602 0155 4379426C 		.ascii	"CyBle_GapGetPeerBdHandle\000"
 4602      655F4761 
 4602      70476574 
 4602      50656572 
 4602      42644861 
ARM GAS  C:\Users\mlgjmoor\AppData\Local\Temp\ccKDuCjD.s 			page 110


 4603              	.LASF14:
 4604 016e 63686172 		.ascii	"char8\000"
 4604      3800
 4605              	.LASF79:
 4606 0174 4359424C 		.ascii	"CYBLE_EVT_L2CAP_CBFC_RX_CREDIT_IND\000"
 4606      455F4556 
 4606      545F4C32 
 4606      4341505F 
 4606      43424643 
 4607              	.LASF211:
 4608 0197 62446576 		.ascii	"bDevHandle\000"
 4608      48616E64 
 4608      6C6500
 4609              	.LASF173:
 4610 01a2 7065726D 		.ascii	"permission\000"
 4610      69737369 
 4610      6F6E00
 4611              	.LASF119:
 4612 01ad 74797065 		.ascii	"type\000"
 4612      00
 4613              	.LASF177:
 4614 01b2 4359424C 		.ascii	"CYBLE_CALLBACK_T\000"
 4614      455F4341 
 4614      4C4C4241 
 4614      434B5F54 
 4614      00
 4615              	.LASF64:
 4616 01c3 4359424C 		.ascii	"CYBLE_EVT_GATTC_HANDLE_VALUE_NTF\000"
 4616      455F4556 
 4616      545F4741 
 4616      5454435F 
 4616      48414E44 
 4617              	.LASF27:
 4618 01e4 4359424C 		.ascii	"CYBLE_EVT_GAP_AUTH_REQ\000"
 4618      455F4556 
 4618      545F4741 
 4618      505F4155 
 4618      54485F52 
 4619              	.LASF161:
 4620 01fb 4359424C 		.ascii	"CYBLE_CONN_HANDLE_T\000"
 4620      455F434F 
 4620      4E4E5F48 
 4620      414E444C 
 4620      455F5400 
 4621              	.LASF198:
 4622 020f 63616C6C 		.ascii	"callbackFunc\000"
 4622      6261636B 
 4622      46756E63 
 4622      00
 4623              	.LASF96:
 4624 021c 4359424C 		.ascii	"CYBLE_ERROR_BT_ON_NOT_COMPLETED\000"
 4624      455F4552 
 4624      524F525F 
 4624      42545F4F 
 4624      4E5F4E4F 
 4625              	.LASF186:
 4626 023c 4359424C 		.ascii	"CYBLE_STATE_ADVERTISING\000"
ARM GAS  C:\Users\mlgjmoor\AppData\Local\Temp\ccKDuCjD.s 			page 111


 4626      455F5354 
 4626      4154455F 
 4626      41445645 
 4626      52544953 
 4627              	.LASF41:
 4628 0254 4359424C 		.ascii	"CYBLE_EVT_GAP_OOB_GENERATED_NOTIFICATION\000"
 4628      455F4556 
 4628      545F4741 
 4628      505F4F4F 
 4628      425F4745 
 4629              	.LASF159:
 4630 027d 62644861 		.ascii	"bdHandle\000"
 4630      6E646C65 
 4630      00
 4631              	.LASF127:
 4632 0286 4359424C 		.ascii	"CYBLE_DLE_CONFIG_PARAM_T\000"
 4632      455F444C 
 4632      455F434F 
 4632      4E464947 
 4632      5F504152 
 4633              	.LASF60:
 4634 029f 4359424C 		.ascii	"CYBLE_EVT_GATTS_WRITE_CMD_REQ\000"
 4634      455F4556 
 4634      545F4741 
 4634      5454535F 
 4634      57524954 
 4635              	.LASF4:
 4636 02bd 6C6F6E67 		.ascii	"long int\000"
 4636      20696E74 
 4636      00
 4637              	.LASF196:
 4638 02c6 4379426C 		.ascii	"CyBle_ServiceInit\000"
 4638      655F5365 
 4638      72766963 
 4638      65496E69 
 4638      7400
 4639              	.LASF214:
 4640 02d8 61647665 		.ascii	"advertisingIntervalType\000"
 4640      72746973 
 4640      696E6749 
 4640      6E746572 
 4640      76616C54 
 4641              	.LASF123:
 4642 02f0 4359424C 		.ascii	"CYBLE_STK_APP_DATA_BUFF_T\000"
 4642      455F5354 
 4642      4B5F4150 
 4642      505F4441 
 4642      54415F42 
 4643              	.LASF130:
 4644 030a 646C6543 		.ascii	"dleConfig\000"
 4644      6F6E6669 
 4644      6700
 4645              	.LASF250:
 4646 0314 4379426C 		.ascii	"CyBle_StoreStackData\000"
 4646      655F5374 
 4646      6F726553 
 4646      7461636B 
ARM GAS  C:\Users\mlgjmoor\AppData\Local\Temp\ccKDuCjD.s 			page 112


 4646      44617461 
 4647              	.LASF203:
 4648 0329 73746163 		.ascii	"stackConfig\000"
 4648      6B436F6E 
 4648      66696700 
 4649              	.LASF20:
 4650 0335 4359424C 		.ascii	"CYBLE_EVT_STACK_ON\000"
 4650      455F4556 
 4650      545F5354 
 4650      41434B5F 
 4650      4F4E00
 4651              	.LASF103:
 4652 0348 4359424C 		.ascii	"CYBLE_ERROR_L2CAP_PSM_NOT_IN_RANGE\000"
 4652      455F4552 
 4652      524F525F 
 4652      4C324341 
 4652      505F5053 
 4653              	.LASF230:
 4654 036b 6379426C 		.ascii	"cyBle_discoveryParam\000"
 4654      655F6469 
 4654      73636F76 
 4654      65727950 
 4654      6172616D 
 4655              	.LASF249:
 4656 0380 4379426C 		.ascii	"CyBle_StoreAppData\000"
 4656      655F5374 
 4656      6F726541 
 4656      70704461 
 4656      746100
 4657              	.LASF228:
 4658 0393 6379426C 		.ascii	"cyBle_deviceAddress\000"
 4658      655F6465 
 4658      76696365 
 4658      41646472 
 4658      65737300 
 4659              	.LASF115:
 4660 03a7 4359424C 		.ascii	"CYBLE_ERROR_CHAR_IS_NOT_DISCOVERED\000"
 4660      455F4552 
 4660      524F525F 
 4660      43484152 
 4660      5F49535F 
 4661              	.LASF172:
 4662 03ca 61747454 		.ascii	"attType\000"
 4662      79706500 
 4663              	.LASF137:
 4664 03d2 4359424C 		.ascii	"CYBLE_GAPP_NON_CONNECTABLE_UNDIRECTED_ADV\000"
 4664      455F4741 
 4664      50505F4E 
 4664      4F4E5F43 
 4664      4F4E4E45 
 4665              	.LASF73:
 4666 03fc 4359424C 		.ascii	"CYBLE_EVT_L2CAP_COMMAND_REJ\000"
 4666      455F4556 
 4666      545F4C32 
 4666      4341505F 
 4666      434F4D4D 
 4667              	.LASF104:
ARM GAS  C:\Users\mlgjmoor\AppData\Local\Temp\ccKDuCjD.s 			page 113


 4668 0418 4359424C 		.ascii	"CYBLE_ERROR_GATT_DB_INVALID_ATTR_HANDLE\000"
 4668      455F4552 
 4668      524F525F 
 4668      47415454 
 4668      5F44425F 
 4669              	.LASF0:
 4670 0440 7369676E 		.ascii	"signed char\000"
 4670      65642063 
 4670      68617200 
 4671              	.LASF210:
 4672 044c 4379426C 		.ascii	"CyBle_GapRemoveBondedDevice\000"
 4672      655F4761 
 4672      7052656D 
 4672      6F766542 
 4672      6F6E6465 
 4673              	.LASF122:
 4674 0468 62756666 		.ascii	"bufferUnits\000"
 4674      6572556E 
 4674      69747300 
 4675              	.LASF22:
 4676 0474 4359424C 		.ascii	"CYBLE_EVT_HARDWARE_ERROR\000"
 4676      455F4556 
 4676      545F4841 
 4676      52445741 
 4676      52455F45 
 4677              	.LASF85:
 4678 048d 4359424C 		.ascii	"CYBLE_ERROR_OK\000"
 4678      455F4552 
 4678      524F525F 
 4678      4F4B00
 4679              	.LASF51:
 4680 049c 4359424C 		.ascii	"CYBLE_EVT_GATTC_READ_BY_GROUP_TYPE_RSP\000"
 4680      455F4556 
 4680      545F4741 
 4680      5454435F 
 4680      52454144 
 4681              	.LASF183:
 4682 04c3 4359424C 		.ascii	"CYBLE_STATE_STOPPED\000"
 4682      455F5354 
 4682      4154455F 
 4682      53544F50 
 4682      50454400 
 4683              	.LASF1:
 4684 04d7 756E7369 		.ascii	"unsigned char\000"
 4684      676E6564 
 4684      20636861 
 4684      7200
 4685              	.LASF50:
 4686 04e5 4359424C 		.ascii	"CYBLE_EVT_GATTC_XCHNG_MTU_RSP\000"
 4686      455F4556 
 4686      545F4741 
 4686      5454435F 
 4686      5843484E 
 4687              	.LASF45:
 4688 0503 4359424C 		.ascii	"CYBLE_EVT_GAP_SMP_NEGOTIATED_AUTH_INFO\000"
 4688      455F4556 
 4688      545F4741 
ARM GAS  C:\Users\mlgjmoor\AppData\Local\Temp\ccKDuCjD.s 			page 114


 4688      505F534D 
 4688      505F4E45 
 4689              	.LASF80:
 4690 052a 4359424C 		.ascii	"CYBLE_EVT_L2CAP_CBFC_TX_CREDIT_IND\000"
 4690      455F4556 
 4690      545F4C32 
 4690      4341505F 
 4690      43424643 
 4691              	.LASF140:
 4692 054d 61647649 		.ascii	"advIntvMin\000"
 4692      6E74764D 
 4692      696E00
 4693              	.LASF171:
 4694 0558 61747448 		.ascii	"attHandle\000"
 4694      616E646C 
 4694      6500
 4695              	.LASF213:
 4696 0562 4379426C 		.ascii	"CyBle_GappStartAdvertisement\000"
 4696      655F4761 
 4696      70705374 
 4696      61727441 
 4696      64766572 
 4697              	.LASF151:
 4698 057f 4359424C 		.ascii	"CYBLE_GAPP_DISC_DATA_T\000"
 4698      455F4741 
 4698      50505F44 
 4698      4953435F 
 4698      44415441 
 4699              	.LASF77:
 4700 0596 4359424C 		.ascii	"CYBLE_EVT_L2CAP_CBFC_DISCONN_CNF\000"
 4700      455F4556 
 4700      545F4C32 
 4700      4341505F 
 4700      43424643 
 4701              	.LASF54:
 4702 05b7 4359424C 		.ascii	"CYBLE_EVT_GATTC_FIND_BY_TYPE_VALUE_RSP\000"
 4702      455F4556 
 4702      545F4741 
 4702      5454435F 
 4702      46494E44 
 4703              	.LASF42:
 4704 05de 4359424C 		.ascii	"CYBLE_EVT_GAP_DATA_LENGTH_CHANGE\000"
 4704      455F4556 
 4704      545F4741 
 4704      505F4441 
 4704      54415F4C 
 4705              	.LASF15:
 4706 05ff 63686172 		.ascii	"char\000"
 4706      00
 4707              	.LASF246:
 4708 0604 4379426C 		.ascii	"CyBle_StackInit\000"
 4708      655F5374 
 4708      61636B49 
 4708      6E697400 
 4709              	.LASF165:
 4710 0614 6D617841 		.ascii	"maxAttrLength\000"
 4710      7474724C 
ARM GAS  C:\Users\mlgjmoor\AppData\Local\Temp\ccKDuCjD.s 			page 115


 4710      656E6774 
 4710      6800
 4711              	.LASF257:
 4712 0622 2E5C4765 		.ascii	".\\Generated_Source\\PSoC4\\BLE.c\000"
 4712      6E657261 
 4712      7465645F 
 4712      536F7572 
 4712      63655C50 
 4713              	.LASF57:
 4714 0641 4359424C 		.ascii	"CYBLE_EVT_GATTC_READ_MULTI_RSP\000"
 4714      455F4556 
 4714      545F4741 
 4714      5454435F 
 4714      52454144 
 4715              	.LASF19:
 4716 0660 4359424C 		.ascii	"CYBLE_EVT_HOST_INVALID\000"
 4716      455F4556 
 4716      545F484F 
 4716      53545F49 
 4716      4E56414C 
 4717              	.LASF255:
 4718 0677 4379426C 		.ascii	"CyBle_GappExitDiscoveryMode\000"
 4718      655F4761 
 4718      70704578 
 4718      69744469 
 4718      73636F76 
 4719              	.LASF219:
 4720 0693 4379426C 		.ascii	"CyBle_GapGetLocalName\000"
 4720      655F4761 
 4720      70476574 
 4720      4C6F6361 
 4720      6C4E616D 
 4721              	.LASF44:
 4722 06a9 4359424C 		.ascii	"CYBLE_EVT_GAPC_DIRECT_ADV_REPORT\000"
 4722      455F4556 
 4722      545F4741 
 4722      50435F44 
 4722      49524543 
 4723              	.LASF92:
 4724 06ca 4359424C 		.ascii	"CYBLE_ERROR_NO_DEVICE_ENTITY\000"
 4724      455F4552 
 4724      524F525F 
 4724      4E4F5F44 
 4724      45564943 
 4725              	.LASF56:
 4726 06e7 4359424C 		.ascii	"CYBLE_EVT_GATTC_READ_BLOB_RSP\000"
 4726      455F4556 
 4726      545F4741 
 4726      5454435F 
 4726      52454144 
 4727              	.LASF63:
 4728 0705 4359424C 		.ascii	"CYBLE_EVT_GATTC_EXEC_WRITE_RSP\000"
 4728      455F4556 
 4728      545F4741 
 4728      5454435F 
 4728      45584543 
 4729              	.LASF197:
ARM GAS  C:\Users\mlgjmoor\AppData\Local\Temp\ccKDuCjD.s 			page 116


 4730 0724 4379426C 		.ascii	"CyBle_Init\000"
 4730      655F496E 
 4730      697400
 4731              	.LASF68:
 4732 072f 4359424C 		.ascii	"CYBLE_EVT_GATTC_STOP_CMD_COMPLETE\000"
 4732      455F4556 
 4732      545F4741 
 4732      5454435F 
 4732      53544F50 
 4733              	.LASF176:
 4734 0751 4359424C 		.ascii	"CYBLE_GATTS_DB_T\000"
 4734      455F4741 
 4734      5454535F 
 4734      44425F54 
 4734      00
 4735              	.LASF223:
 4736 0762 6379426C 		.ascii	"cyBle_pendingFlashClearCccdHandle\000"
 4736      655F7065 
 4736      6E64696E 
 4736      67466C61 
 4736      7368436C 
 4737              	.LASF215:
 4738 0784 4379426C 		.ascii	"CyBle_GappStopAdvertisement\000"
 4738      655F4761 
 4738      70705374 
 4738      6F704164 
 4738      76657274 
 4739              	.LASF248:
 4740 07a0 4379426C 		.ascii	"CyBle_Shutdown\000"
 4740      655F5368 
 4740      7574646F 
 4740      776E00
 4741              	.LASF111:
 4742 07af 4359424C 		.ascii	"CYBLE_ERROR_CONTROLLER_BUSY\000"
 4742      455F4552 
 4742      524F525F 
 4742      434F4E54 
 4742      524F4C4C 
 4743              	.LASF86:
 4744 07cb 4359424C 		.ascii	"CYBLE_ERROR_INVALID_PARAMETER\000"
 4744      455F4552 
 4744      524F525F 
 4744      494E5641 
 4744      4C49445F 
 4745              	.LASF200:
 4746 07e9 6379426C 		.ascii	"cyBle_stackDataBuff\000"
 4746      655F7374 
 4746      61636B44 
 4746      61746142 
 4746      75666600 
 4747              	.LASF181:
 4748 07fd 626F756E 		.ascii	"boundedDevCount\000"
 4748      64656444 
 4748      6576436F 
 4748      756E7400 
 4749              	.LASF204:
 4750 080d 66656174 		.ascii	"featureHeapReq\000"
ARM GAS  C:\Users\mlgjmoor\AppData\Local\Temp\ccKDuCjD.s 			page 117


 4750      75726548 
 4750      65617052 
 4750      657100
 4751              	.LASF138:
 4752 081c 4359424C 		.ascii	"CYBLE_GAPP_CONNECTABLE_LOW_DC_DIRECTED_ADV\000"
 4752      455F4741 
 4752      50505F43 
 4752      4F4E4E45 
 4752      43544142 
 4753              	.LASF88:
 4754 0847 4359424C 		.ascii	"CYBLE_ERROR_MEMORY_ALLOCATION_FAILED\000"
 4754      455F4552 
 4754      524F525F 
 4754      4D454D4F 
 4754      52595F41 
 4755              	.LASF229:
 4756 086c 6379426C 		.ascii	"cyBle_sflashDeviceAddress\000"
 4756      655F7366 
 4756      6C617368 
 4756      44657669 
 4756      63654164 
 4757              	.LASF179:
 4758 0886 61747456 		.ascii	"attValuesCCCDFlashMemory\000"
 4758      616C7565 
 4758      73434343 
 4758      44466C61 
 4758      73684D65 
 4759              	.LASF244:
 4760 089f 4379426C 		.ascii	"CyBle_EnablePrivacyFeature\000"
 4760      655F456E 
 4760      61626C65 
 4760      50726976 
 4760      61637946 
 4761              	.LASF112:
 4762 08ba 4359424C 		.ascii	"CYBLE_ERROR_MAX\000"
 4762      455F4552 
 4762      524F525F 
 4762      4D415800 
 4763              	.LASF72:
 4764 08ca 4359424C 		.ascii	"CYBLE_EVT_L2CAP_CONN_PARAM_UPDATE_RSP\000"
 4764      455F4556 
 4764      545F4C32 
 4764      4341505F 
 4764      434F4E4E 
 4765              	.LASF178:
 4766 08f0 73746163 		.ascii	"stackFlashptr\000"
 4766      6B466C61 
 4766      73687074 
 4766      7200
 4767              	.LASF148:
 4768 08fe 4359424C 		.ascii	"CYBLE_GAPP_DISC_PARAM_T\000"
 4768      455F4741 
 4768      50505F44 
 4768      4953435F 
 4768      50415241 
 4769              	.LASF195:
 4770 0916 6D61784C 		.ascii	"maxLength\000"
ARM GAS  C:\Users\mlgjmoor\AppData\Local\Temp\ccKDuCjD.s 			page 118


 4770      656E6774 
 4770      6800
 4771              	.LASF30:
 4772 0920 4359424C 		.ascii	"CYBLE_EVT_GAP_AUTH_COMPLETE\000"
 4772      455F4556 
 4772      545F4741 
 4772      505F4155 
 4772      54485F43 
 4773              	.LASF147:
 4774 093c 61647646 		.ascii	"advFilterPolicy\000"
 4774      696C7465 
 4774      72506F6C 
 4774      69637900 
 4775              	.LASF31:
 4776 094c 4359424C 		.ascii	"CYBLE_EVT_GAP_AUTH_FAILED\000"
 4776      455F4556 
 4776      545F4741 
 4776      505F4155 
 4776      54485F46 
 4777              	.LASF121:
 4778 0966 62756666 		.ascii	"bufferSize\000"
 4778      65725369 
 4778      7A6500
 4779              	.LASF245:
 4780 0971 4379426C 		.ascii	"CyBle_StackSetFeatureConfig\000"
 4780      655F5374 
 4780      61636B53 
 4780      65744665 
 4780      61747572 
 4781              	.LASF142:
 4782 098d 61647654 		.ascii	"advType\000"
 4782      79706500 
 4783              	.LASF89:
 4784 0995 4359424C 		.ascii	"CYBLE_ERROR_INSUFFICIENT_RESOURCES\000"
 4784      455F4552 
 4784      524F525F 
 4784      494E5355 
 4784      46464943 
 4785              	.LASF5:
 4786 09b8 6C6F6E67 		.ascii	"long unsigned int\000"
 4786      20756E73 
 4786      69676E65 
 4786      6420696E 
 4786      7400
 4787              	.LASF109:
 4788 09ca 4359424C 		.ascii	"CYBLE_ERROR_UNSUPPORTED_FEATURE_OR_PARAMETER_VALUE\000"
 4788      455F4552 
 4788      524F525F 
 4788      554E5355 
 4788      50504F52 
 4789              	.LASF182:
 4790 09fd 43595F42 		.ascii	"CY_BLE_FLASH_STORAGE\000"
 4790      4C455F46 
 4790      4C415348 
 4790      5F53544F 
 4790      52414745 
 4791              	.LASF128:
ARM GAS  C:\Users\mlgjmoor\AppData\Local\Temp\ccKDuCjD.s 			page 119


 4792 0a12 7265736F 		.ascii	"resolvingListSize\000"
 4792      6C76696E 
 4792      674C6973 
 4792      7453697A 
 4792      6500
 4793              	.LASF99:
 4794 0a24 4359424C 		.ascii	"CYBLE_ERROR_L2CAP_PSM_ALREADY_REGISTERED\000"
 4794      455F4552 
 4794      524F525F 
 4794      4C324341 
 4794      505F5053 
 4795              	.LASF256:
 4796 0a4d 474E5520 		.ascii	"GNU C 4.9.3 20150303 (release) [ARM/embedded-4_9-br"
 4796      4320342E 
 4796      392E3320 
 4796      32303135 
 4796      30333033 
 4797 0a80 616E6368 		.ascii	"anch revision 221220] -mcpu=cortex-m0 -mthumb -g -O"
 4797      20726576 
 4797      6973696F 
 4797      6E203232 
 4797      31323230 
 4798 0ab3 67202D66 		.ascii	"g -ffunction-sections -ffat-lto-objects\000"
 4798      66756E63 
 4798      74696F6E 
 4798      2D736563 
 4798      74696F6E 
 4799              	.LASF169:
 4800 0adb 61747456 		.ascii	"attValueUuid\000"
 4800      616C7565 
 4800      55756964 
 4800      00
 4801              	.LASF254:
 4802 0ae8 4379426C 		.ascii	"CyBle_GappEnterDiscoveryMode\000"
 4802      655F4761 
 4802      7070456E 
 4802      74657244 
 4802      6973636F 
 4803              	.LASF36:
 4804 0b05 4359424C 		.ascii	"CYBLE_EVT_GAP_CONNECTION_UPDATE_COMPLETE\000"
 4804      455F4556 
 4804      545F4741 
 4804      505F434F 
 4804      4E4E4543 
 4805              	.LASF241:
 4806 0b2e 6379426C 		.ascii	"cyBle_busyStatus\000"
 4806      655F6275 
 4806      73795374 
 4806      61747573 
 4806      00
 4807              	.LASF216:
 4808 0b3f 4379426C 		.ascii	"CyBle_ChangeAdDeviceAddress\000"
 4808      655F4368 
 4808      616E6765 
 4808      41644465 
 4808      76696365 
 4809              	.LASF184:
ARM GAS  C:\Users\mlgjmoor\AppData\Local\Temp\ccKDuCjD.s 			page 120


 4810 0b5b 4359424C 		.ascii	"CYBLE_STATE_INITIALIZING\000"
 4810      455F5354 
 4810      4154455F 
 4810      494E4954 
 4810      49414C49 
 4811              	.LASF76:
 4812 0b74 4359424C 		.ascii	"CYBLE_EVT_L2CAP_CBFC_DISCONN_IND\000"
 4812      455F4556 
 4812      545F4C32 
 4812      4341505F 
 4812      43424643 
 4813              	.LASF205:
 4814 0b95 4379426C 		.ascii	"CyBle_Stop\000"
 4814      655F5374 
 4814      6F7000
 4815              	.LASF28:
 4816 0ba0 4359424C 		.ascii	"CYBLE_EVT_GAP_PASSKEY_ENTRY_REQUEST\000"
 4816      455F4556 
 4816      545F4741 
 4816      505F5041 
 4816      53534B45 
 4817              	.LASF133:
 4818 0bc4 4359424C 		.ascii	"CYBLE_STACK_CONFIG_PARAM_T\000"
 4818      455F5354 
 4818      41434B5F 
 4818      434F4E46 
 4818      49475F50 
 4819              	.LASF124:
 4820 0bdf 646C654D 		.ascii	"dleMaxTxCapability\000"
 4820      61785478 
 4820      43617061 
 4820      62696C69 
 4820      747900
 4821              	.LASF238:
 4822 0bf2 6379426C 		.ascii	"cyBle_flashStorage\000"
 4822      655F666C 
 4822      61736853 
 4822      746F7261 
 4822      676500
 4823              	.LASF6:
 4824 0c05 6C6F6E67 		.ascii	"long long int\000"
 4824      206C6F6E 
 4824      6720696E 
 4824      7400
 4825              	.LASF156:
 4826 0c13 61647650 		.ascii	"advParam\000"
 4826      6172616D 
 4826      00
 4827              	.LASF100:
 4828 0c1c 4359424C 		.ascii	"CYBLE_ERROR_L2CAP_PSM_NOT_REGISTERED\000"
 4828      455F4552 
 4828      524F525F 
 4828      4C324341 
 4828      505F5053 
 4829              	.LASF90:
 4830 0c41 4359424C 		.ascii	"CYBLE_ERROR_OOB_NOT_AVAILABLE\000"
 4830      455F4552 
ARM GAS  C:\Users\mlgjmoor\AppData\Local\Temp\ccKDuCjD.s 			page 121


 4830      524F525F 
 4830      4F4F425F 
 4830      4E4F545F 
 4831              	.LASF13:
 4832 0c5f 646F7562 		.ascii	"double\000"
 4832      6C6500
 4833              	.LASF105:
 4834 0c66 4359424C 		.ascii	"CYBLE_ERROR_DEVICE_ALREADY_EXISTS\000"
 4834      455F4552 
 4834      524F525F 
 4834      44455649 
 4834      43455F41 
 4835              	.LASF82:
 4836 0c88 4359424C 		.ascii	"CYBLE_EVT_PENDING_FLASH_WRITE\000"
 4836      455F4556 
 4836      545F5045 
 4836      4E44494E 
 4836      475F464C 
 4837              	.LASF242:
 4838 0ca6 6379426C 		.ascii	"cyBle_advertisingIntervalType\000"
 4838      655F6164 
 4838      76657274 
 4838      6973696E 
 4838      67496E74 
 4839              	.LASF144:
 4840 0cc4 64697265 		.ascii	"directAddrType\000"
 4840      63744164 
 4840      64725479 
 4840      706500
 4841              	.LASF43:
 4842 0cd3 4359424C 		.ascii	"CYBLE_EVT_GAP_ENHANCE_CONN_COMPLETE\000"
 4842      455F4556 
 4842      545F4741 
 4842      505F454E 
 4842      48414E43 
 4843              	.LASF102:
 4844 0cf7 4359424C 		.ascii	"CYBLE_ERROR_L2CAP_CHANNEL_NOT_FOUND\000"
 4844      455F4552 
 4844      524F525F 
 4844      4C324341 
 4844      505F4348 
 4845              	.LASF129:
 4846 0d1b 4359424C 		.ascii	"CYBLE_PRIVACY_1_2_CONFIG_PARAM_T\000"
 4846      455F5052 
 4846      49564143 
 4846      595F315F 
 4846      325F434F 
 4847              	.LASF236:
 4848 0d3c 6379426C 		.ascii	"cyBle_gattDB\000"
 4848      655F6761 
 4848      74744442 
 4848      00
 4849              	.LASF93:
 4850 0d49 4359424C 		.ascii	"CYBLE_ERROR_REPEATED_ATTEMPTS\000"
 4850      455F4552 
 4850      524F525F 
 4850      52455045 
ARM GAS  C:\Users\mlgjmoor\AppData\Local\Temp\ccKDuCjD.s 			page 122


 4850      41544544 
 4851              	.LASF12:
 4852 0d67 666C6F61 		.ascii	"float\000"
 4852      7400
 4853              	.LASF106:
 4854 0d6d 4359424C 		.ascii	"CYBLE_ERROR_FLASH_WRITE_NOT_PERMITED\000"
 4854      455F4552 
 4854      524F525F 
 4854      464C4153 
 4854      485F5752 
 4855              	.LASF69:
 4856 0d92 4359424C 		.ascii	"CYBLE_EVT_GATTS_READ_CHAR_VAL_ACCESS_REQ\000"
 4856      455F4556 
 4856      545F4741 
 4856      5454535F 
 4856      52454144 
 4857              	.LASF209:
 4858 0dbb 64656661 		.ascii	"defaultValuesCCCD\000"
 4858      756C7456 
 4858      616C7565 
 4858      73434343 
 4858      4400
 4859              	.LASF126:
 4860 0dcd 646C654E 		.ascii	"dleNumTxBuffer\000"
 4860      756D5478 
 4860      42756666 
 4860      657200
 4861              	.LASF8:
 4862 0ddc 756E7369 		.ascii	"unsigned int\000"
 4862      676E6564 
 4862      20696E74 
 4862      00
 4863              	.LASF132:
 4864 0de9 66656174 		.ascii	"feature_mask\000"
 4864      7572655F 
 4864      6D61736B 
 4864      00
 4865              	.LASF61:
 4866 0df6 4359424C 		.ascii	"CYBLE_EVT_GATTS_PREP_WRITE_REQ\000"
 4866      455F4556 
 4866      545F4741 
 4866      5454535F 
 4866      50524550 
 4867              	.LASF174:
 4868 0e15 61747445 		.ascii	"attEndHandle\000"
 4868      6E644861 
 4868      6E646C65 
 4868      00
 4869              	.LASF191:
 4870 0e22 666C6167 		.ascii	"flag\000"
 4870      00
 4871              	.LASF221:
 4872 0e27 4379426C 		.ascii	"CyBle_Set16ByPtr\000"
 4872      655F5365 
 4872      74313642 
 4872      79507472 
 4872      00
ARM GAS  C:\Users\mlgjmoor\AppData\Local\Temp\ccKDuCjD.s 			page 123


 4873              	.LASF98:
 4874 0e38 4359424C 		.ascii	"CYBLE_ERROR_L2CAP_PSM_WRONG_ENCODING\000"
 4874      455F4552 
 4874      524F525F 
 4874      4C324341 
 4874      505F5053 
 4875              	.LASF218:
 4876 0e5d 63686172 		.ascii	"charLen\000"
 4876      4C656E00 
 4877              	.LASF84:
 4878 0e65 4359424C 		.ascii	"CYBLE_EVT_MAX\000"
 4878      455F4556 
 4878      545F4D41 
 4878      5800
 4879              	.LASF37:
 4880 0e73 4359424C 		.ascii	"CYBLE_EVT_GAPC_SCAN_START_STOP\000"
 4880      455F4556 
 4880      545F4741 
 4880      50435F53 
 4880      43414E5F 
 4881              	.LASF243:
 4882 0e92 4379426C 		.ascii	"CyBle_CustomInit\000"
 4882      655F4375 
 4882      73746F6D 
 4882      496E6974 
 4882      00
 4883              	.LASF139:
 4884 0ea3 4359424C 		.ascii	"CYBLE_GAPP_ADV_T\000"
 4884      455F4741 
 4884      50505F41 
 4884      44565F54 
 4884      00
 4885              	.LASF58:
 4886 0eb4 4359424C 		.ascii	"CYBLE_EVT_GATTS_WRITE_REQ\000"
 4886      455F4556 
 4886      545F4741 
 4886      5454535F 
 4886      57524954 
 4887              	.LASF149:
 4888 0ece 61647644 		.ascii	"advData\000"
 4888      61746100 
 4889              	.LASF67:
 4890 0ed6 4359424C 		.ascii	"CYBLE_EVT_GATTS_DATA_SIGNED_CMD_REQ\000"
 4890      455F4556 
 4890      545F4741 
 4890      5454535F 
 4890      44415441 
 4891              	.LASF232:
 4892 0efa 6379426C 		.ascii	"cyBle_scanRspData\000"
 4892      655F7363 
 4892      616E5273 
 4892      70446174 
 4892      6100
 4893              	.LASF29:
 4894 0f0c 4359424C 		.ascii	"CYBLE_EVT_GAP_PASSKEY_DISPLAY_REQUEST\000"
 4894      455F4556 
 4894      545F4741 
ARM GAS  C:\Users\mlgjmoor\AppData\Local\Temp\ccKDuCjD.s 			page 124


 4894      505F5041 
 4894      53534B45 
 4895              	.LASF114:
 4896 0f32 4359424C 		.ascii	"CYBLE_ERROR_IND_DISABLED\000"
 4896      455F4552 
 4896      524F525F 
 4896      494E445F 
 4896      44495341 
 4897              	.LASF113:
 4898 0f4b 4359424C 		.ascii	"CYBLE_ERROR_NTF_DISABLED\000"
 4898      455F4552 
 4898      524F525F 
 4898      4E54465F 
 4898      44495341 
 4899              	.LASF55:
 4900 0f64 4359424C 		.ascii	"CYBLE_EVT_GATTC_READ_RSP\000"
 4900      455F4556 
 4900      545F4741 
 4900      5454435F 
 4900      52454144 
 4901              	.LASF135:
 4902 0f7d 4359424C 		.ascii	"CYBLE_GAPP_CONNECTABLE_HIGH_DC_DIRECTED_ADV\000"
 4902      455F4741 
 4902      50505F43 
 4902      4F4E4E45 
 4902      43544142 
 4903              	.LASF75:
 4904 0fa9 4359424C 		.ascii	"CYBLE_EVT_L2CAP_CBFC_CONN_CNF\000"
 4904      455F4556 
 4904      545F4C32 
 4904      4341505F 
 4904      43424643 
 4905              	.LASF202:
 4906 0fc7 70726976 		.ascii	"privacyConfigParams\000"
 4906      61637943 
 4906      6F6E6669 
 4906      67506172 
 4906      616D7300 
 4907              	.LASF164:
 4908 0fdb 4359424C 		.ascii	"CYBLE_GATTS_ATT_GEN_VAL_LEN_T\000"
 4908      455F4741 
 4908      5454535F 
 4908      4154545F 
 4908      47454E5F 
 4909              	.LASF18:
 4910 0ff9 4359424C 		.ascii	"CYBLE_APP_CB_T\000"
 4910      455F4150 
 4910      505F4342 
 4910      5F5400
 4911              	.LASF157:
 4912 1008 61647654 		.ascii	"advTo\000"
 4912      6F00
 4913              	.LASF25:
 4914 100e 4359424C 		.ascii	"CYBLE_EVT_MEMORY_REQUEST\000"
 4914      455F4556 
 4914      545F4D45 
 4914      4D4F5259 
ARM GAS  C:\Users\mlgjmoor\AppData\Local\Temp\ccKDuCjD.s 			page 125


 4914      5F524551 
 4915              	.LASF220:
 4916 1027 4379426C 		.ascii	"CyBle_Get16ByPtr\000"
 4916      655F4765 
 4916      74313642 
 4916      79507472 
 4916      00
 4917              	.LASF35:
 4918 1038 4359424C 		.ascii	"CYBLE_EVT_GAP_ENCRYPT_CHANGE\000"
 4918      455F4556 
 4918      545F4741 
 4918      505F454E 
 4918      43525950 
 4919              	.LASF49:
 4920 1055 4359424C 		.ascii	"CYBLE_EVT_GATTS_XCNHG_MTU_REQ\000"
 4920      455F4556 
 4920      545F4741 
 4920      5454535F 
 4920      58434E48 
 4921              	.LASF7:
 4922 1073 6C6F6E67 		.ascii	"long long unsigned int\000"
 4922      206C6F6E 
 4922      6720756E 
 4922      7369676E 
 4922      65642069 
 4923              	.LASF21:
 4924 108a 4359424C 		.ascii	"CYBLE_EVT_TIMEOUT\000"
 4924      455F4556 
 4924      545F5449 
 4924      4D454F55 
 4924      5400
 4925              	.LASF208:
 4926 109c 6973466F 		.ascii	"isForceWrite\000"
 4926      72636557 
 4926      72697465 
 4926      00
 4927              	.LASF116:
 4928 10a9 4359424C 		.ascii	"CYBLE_ERROR_INVALID_STATE\000"
 4928      455F4552 
 4928      524F525F 
 4928      494E5641 
 4928      4C49445F 
 4929              	.LASF78:
 4930 10c3 4359424C 		.ascii	"CYBLE_EVT_L2CAP_CBFC_DATA_READ\000"
 4930      455F4556 
 4930      545F4C32 
 4930      4341505F 
 4930      43424643 
 4931              	.LASF222:
 4932 10e2 76616C75 		.ascii	"value\000"
 4932      6500
 4933              	.LASF175:
 4934 10e8 61747456 		.ascii	"attValue\000"
 4934      616C7565 
 4934      00
 4935              	.LASF224:
 4936 10f1 4379426C 		.ascii	"CyBle_ApplCallback\000"
ARM GAS  C:\Users\mlgjmoor\AppData\Local\Temp\ccKDuCjD.s 			page 126


 4936      655F4170 
 4936      706C4361 
 4936      6C6C6261 
 4936      636B00
 4937              	.LASF110:
 4938 1104 4359424C 		.ascii	"CYBLE_ERROR_FLASH_WRITE\000"
 4938      455F4552 
 4938      524F525F 
 4938      464C4153 
 4938      485F5752 
 4939              	.LASF120:
 4940 111c 4359424C 		.ascii	"CYBLE_GAP_BD_ADDR_T\000"
 4940      455F4741 
 4940      505F4244 
 4940      5F414444 
 4940      525F5400 
 4941              	.LASF131:
 4942 1130 70726976 		.ascii	"privacyConfig\000"
 4942      61637943 
 4942      6F6E6669 
 4942      6700
 4943              	.LASF162:
 4944 113e 61637475 		.ascii	"actualLength\000"
 4944      616C4C65 
 4944      6E677468 
 4944      00
 4945              	.LASF150:
 4946 114b 61647644 		.ascii	"advDataLen\000"
 4946      6174614C 
 4946      656E00
 4947              	.LASF190:
 4948 1156 64657374 		.ascii	"dest\000"
 4948      00
 4949              	.LASF158:
 4950 115b 4359424C 		.ascii	"CYBLE_GAPP_DISC_MODE_INFO_T\000"
 4950      455F4741 
 4950      50505F44 
 4950      4953435F 
 4950      4D4F4445 
 4951              	.LASF234:
 4952 1177 6379426C 		.ascii	"cyBle_pendingFlashWrite\000"
 4952      655F7065 
 4952      6E64696E 
 4952      67466C61 
 4952      73685772 
 4953              	.LASF53:
 4954 118f 4359424C 		.ascii	"CYBLE_EVT_GATTC_FIND_INFO_RSP\000"
 4954      455F4556 
 4954      545F4741 
 4954      5454435F 
 4954      46494E44 
 4955              	.LASF52:
 4956 11ad 4359424C 		.ascii	"CYBLE_EVT_GATTC_READ_BY_TYPE_RSP\000"
 4956      455F4556 
 4956      545F4741 
 4956      5454435F 
 4956      52454144 
ARM GAS  C:\Users\mlgjmoor\AppData\Local\Temp\ccKDuCjD.s 			page 127


 4957              	.LASF253:
 4958 11ce 4379426C 		.ascii	"CyBle_GapRemoveDeviceFromWhiteList\000"
 4958      655F4761 
 4958      7052656D 
 4958      6F766544 
 4958      65766963 
 4959              	.LASF206:
 4960 11f1 4379426C 		.ascii	"CyBle_Start\000"
 4960      655F5374 
 4960      61727400 
 4961              	.LASF239:
 4962 11fd 6379426C 		.ascii	"cyBle_state\000"
 4962      655F7374 
 4962      61746500 
 4963              	.LASF201:
 4964 1209 646C6543 		.ascii	"dleConfigParams\000"
 4964      6F6E6669 
 4964      67506172 
 4964      616D7300 
 4965              	.LASF251:
 4966 1219 6D656D63 		.ascii	"memcmp\000"
 4966      6D7000
 4967              	.LASF59:
 4968 1220 4359424C 		.ascii	"CYBLE_EVT_GATTC_WRITE_RSP\000"
 4968      455F4556 
 4968      545F4741 
 4968      5454435F 
 4968      57524954 
 4969              	.LASF187:
 4970 123a 4359424C 		.ascii	"CYBLE_STATE_DISCONNECTED\000"
 4970      455F5354 
 4970      4154455F 
 4970      44495343 
 4970      4F4E4E45 
 4971              	.LASF170:
 4972 1253 4359424C 		.ascii	"CYBLE_GATTS_ATT_VALUE_T\000"
 4972      455F4741 
 4972      5454535F 
 4972      4154545F 
 4972      56414C55 
 4973              	.LASF167:
 4974 126b 4359424C 		.ascii	"CYBLE_GATTS_ATT_PACK_VAL_LEN_T\000"
 4974      455F4741 
 4974      5454535F 
 4974      4154545F 
 4974      5041434B 
 4975              	.LASF32:
 4976 128a 4359424C 		.ascii	"CYBLE_EVT_GAPP_ADVERTISEMENT_START_STOP\000"
 4976      455F4556 
 4976      545F4741 
 4976      50505F41 
 4976      44564552 
 4977              	.LASF154:
 4978 12b2 4359424C 		.ascii	"CYBLE_GAPP_SCAN_RSP_DATA_T\000"
 4978      455F4741 
 4978      50505F53 
 4978      43414E5F 
ARM GAS  C:\Users\mlgjmoor\AppData\Local\Temp\ccKDuCjD.s 			page 128


 4978      5253505F 
 4979              	.LASF163:
 4980 12cd 61747447 		.ascii	"attGenericVal\000"
 4980      656E6572 
 4980      69635661 
 4980      6C00
 4981              	.LASF189:
 4982 12db 6E616D65 		.ascii	"name\000"
 4982      00
 4983              	.LASF9:
 4984 12e0 75696E74 		.ascii	"uint8\000"
 4984      3800
 4985              	.LASF225:
 4986 12e6 6379426C 		.ascii	"cyBle_initVar\000"
 4986      655F696E 
 4986      69745661 
 4986      7200
 4987              	.LASF40:
 4988 12f4 4359424C 		.ascii	"CYBLE_EVT_GAP_KEYPRESS_NOTIFICATION\000"
 4988      455F4556 
 4988      545F4741 
 4988      505F4B45 
 4988      59505245 
 4989              	.LASF240:
 4990 1318 6379426C 		.ascii	"cyBle_connHandle\000"
 4990      655F636F 
 4990      6E6E4861 
 4990      6E646C65 
 4990      00
 4991              	.LASF2:
 4992 1329 73686F72 		.ascii	"short int\000"
 4992      7420696E 
 4992      7400
 4993              	.LASF217:
 4994 1333 4379426C 		.ascii	"CyBle_GapSetLocalName\000"
 4994      655F4761 
 4994      70536574 
 4994      4C6F6361 
 4994      6C4E616D 
 4995              	.LASF166:
 4996 1349 61747447 		.ascii	"attGenericValLen\000"
 4996      656E6572 
 4996      69635661 
 4996      6C4C656E 
 4996      00
 4997              	.LASF168:
 4998 135a 61747446 		.ascii	"attFormatValue\000"
 4998      6F726D61 
 4998      7456616C 
 4998      756500
 4999              	.LASF153:
 5000 1369 7363616E 		.ascii	"scanRspDataLen\000"
 5000      52737044 
 5000      6174614C 
 5000      656E00
 5001              	.LASF108:
 5002 1378 4359424C 		.ascii	"CYBLE_ERROR_HARDWARE_FAILURE\000"
ARM GAS  C:\Users\mlgjmoor\AppData\Local\Temp\ccKDuCjD.s 			page 129


 5002      455F4552 
 5002      524F525F 
 5002      48415244 
 5002      57415245 
 5003              	.LASF247:
 5004 1395 4379426C 		.ascii	"CyBle_GattsDbRegister\000"
 5004      655F4761 
 5004      74747344 
 5004      62526567 
 5004      69737465 
 5005              	.LASF46:
 5006 13ab 4359424C 		.ascii	"CYBLE_EVT_GATTC_ERROR_RSP\000"
 5006      455F4556 
 5006      545F4741 
 5006      5454435F 
 5006      4552524F 
 5007              	.LASF188:
 5008 13c5 4359424C 		.ascii	"CYBLE_STATE_T\000"
 5008      455F5354 
 5008      4154455F 
 5008      5400
 5009              	.LASF136:
 5010 13d3 4359424C 		.ascii	"CYBLE_GAPP_SCANNABLE_UNDIRECTED_ADV\000"
 5010      455F4741 
 5010      50505F53 
 5010      43414E4E 
 5010      41424C45 
 5011              	.LASF74:
 5012 13f7 4359424C 		.ascii	"CYBLE_EVT_L2CAP_CBFC_CONN_IND\000"
 5012      455F4556 
 5012      545F4C32 
 5012      4341505F 
 5012      43424643 
 5013              	.LASF62:
 5014 1415 4359424C 		.ascii	"CYBLE_EVT_GATTS_EXEC_WRITE_REQ\000"
 5014      455F4556 
 5014      545F4741 
 5014      5454535F 
 5014      45584543 
 5015              	.LASF26:
 5016 1434 4359424C 		.ascii	"CYBLE_EVT_GAPC_SCAN_PROGRESS_RESULT\000"
 5016      455F4556 
 5016      545F4741 
 5016      50435F53 
 5016      43414E5F 
 5017              	.LASF180:
 5018 1458 63636364 		.ascii	"cccdCount\000"
 5018      436F756E 
 5018      7400
 5019              	.LASF233:
 5020 1462 6379426C 		.ascii	"cyBle_discoveryModeInfo\000"
 5020      655F6469 
 5020      73636F76 
 5020      6572794D 
 5020      6F646549 
 5021              	.LASF94:
 5022 147a 4359424C 		.ascii	"CYBLE_ERROR_GAP_ROLE\000"
ARM GAS  C:\Users\mlgjmoor\AppData\Local\Temp\ccKDuCjD.s 			page 130


 5022      455F4552 
 5022      524F525F 
 5022      4741505F 
 5022      524F4C45 
 5023              	.LASF226:
 5024 148f 6379426C 		.ascii	"cyBle_stackMemoryRam\000"
 5024      655F7374 
 5024      61636B4D 
 5024      656D6F72 
 5024      7952616D 
 5025              	.LASF118:
 5026 14a4 62644164 		.ascii	"bdAddr\000"
 5026      647200
 5027              	.LASF227:
 5028 14ab 6379426C 		.ascii	"cyBle_eventHandlerFlag\000"
 5028      655F6576 
 5028      656E7448 
 5028      616E646C 
 5028      6572466C 
 5029              	.LASF207:
 5030 14c2 4379426C 		.ascii	"CyBle_StoreBondingData\000"
 5030      655F5374 
 5030      6F726542 
 5030      6F6E6469 
 5030      6E674461 
 5031              	.LASF91:
 5032 14d9 4359424C 		.ascii	"CYBLE_ERROR_NO_CONNECTION\000"
 5032      455F4552 
 5032      524F525F 
 5032      4E4F5F43 
 5032      4F4E4E45 
 5033              	.LASF260:
 5034 14f3 6D656D63 		.ascii	"memcpy\000"
 5034      707900
 5035              	.LASF193:
 5036 14fa 62797465 		.ascii	"byteCounter\000"
 5036      436F756E 
 5036      74657200 
 5037              	.LASF83:
 5038 1506 4359424C 		.ascii	"CYBLE_EVT_LE_PING_AUTH_TIMEOUT\000"
 5038      455F4556 
 5038      545F4C45 
 5038      5F50494E 
 5038      475F4155 
 5039              	.LASF117:
 5040 1525 4359424C 		.ascii	"CYBLE_API_RESULT_T\000"
 5040      455F4150 
 5040      495F5245 
 5040      53554C54 
 5040      5F5400
 5041              	.LASF237:
 5042 1538 6379426C 		.ascii	"cyBle_attValuesCCCD\000"
 5042      655F6174 
 5042      7456616C 
 5042      75657343 
 5042      43434400 
 5043              	.LASF65:
ARM GAS  C:\Users\mlgjmoor\AppData\Local\Temp\ccKDuCjD.s 			page 131


 5044 154c 4359424C 		.ascii	"CYBLE_EVT_GATTC_HANDLE_VALUE_IND\000"
 5044      455F4556 
 5044      545F4741 
 5044      5454435F 
 5044      48414E44 
 5045              	.LASF97:
 5046 156d 4359424C 		.ascii	"CYBLE_ERROR_SEC_FAILED\000"
 5046      455F4552 
 5046      524F525F 
 5046      5345435F 
 5046      4641494C 
 5047              	.LASF212:
 5048 1584 696E7661 		.ascii	"invalidBdAddr\000"
 5048      6C696442 
 5048      64416464 
 5048      7200
 5049              	.LASF24:
 5050 1592 4359424C 		.ascii	"CYBLE_EVT_STACK_BUSY_STATUS\000"
 5050      455F4556 
 5050      545F5354 
 5050      41434B5F 
 5050      42555359 
 5051              	.LASF38:
 5052 15ae 4359424C 		.ascii	"CYBLE_EVT_GAP_KEYINFO_EXCHNGE_CMPLT\000"
 5052      455F4556 
 5052      545F4741 
 5052      505F4B45 
 5052      59494E46 
 5053              	.LASF71:
 5054 15d2 4359424C 		.ascii	"CYBLE_EVT_L2CAP_CONN_PARAM_UPDATE_REQ\000"
 5054      455F4556 
 5054      545F4C32 
 5054      4341505F 
 5054      434F4E4E 
 5055              	.LASF231:
 5056 15f8 6379426C 		.ascii	"cyBle_discoveryData\000"
 5056      655F6469 
 5056      73636F76 
 5056      65727944 
 5056      61746100 
 5057              	.LASF3:
 5058 160c 73686F72 		.ascii	"short unsigned int\000"
 5058      7420756E 
 5058      7369676E 
 5058      65642069 
 5058      6E7400
 5059              	.LASF145:
 5060 161f 64697265 		.ascii	"directAddr\000"
 5060      63744164 
 5060      647200
 5061              	.LASF185:
 5062 162a 4359424C 		.ascii	"CYBLE_STATE_CONNECTED\000"
 5062      455F5354 
 5062      4154455F 
 5062      434F4E4E 
 5062      45435445 
 5063              	.LASF125:
ARM GAS  C:\Users\mlgjmoor\AppData\Local\Temp\ccKDuCjD.s 			page 132


 5064 1640 646C654D 		.ascii	"dleMaxRxCapability\000"
 5064      61785278 
 5064      43617061 
 5064      62696C69 
 5064      747900
 5065              	.LASF146:
 5066 1653 61647643 		.ascii	"advChannelMap\000"
 5066      68616E6E 
 5066      656C4D61 
 5066      7000
 5067              	.LASF134:
 5068 1661 4359424C 		.ascii	"CYBLE_GAPP_CONNECTABLE_UNDIRECTED_ADV\000"
 5068      455F4741 
 5068      50505F43 
 5068      4F4E4E45 
 5068      43544142 
 5069              	.LASF160:
 5070 1687 61747449 		.ascii	"attId\000"
 5070      6400
 5071              	.LASF87:
 5072 168d 4359424C 		.ascii	"CYBLE_ERROR_INVALID_OPERATION\000"
 5072      455F4552 
 5072      524F525F 
 5072      494E5641 
 5072      4C49445F 
 5073              	.LASF192:
 5074 16ab 61644C65 		.ascii	"adLength\000"
 5074      6E677468 
 5074      00
 5075              	.LASF23:
 5076 16b4 4359424C 		.ascii	"CYBLE_EVT_HCI_STATUS\000"
 5076      455F4556 
 5076      545F4843 
 5076      495F5354 
 5076      41545553 
 5077              	.LASF48:
 5078 16c9 4359424C 		.ascii	"CYBLE_EVT_GATT_DISCONNECT_IND\000"
 5078      455F4556 
 5078      545F4741 
 5078      54545F44 
 5078      4953434F 
 5079              	.LASF81:
 5080 16e7 4359424C 		.ascii	"CYBLE_EVT_L2CAP_CBFC_DATA_WRITE_IND\000"
 5080      455F4556 
 5080      545F4C32 
 5080      4341505F 
 5080      43424643 
 5081              	.LASF70:
 5082 170b 4359424C 		.ascii	"CYBLE_EVT_GATTC_LONG_PROCEDURE_END\000"
 5082      455F4556 
 5082      545F4741 
 5082      5454435F 
 5082      4C4F4E47 
 5083              	.LASF34:
 5084 172e 4359424C 		.ascii	"CYBLE_EVT_GAP_DEVICE_DISCONNECTED\000"
 5084      455F4556 
 5084      545F4741 
ARM GAS  C:\Users\mlgjmoor\AppData\Local\Temp\ccKDuCjD.s 			page 133


 5084      505F4445 
 5084      56494345 
 5085              	.LASF66:
 5086 1750 4359424C 		.ascii	"CYBLE_EVT_GATTS_HANDLE_VALUE_CNF\000"
 5086      455F4556 
 5086      545F4741 
 5086      5454535F 
 5086      48414E44 
 5087              	.LASF10:
 5088 1771 75696E74 		.ascii	"uint16\000"
 5088      313600
 5089              	.LASF143:
 5090 1778 6F776E41 		.ascii	"ownAddrType\000"
 5090      64647254 
 5090      79706500 
 5091              	.LASF95:
 5092 1784 4359424C 		.ascii	"CYBLE_ERROR_TX_POWER_READ\000"
 5092      455F4552 
 5092      524F525F 
 5092      54585F50 
 5092      4F574552 
 5093              	.LASF141:
 5094 179e 61647649 		.ascii	"advIntvMax\000"
 5094      6E74764D 
 5094      617800
 5095              		.ident	"GCC: (GNU Tools for ARM Embedded Processors) 4.9.3 20150303 (release) [ARM/embedded-4_9-br
