ARM GAS  C:\Users\mlgjmoor\AppData\Local\Temp\ccKDuCjD.s 			page 1


   1              		.cpu cortex-m0
   2              		.fpu softvfp
   3              		.eabi_attribute 20, 1
   4              		.eabi_attribute 21, 1
   5              		.eabi_attribute 23, 3
   6              		.eabi_attribute 24, 1
   7              		.eabi_attribute 25, 1
   8              		.eabi_attribute 26, 1
   9              		.eabi_attribute 30, 1
  10              		.eabi_attribute 34, 0
  11              		.eabi_attribute 18, 4
  12              		.code	16
  13              		.file	"BLE.c"
  14              		.text
  15              	.Ltext0:
  16              		.cfi_sections	.debug_frame
  17              		.section	.text.CyBle_ChangeAdLocalName,"ax",%progbits
  18              		.align	2
  19              		.code	16
  20              		.thumb_func
  21              		.type	CyBle_ChangeAdLocalName, %function
  22              	CyBle_ChangeAdLocalName:
  23              	.LFB11:
  24              		.file 1 ".\\Generated_Source\\PSoC4\\BLE.c"
   1:.\Generated_Source\PSoC4/BLE.c **** /***************************************************************************//**
   2:.\Generated_Source\PSoC4/BLE.c **** * \file CYBLE.c
   3:.\Generated_Source\PSoC4/BLE.c **** * \version 3.10
   4:.\Generated_Source\PSoC4/BLE.c **** * 
   5:.\Generated_Source\PSoC4/BLE.c **** * \brief
   6:.\Generated_Source\PSoC4/BLE.c **** *  This file contains the source code for the Common APIs of the BLE Component.
   7:.\Generated_Source\PSoC4/BLE.c **** * 
   8:.\Generated_Source\PSoC4/BLE.c **** ********************************************************************************
   9:.\Generated_Source\PSoC4/BLE.c **** * \copyright
  10:.\Generated_Source\PSoC4/BLE.c **** * Copyright 2014-2016, Cypress Semiconductor Corporation.  All rights reserved.
  11:.\Generated_Source\PSoC4/BLE.c **** * You may use this file only in accordance with the license, terms, conditions,
  12:.\Generated_Source\PSoC4/BLE.c **** * disclaimers, and limitations in the end user license agreement accompanying
  13:.\Generated_Source\PSoC4/BLE.c **** * the software package with which this file was provided.
  14:.\Generated_Source\PSoC4/BLE.c **** *******************************************************************************/
  15:.\Generated_Source\PSoC4/BLE.c **** 
  16:.\Generated_Source\PSoC4/BLE.c **** #include "BLE_eventHandler.h"
  17:.\Generated_Source\PSoC4/BLE.c **** #include "BLE_HAL_PVT.h"
  18:.\Generated_Source\PSoC4/BLE.c **** #include <stdlib.h>
  19:.\Generated_Source\PSoC4/BLE.c **** 
  20:.\Generated_Source\PSoC4/BLE.c **** 
  21:.\Generated_Source\PSoC4/BLE.c **** /***************************************
  22:.\Generated_Source\PSoC4/BLE.c **** * Function Prototypes
  23:.\Generated_Source\PSoC4/BLE.c **** ***************************************/
  24:.\Generated_Source\PSoC4/BLE.c **** 
  25:.\Generated_Source\PSoC4/BLE.c **** #if(CYBLE_GATT_ROLE_SERVER)
  26:.\Generated_Source\PSoC4/BLE.c ****     #if(CYBLE_GAP_ROLE_PERIPHERAL)
  27:.\Generated_Source\PSoC4/BLE.c ****         static void CyBle_ChangeAdLocalName(const char8 name[], uint8 dest);
  28:.\Generated_Source\PSoC4/BLE.c ****     #endif /* (CYBLE_GAP_ROLE_PERIPHERAL) */
  29:.\Generated_Source\PSoC4/BLE.c **** #endif /* (CYBLE_GATT_ROLE_SERVER) */
  30:.\Generated_Source\PSoC4/BLE.c ****     
  31:.\Generated_Source\PSoC4/BLE.c **** 
  32:.\Generated_Source\PSoC4/BLE.c **** /***************************************
  33:.\Generated_Source\PSoC4/BLE.c **** * Global Variables
ARM GAS  C:\Users\mlgjmoor\AppData\Local\Temp\ccKDuCjD.s 			page 2


  34:.\Generated_Source\PSoC4/BLE.c **** ***************************************/
  35:.\Generated_Source\PSoC4/BLE.c **** 
  36:.\Generated_Source\PSoC4/BLE.c **** /* Indicates whether the BLE has been initialized. The variable is initialized to
  37:.\Generated_Source\PSoC4/BLE.c ****    0 and set to 1 the first time CyBle_Start() is called. This allows the component
  38:.\Generated_Source\PSoC4/BLE.c ****    to restart without reinitialization after the first call to the CyBle_Start() 
  39:.\Generated_Source\PSoC4/BLE.c ****    routine. If reinitialization of the component is required, the variable should 
  40:.\Generated_Source\PSoC4/BLE.c ****    be set to 0 before the CyBle_Start() routine is called. Alternatively, the BLE
  41:.\Generated_Source\PSoC4/BLE.c ****    can be reinitialized by calling the CyBle_Init() function.
  42:.\Generated_Source\PSoC4/BLE.c **** */
  43:.\Generated_Source\PSoC4/BLE.c **** uint8  cyBle_initVar = 0u;
  44:.\Generated_Source\PSoC4/BLE.c **** 
  45:.\Generated_Source\PSoC4/BLE.c **** /* Allocate RAM memory for stack. This buffer could be reused by application when 
  46:.\Generated_Source\PSoC4/BLE.c ****    BLE component is stopped. For export mode buffer is allocated in heap.
  47:.\Generated_Source\PSoC4/BLE.c **** */
  48:.\Generated_Source\PSoC4/BLE.c **** #if(CYBLE_SHARING_MODE_EXPORT)
  49:.\Generated_Source\PSoC4/BLE.c ****     
  50:.\Generated_Source\PSoC4/BLE.c **** uint8 *cyBle_stackMemoryRam = NULL;
  51:.\Generated_Source\PSoC4/BLE.c **** 
  52:.\Generated_Source\PSoC4/BLE.c **** #else
  53:.\Generated_Source\PSoC4/BLE.c **** 
  54:.\Generated_Source\PSoC4/BLE.c **** CYBLE_CYALIGNED_BEGIN CY_NOINIT uint8 cyBle_stackMemoryRam[CYBLE_STACK_RAM_SIZE] CYBLE_CYALIGNED_EN
  55:.\Generated_Source\PSoC4/BLE.c **** 
  56:.\Generated_Source\PSoC4/BLE.c **** #endif  /* CYBLE_SHARING_MODE_EXPORT */
  57:.\Generated_Source\PSoC4/BLE.c **** 
  58:.\Generated_Source\PSoC4/BLE.c **** #if(CYBLE_GAP_ROLE_PERIPHERAL || CYBLE_GAP_ROLE_BROADCASTER)
  59:.\Generated_Source\PSoC4/BLE.c **** 
  60:.\Generated_Source\PSoC4/BLE.c **** CYBLE_GAPP_DISC_PARAM_T cyBle_discoveryParam =
  61:.\Generated_Source\PSoC4/BLE.c **** {
  62:.\Generated_Source\PSoC4/BLE.c ****     0x0020u,    /* uint16 advertising_interval_min */
  63:.\Generated_Source\PSoC4/BLE.c ****     0x0030u,    /* uint16 advertising_interval_max */
  64:.\Generated_Source\PSoC4/BLE.c ****     CYBLE_GAPP_CONNECTABLE_UNDIRECTED_ADV, /* uint8 advertising_type */
  65:.\Generated_Source\PSoC4/BLE.c ****     0x00u,      /* uint8 own_addr_type */
  66:.\Generated_Source\PSoC4/BLE.c ****     0x00u,      /* uint8 direct_addr_type */
  67:.\Generated_Source\PSoC4/BLE.c ****     {0x00u, 0x00u, 0x00u, 0x50u, 0xA0u, 0x00u}, /* uint8* direct_addr */
  68:.\Generated_Source\PSoC4/BLE.c ****     0x07u,      /* uint8 advertising_channel_map */
  69:.\Generated_Source\PSoC4/BLE.c ****     0x00u,      /* uint8 advertising_filter_policy */
  70:.\Generated_Source\PSoC4/BLE.c **** };
  71:.\Generated_Source\PSoC4/BLE.c **** 
  72:.\Generated_Source\PSoC4/BLE.c **** CYBLE_GAPP_DISC_DATA_T cyBle_discoveryData =
  73:.\Generated_Source\PSoC4/BLE.c **** {
  74:.\Generated_Source\PSoC4/BLE.c ****     { 0x02u, 0x01u, 0x06u, 0x08u, 0x09u, 0x4Eu, 0x6Fu,
  75:.\Generated_Source\PSoC4/BLE.c ****     0x64u, 0x75u, 0x73u, 0x20u, 0x43u, 0x11u, 0x07u, 0xFBu,
  76:.\Generated_Source\PSoC4/BLE.c ****     0x34u, 0x9Bu, 0x5Fu, 0x80u, 0x00u, 0x00u, 0x80u, 0x00u,
  77:.\Generated_Source\PSoC4/BLE.c ****     0x10u, 0x00u, 0x00u, 0x00u, 0x00u, 0x00u, 0x00u, 0x00u }, /* uint8 advertising_data[CYBLE_MAX_A
  78:.\Generated_Source\PSoC4/BLE.c ****     0x1Eu,      /* uint8 adv_data_length */
  79:.\Generated_Source\PSoC4/BLE.c **** };
  80:.\Generated_Source\PSoC4/BLE.c **** 
  81:.\Generated_Source\PSoC4/BLE.c **** CYBLE_GAPP_SCAN_RSP_DATA_T cyBle_scanRspData =
  82:.\Generated_Source\PSoC4/BLE.c **** {
  83:.\Generated_Source\PSoC4/BLE.c ****     { 0x00u, 0x00u, 0x00u, 0x00u, 0x00u, 0x00u, 0x00u,
  84:.\Generated_Source\PSoC4/BLE.c ****     0x00u, 0x00u, 0x00u, 0x00u, 0x00u, 0x00u, 0x00u, 0x00u,
  85:.\Generated_Source\PSoC4/BLE.c ****     0x00u, 0x00u, 0x00u, 0x00u, 0x00u, 0x00u, 0x00u, 0x00u,
  86:.\Generated_Source\PSoC4/BLE.c ****     0x00u, 0x00u, 0x00u, 0x00u, 0x00u, 0x00u, 0x00u, 0x00u }, /* uint8 scan_rsp_data[CYBLE_MAX_SCAN
  87:.\Generated_Source\PSoC4/BLE.c ****     0x00u,      /* uint8 scan_rsp_data_length */
  88:.\Generated_Source\PSoC4/BLE.c **** };
  89:.\Generated_Source\PSoC4/BLE.c **** 
  90:.\Generated_Source\PSoC4/BLE.c **** /* This variable of type CYBLE_GAPP_DISC_MODE_INFO_T is present only when 
ARM GAS  C:\Users\mlgjmoor\AppData\Local\Temp\ccKDuCjD.s 			page 3


  91:.\Generated_Source\PSoC4/BLE.c ****    the BLE component is configured for Peripheral GAP role or Central and 
  92:.\Generated_Source\PSoC4/BLE.c ****    Peripheral GAP role. It contains the Advertisement settings and also the 
  93:.\Generated_Source\PSoC4/BLE.c ****    Advertisement and Scan response data parameters entered in the customizer.
  94:.\Generated_Source\PSoC4/BLE.c ****    This variable can be used by advanced users to change Advertisement settings,
  95:.\Generated_Source\PSoC4/BLE.c ****    Advertisement or Scan response data in runtime. 
  96:.\Generated_Source\PSoC4/BLE.c **** */
  97:.\Generated_Source\PSoC4/BLE.c **** CYBLE_GAPP_DISC_MODE_INFO_T cyBle_discoveryModeInfo =
  98:.\Generated_Source\PSoC4/BLE.c **** {
  99:.\Generated_Source\PSoC4/BLE.c ****     0x02u,      /* uint8 discMode */
 100:.\Generated_Source\PSoC4/BLE.c ****     &cyBle_discoveryParam,
 101:.\Generated_Source\PSoC4/BLE.c ****     &cyBle_discoveryData,
 102:.\Generated_Source\PSoC4/BLE.c ****     &cyBle_scanRspData,
 103:.\Generated_Source\PSoC4/BLE.c ****     0x001Eu,    /* uint16 advTo */
 104:.\Generated_Source\PSoC4/BLE.c **** };
 105:.\Generated_Source\PSoC4/BLE.c **** 
 106:.\Generated_Source\PSoC4/BLE.c **** 
 107:.\Generated_Source\PSoC4/BLE.c **** #endif /* CYBLE_GAP_ROLE_PERIPHERAL || CYBLE_GAP_ROLE_BROADCASTER */
 108:.\Generated_Source\PSoC4/BLE.c **** 
 109:.\Generated_Source\PSoC4/BLE.c **** #if(CYBLE_GAP_ROLE_CENTRAL)
 110:.\Generated_Source\PSoC4/BLE.c ****     
 111:.\Generated_Source\PSoC4/BLE.c **** CYBLE_GAPC_CONN_PARAM_T cyBle_connectionParameters;
 112:.\Generated_Source\PSoC4/BLE.c **** 
 113:.\Generated_Source\PSoC4/BLE.c **** /* Connecting timeout is set to 30 seconds in CyBle_Init function. 
 114:.\Generated_Source\PSoC4/BLE.c ****    Not zero value starts timer in CyBle_GapcConnectDevice API.
 115:.\Generated_Source\PSoC4/BLE.c **** */
 116:.\Generated_Source\PSoC4/BLE.c **** uint16 cyBle_connectingTimeout;
 117:.\Generated_Source\PSoC4/BLE.c ****     
 118:.\Generated_Source\PSoC4/BLE.c **** #endif /* CYBLE_GAP_ROLE_CENTRAL */
 119:.\Generated_Source\PSoC4/BLE.c **** 
 120:.\Generated_Source\PSoC4/BLE.c **** #if(CYBLE_GAP_ROLE_CENTRAL || CYBLE_GAP_ROLE_OBSERVER)
 121:.\Generated_Source\PSoC4/BLE.c ****     
 122:.\Generated_Source\PSoC4/BLE.c **** 
 123:.\Generated_Source\PSoC4/BLE.c ****     
 124:.\Generated_Source\PSoC4/BLE.c **** #endif /* CYBLE_GAP_ROLE_CENTRAL || CYBLE_GAP_ROLE_OBSERVER */
 125:.\Generated_Source\PSoC4/BLE.c **** 
 126:.\Generated_Source\PSoC4/BLE.c **** #if((CYBLE_GAP_ROLE_PERIPHERAL || CYBLE_GAP_ROLE_CENTRAL) && (CYBLE_BONDING_REQUIREMENT == CYBLE_BO
 127:.\Generated_Source\PSoC4/BLE.c **** 
 128:.\Generated_Source\PSoC4/BLE.c **** uint8 cyBle_peerBonding;
 129:.\Generated_Source\PSoC4/BLE.c **** uint8 cyBle_pendingFlashWrite;
 130:.\Generated_Source\PSoC4/BLE.c ****     
 131:.\Generated_Source\PSoC4/BLE.c **** #if(CYBLE_GATT_DB_CCCD_COUNT != 0u)
 132:.\Generated_Source\PSoC4/BLE.c ****     static uint8 cyBle_pendingFlashClearCccdHandle;
 133:.\Generated_Source\PSoC4/BLE.c **** #endif /* CYBLE_GATT_DB_CCCD_COUNT != 0u */
 134:.\Generated_Source\PSoC4/BLE.c ****     
 135:.\Generated_Source\PSoC4/BLE.c **** #endif  /* (CYBLE_BONDING_REQUIREMENT == CYBLE_BONDING_YES) */
 136:.\Generated_Source\PSoC4/BLE.c **** 
 137:.\Generated_Source\PSoC4/BLE.c **** CYBLE_CALLBACK_T CyBle_ApplCallback;
 138:.\Generated_Source\PSoC4/BLE.c **** CYBLE_GAP_BD_ADDR_T cyBle_deviceAddress = {{0x00u, 0x00u, 0x00u, 0x50u, 0xA0u, 0x00u}, 0x00u };
 139:.\Generated_Source\PSoC4/BLE.c **** CYBLE_GAP_BD_ADDR_T * cyBle_sflashDeviceAddress = CYBLE_SFLASH_DEVICE_ADDRESS_PTR;
 140:.\Generated_Source\PSoC4/BLE.c **** 
 141:.\Generated_Source\PSoC4/BLE.c **** 
 142:.\Generated_Source\PSoC4/BLE.c **** /******************************************************************************
 143:.\Generated_Source\PSoC4/BLE.c **** * Function Name: CyBle_Init
 144:.\Generated_Source\PSoC4/BLE.c **** ***************************************************************************//**
 145:.\Generated_Source\PSoC4/BLE.c **** *
 146:.\Generated_Source\PSoC4/BLE.c **** *   Initializes the component with the parameters set in the customizer.
 147:.\Generated_Source\PSoC4/BLE.c **** * 
ARM GAS  C:\Users\mlgjmoor\AppData\Local\Temp\ccKDuCjD.s 			page 4


 148:.\Generated_Source\PSoC4/BLE.c **** *  \return
 149:.\Generated_Source\PSoC4/BLE.c **** *   None
 150:.\Generated_Source\PSoC4/BLE.c **** * 
 151:.\Generated_Source\PSoC4/BLE.c **** ******************************************************************************/
 152:.\Generated_Source\PSoC4/BLE.c **** void CyBle_Init(void)
 153:.\Generated_Source\PSoC4/BLE.c **** {
 154:.\Generated_Source\PSoC4/BLE.c ****     cyBle_eventHandlerFlag = 0u;
 155:.\Generated_Source\PSoC4/BLE.c ****     cyBle_busyStatus = CYBLE_STACK_STATE_FREE;
 156:.\Generated_Source\PSoC4/BLE.c **** 
 157:.\Generated_Source\PSoC4/BLE.c ****     #if(CYBLE_GAP_ROLE_PERIPHERAL || CYBLE_GAP_ROLE_BROADCASTER) 
 158:.\Generated_Source\PSoC4/BLE.c ****         cyBle_advertisingIntervalType = CYBLE_ADVERTISING_FAST; 
 159:.\Generated_Source\PSoC4/BLE.c ****     #endif /* (CYBLE_GAP_ROLE_PERIPHERAL || CYBLE_GAP_ROLE_BROADCASTER)  */
 160:.\Generated_Source\PSoC4/BLE.c ****     #if(CYBLE_GAP_ROLE_CENTRAL || CYBLE_GAP_ROLE_OBSERVER)
 161:.\Generated_Source\PSoC4/BLE.c ****         cyBle_scanningIntervalType = CYBLE_SCANNING_FAST; 
 162:.\Generated_Source\PSoC4/BLE.c ****     #endif /* (CYBLE_GAP_ROLE_CENTRAL || CYBLE_GAP_ROLE_OBSERVER) */
 163:.\Generated_Source\PSoC4/BLE.c ****         
 164:.\Generated_Source\PSoC4/BLE.c ****     /* Init default connection parameters. 
 165:.\Generated_Source\PSoC4/BLE.c ****        Application may change it before initiating a connection */
 166:.\Generated_Source\PSoC4/BLE.c ****     #if(CYBLE_GAP_ROLE_CENTRAL)
 167:.\Generated_Source\PSoC4/BLE.c ****         cyBle_connectionParameters.scanIntv = cyBle_discoveryInfo.scanIntv;
 168:.\Generated_Source\PSoC4/BLE.c ****         cyBle_connectionParameters.scanWindow = cyBle_discoveryInfo.scanWindow;
 169:.\Generated_Source\PSoC4/BLE.c ****         cyBle_connectionParameters.ownAddrType = cyBle_discoveryInfo.ownAddrType;
 170:.\Generated_Source\PSoC4/BLE.c ****         cyBle_connectionParameters.initiatorFilterPolicy = cyBle_discoveryInfo.scanFilterPolicy;
 171:.\Generated_Source\PSoC4/BLE.c ****         cyBle_connectionParameters.connIntvMin = CYBLE_GAPC_CONNECTION_INTERVAL_MIN;
 172:.\Generated_Source\PSoC4/BLE.c ****         cyBle_connectionParameters.connIntvMax = CYBLE_GAPC_CONNECTION_INTERVAL_MAX;
 173:.\Generated_Source\PSoC4/BLE.c ****         cyBle_connectionParameters.connLatency = CYBLE_GAPC_CONNECTION_SLAVE_LATENCY;
 174:.\Generated_Source\PSoC4/BLE.c ****         cyBle_connectionParameters.supervisionTO = CYBLE_GAPC_CONNECTION_TIME_OUT;
 175:.\Generated_Source\PSoC4/BLE.c ****         cyBle_connectionParameters.minCeLength = 0x0000u;
 176:.\Generated_Source\PSoC4/BLE.c ****         cyBle_connectionParameters.maxCeLength = 0xFFFFu;
 177:.\Generated_Source\PSoC4/BLE.c ****         
 178:.\Generated_Source\PSoC4/BLE.c ****         cyBle_connectingTimeout = CYBLE_GAPC_CONNECTING_TIMEOUT;
 179:.\Generated_Source\PSoC4/BLE.c ****     #endif /* CYBLE_GAP_ROLE_CENTRAL */
 180:.\Generated_Source\PSoC4/BLE.c **** 
 181:.\Generated_Source\PSoC4/BLE.c ****     CyBle_ServiceInit();
 182:.\Generated_Source\PSoC4/BLE.c **** 
 183:.\Generated_Source\PSoC4/BLE.c ****     #if((CYBLE_GAP_ROLE_PERIPHERAL || CYBLE_GAP_ROLE_CENTRAL) && (CYBLE_BONDING_REQUIREMENT == CYBL
 184:.\Generated_Source\PSoC4/BLE.c ****         cyBle_pendingFlashWrite = 0u;
 185:.\Generated_Source\PSoC4/BLE.c ****         cyBle_peerBonding = CYBLE_GAP_BONDING_NONE;
 186:.\Generated_Source\PSoC4/BLE.c ****     #endif  /* (CYBLE_BONDING_REQUIREMENT == CYBLE_BONDING_YES) */
 187:.\Generated_Source\PSoC4/BLE.c **** 
 188:.\Generated_Source\PSoC4/BLE.c **** }
 189:.\Generated_Source\PSoC4/BLE.c **** 
 190:.\Generated_Source\PSoC4/BLE.c **** 
 191:.\Generated_Source\PSoC4/BLE.c **** /******************************************************************************
 192:.\Generated_Source\PSoC4/BLE.c **** * Function Name: CyBle_ServiceInit
 193:.\Generated_Source\PSoC4/BLE.c **** ***************************************************************************//**
 194:.\Generated_Source\PSoC4/BLE.c **** * 
 195:.\Generated_Source\PSoC4/BLE.c **** *  Initializes all included services.
 196:.\Generated_Source\PSoC4/BLE.c **** * 
 197:.\Generated_Source\PSoC4/BLE.c **** * \return
 198:.\Generated_Source\PSoC4/BLE.c **** *  None
 199:.\Generated_Source\PSoC4/BLE.c **** * 
 200:.\Generated_Source\PSoC4/BLE.c **** ******************************************************************************/
 201:.\Generated_Source\PSoC4/BLE.c **** void CyBle_ServiceInit(void)
 202:.\Generated_Source\PSoC4/BLE.c **** {
 203:.\Generated_Source\PSoC4/BLE.c ****     #if(CYBLE_GATT_ROLE_CLIENT)
 204:.\Generated_Source\PSoC4/BLE.c ****         /* Check service range before clearing to support partial discovery */
ARM GAS  C:\Users\mlgjmoor\AppData\Local\Temp\ccKDuCjD.s 			page 5


 205:.\Generated_Source\PSoC4/BLE.c ****         if(cyBle_serverInfo[CYBLE_SRVI_GAP].range.startHandle == CYBLE_GATT_INVALID_ATTR_HANDLE_VAL
 206:.\Generated_Source\PSoC4/BLE.c ****         {
 207:.\Generated_Source\PSoC4/BLE.c ****             (void)memset(&cyBle_gapc, 0, sizeof(cyBle_gapc));
 208:.\Generated_Source\PSoC4/BLE.c ****         }
 209:.\Generated_Source\PSoC4/BLE.c ****         if(cyBle_serverInfo[CYBLE_SRVI_GATT].range.startHandle == CYBLE_GATT_INVALID_ATTR_HANDLE_VA
 210:.\Generated_Source\PSoC4/BLE.c ****         {
 211:.\Generated_Source\PSoC4/BLE.c ****             (void)memset(&cyBle_gattc, 0, sizeof(cyBle_gattc));
 212:.\Generated_Source\PSoC4/BLE.c ****         }
 213:.\Generated_Source\PSoC4/BLE.c ****     #endif /* CYBLE_GATT_ROLE_CLIENT */
 214:.\Generated_Source\PSoC4/BLE.c ****     
 215:.\Generated_Source\PSoC4/BLE.c **** 	#ifdef CYBLE_ANCS
 216:.\Generated_Source\PSoC4/BLE.c ****         CyBle_AncsInit();
 217:.\Generated_Source\PSoC4/BLE.c ****     #endif /* CYBLE_ANCS */
 218:.\Generated_Source\PSoC4/BLE.c **** 	
 219:.\Generated_Source\PSoC4/BLE.c ****     #ifdef CYBLE_ANS
 220:.\Generated_Source\PSoC4/BLE.c ****         CyBle_AnsInit();
 221:.\Generated_Source\PSoC4/BLE.c ****     #endif /* CYBLE_ANS */
 222:.\Generated_Source\PSoC4/BLE.c ****     
 223:.\Generated_Source\PSoC4/BLE.c ****     #ifdef CYBLE_BAS
 224:.\Generated_Source\PSoC4/BLE.c ****         CyBle_BasInit();
 225:.\Generated_Source\PSoC4/BLE.c ****     #endif /* CYBLE_BAS */
 226:.\Generated_Source\PSoC4/BLE.c ****     
 227:.\Generated_Source\PSoC4/BLE.c ****     #ifdef CYBLE_BCS
 228:.\Generated_Source\PSoC4/BLE.c ****         CyBle_BcsInit();
 229:.\Generated_Source\PSoC4/BLE.c ****     #endif /* CYBLE_BCS */
 230:.\Generated_Source\PSoC4/BLE.c **** 
 231:.\Generated_Source\PSoC4/BLE.c ****     #ifdef CYBLE_BLS
 232:.\Generated_Source\PSoC4/BLE.c ****         CyBle_BlsInit();
 233:.\Generated_Source\PSoC4/BLE.c ****     #endif /* CYBLE_BLS */
 234:.\Generated_Source\PSoC4/BLE.c ****     
 235:.\Generated_Source\PSoC4/BLE.c ****     #ifdef CYBLE_BMS
 236:.\Generated_Source\PSoC4/BLE.c ****         CyBle_BmsInit();
 237:.\Generated_Source\PSoC4/BLE.c ****     #endif /* CYBLE_BMS */
 238:.\Generated_Source\PSoC4/BLE.c ****     
 239:.\Generated_Source\PSoC4/BLE.c ****     #ifdef CYBLE_CGMS
 240:.\Generated_Source\PSoC4/BLE.c ****         CyBle_CgmsInit();
 241:.\Generated_Source\PSoC4/BLE.c ****     #endif /* CYBLE_CGMS */
 242:.\Generated_Source\PSoC4/BLE.c **** 
 243:.\Generated_Source\PSoC4/BLE.c ****     #ifdef CYBLE_CPS
 244:.\Generated_Source\PSoC4/BLE.c ****         CyBle_CpsInit();
 245:.\Generated_Source\PSoC4/BLE.c ****     #endif /* CYBLE_CPS */
 246:.\Generated_Source\PSoC4/BLE.c **** 
 247:.\Generated_Source\PSoC4/BLE.c ****     #ifdef CYBLE_CSCS
 248:.\Generated_Source\PSoC4/BLE.c ****         CyBle_CscsInit();
 249:.\Generated_Source\PSoC4/BLE.c ****     #endif /* CYBLE_CSCS */
 250:.\Generated_Source\PSoC4/BLE.c ****     
 251:.\Generated_Source\PSoC4/BLE.c ****     #ifdef CYBLE_CTS
 252:.\Generated_Source\PSoC4/BLE.c ****         CyBle_CtsInit();
 253:.\Generated_Source\PSoC4/BLE.c ****     #endif /* CYBLE_CTS */
 254:.\Generated_Source\PSoC4/BLE.c **** 
 255:.\Generated_Source\PSoC4/BLE.c ****     #ifdef CYBLE_CUSTOM
 256:.\Generated_Source\PSoC4/BLE.c ****         CyBle_CustomInit();
 257:.\Generated_Source\PSoC4/BLE.c ****     #endif /* CYBLE_CUSTOM */
 258:.\Generated_Source\PSoC4/BLE.c **** 
 259:.\Generated_Source\PSoC4/BLE.c ****     #ifdef CYBLE_DIS
 260:.\Generated_Source\PSoC4/BLE.c ****         CyBle_DisInit();
 261:.\Generated_Source\PSoC4/BLE.c ****     #endif /* CYBLE_DIS */
ARM GAS  C:\Users\mlgjmoor\AppData\Local\Temp\ccKDuCjD.s 			page 6


 262:.\Generated_Source\PSoC4/BLE.c **** 
 263:.\Generated_Source\PSoC4/BLE.c ****     #ifdef CYBLE_ESS
 264:.\Generated_Source\PSoC4/BLE.c ****         CyBle_EssInit();
 265:.\Generated_Source\PSoC4/BLE.c ****     #endif /* CYBLE_ESS */
 266:.\Generated_Source\PSoC4/BLE.c ****     
 267:.\Generated_Source\PSoC4/BLE.c ****     #ifdef CYBLE_GLS
 268:.\Generated_Source\PSoC4/BLE.c ****         CyBle_GlsInit();
 269:.\Generated_Source\PSoC4/BLE.c ****     #endif /* CYBLE_GLS */
 270:.\Generated_Source\PSoC4/BLE.c ****     
 271:.\Generated_Source\PSoC4/BLE.c ****     #ifdef CYBLE_HIDS
 272:.\Generated_Source\PSoC4/BLE.c ****         CyBle_HidsInit();
 273:.\Generated_Source\PSoC4/BLE.c ****     #endif /* CYBLE_HIDS */
 274:.\Generated_Source\PSoC4/BLE.c **** 
 275:.\Generated_Source\PSoC4/BLE.c ****     #ifdef CYBLE_HPS
 276:.\Generated_Source\PSoC4/BLE.c ****         CyBle_HpsInit();
 277:.\Generated_Source\PSoC4/BLE.c ****     #endif /* CYBLE_HPS */
 278:.\Generated_Source\PSoC4/BLE.c **** 
 279:.\Generated_Source\PSoC4/BLE.c ****     #ifdef CYBLE_HRS
 280:.\Generated_Source\PSoC4/BLE.c ****         CyBle_HrsInit();
 281:.\Generated_Source\PSoC4/BLE.c ****     #endif /* CYBLE_HRS */
 282:.\Generated_Source\PSoC4/BLE.c ****     
 283:.\Generated_Source\PSoC4/BLE.c ****     #ifdef CYBLE_HTS
 284:.\Generated_Source\PSoC4/BLE.c ****         CyBle_HtsInit();
 285:.\Generated_Source\PSoC4/BLE.c ****     #endif /* CYBLE_RSCS */
 286:.\Generated_Source\PSoC4/BLE.c **** 
 287:.\Generated_Source\PSoC4/BLE.c ****     #ifdef CYBLE_IAS
 288:.\Generated_Source\PSoC4/BLE.c ****         CyBle_IasInit();
 289:.\Generated_Source\PSoC4/BLE.c ****     #endif /* CYBLE_IAS */
 290:.\Generated_Source\PSoC4/BLE.c **** 
 291:.\Generated_Source\PSoC4/BLE.c ****     #ifdef CYBLE_IPS
 292:.\Generated_Source\PSoC4/BLE.c ****         CyBle_IpsInit();
 293:.\Generated_Source\PSoC4/BLE.c ****     #endif /* CYBLE_IPS */
 294:.\Generated_Source\PSoC4/BLE.c ****     
 295:.\Generated_Source\PSoC4/BLE.c ****     #ifdef CYBLE_LLS
 296:.\Generated_Source\PSoC4/BLE.c ****         CyBle_LlsInit();
 297:.\Generated_Source\PSoC4/BLE.c ****     #endif /* CYBLE_LLS */
 298:.\Generated_Source\PSoC4/BLE.c **** 
 299:.\Generated_Source\PSoC4/BLE.c ****     #ifdef CYBLE_LNS
 300:.\Generated_Source\PSoC4/BLE.c ****         CyBle_LnsInit();
 301:.\Generated_Source\PSoC4/BLE.c ****     #endif /* CYBLE_LNS */
 302:.\Generated_Source\PSoC4/BLE.c ****     
 303:.\Generated_Source\PSoC4/BLE.c ****     #ifdef CYBLE_NDCS
 304:.\Generated_Source\PSoC4/BLE.c ****         CyBle_NdcsInit();
 305:.\Generated_Source\PSoC4/BLE.c ****     #endif /* CYBLE_NDCS */
 306:.\Generated_Source\PSoC4/BLE.c ****     
 307:.\Generated_Source\PSoC4/BLE.c ****     #ifdef CYBLE_PASS
 308:.\Generated_Source\PSoC4/BLE.c ****         CyBle_PassInit();
 309:.\Generated_Source\PSoC4/BLE.c ****     #endif /* CYBLE_PASS */
 310:.\Generated_Source\PSoC4/BLE.c ****     
 311:.\Generated_Source\PSoC4/BLE.c ****     #ifdef CYBLE_RSCS
 312:.\Generated_Source\PSoC4/BLE.c ****         CyBle_RscsInit();
 313:.\Generated_Source\PSoC4/BLE.c ****     #endif /* CYBLE_RSCS */
 314:.\Generated_Source\PSoC4/BLE.c **** 
 315:.\Generated_Source\PSoC4/BLE.c ****     #ifdef CYBLE_RTUS
 316:.\Generated_Source\PSoC4/BLE.c ****         CyBle_RtusInit();
 317:.\Generated_Source\PSoC4/BLE.c ****     #endif /* CYBLE_RTUS */
 318:.\Generated_Source\PSoC4/BLE.c **** 
ARM GAS  C:\Users\mlgjmoor\AppData\Local\Temp\ccKDuCjD.s 			page 7


 319:.\Generated_Source\PSoC4/BLE.c ****     #ifdef CYBLE_SCPS
 320:.\Generated_Source\PSoC4/BLE.c ****         CyBle_ScpsInit();
 321:.\Generated_Source\PSoC4/BLE.c ****     #endif /* CYBLE_SCPS */
 322:.\Generated_Source\PSoC4/BLE.c ****     
 323:.\Generated_Source\PSoC4/BLE.c ****     #ifdef CYBLE_TPS
 324:.\Generated_Source\PSoC4/BLE.c ****         CyBle_TpsInit();
 325:.\Generated_Source\PSoC4/BLE.c ****     #endif /* CYBLE_TPS */
 326:.\Generated_Source\PSoC4/BLE.c ****     
 327:.\Generated_Source\PSoC4/BLE.c ****     #ifdef CYBLE_UDS
 328:.\Generated_Source\PSoC4/BLE.c ****         CyBle_UdsInit();
 329:.\Generated_Source\PSoC4/BLE.c ****     #endif /* CYBLE_UDS */
 330:.\Generated_Source\PSoC4/BLE.c **** 
 331:.\Generated_Source\PSoC4/BLE.c ****     #ifdef CYBLE_WPTS
 332:.\Generated_Source\PSoC4/BLE.c ****         CyBle_WptsInit();
 333:.\Generated_Source\PSoC4/BLE.c ****     #endif /* CYBLE_WPTS */
 334:.\Generated_Source\PSoC4/BLE.c **** 
 335:.\Generated_Source\PSoC4/BLE.c ****     #ifdef CYBLE_WSS
 336:.\Generated_Source\PSoC4/BLE.c ****         CyBle_WssInit();
 337:.\Generated_Source\PSoC4/BLE.c ****     #endif /* CYBLE_WSS */
 338:.\Generated_Source\PSoC4/BLE.c **** }
 339:.\Generated_Source\PSoC4/BLE.c **** 
 340:.\Generated_Source\PSoC4/BLE.c **** 
 341:.\Generated_Source\PSoC4/BLE.c **** /******************************************************************************
 342:.\Generated_Source\PSoC4/BLE.c **** * Function Name: CyBle_Start
 343:.\Generated_Source\PSoC4/BLE.c **** ***************************************************************************//**
 344:.\Generated_Source\PSoC4/BLE.c **** * 
 345:.\Generated_Source\PSoC4/BLE.c **** *  This function initializes the BLE Stack, which consists of the BLE Stack 
 346:.\Generated_Source\PSoC4/BLE.c **** *  Manager, BLE Controller, and BLE Host modules. It takes care of initializing
 347:.\Generated_Source\PSoC4/BLE.c **** *  the Profile layer, schedulers, Timer and other platform related
 348:.\Generated_Source\PSoC4/BLE.c **** *  resources required for the BLE component. It also registers the callback 
 349:.\Generated_Source\PSoC4/BLE.c **** *  function for BLE events that will be registered in the BLE stack.
 350:.\Generated_Source\PSoC4/BLE.c **** * 
 351:.\Generated_Source\PSoC4/BLE.c **** *  Note that this function does not reset the BLE Stack.
 352:.\Generated_Source\PSoC4/BLE.c **** * 
 353:.\Generated_Source\PSoC4/BLE.c **** *  For HCI-Mode of operation, this function will not initialize the BLE Host 
 354:.\Generated_Source\PSoC4/BLE.c **** *  module.
 355:.\Generated_Source\PSoC4/BLE.c **** * 
 356:.\Generated_Source\PSoC4/BLE.c **** *  Calling this function results in the generation of CYBLE_EVT_STACK_ON event
 357:.\Generated_Source\PSoC4/BLE.c **** *  on successful initialization of the BLE Stack.
 358:.\Generated_Source\PSoC4/BLE.c **** * 
 359:.\Generated_Source\PSoC4/BLE.c **** *  \param callbackFunc: Event callback function to receive events from BLE stack.
 360:.\Generated_Source\PSoC4/BLE.c **** *   CYBLE_CALLBACK_T is a function pointer type.
 361:.\Generated_Source\PSoC4/BLE.c **** * 
 362:.\Generated_Source\PSoC4/BLE.c **** * \return
 363:.\Generated_Source\PSoC4/BLE.c **** *  CYBLE_API_RESULT_T : Return value indicates if the function succeeded or 
 364:.\Generated_Source\PSoC4/BLE.c **** *  failed. Following are the possible error codes.
 365:.\Generated_Source\PSoC4/BLE.c **** * 
 366:.\Generated_Source\PSoC4/BLE.c **** *   <table>
 367:.\Generated_Source\PSoC4/BLE.c **** *  	  <tr>
 368:.\Generated_Source\PSoC4/BLE.c **** *       <th>Error codes</th>
 369:.\Generated_Source\PSoC4/BLE.c **** *       <th>Description</th>
 370:.\Generated_Source\PSoC4/BLE.c **** *     </tr>
 371:.\Generated_Source\PSoC4/BLE.c **** *     <tr>
 372:.\Generated_Source\PSoC4/BLE.c **** *       <td>CYBLE_ERROR_OK</td>
 373:.\Generated_Source\PSoC4/BLE.c **** *       <td>On successful operation.</td>
 374:.\Generated_Source\PSoC4/BLE.c **** *     </tr>
 375:.\Generated_Source\PSoC4/BLE.c **** *     <tr>
ARM GAS  C:\Users\mlgjmoor\AppData\Local\Temp\ccKDuCjD.s 			page 8


 376:.\Generated_Source\PSoC4/BLE.c **** *       <td>CYBLE_ERROR_INVALID_PARAMETER</td>
 377:.\Generated_Source\PSoC4/BLE.c **** *       <td>On passing a NULL pointer to the function when the BLE stack is not built in HCI mode. 
 378:.\Generated_Source\PSoC4/BLE.c **** *			CYBLE_ERROR_INVALID_PARAMETER is never returned in HCI mode.</td>
 379:.\Generated_Source\PSoC4/BLE.c **** *     </tr>
 380:.\Generated_Source\PSoC4/BLE.c **** *     <tr>
 381:.\Generated_Source\PSoC4/BLE.c **** *       <td>CYBLE_ERROR_REPEATED_ATTEMPTS</td>
 382:.\Generated_Source\PSoC4/BLE.c **** *       <td>On invoking this function more than once without calling CyBle_Shutdown() 
 383:.\Generated_Source\PSoC4/BLE.c **** *           function between calls to this function.</td>
 384:.\Generated_Source\PSoC4/BLE.c **** *     </tr>
 385:.\Generated_Source\PSoC4/BLE.c **** *     <tr>
 386:.\Generated_Source\PSoC4/BLE.c **** *       <td>CYBLE_ERROR_MEMORY_ALLOCATION_FAILED</td>
 387:.\Generated_Source\PSoC4/BLE.c **** *       <td>There is insufficient memory available.</td>
 388:.\Generated_Source\PSoC4/BLE.c **** *     </tr>
 389:.\Generated_Source\PSoC4/BLE.c **** *   </table>
 390:.\Generated_Source\PSoC4/BLE.c **** * 
 391:.\Generated_Source\PSoC4/BLE.c **** *  \globalvars
 392:.\Generated_Source\PSoC4/BLE.c **** *   The CyBle_initVar variable is used to indicate initial
 393:.\Generated_Source\PSoC4/BLE.c **** *   configuration of this component. The variable is initialized to zero (0u)
 394:.\Generated_Source\PSoC4/BLE.c **** *   and set to one (1u) the first time CyBle_Start() is called. This
 395:.\Generated_Source\PSoC4/BLE.c **** *   allows for component initialization without re-initialization in all
 396:.\Generated_Source\PSoC4/BLE.c **** *   subsequent calls to the CyBle_Start() routine.
 397:.\Generated_Source\PSoC4/BLE.c **** * 
 398:.\Generated_Source\PSoC4/BLE.c **** ******************************************************************************/
 399:.\Generated_Source\PSoC4/BLE.c **** CYBLE_API_RESULT_T CyBle_Start(CYBLE_CALLBACK_T callbackFunc)
 400:.\Generated_Source\PSoC4/BLE.c **** {
 401:.\Generated_Source\PSoC4/BLE.c ****     CYBLE_API_RESULT_T apiResult = CYBLE_ERROR_OK;
 402:.\Generated_Source\PSoC4/BLE.c ****     
 403:.\Generated_Source\PSoC4/BLE.c ****     #if(CYBLE_MODE_PROFILE)
 404:.\Generated_Source\PSoC4/BLE.c ****     
 405:.\Generated_Source\PSoC4/BLE.c ****     CYBLE_STK_APP_DATA_BUFF_T cyBle_stackDataBuff[CYBLE_STACK_APP_MIN_POOL] = 
 406:.\Generated_Source\PSoC4/BLE.c ****     {
 407:.\Generated_Source\PSoC4/BLE.c ****         {CYBLE_GATT_MTU_PLUS_L2CAP_MEM_EXT, CYBLE_GATT_MTU_BUFF_COUNT + CYBLE_GATT_MAX_ATTR_BUFF_CO
 408:.\Generated_Source\PSoC4/BLE.c ****         {CYBLE_L2CAP_PSM_PLUS_L2CAP_MEM_EXT, CYBLE_L2CAP_PSM_COUNT},
 409:.\Generated_Source\PSoC4/BLE.c ****         {CYBLE_L2CAP_CBFC_PLUS_L2CAP_MEM_EXT, 2u * CYBLE_L2CAP_LOGICAL_CHANNEL_COUNT},
 410:.\Generated_Source\PSoC4/BLE.c ****         {CYBLE_L2CAP_MTU_PLUS_L2CAP_MEM_EXT, CYBLE_L2CAP_LOGICAL_CHANNEL_COUNT},
 411:.\Generated_Source\PSoC4/BLE.c ****         {CYBLE_L2CAP_MPS_PLUS_L2CAP_MEM_EXT, CYBLE_L2CAP_LOGICAL_CHANNEL_COUNT * (CYBLE_L2CAP_MTU_M
 412:.\Generated_Source\PSoC4/BLE.c ****     }; 
 413:.\Generated_Source\PSoC4/BLE.c **** 
 414:.\Generated_Source\PSoC4/BLE.c ****     #endif /* CYBLE_MODE_PROFILE */
 415:.\Generated_Source\PSoC4/BLE.c ****     
 416:.\Generated_Source\PSoC4/BLE.c ****     /* If not initialized then initialize all the required hardware and software */
 417:.\Generated_Source\PSoC4/BLE.c ****     if(cyBle_initVar == 0u)
 418:.\Generated_Source\PSoC4/BLE.c ****     {
 419:.\Generated_Source\PSoC4/BLE.c ****         CyBle_Init();
 420:.\Generated_Source\PSoC4/BLE.c ****         cyBle_initVar = 1u;
 421:.\Generated_Source\PSoC4/BLE.c ****     }
 422:.\Generated_Source\PSoC4/BLE.c ****     
 423:.\Generated_Source\PSoC4/BLE.c ****     if(callbackFunc != NULL)
 424:.\Generated_Source\PSoC4/BLE.c ****     {
 425:.\Generated_Source\PSoC4/BLE.c ****         CyBle_ApplCallback = callbackFunc;
 426:.\Generated_Source\PSoC4/BLE.c ****         
 427:.\Generated_Source\PSoC4/BLE.c ****     #if(CYBLE_SHARING_MODE_EXPORT)
 428:.\Generated_Source\PSoC4/BLE.c ****         if(cyBle_stackMemoryRam == NULL)
 429:.\Generated_Source\PSoC4/BLE.c ****         {
 430:.\Generated_Source\PSoC4/BLE.c ****             cyBle_stackMemoryRam = (uint8 *)malloc(CYBLE_STACK_RAM_SIZE);
 431:.\Generated_Source\PSoC4/BLE.c ****             if(cyBle_stackMemoryRam == NULL)
 432:.\Generated_Source\PSoC4/BLE.c ****             {
ARM GAS  C:\Users\mlgjmoor\AppData\Local\Temp\ccKDuCjD.s 			page 9


 433:.\Generated_Source\PSoC4/BLE.c ****                 apiResult = CYBLE_ERROR_MEMORY_ALLOCATION_FAILED;
 434:.\Generated_Source\PSoC4/BLE.c ****             }
 435:.\Generated_Source\PSoC4/BLE.c ****         }
 436:.\Generated_Source\PSoC4/BLE.c ****     #endif /* CYBLE_SHARING_MODE_EXPORT */
 437:.\Generated_Source\PSoC4/BLE.c ****         if(apiResult == CYBLE_ERROR_OK)
 438:.\Generated_Source\PSoC4/BLE.c ****         {
 439:.\Generated_Source\PSoC4/BLE.c ****             CYBLE_DLE_CONFIG_PARAM_T dleConfigParams;
 440:.\Generated_Source\PSoC4/BLE.c ****             CYBLE_PRIVACY_1_2_CONFIG_PARAM_T privacyConfigParams;
 441:.\Generated_Source\PSoC4/BLE.c ****             CYBLE_STACK_CONFIG_PARAM_T stackConfig;
 442:.\Generated_Source\PSoC4/BLE.c ****             uint16 featureHeapReq;
 443:.\Generated_Source\PSoC4/BLE.c ****             
 444:.\Generated_Source\PSoC4/BLE.c ****             stackConfig.privacyConfig = &privacyConfigParams;
 445:.\Generated_Source\PSoC4/BLE.c ****             stackConfig.dleConfig = &dleConfigParams;
 446:.\Generated_Source\PSoC4/BLE.c ****             
 447:.\Generated_Source\PSoC4/BLE.c ****             /* Configure default BLE 4.1 features and enabled 4.2 features */
 448:.\Generated_Source\PSoC4/BLE.c ****             stackConfig.feature_mask = CYBLE_DLE_FEATURE | CYBLE_LL_PRIVACY_FEATURE | 
 449:.\Generated_Source\PSoC4/BLE.c ****                                        CYBLE_SECURE_CONN_FEATURE;
 450:.\Generated_Source\PSoC4/BLE.c **** 
 451:.\Generated_Source\PSoC4/BLE.c ****             /* Configure DLE */
 452:.\Generated_Source\PSoC4/BLE.c ****             dleConfigParams.dleMaxTxCapability = CYBLE_LL_MAX_TX_PAYLOAD_SIZE;
 453:.\Generated_Source\PSoC4/BLE.c ****             dleConfigParams.dleMaxRxCapability = CYBLE_LL_MAX_RX_PAYLOAD_SIZE;
 454:.\Generated_Source\PSoC4/BLE.c ****             dleConfigParams.dleNumTxBuffer = CYBLE_LL_DEFAULT_NUM_ACL_TX_PACKETS;
 455:.\Generated_Source\PSoC4/BLE.c ****         #if(CYBLE_DLE_FEATURE_ENABLED)
 456:.\Generated_Source\PSoC4/BLE.c ****             CyBle_EnableDleFeature();              /* Enable DLE code in stack */
 457:.\Generated_Source\PSoC4/BLE.c ****         #endif /* CYBLE_DLE_FEATURE_ENABLED */
 458:.\Generated_Source\PSoC4/BLE.c ****         
 459:.\Generated_Source\PSoC4/BLE.c ****             /* Configure LL Privacy */
 460:.\Generated_Source\PSoC4/BLE.c ****             privacyConfigParams.resolvingListSize = CYBLE_MAX_RESOLVABLE_DEVICES;
 461:.\Generated_Source\PSoC4/BLE.c ****         #if(CYBLE_LL_PRIVACY_FEATURE_ENABLED)
 462:.\Generated_Source\PSoC4/BLE.c ****             CyBle_EnablePrivacyFeature();          /* Enable LL Privacy code in stack */
 463:.\Generated_Source\PSoC4/BLE.c ****         #endif /* CYBLE_LL_PRIVACY_FEATURE_ENABLED */
 464:.\Generated_Source\PSoC4/BLE.c **** 
 465:.\Generated_Source\PSoC4/BLE.c ****             apiResult = CyBle_StackSetFeatureConfig(&stackConfig, &featureHeapReq);
 466:.\Generated_Source\PSoC4/BLE.c ****             }
 467:.\Generated_Source\PSoC4/BLE.c ****     
 468:.\Generated_Source\PSoC4/BLE.c ****         if(apiResult == CYBLE_ERROR_OK)
 469:.\Generated_Source\PSoC4/BLE.c ****         {
 470:.\Generated_Source\PSoC4/BLE.c ****             
 471:.\Generated_Source\PSoC4/BLE.c ****         #if(CYBLE_MODE_PROFILE)
 472:.\Generated_Source\PSoC4/BLE.c ****             #if(CYBLE_BONDING_REQUIREMENT == CYBLE_BONDING_YES)
 473:.\Generated_Source\PSoC4/BLE.c ****                 apiResult = CyBle_StackInit(&CyBle_EventHandler, cyBle_stackMemoryRam, 
 474:.\Generated_Source\PSoC4/BLE.c ****                     CYBLE_STACK_RAM_SIZE - CYBLE_GATT_PREPARE_WRITE_BUFF_LEN, cyBle_stackDataBuff, 
 475:.\Generated_Source\PSoC4/BLE.c ****                     CYBLE_STACK_APP_MIN_POOL, cyBle_flashStorage.stackFlashptr, CYBLE_STACK_FLASH_S
 476:.\Generated_Source\PSoC4/BLE.c ****             #else
 477:.\Generated_Source\PSoC4/BLE.c ****                 apiResult = CyBle_StackInit(&CyBle_EventHandler, cyBle_stackMemoryRam, 
 478:.\Generated_Source\PSoC4/BLE.c ****                     CYBLE_STACK_RAM_SIZE - CYBLE_GATT_PREPARE_WRITE_BUFF_LEN, cyBle_stackDataBuff, 
 479:.\Generated_Source\PSoC4/BLE.c ****                     CYBLE_STACK_APP_MIN_POOL, NULL, 0u);
 480:.\Generated_Source\PSoC4/BLE.c ****             #endif  /* CYBLE_BONDING_REQUIREMENT == CYBLE_BONDING_YES */
 481:.\Generated_Source\PSoC4/BLE.c ****         #else
 482:.\Generated_Source\PSoC4/BLE.c ****             apiResult = CyBle_StackInit(&CyBle_EventHandler, cyBle_stackMemoryRam, CYBLE_STACK_RAM_
 483:.\Generated_Source\PSoC4/BLE.c ****                 NULL, 0u, NULL, 0u);
 484:.\Generated_Source\PSoC4/BLE.c ****         #endif /* CYBLE_MODE_PROFILE */
 485:.\Generated_Source\PSoC4/BLE.c **** 
 486:.\Generated_Source\PSoC4/BLE.c ****             if(apiResult == CYBLE_ERROR_OK)
 487:.\Generated_Source\PSoC4/BLE.c ****             {
 488:.\Generated_Source\PSoC4/BLE.c ****                 CyBle_SetState(CYBLE_STATE_INITIALIZING);
 489:.\Generated_Source\PSoC4/BLE.c ****                 
ARM GAS  C:\Users\mlgjmoor\AppData\Local\Temp\ccKDuCjD.s 			page 10


 490:.\Generated_Source\PSoC4/BLE.c ****             #if (CYBLE_GATT_ROLE_CLIENT)
 491:.\Generated_Source\PSoC4/BLE.c ****                 CyBle_SetClientState(CYBLE_CLIENT_STATE_DISCONNECTED);
 492:.\Generated_Source\PSoC4/BLE.c ****             #endif /* CYBLE_GATT_ROLE_CLIENT */
 493:.\Generated_Source\PSoC4/BLE.c ****                 
 494:.\Generated_Source\PSoC4/BLE.c ****             #if(CYBLE_GATT_ROLE_SERVER)
 495:.\Generated_Source\PSoC4/BLE.c ****                 apiResult = CyBle_GattsDbRegister(cyBle_gattDB, CYBLE_GATT_DB_INDEX_COUNT, CYBLE_GA
 496:.\Generated_Source\PSoC4/BLE.c ****             #endif /* CYBLE_GATT_ROLE_SERVER */
 497:.\Generated_Source\PSoC4/BLE.c ****             }
 498:.\Generated_Source\PSoC4/BLE.c ****         }
 499:.\Generated_Source\PSoC4/BLE.c ****     }
 500:.\Generated_Source\PSoC4/BLE.c ****     else
 501:.\Generated_Source\PSoC4/BLE.c ****     {
 502:.\Generated_Source\PSoC4/BLE.c ****         apiResult = CYBLE_ERROR_INVALID_PARAMETER;
 503:.\Generated_Source\PSoC4/BLE.c ****     }
 504:.\Generated_Source\PSoC4/BLE.c **** 
 505:.\Generated_Source\PSoC4/BLE.c ****     return (apiResult);
 506:.\Generated_Source\PSoC4/BLE.c **** }
 507:.\Generated_Source\PSoC4/BLE.c **** 
 508:.\Generated_Source\PSoC4/BLE.c **** 
 509:.\Generated_Source\PSoC4/BLE.c **** /******************************************************************************
 510:.\Generated_Source\PSoC4/BLE.c **** * Function Name: CyBle_Stop
 511:.\Generated_Source\PSoC4/BLE.c **** ***************************************************************************//**
 512:.\Generated_Source\PSoC4/BLE.c **** * 
 513:.\Generated_Source\PSoC4/BLE.c **** *  This function stops any ongoing operation in the BLE Stack and forces the 
 514:.\Generated_Source\PSoC4/BLE.c **** *  BLE Stack to shut down. The only function that can be called after calling
 515:.\Generated_Source\PSoC4/BLE.c **** *  this function is CyBle_Start(). 
 516:.\Generated_Source\PSoC4/BLE.c **** * 
 517:.\Generated_Source\PSoC4/BLE.c **** * \return
 518:.\Generated_Source\PSoC4/BLE.c **** *  None
 519:.\Generated_Source\PSoC4/BLE.c **** * 
 520:.\Generated_Source\PSoC4/BLE.c **** ******************************************************************************/
 521:.\Generated_Source\PSoC4/BLE.c **** void CyBle_Stop(void)
 522:.\Generated_Source\PSoC4/BLE.c **** {
 523:.\Generated_Source\PSoC4/BLE.c ****     CyBle_Shutdown();                         /* Stop all ongoing activities */
 524:.\Generated_Source\PSoC4/BLE.c ****     CyBle_SetState(CYBLE_STATE_STOPPED);
 525:.\Generated_Source\PSoC4/BLE.c ****     #if(CYBLE_SHARING_MODE_EXPORT)
 526:.\Generated_Source\PSoC4/BLE.c ****         if(cyBle_stackMemoryRam != NULL)
 527:.\Generated_Source\PSoC4/BLE.c ****         {
 528:.\Generated_Source\PSoC4/BLE.c ****             free(cyBle_stackMemoryRam);
 529:.\Generated_Source\PSoC4/BLE.c ****         }
 530:.\Generated_Source\PSoC4/BLE.c ****     #endif /* CYBLE_SHARING_MODE_EXPORT */
 531:.\Generated_Source\PSoC4/BLE.c **** }
 532:.\Generated_Source\PSoC4/BLE.c **** 
 533:.\Generated_Source\PSoC4/BLE.c **** 
 534:.\Generated_Source\PSoC4/BLE.c **** #if((CYBLE_GAP_ROLE_PERIPHERAL || CYBLE_GAP_ROLE_CENTRAL) && (CYBLE_BONDING_REQUIREMENT == CYBLE_BO
 535:.\Generated_Source\PSoC4/BLE.c **** 
 536:.\Generated_Source\PSoC4/BLE.c ****     
 537:.\Generated_Source\PSoC4/BLE.c **** /******************************************************************************
 538:.\Generated_Source\PSoC4/BLE.c **** * Function Name: CyBle_StoreBondingData
 539:.\Generated_Source\PSoC4/BLE.c **** ***************************************************************************//**
 540:.\Generated_Source\PSoC4/BLE.c **** * 
 541:.\Generated_Source\PSoC4/BLE.c **** *  This function writes the new bonding data from RAM to the dedicated Flash 
 542:.\Generated_Source\PSoC4/BLE.c **** *  location as defined by the component. It performs data comparing between RAM
 543:.\Generated_Source\PSoC4/BLE.c **** *  and Flash before writing to Flash. If there is no change between RAM and Flash
 544:.\Generated_Source\PSoC4/BLE.c **** *  data, then no write is performed. It writes only one flash row in one call.
 545:.\Generated_Source\PSoC4/BLE.c **** *  Application should keep calling this function till API return CYBLE_ERROR_OK. 
 546:.\Generated_Source\PSoC4/BLE.c **** *  This function is available only when Bonding requirement is selected in
ARM GAS  C:\Users\mlgjmoor\AppData\Local\Temp\ccKDuCjD.s 			page 11


 547:.\Generated_Source\PSoC4/BLE.c **** *  Security settings.    
 548:.\Generated_Source\PSoC4/BLE.c **** * 
 549:.\Generated_Source\PSoC4/BLE.c **** *  \param isForceWrite:  If value is set to 0, then stack will check if flash write 
 550:.\Generated_Source\PSoC4/BLE.c **** *                 is permissible. 
 551:.\Generated_Source\PSoC4/BLE.c **** *  
 552:.\Generated_Source\PSoC4/BLE.c **** * \return
 553:.\Generated_Source\PSoC4/BLE.c **** *  Return value is of type CYBLE_API_RESULT_T.
 554:.\Generated_Source\PSoC4/BLE.c **** *
 555:.\Generated_Source\PSoC4/BLE.c **** *   Errors codes                         | Description
 556:.\Generated_Source\PSoC4/BLE.c **** *   ----------------------------------   | ------------------------------------
 557:.\Generated_Source\PSoC4/BLE.c **** *   CYBLE_ERROR_OK                       | On successful operation
 558:.\Generated_Source\PSoC4/BLE.c **** *   CYBLE_ERROR_FLASH_WRITE_NOT_PERMITED | Flash Write is not complete
 559:.\Generated_Source\PSoC4/BLE.c **** *    
 560:.\Generated_Source\PSoC4/BLE.c **** *  \sideeffect
 561:.\Generated_Source\PSoC4/BLE.c **** *   For BLE devices with 128K of Flash memory this API will automatically 
 562:.\Generated_Source\PSoC4/BLE.c **** *   modify the clock settings for the device.
 563:.\Generated_Source\PSoC4/BLE.c **** *   Writing to flash requires changes to be done to the IMO (set to 48 MHz)
 564:.\Generated_Source\PSoC4/BLE.c **** *   and HFCLK (source set to IMO) settings. The configuration is restored before
 565:.\Generated_Source\PSoC4/BLE.c **** *   returning. This will impact the operation of most of the hardware in the
 566:.\Generated_Source\PSoC4/BLE.c **** *   device.
 567:.\Generated_Source\PSoC4/BLE.c **** * 
 568:.\Generated_Source\PSoC4/BLE.c **** *  \globalvars
 569:.\Generated_Source\PSoC4/BLE.c **** *   The cyBle_pendingFlashWrite variable is used to detect status
 570:.\Generated_Source\PSoC4/BLE.c **** *   of pending write to flash operation for stack data and CCCD.
 571:.\Generated_Source\PSoC4/BLE.c **** *   This API automatically clears pending bits after write operation complete.
 572:.\Generated_Source\PSoC4/BLE.c **** *     
 573:.\Generated_Source\PSoC4/BLE.c **** ******************************************************************************/
 574:.\Generated_Source\PSoC4/BLE.c **** CYBLE_API_RESULT_T CyBle_StoreBondingData(uint8 isForceWrite)
 575:.\Generated_Source\PSoC4/BLE.c **** {
 576:.\Generated_Source\PSoC4/BLE.c ****     CYBLE_API_RESULT_T apiResult = CYBLE_ERROR_OK;
 577:.\Generated_Source\PSoC4/BLE.c ****     
 578:.\Generated_Source\PSoC4/BLE.c ****     /* Store Stack data */
 579:.\Generated_Source\PSoC4/BLE.c ****     if((cyBle_pendingFlashWrite & CYBLE_PENDING_STACK_FLASH_WRITE_BIT) != 0u)
 580:.\Generated_Source\PSoC4/BLE.c ****     {
 581:.\Generated_Source\PSoC4/BLE.c ****         apiResult = CyBle_StoreStackData(isForceWrite);
 582:.\Generated_Source\PSoC4/BLE.c ****         if(apiResult == CYBLE_ERROR_OK)
 583:.\Generated_Source\PSoC4/BLE.c ****         {
 584:.\Generated_Source\PSoC4/BLE.c ****             cyBle_pendingFlashWrite &= (uint8)~CYBLE_PENDING_STACK_FLASH_WRITE_BIT;
 585:.\Generated_Source\PSoC4/BLE.c ****             /* Change apiResult if there are more pending data to store */
 586:.\Generated_Source\PSoC4/BLE.c ****             if((cyBle_pendingFlashWrite & CYBLE_PENDING_CCCD_FLASH_WRITE_BIT) != 0u)
 587:.\Generated_Source\PSoC4/BLE.c ****             {
 588:.\Generated_Source\PSoC4/BLE.c ****                 apiResult = CYBLE_ERROR_FLASH_WRITE_NOT_PERMITED;
 589:.\Generated_Source\PSoC4/BLE.c ****             }
 590:.\Generated_Source\PSoC4/BLE.c ****         }
 591:.\Generated_Source\PSoC4/BLE.c ****     }
 592:.\Generated_Source\PSoC4/BLE.c **** #if(CYBLE_GATT_DB_CCCD_COUNT != 0u)
 593:.\Generated_Source\PSoC4/BLE.c ****     /* Store CCCD values */
 594:.\Generated_Source\PSoC4/BLE.c ****     if( ((apiResult == CYBLE_ERROR_OK) || (isForceWrite != 0u)) && 
 595:.\Generated_Source\PSoC4/BLE.c ****         ((cyBle_pendingFlashWrite & CYBLE_PENDING_CCCD_FLASH_WRITE_BIT) != 0u) &&
 596:.\Generated_Source\PSoC4/BLE.c ****         (cyBle_connHandle.bdHandle <= CYBLE_GAP_MAX_BONDED_DEVICE))
 597:.\Generated_Source\PSoC4/BLE.c ****     {
 598:.\Generated_Source\PSoC4/BLE.c ****         apiResult = CyBle_StoreAppData(cyBle_attValuesCCCD, cyBle_flashStorage.attValuesCCCDFlashMe
 599:.\Generated_Source\PSoC4/BLE.c ****                         cyBle_connHandle.bdHandle], CYBLE_GATT_DB_CCCD_COUNT, isForceWrite);
 600:.\Generated_Source\PSoC4/BLE.c ****         if(apiResult == CYBLE_ERROR_OK)
 601:.\Generated_Source\PSoC4/BLE.c ****         {
 602:.\Generated_Source\PSoC4/BLE.c ****             cyBle_pendingFlashWrite &= (uint8)~CYBLE_PENDING_CCCD_FLASH_WRITE_BIT;
 603:.\Generated_Source\PSoC4/BLE.c ****         }
ARM GAS  C:\Users\mlgjmoor\AppData\Local\Temp\ccKDuCjD.s 			page 12


 604:.\Generated_Source\PSoC4/BLE.c ****     }
 605:.\Generated_Source\PSoC4/BLE.c ****     /* Clear requested CCCD values */
 606:.\Generated_Source\PSoC4/BLE.c ****     if( ((apiResult == CYBLE_ERROR_OK) || (isForceWrite != 0u)) && 
 607:.\Generated_Source\PSoC4/BLE.c ****         ((cyBle_pendingFlashWrite & CYBLE_PENDING_CCCD_FLASH_CLEAR_MASK) != 0u) )
 608:.\Generated_Source\PSoC4/BLE.c ****     {
 609:.\Generated_Source\PSoC4/BLE.c ****         if((cyBle_pendingFlashWrite & CYBLE_PENDING_CCCD_FLASH_CLEAR_ALL_BIT) != 0u)
 610:.\Generated_Source\PSoC4/BLE.c ****         {
 611:.\Generated_Source\PSoC4/BLE.c ****             /* Remove cccd values for all bonded devices */
 612:.\Generated_Source\PSoC4/BLE.c ****             uint8 defaultValuesCCCD[CYBLE_GAP_MAX_BONDED_DEVICE + 1u][CYBLE_GATT_DB_CCCD_COUNT];
 613:.\Generated_Source\PSoC4/BLE.c ****             
 614:.\Generated_Source\PSoC4/BLE.c ****             (void)memset(defaultValuesCCCD, 0, sizeof(defaultValuesCCCD));
 615:.\Generated_Source\PSoC4/BLE.c **** 
 616:.\Generated_Source\PSoC4/BLE.c ****             apiResult = CyBle_StoreAppData((uint8 *)defaultValuesCCCD, 
 617:.\Generated_Source\PSoC4/BLE.c ****                 (const uint8 *)cyBle_flashStorage.attValuesCCCDFlashMemory, sizeof(defaultValuesCCC
 618:.\Generated_Source\PSoC4/BLE.c ****             if(apiResult == CYBLE_ERROR_OK)
 619:.\Generated_Source\PSoC4/BLE.c ****             {
 620:.\Generated_Source\PSoC4/BLE.c ****                 cyBle_pendingFlashWrite &= (uint8)~CYBLE_PENDING_CCCD_FLASH_CLEAR_ALL_BIT;
 621:.\Generated_Source\PSoC4/BLE.c ****             }
 622:.\Generated_Source\PSoC4/BLE.c ****         }
 623:.\Generated_Source\PSoC4/BLE.c ****         else /* Remove cccd values for particular device */
 624:.\Generated_Source\PSoC4/BLE.c ****         {
 625:.\Generated_Source\PSoC4/BLE.c ****             uint8 defaultValuesCCCD[CYBLE_GATT_DB_CCCD_COUNT] = {0u};
 626:.\Generated_Source\PSoC4/BLE.c ****             
 627:.\Generated_Source\PSoC4/BLE.c ****             apiResult = CyBle_StoreAppData(defaultValuesCCCD, cyBle_flashStorage.attValuesCCCDFlash
 628:.\Generated_Source\PSoC4/BLE.c ****                                     cyBle_pendingFlashClearCccdHandle], CYBLE_GATT_DB_CCCD_COUNT, i
 629:.\Generated_Source\PSoC4/BLE.c ****             if(apiResult == CYBLE_ERROR_OK)
 630:.\Generated_Source\PSoC4/BLE.c ****             {
 631:.\Generated_Source\PSoC4/BLE.c ****                 cyBle_pendingFlashWrite &= (uint8)~CYBLE_PENDING_CCCD_FLASH_CLEAR_BIT;
 632:.\Generated_Source\PSoC4/BLE.c ****             }
 633:.\Generated_Source\PSoC4/BLE.c ****         }
 634:.\Generated_Source\PSoC4/BLE.c ****     }
 635:.\Generated_Source\PSoC4/BLE.c **** #endif /* CYBLE_GATT_DB_CCCD_COUNT != 0u */
 636:.\Generated_Source\PSoC4/BLE.c ****     return(apiResult);
 637:.\Generated_Source\PSoC4/BLE.c **** }
 638:.\Generated_Source\PSoC4/BLE.c **** 
 639:.\Generated_Source\PSoC4/BLE.c **** 
 640:.\Generated_Source\PSoC4/BLE.c **** /******************************************************************************
 641:.\Generated_Source\PSoC4/BLE.c **** * Function Name: CyBle_GapRemoveBondedDevice
 642:.\Generated_Source\PSoC4/BLE.c **** ***************************************************************************//**
 643:.\Generated_Source\PSoC4/BLE.c **** * 
 644:.\Generated_Source\PSoC4/BLE.c **** *  This function marks the device untrusted. It removes the bonding information
 645:.\Generated_Source\PSoC4/BLE.c **** *  of the device including CCCD values. This function removes device from the
 646:.\Generated_Source\PSoC4/BLE.c **** *  white list also when autopopulate white list with bonded devices option is
 647:.\Generated_Source\PSoC4/BLE.c **** *  enabled.
 648:.\Generated_Source\PSoC4/BLE.c **** * 
 649:.\Generated_Source\PSoC4/BLE.c **** *  This function is available only when Bonding requirement is selected in
 650:.\Generated_Source\PSoC4/BLE.c **** *  Security settings.    
 651:.\Generated_Source\PSoC4/BLE.c **** *
 652:.\Generated_Source\PSoC4/BLE.c **** *  \param bdAddr: Pointer to peer device address, of type CYBLE_GAP_BD_ADDR_T.
 653:.\Generated_Source\PSoC4/BLE.c **** *                 If device address is set to 0, then all devices shall be
 654:.\Generated_Source\PSoC4/BLE.c **** *                 removed from trusted list and white list.
 655:.\Generated_Source\PSoC4/BLE.c **** *
 656:.\Generated_Source\PSoC4/BLE.c **** * \return
 657:.\Generated_Source\PSoC4/BLE.c **** *  CYBLE_API_RESULT_T : Return value indicates if the function succeeded or
 658:.\Generated_Source\PSoC4/BLE.c **** *  failed. Following are the possible error codes.
 659:.\Generated_Source\PSoC4/BLE.c **** *
 660:.\Generated_Source\PSoC4/BLE.c **** *   Errors codes                     | Description
ARM GAS  C:\Users\mlgjmoor\AppData\Local\Temp\ccKDuCjD.s 			page 13


 661:.\Generated_Source\PSoC4/BLE.c **** *   ---------------------------------| ------------------------------------
 662:.\Generated_Source\PSoC4/BLE.c **** *   CYBLE_ERROR_OK                   | On successful operation.
 663:.\Generated_Source\PSoC4/BLE.c **** *   CYBLE_ERROR_INVALID_PARAMETER    | On specifying NULL as input parameter for 'bdAddr'.
 664:.\Generated_Source\PSoC4/BLE.c **** *   CYBLE_ERROR_INVALID_OPERATION    | Whitelist is already in use or there is pending write to fla
 665:.\Generated_Source\PSoC4/BLE.c **** *   CYBLE_ERROR_NO_DEVICE_ENTITY     | Device does not exist in the bond list.
 666:.\Generated_Source\PSoC4/BLE.c **** *
 667:.\Generated_Source\PSoC4/BLE.c **** *  \globalvars
 668:.\Generated_Source\PSoC4/BLE.c **** *   The bdHandle is set in cyBle_pendingFlashWrite variable to indicate that
 669:.\Generated_Source\PSoC4/BLE.c **** *   data should be stored to flash by CyBle_StoreBondingData afterwards. 
 670:.\Generated_Source\PSoC4/BLE.c **** *     
 671:.\Generated_Source\PSoC4/BLE.c **** ******************************************************************************/
 672:.\Generated_Source\PSoC4/BLE.c **** CYBLE_API_RESULT_T CyBle_GapRemoveBondedDevice(CYBLE_GAP_BD_ADDR_T* bdAddr)
 673:.\Generated_Source\PSoC4/BLE.c **** {
 674:.\Generated_Source\PSoC4/BLE.c ****     CYBLE_API_RESULT_T apiResult = CYBLE_ERROR_OK;
 675:.\Generated_Source\PSoC4/BLE.c ****     
 676:.\Generated_Source\PSoC4/BLE.c ****     if(cyBle_pendingFlashWrite == 0u)
 677:.\Generated_Source\PSoC4/BLE.c ****     {
 678:.\Generated_Source\PSoC4/BLE.c ****         
 679:.\Generated_Source\PSoC4/BLE.c ****     #if(CYBLE_GATT_DB_CCCD_COUNT != 0u)
 680:.\Generated_Source\PSoC4/BLE.c ****         /* Request to clear CCCD values which will be done by CyBle_StoreBondingData API */
 681:.\Generated_Source\PSoC4/BLE.c ****         uint8 bDevHandle;
 682:.\Generated_Source\PSoC4/BLE.c ****         CYBLE_GAP_BD_ADDR_T invalidBdAddr = {{0u,0u,0u,0u,0u,0u}, 0u};
 683:.\Generated_Source\PSoC4/BLE.c **** 
 684:.\Generated_Source\PSoC4/BLE.c ****         if(memcmp(((uint8 *) &(bdAddr->bdAddr)), ((uint8 *) &(invalidBdAddr.bdAddr)), CYBLE_GAP_BD_
 685:.\Generated_Source\PSoC4/BLE.c **** 	    {
 686:.\Generated_Source\PSoC4/BLE.c ****             /* Request to remove all bonded devices by cyBle_StoreBondingData API */
 687:.\Generated_Source\PSoC4/BLE.c ****             cyBle_pendingFlashWrite |= CYBLE_PENDING_CCCD_FLASH_CLEAR_ALL_BIT;
 688:.\Generated_Source\PSoC4/BLE.c ****         }
 689:.\Generated_Source\PSoC4/BLE.c ****         else
 690:.\Generated_Source\PSoC4/BLE.c ****         {
 691:.\Generated_Source\PSoC4/BLE.c ****             /* Get the BD handle from Address */
 692:.\Generated_Source\PSoC4/BLE.c ****             apiResult = CyBle_GapGetPeerBdHandle(&bDevHandle, bdAddr);
 693:.\Generated_Source\PSoC4/BLE.c ****             if(apiResult == CYBLE_ERROR_OK)
 694:.\Generated_Source\PSoC4/BLE.c ****             {
 695:.\Generated_Source\PSoC4/BLE.c ****                 /* Store BD handle to clear cccd values by CyBle_StoreBondingData API */
 696:.\Generated_Source\PSoC4/BLE.c ****                 cyBle_pendingFlashWrite |= CYBLE_PENDING_CCCD_FLASH_CLEAR_BIT;
 697:.\Generated_Source\PSoC4/BLE.c ****                 cyBle_pendingFlashClearCccdHandle = bDevHandle;
 698:.\Generated_Source\PSoC4/BLE.c ****             }
 699:.\Generated_Source\PSoC4/BLE.c ****         }
 700:.\Generated_Source\PSoC4/BLE.c ****         if(apiResult == CYBLE_ERROR_OK)
 701:.\Generated_Source\PSoC4/BLE.c ****         {
 702:.\Generated_Source\PSoC4/BLE.c ****             #if(CYBLE_AUTO_POPULATE_WHITELIST != 0u)
 703:.\Generated_Source\PSoC4/BLE.c ****                 apiResult = CyBle_GapRemoveDeviceFromWhiteList(bdAddr);
 704:.\Generated_Source\PSoC4/BLE.c ****             #else
 705:.\Generated_Source\PSoC4/BLE.c ****                 apiResult = CyBle_GapRemDeviceFromBondList(bdAddr);
 706:.\Generated_Source\PSoC4/BLE.c ****             #endif
 707:.\Generated_Source\PSoC4/BLE.c ****         }
 708:.\Generated_Source\PSoC4/BLE.c ****     #endif /* CYBLE_GATT_DB_CCCD_COUNT != 0u */
 709:.\Generated_Source\PSoC4/BLE.c ****     }
 710:.\Generated_Source\PSoC4/BLE.c ****     else
 711:.\Generated_Source\PSoC4/BLE.c ****     {
 712:.\Generated_Source\PSoC4/BLE.c ****         apiResult = CYBLE_ERROR_INVALID_OPERATION;
 713:.\Generated_Source\PSoC4/BLE.c ****     }
 714:.\Generated_Source\PSoC4/BLE.c ****     
 715:.\Generated_Source\PSoC4/BLE.c ****     return(apiResult);
 716:.\Generated_Source\PSoC4/BLE.c **** }
 717:.\Generated_Source\PSoC4/BLE.c **** 
ARM GAS  C:\Users\mlgjmoor\AppData\Local\Temp\ccKDuCjD.s 			page 14


 718:.\Generated_Source\PSoC4/BLE.c **** 
 719:.\Generated_Source\PSoC4/BLE.c **** #endif /* (CYBLE_GAP_ROLE_PERIPHERAL || CYBLE_GAP_ROLE_CENTRAL) && (CYBLE_BONDING_REQUIREMENT == CY
 720:.\Generated_Source\PSoC4/BLE.c **** 
 721:.\Generated_Source\PSoC4/BLE.c **** 
 722:.\Generated_Source\PSoC4/BLE.c **** #if(CYBLE_GAP_ROLE_PERIPHERAL || CYBLE_GAP_ROLE_BROADCASTER)
 723:.\Generated_Source\PSoC4/BLE.c **** 
 724:.\Generated_Source\PSoC4/BLE.c ****     /******************************************************************************
 725:.\Generated_Source\PSoC4/BLE.c ****     *  Function Name: CyBle_GappStartAdvertisement
 726:.\Generated_Source\PSoC4/BLE.c ****     ***************************************************************************//**
 727:.\Generated_Source\PSoC4/BLE.c ****     *     
 728:.\Generated_Source\PSoC4/BLE.c ****     *  This function is used to start the advertisement using the advertisement data 
 729:.\Generated_Source\PSoC4/BLE.c ****     *  set in the component customizer's GUI. After invoking this API, the device 
 730:.\Generated_Source\PSoC4/BLE.c ****     *  will be available for connection by the devices configured for GAP central 
 731:.\Generated_Source\PSoC4/BLE.c ****     *  role. It is only included if the device is configured for GAP Peripheral or 
 732:.\Generated_Source\PSoC4/BLE.c ****     *  GAP Peripheral + Central role.
 733:.\Generated_Source\PSoC4/BLE.c ****     *  
 734:.\Generated_Source\PSoC4/BLE.c ****     *  On start of advertisement, GAP Peripheral receives the
 735:.\Generated_Source\PSoC4/BLE.c ****     *  CYBLE_EVT_GAPP_ADVERTISEMENT_START_STOP event. The following events are 
 736:.\Generated_Source\PSoC4/BLE.c ****     *  possible on invoking this function:
 737:.\Generated_Source\PSoC4/BLE.c ****     *  
 738:.\Generated_Source\PSoC4/BLE.c ****     *  * CYBLE_EVT_GAP_DEVICE_CONNECTED - If the device connects to a GAP Central and 
 739:.\Generated_Source\PSoC4/BLE.c ****     *    Link Layer Privacy is disabled in component customizer.
 740:.\Generated_Source\PSoC4/BLE.c ****     *  * CYBLE_EVT_GAP_ENHANCE_CONN_COMPLETE - If the device connects to a GAP Central and 
 741:.\Generated_Source\PSoC4/BLE.c ****     *    Link Layer Privacy is enabled in component customizer.
 742:.\Generated_Source\PSoC4/BLE.c ****     *  * CYBLE_EVT_TIMEOUT: If no device in GAP Central mode connects to this 
 743:.\Generated_Source\PSoC4/BLE.c ****     *                       device within the specified timeout limit. Stack 
 744:.\Generated_Source\PSoC4/BLE.c ****     *                       automatically initiate stop advertising when Slow 
 745:.\Generated_Source\PSoC4/BLE.c ****     *                       advertising was initiated, or starts Slow advertising
 746:.\Generated_Source\PSoC4/BLE.c ****     *                       after Fast advertising timeout occur.
 747:.\Generated_Source\PSoC4/BLE.c ****     *  * CYBLE_EVT_GAPP_ADVERTISEMENT_START_STOP: If device started or stopped
 748:.\Generated_Source\PSoC4/BLE.c ****     *                                               advertising. Use CyBle_GetState()
 749:.\Generated_Source\PSoC4/BLE.c ****     *                                               to determine the state. Sequential 
 750:.\Generated_Source\PSoC4/BLE.c ****     *                                               advertising could be started when
 751:.\Generated_Source\PSoC4/BLE.c ****     *                                               CYBLE_STATE_DISCONNECTED state is
 752:.\Generated_Source\PSoC4/BLE.c ****     *                                               returned.
 753:.\Generated_Source\PSoC4/BLE.c ****     * 
 754:.\Generated_Source\PSoC4/BLE.c ****     *  \param advertisingIntervalType: Fast or slow advertising interval with timings
 755:.\Generated_Source\PSoC4/BLE.c ****     *                                 entered in Advertising settings section of the
 756:.\Generated_Source\PSoC4/BLE.c ****     *                                 customizer.
 757:.\Generated_Source\PSoC4/BLE.c ****     *  * CYBLE_ADVERTISING_FAST   0x00u
 758:.\Generated_Source\PSoC4/BLE.c ****     *  * CYBLE_ADVERTISING_SLOW   0x01u
 759:.\Generated_Source\PSoC4/BLE.c ****     *  * CYBLE_ADVERTISING_CUSTOM 0x02u
 760:.\Generated_Source\PSoC4/BLE.c ****     * 
 761:.\Generated_Source\PSoC4/BLE.c ****     * \return
 762:.\Generated_Source\PSoC4/BLE.c ****     *  CYBLE_API_RESULT_T : Return value indicates if the function succeeded or
 763:.\Generated_Source\PSoC4/BLE.c ****     *  failed. Following are the possible error codes.
 764:.\Generated_Source\PSoC4/BLE.c ****     * 
 765:.\Generated_Source\PSoC4/BLE.c ****     *   Errors codes                      |  Description
 766:.\Generated_Source\PSoC4/BLE.c ****     *   --------------------------------- |  --------------------------------
 767:.\Generated_Source\PSoC4/BLE.c ****     *   CYBLE_ERROR_OK                    |  On successful operation.
 768:.\Generated_Source\PSoC4/BLE.c ****     *   CYBLE_ERROR_INVALID_PARAMETER     |  On passing an invalid parameter.
 769:.\Generated_Source\PSoC4/BLE.c ****     *   CYBLE_ERROR_INVALID_STATE         |  On calling this API not in Disconnected state.
 770:.\Generated_Source\PSoC4/BLE.c ****     *
 771:.\Generated_Source\PSoC4/BLE.c ****     * 
 772:.\Generated_Source\PSoC4/BLE.c ****     *******************************************************************************/
 773:.\Generated_Source\PSoC4/BLE.c ****     CYBLE_API_RESULT_T CyBle_GappStartAdvertisement(uint8 advertisingIntervalType)
 774:.\Generated_Source\PSoC4/BLE.c ****     {
ARM GAS  C:\Users\mlgjmoor\AppData\Local\Temp\ccKDuCjD.s 			page 15


 775:.\Generated_Source\PSoC4/BLE.c ****         CYBLE_API_RESULT_T apiResult;
 776:.\Generated_Source\PSoC4/BLE.c ****         
 777:.\Generated_Source\PSoC4/BLE.c ****         if(advertisingIntervalType > CYBLE_ADVERTISING_CUSTOM)
 778:.\Generated_Source\PSoC4/BLE.c ****         {
 779:.\Generated_Source\PSoC4/BLE.c ****             apiResult = CYBLE_ERROR_INVALID_PARAMETER;
 780:.\Generated_Source\PSoC4/BLE.c ****         }
 781:.\Generated_Source\PSoC4/BLE.c ****         else if((CYBLE_STATE_DISCONNECTED == CyBle_GetState()) && ((cyBle_eventHandlerFlag & CYBLE_
 782:.\Generated_Source\PSoC4/BLE.c ****         {   
 783:.\Generated_Source\PSoC4/BLE.c ****             if(advertisingIntervalType == CYBLE_ADVERTISING_FAST)
 784:.\Generated_Source\PSoC4/BLE.c ****             {
 785:.\Generated_Source\PSoC4/BLE.c ****                 cyBle_discoveryModeInfo.advTo = CYBLE_FAST_ADV_TIMEOUT;
 786:.\Generated_Source\PSoC4/BLE.c ****                 cyBle_discoveryModeInfo.advParam->advIntvMin = CYBLE_FAST_ADV_INT_MIN;
 787:.\Generated_Source\PSoC4/BLE.c ****                 cyBle_discoveryModeInfo.advParam->advIntvMax = CYBLE_FAST_ADV_INT_MAX;
 788:.\Generated_Source\PSoC4/BLE.c ****             }
 789:.\Generated_Source\PSoC4/BLE.c ****             else if(advertisingIntervalType == CYBLE_ADVERTISING_SLOW)
 790:.\Generated_Source\PSoC4/BLE.c ****             {
 791:.\Generated_Source\PSoC4/BLE.c ****                 cyBle_discoveryModeInfo.advTo = CYBLE_SLOW_ADV_TIMEOUT;
 792:.\Generated_Source\PSoC4/BLE.c ****                 cyBle_discoveryModeInfo.advParam->advIntvMin = CYBLE_SLOW_ADV_INT_MIN;
 793:.\Generated_Source\PSoC4/BLE.c ****                 cyBle_discoveryModeInfo.advParam->advIntvMax = CYBLE_SLOW_ADV_INT_MAX;
 794:.\Generated_Source\PSoC4/BLE.c ****             }       
 795:.\Generated_Source\PSoC4/BLE.c ****             else /* Do not update advertising intervals */
 796:.\Generated_Source\PSoC4/BLE.c ****             {
 797:.\Generated_Source\PSoC4/BLE.c ****             }
 798:.\Generated_Source\PSoC4/BLE.c ****             cyBle_advertisingIntervalType = advertisingIntervalType;
 799:.\Generated_Source\PSoC4/BLE.c ****             apiResult = CyBle_GappEnterDiscoveryMode(&cyBle_discoveryModeInfo);
 800:.\Generated_Source\PSoC4/BLE.c ****         
 801:.\Generated_Source\PSoC4/BLE.c ****             if(CYBLE_ERROR_OK == apiResult)
 802:.\Generated_Source\PSoC4/BLE.c ****             {
 803:.\Generated_Source\PSoC4/BLE.c ****                 cyBle_eventHandlerFlag |= CYBLE_START_FLAG;
 804:.\Generated_Source\PSoC4/BLE.c ****             }
 805:.\Generated_Source\PSoC4/BLE.c ****         }
 806:.\Generated_Source\PSoC4/BLE.c ****         else
 807:.\Generated_Source\PSoC4/BLE.c ****         {
 808:.\Generated_Source\PSoC4/BLE.c ****             apiResult = CYBLE_ERROR_INVALID_STATE;
 809:.\Generated_Source\PSoC4/BLE.c ****         }
 810:.\Generated_Source\PSoC4/BLE.c **** 
 811:.\Generated_Source\PSoC4/BLE.c ****         return (apiResult);
 812:.\Generated_Source\PSoC4/BLE.c ****     }
 813:.\Generated_Source\PSoC4/BLE.c **** 
 814:.\Generated_Source\PSoC4/BLE.c ****     
 815:.\Generated_Source\PSoC4/BLE.c ****     /******************************************************************************
 816:.\Generated_Source\PSoC4/BLE.c ****     * Function Name: CyBle_GappStopAdvertisement
 817:.\Generated_Source\PSoC4/BLE.c ****     ***************************************************************************//**
 818:.\Generated_Source\PSoC4/BLE.c ****     * 
 819:.\Generated_Source\PSoC4/BLE.c ****     *   This function can be used to exit from discovery mode. After the execution 
 820:.\Generated_Source\PSoC4/BLE.c ****     *   of this function, there will no longer be any advertisements. On stopping 
 821:.\Generated_Source\PSoC4/BLE.c ****     *   advertising, GAP Peripheral receives CYBLE_EVT_GAPP_ADVERTISEMENT_START_STOP
 822:.\Generated_Source\PSoC4/BLE.c ****     *   event. It is expected that the application layer tracks the function call 
 823:.\Generated_Source\PSoC4/BLE.c ****     *   performed before occurrence of this event as this event can occur on making 
 824:.\Generated_Source\PSoC4/BLE.c ****     *   a call to Cy_BleGappStartAdvertisement(), CyBle_GappEnterDiscoveryMode(), 
 825:.\Generated_Source\PSoC4/BLE.c ****     *   or CyBle_GappStartAdvertisement() functions as well.
 826:.\Generated_Source\PSoC4/BLE.c ****     *   
 827:.\Generated_Source\PSoC4/BLE.c ****     *   The following event occurs on invoking this function:
 828:.\Generated_Source\PSoC4/BLE.c ****     *   * CYBLE_EVT_GAPP_ADVERTISEMENT_START_STOP
 829:.\Generated_Source\PSoC4/BLE.c ****     * 
 830:.\Generated_Source\PSoC4/BLE.c ****     *  \return
 831:.\Generated_Source\PSoC4/BLE.c ****     *   None
ARM GAS  C:\Users\mlgjmoor\AppData\Local\Temp\ccKDuCjD.s 			page 16


 832:.\Generated_Source\PSoC4/BLE.c ****     * 
 833:.\Generated_Source\PSoC4/BLE.c ****     *******************************************************************************/
 834:.\Generated_Source\PSoC4/BLE.c ****     void CyBle_GappStopAdvertisement(void)
 835:.\Generated_Source\PSoC4/BLE.c ****     {
 836:.\Generated_Source\PSoC4/BLE.c ****         CyBle_GappExitDiscoveryMode();
 837:.\Generated_Source\PSoC4/BLE.c ****         cyBle_eventHandlerFlag |= CYBLE_STOP_FLAG;
 838:.\Generated_Source\PSoC4/BLE.c ****     }
 839:.\Generated_Source\PSoC4/BLE.c ****     
 840:.\Generated_Source\PSoC4/BLE.c ****     
 841:.\Generated_Source\PSoC4/BLE.c ****     /******************************************************************************
 842:.\Generated_Source\PSoC4/BLE.c ****     * Function Name: CyBle_ChangeAdDeviceAddress
 843:.\Generated_Source\PSoC4/BLE.c ****     ***************************************************************************//**
 844:.\Generated_Source\PSoC4/BLE.c ****     * 
 845:.\Generated_Source\PSoC4/BLE.c ****     *  This API is used to set the Bluetooth device address into the advertisement 
 846:.\Generated_Source\PSoC4/BLE.c ****     *  or scan response data structure.
 847:.\Generated_Source\PSoC4/BLE.c ****     * 
 848:.\Generated_Source\PSoC4/BLE.c ****     *  \param bdAddr: Bluetooth Device address. The variable is of type CYBLE_GAP_BD_ADDR_T
 849:.\Generated_Source\PSoC4/BLE.c ****     *  \param dest: 0 - selects advertisement structure, not zero value selects scan 
 850:.\Generated_Source\PSoC4/BLE.c ****     *               response structure.
 851:.\Generated_Source\PSoC4/BLE.c ****     * 
 852:.\Generated_Source\PSoC4/BLE.c ****     * \return
 853:.\Generated_Source\PSoC4/BLE.c ****     *  None
 854:.\Generated_Source\PSoC4/BLE.c ****     *  
 855:.\Generated_Source\PSoC4/BLE.c ****     *******************************************************************************/
 856:.\Generated_Source\PSoC4/BLE.c ****     void CyBle_ChangeAdDeviceAddress(const CYBLE_GAP_BD_ADDR_T* bdAddr, uint8 dest)
 857:.\Generated_Source\PSoC4/BLE.c ****     {
 858:.\Generated_Source\PSoC4/BLE.c ****         uint8 i;
 859:.\Generated_Source\PSoC4/BLE.c ****         uint8 *destBuffer = NULL;
 860:.\Generated_Source\PSoC4/BLE.c ****         
 861:.\Generated_Source\PSoC4/BLE.c ****         if(dest == 0u)      /* Destination - advertising structure */
 862:.\Generated_Source\PSoC4/BLE.c ****         {
 863:.\Generated_Source\PSoC4/BLE.c ****             #ifdef CYBLE_ADV_PKT_INDEX_BLUETOOTH_DEVICE_ADDRESS
 864:.\Generated_Source\PSoC4/BLE.c ****                 destBuffer = &cyBle_discoveryData.advData[CYBLE_ADV_PKT_INDEX_BLUETOOTH_DEVICE_ADDR
 865:.\Generated_Source\PSoC4/BLE.c ****             #endif /* CYBLE_ADV_PKT_INDEX_BLUETOOTH_DEVICE_ADDRESS */
 866:.\Generated_Source\PSoC4/BLE.c ****         }
 867:.\Generated_Source\PSoC4/BLE.c ****         else                /* Destination - scan response structure */
 868:.\Generated_Source\PSoC4/BLE.c ****         {
 869:.\Generated_Source\PSoC4/BLE.c ****             #ifdef CYBLE_SCN_PKT_INDEX_BLUETOOTH_DEVICE_ADDRESS
 870:.\Generated_Source\PSoC4/BLE.c ****                 destBuffer = &cyBle_scanRspData.scanRspData[CYBLE_SCN_PKT_INDEX_BLUETOOTH_DEVICE_AD
 871:.\Generated_Source\PSoC4/BLE.c ****             #endif /* CYBLE_SCN_PKT_INDEX_BLUETOOTH_DEVICE_ADDRESS */    
 872:.\Generated_Source\PSoC4/BLE.c ****         }
 873:.\Generated_Source\PSoC4/BLE.c ****         
 874:.\Generated_Source\PSoC4/BLE.c ****         if(destBuffer != NULL)
 875:.\Generated_Source\PSoC4/BLE.c ****         {
 876:.\Generated_Source\PSoC4/BLE.c ****             /* Update Device Address type */
 877:.\Generated_Source\PSoC4/BLE.c ****             destBuffer[0u] = bdAddr->type;
 878:.\Generated_Source\PSoC4/BLE.c ****             
 879:.\Generated_Source\PSoC4/BLE.c ****             for(i = 0u; i < CYBLE_GAP_BD_ADDR_SIZE; i++)
 880:.\Generated_Source\PSoC4/BLE.c ****             {
 881:.\Generated_Source\PSoC4/BLE.c ****                 destBuffer[i + 1u] = bdAddr->bdAddr[i];
 882:.\Generated_Source\PSoC4/BLE.c ****             }
 883:.\Generated_Source\PSoC4/BLE.c ****         }
 884:.\Generated_Source\PSoC4/BLE.c ****     }
 885:.\Generated_Source\PSoC4/BLE.c ****   
 886:.\Generated_Source\PSoC4/BLE.c **** #endif /* CYBLE_GAP_ROLE_PERIPHERAL || CYBLE_GAP_ROLE_BROADCASTER */
 887:.\Generated_Source\PSoC4/BLE.c **** 
 888:.\Generated_Source\PSoC4/BLE.c **** 
ARM GAS  C:\Users\mlgjmoor\AppData\Local\Temp\ccKDuCjD.s 			page 17


 889:.\Generated_Source\PSoC4/BLE.c **** #if(CYBLE_GAP_ROLE_CENTRAL || CYBLE_GAP_ROLE_OBSERVER)
 890:.\Generated_Source\PSoC4/BLE.c **** 
 891:.\Generated_Source\PSoC4/BLE.c ****     /******************************************************************************
 892:.\Generated_Source\PSoC4/BLE.c ****     * Function Name: CyBle_GapcStartScan
 893:.\Generated_Source\PSoC4/BLE.c ****     ***************************************************************************//**
 894:.\Generated_Source\PSoC4/BLE.c ****     * 
 895:.\Generated_Source\PSoC4/BLE.c ****     *   This function is used for discovering GAP peripheral devices that are 
 896:.\Generated_Source\PSoC4/BLE.c ****     *   available for connection. It performs the scanning routine using the 
 897:.\Generated_Source\PSoC4/BLE.c ****     *   parameters entered in the component's customizer.
 898:.\Generated_Source\PSoC4/BLE.c ****     *   
 899:.\Generated_Source\PSoC4/BLE.c ****     *   As soon as the discovery operation starts, CYBLE_EVT_GAPC_SCAN_START_STOP 
 900:.\Generated_Source\PSoC4/BLE.c ****     *   event is generated. The CYBLE_EVT_GAPC_SCAN_PROGRESS_RESULT event is 
 901:.\Generated_Source\PSoC4/BLE.c ****     *   generated when a GAP peripheral device is located. There are three discovery
 902:.\Generated_Source\PSoC4/BLE.c ****     *   procedures can be selected in the customizer's GUI:
 903:.\Generated_Source\PSoC4/BLE.c ****     *   
 904:.\Generated_Source\PSoC4/BLE.c ****     *   * Observation procedure: A device performing the observer role receives only
 905:.\Generated_Source\PSoC4/BLE.c ****     *                            advertisement data from devices irrespective of 
 906:.\Generated_Source\PSoC4/BLE.c ****     *                            their discoverable mode settings. Advertisement 
 907:.\Generated_Source\PSoC4/BLE.c ****     *                            data received is provided by the event,      
 908:.\Generated_Source\PSoC4/BLE.c ****     *                            CYBLE_EVT_GAPC_SCAN_PROGRESS_RESULT. This procedure
 909:.\Generated_Source\PSoC4/BLE.c ****     *                            requires the scanType sub parameter to be passive
 910:.\Generated_Source\PSoC4/BLE.c ****     *                            scanning. 
 911:.\Generated_Source\PSoC4/BLE.c ****     *   
 912:.\Generated_Source\PSoC4/BLE.c ****     *   * Limited Discovery procedure: A device performing the limited discovery
 913:.\Generated_Source\PSoC4/BLE.c ****     *                                  procedure receives advertisement data and 
 914:.\Generated_Source\PSoC4/BLE.c ****     *                                  scan# response data from devices in the 
 915:.\Generated_Source\PSoC4/BLE.c ****     *                                  limited discoverable mode only. Received data
 916:.\Generated_Source\PSoC4/BLE.c ****     *                                  is provided by the event, 
 917:.\Generated_Source\PSoC4/BLE.c ****     *                                  CYBLE_EVT_GAPC_SCAN_PROGRESS_RESULT. This 
 918:.\Generated_Source\PSoC4/BLE.c ****     *                                  procedure requires the scanType sub-parameter 
 919:.\Generated_Source\PSoC4/BLE.c ****     *                                  to be active scanning.
 920:.\Generated_Source\PSoC4/BLE.c ****     *   
 921:.\Generated_Source\PSoC4/BLE.c ****     *   * General Discovery procedure: A device performing the general discovery 
 922:.\Generated_Source\PSoC4/BLE.c ****     *                                  procedure receives the advertisement data and
 923:.\Generated_Source\PSoC4/BLE.c ****     *                                  scan response data from devices in both 
 924:.\Generated_Source\PSoC4/BLE.c ****     *                                  limited discoverable mode and the general 
 925:.\Generated_Source\PSoC4/BLE.c ****     *                                  discoverable mode. Received data is provided
 926:.\Generated_Source\PSoC4/BLE.c ****     *                                  by the event,
 927:.\Generated_Source\PSoC4/BLE.c ****     *                                  CYBLE_EVT_GAPC_SCAN_PROGRESS_RESULT. This 
 928:.\Generated_Source\PSoC4/BLE.c ****     *                                  procedure requires the scanType sub-parameter
 929:.\Generated_Source\PSoC4/BLE.c ****     *                                  to be active scanning.
 930:.\Generated_Source\PSoC4/BLE.c ****     *   
 931:.\Generated_Source\PSoC4/BLE.c ****     *   Every Advertisement / Scan response packet received results in a new event, 
 932:.\Generated_Source\PSoC4/BLE.c ****     *   CYBLE_EVT_GAPC_SCAN_PROGRESS_RESULT.
 933:.\Generated_Source\PSoC4/BLE.c ****     *   If 'scanTo' sub-parameter is a non-zero value, then upon commencement of 
 934:.\Generated_Source\PSoC4/BLE.c ****     *   discovery procedure and elapsed time = 'scanTo', CYBLE_EVT_TIMEOUT event
 935:.\Generated_Source\PSoC4/BLE.c ****     *   is generated with the event parameter indicating CYBLE_GAP_SCAN_TO.
 936:.\Generated_Source\PSoC4/BLE.c ****     *   Possible generated events are:
 937:.\Generated_Source\PSoC4/BLE.c ****     *   * CYBLE_EVT_GAPC_SCAN_START_STOP: If a device started or stopped scanning. 
 938:.\Generated_Source\PSoC4/BLE.c ****     *                                     Use CyBle_GetState() to determine the 
 939:.\Generated_Source\PSoC4/BLE.c ****     *                                     state. Sequential scanning could be 
 940:.\Generated_Source\PSoC4/BLE.c ****     *                                     started when CYBLE_STATE_DISCONNECTED 
 941:.\Generated_Source\PSoC4/BLE.c ****     *                                     state is returned. 
 942:.\Generated_Source\PSoC4/BLE.c ****     *   * CYBLE_EVT_GAPC_SCAN_PROGRESS_RESULT 
 943:.\Generated_Source\PSoC4/BLE.c ****     *   * CYBLE_EVT_TIMEOUT (CYBLE_GAP_SCAN_TO)
 944:.\Generated_Source\PSoC4/BLE.c ****     * 
 945:.\Generated_Source\PSoC4/BLE.c ****     *   \param scanningIntervalType:  Fast or slow scanning interval with
ARM GAS  C:\Users\mlgjmoor\AppData\Local\Temp\ccKDuCjD.s 			page 18


 946:.\Generated_Source\PSoC4/BLE.c ****     *       timings entered in Scan settings section of the customizer.
 947:.\Generated_Source\PSoC4/BLE.c ****     * 	  * CYBLE_SCANNING_FAST   0x00u
 948:.\Generated_Source\PSoC4/BLE.c ****     * 	  * CYBLE_SCANNING_SLOW   0x01u
 949:.\Generated_Source\PSoC4/BLE.c ****     * 	  * CYBLE_SCANNING_CUSTOM 0x02u
 950:.\Generated_Source\PSoC4/BLE.c ****     * 
 951:.\Generated_Source\PSoC4/BLE.c ****     * \return
 952:.\Generated_Source\PSoC4/BLE.c ****     *  CYBLE_API_RESULT_T : Return value indicates if the function succeeded or
 953:.\Generated_Source\PSoC4/BLE.c ****     *  failed. Following are the possible error codes.
 954:.\Generated_Source\PSoC4/BLE.c ****     *
 955:.\Generated_Source\PSoC4/BLE.c ****     *   Errors codes                       | Description
 956:.\Generated_Source\PSoC4/BLE.c ****     *   ---------------------------------- | -----------------------------------
 957:.\Generated_Source\PSoC4/BLE.c ****     *   CYBLE_ERROR_OK                     | On successful operation.
 958:.\Generated_Source\PSoC4/BLE.c ****     *   CYBLE_ERROR_STACK_INTERNAL         | An error occurred in the BLE stack.
 959:.\Generated_Source\PSoC4/BLE.c ****     *   CYBLE_ERROR_INVALID_PARAMETER      | On passing an invalid parameter.
 960:.\Generated_Source\PSoC4/BLE.c ****     *  
 961:.\Generated_Source\PSoC4/BLE.c ****     *******************************************************************************/
 962:.\Generated_Source\PSoC4/BLE.c ****     CYBLE_API_RESULT_T CyBle_GapcStartScan(uint8 scanningIntervalType)
 963:.\Generated_Source\PSoC4/BLE.c ****     {
 964:.\Generated_Source\PSoC4/BLE.c ****         CYBLE_API_RESULT_T apiResult;
 965:.\Generated_Source\PSoC4/BLE.c **** 
 966:.\Generated_Source\PSoC4/BLE.c ****         if(scanningIntervalType > CYBLE_SCANNING_CUSTOM)
 967:.\Generated_Source\PSoC4/BLE.c ****         {
 968:.\Generated_Source\PSoC4/BLE.c ****             apiResult = CYBLE_ERROR_INVALID_PARAMETER;
 969:.\Generated_Source\PSoC4/BLE.c ****         }
 970:.\Generated_Source\PSoC4/BLE.c ****         else
 971:.\Generated_Source\PSoC4/BLE.c ****         {
 972:.\Generated_Source\PSoC4/BLE.c ****             if(scanningIntervalType == CYBLE_SCANNING_FAST)
 973:.\Generated_Source\PSoC4/BLE.c ****             {
 974:.\Generated_Source\PSoC4/BLE.c ****                 cyBle_discoveryInfo.scanTo = CYBLE_FAST_SCAN_TIMEOUT;
 975:.\Generated_Source\PSoC4/BLE.c ****                 cyBle_discoveryInfo.scanIntv = CYBLE_FAST_SCAN_INTERVAL;
 976:.\Generated_Source\PSoC4/BLE.c ****                 cyBle_discoveryInfo.scanWindow = CYBLE_FAST_SCAN_WINDOW;
 977:.\Generated_Source\PSoC4/BLE.c ****             }
 978:.\Generated_Source\PSoC4/BLE.c ****             else if(scanningIntervalType == CYBLE_SCANNING_SLOW)
 979:.\Generated_Source\PSoC4/BLE.c ****             {
 980:.\Generated_Source\PSoC4/BLE.c ****                 cyBle_discoveryInfo.scanTo = CYBLE_SLOW_SCAN_TIMEOUT;
 981:.\Generated_Source\PSoC4/BLE.c ****                 cyBle_discoveryInfo.scanIntv = CYBLE_SLOW_SCAN_INTERVAL;
 982:.\Generated_Source\PSoC4/BLE.c ****                 cyBle_discoveryInfo.scanWindow = CYBLE_SLOW_SCAN_WINDOW;
 983:.\Generated_Source\PSoC4/BLE.c ****             }       
 984:.\Generated_Source\PSoC4/BLE.c ****             else /* Do not update scanning intervals */
 985:.\Generated_Source\PSoC4/BLE.c ****             {
 986:.\Generated_Source\PSoC4/BLE.c ****             }
 987:.\Generated_Source\PSoC4/BLE.c ****             
 988:.\Generated_Source\PSoC4/BLE.c ****             cyBle_scanningIntervalType = scanningIntervalType;
 989:.\Generated_Source\PSoC4/BLE.c ****             apiResult = CyBle_GapcStartDiscovery(&cyBle_discoveryInfo);
 990:.\Generated_Source\PSoC4/BLE.c ****         
 991:.\Generated_Source\PSoC4/BLE.c ****             if(CYBLE_ERROR_OK == apiResult)
 992:.\Generated_Source\PSoC4/BLE.c ****             {
 993:.\Generated_Source\PSoC4/BLE.c ****                 cyBle_eventHandlerFlag |= CYBLE_START_FLAG;
 994:.\Generated_Source\PSoC4/BLE.c ****             }
 995:.\Generated_Source\PSoC4/BLE.c ****         }
 996:.\Generated_Source\PSoC4/BLE.c ****        
 997:.\Generated_Source\PSoC4/BLE.c ****         return (apiResult);
 998:.\Generated_Source\PSoC4/BLE.c ****     }
 999:.\Generated_Source\PSoC4/BLE.c ****     
1000:.\Generated_Source\PSoC4/BLE.c ****     
1001:.\Generated_Source\PSoC4/BLE.c ****     /******************************************************************************
1002:.\Generated_Source\PSoC4/BLE.c ****     * Function Name: CyBle_GapcStopScan
ARM GAS  C:\Users\mlgjmoor\AppData\Local\Temp\ccKDuCjD.s 			page 19


1003:.\Generated_Source\PSoC4/BLE.c ****     ***************************************************************************//**
1004:.\Generated_Source\PSoC4/BLE.c ****     * 
1005:.\Generated_Source\PSoC4/BLE.c ****     *   This function used to stop the discovery of devices. On stopping discovery
1006:.\Generated_Source\PSoC4/BLE.c ****     *   operation, CYBLE_EVT_GAPC_SCAN_START_STOP event is generated. Application
1007:.\Generated_Source\PSoC4/BLE.c ****     *   layer needs to keep track of the function call made before receiving this
1008:.\Generated_Source\PSoC4/BLE.c ****     *   event to associate this event with either the start or stop discovery
1009:.\Generated_Source\PSoC4/BLE.c ****     *   function.
1010:.\Generated_Source\PSoC4/BLE.c ****     * 
1011:.\Generated_Source\PSoC4/BLE.c ****     *   Possible events generated are:
1012:.\Generated_Source\PSoC4/BLE.c ****     *    * CYBLE_EVT_GAPC_SCAN_START_STOP
1013:.\Generated_Source\PSoC4/BLE.c ****     * 
1014:.\Generated_Source\PSoC4/BLE.c ****     *  \return
1015:.\Generated_Source\PSoC4/BLE.c ****     *   None
1016:.\Generated_Source\PSoC4/BLE.c ****     * 
1017:.\Generated_Source\PSoC4/BLE.c ****     *******************************************************************************/
1018:.\Generated_Source\PSoC4/BLE.c ****     void CyBle_GapcStopScan(void)
1019:.\Generated_Source\PSoC4/BLE.c ****     {
1020:.\Generated_Source\PSoC4/BLE.c ****         CyBle_GapcStopDiscovery();
1021:.\Generated_Source\PSoC4/BLE.c ****         
1022:.\Generated_Source\PSoC4/BLE.c ****         cyBle_eventHandlerFlag |= CYBLE_STOP_FLAG;
1023:.\Generated_Source\PSoC4/BLE.c ****     }
1024:.\Generated_Source\PSoC4/BLE.c **** 
1025:.\Generated_Source\PSoC4/BLE.c ****     
1026:.\Generated_Source\PSoC4/BLE.c **** #endif /* CYBLE_GAP_ROLE_CENTRAL || CYBLE_GAP_ROLE_OBSERVER */
1027:.\Generated_Source\PSoC4/BLE.c **** 
1028:.\Generated_Source\PSoC4/BLE.c **** 
1029:.\Generated_Source\PSoC4/BLE.c **** #if(CYBLE_GAP_ROLE_CENTRAL)
1030:.\Generated_Source\PSoC4/BLE.c **** 
1031:.\Generated_Source\PSoC4/BLE.c ****     /******************************************************************************
1032:.\Generated_Source\PSoC4/BLE.c ****     * Function Name: CyBle_GapcConnectDevice
1033:.\Generated_Source\PSoC4/BLE.c ****     ***************************************************************************//**
1034:.\Generated_Source\PSoC4/BLE.c ****     * 
1035:.\Generated_Source\PSoC4/BLE.c ****     *  This function is used to send a connection request to the remote device with
1036:.\Generated_Source\PSoC4/BLE.c ****     *  the connection parameters set in the component customizer. This function needs
1037:.\Generated_Source\PSoC4/BLE.c ****     *  to be called only once after the target device is discovered by 
1038:.\Generated_Source\PSoC4/BLE.c ****     *  CyBle_GapcStartScan() and further scanning has stopped. Scanning is 
1039:.\Generated_Source\PSoC4/BLE.c ****     *  successfully stopped on invoking CyBle_GapcStopScan() and then receiving the
1040:.\Generated_Source\PSoC4/BLE.c ****     *  event CYBLE_EVT_GAPC_SCAN_START_STOP with sub-parameter 'success' = 0x01u.
1041:.\Generated_Source\PSoC4/BLE.c ****     *  
1042:.\Generated_Source\PSoC4/BLE.c ****     *  On successful connection, the following events are generated at the GAP 
1043:.\Generated_Source\PSoC4/BLE.c ****     *  Central device (as well as the GAP Peripheral device), in the following order.
1044:.\Generated_Source\PSoC4/BLE.c ****     *  * CYBLE_EVT_GATT_CONNECT_IND
1045:.\Generated_Source\PSoC4/BLE.c ****     *  * CYBLE_EVT_GAP_DEVICE_CONNECTED - If the device connects to a GAP Central and 
1046:.\Generated_Source\PSoC4/BLE.c ****     *    Link Layer Privacy is disabled in component customizer.
1047:.\Generated_Source\PSoC4/BLE.c ****     *  * CYBLE_EVT_GAP_ENHANCE_CONN_COMPLETE - If the device connects to a GAP Central and 
1048:.\Generated_Source\PSoC4/BLE.c ****     *    Link Layer Privacy is enabled in component customizer.
1049:.\Generated_Source\PSoC4/BLE.c ****     *  * CYBLE_EVT_GAP_DEVICE_CONNECTED
1050:.\Generated_Source\PSoC4/BLE.c ****     *  
1051:.\Generated_Source\PSoC4/BLE.c ****     *  A procedure is considered to have timed out if a connection response packet is 
1052:.\Generated_Source\PSoC4/BLE.c ****     *  not received within time set by cyBle_connectingTimeout global variable
1053:.\Generated_Source\PSoC4/BLE.c ****     *  (30 seconds by default). CYBLE_EVT_TIMEOUT event with CYBLE_GENERIC_TO parameter
1054:.\Generated_Source\PSoC4/BLE.c ****     *  will indicate about connection procedure timeout. Connection will automatically
1055:.\Generated_Source\PSoC4/BLE.c ****     *  be canceled and state will be changed to CYBLE_STATE_DISCONNECTED.
1056:.\Generated_Source\PSoC4/BLE.c ****     * 
1057:.\Generated_Source\PSoC4/BLE.c ****     *  \param address: The device address of the remote device to connect to. 
1058:.\Generated_Source\PSoC4/BLE.c ****     *  
1059:.\Generated_Source\PSoC4/BLE.c ****     * \return
ARM GAS  C:\Users\mlgjmoor\AppData\Local\Temp\ccKDuCjD.s 			page 20


1060:.\Generated_Source\PSoC4/BLE.c ****     *  CYBLE_API_RESULT_T : Return value indicates if the function succeeded or 
1061:.\Generated_Source\PSoC4/BLE.c ****     *  failed. Following are the possible error codes.
1062:.\Generated_Source\PSoC4/BLE.c ****     *
1063:.\Generated_Source\PSoC4/BLE.c ****     *   Errors codes                       | Description
1064:.\Generated_Source\PSoC4/BLE.c ****     *   ------------                       | -----------
1065:.\Generated_Source\PSoC4/BLE.c ****     *   CYBLE_ERROR_OK                     | On successful operation.
1066:.\Generated_Source\PSoC4/BLE.c ****     *   CYBLE_ERROR_STACK_INTERNAL         | On error occurred in the BLE stack.
1067:.\Generated_Source\PSoC4/BLE.c ****     *   CYBLE_ERROR_INVALID_PARAMETER      | On passing an invalid parameter.
1068:.\Generated_Source\PSoC4/BLE.c ****     *   CYBLE_ERROR_INVALID_STATE          | On calling this API not in Disconnected state.
1069:.\Generated_Source\PSoC4/BLE.c ****     *  
1070:.\Generated_Source\PSoC4/BLE.c ****     ******************************************************************************/
1071:.\Generated_Source\PSoC4/BLE.c ****     CYBLE_API_RESULT_T CyBle_GapcConnectDevice(const CYBLE_GAP_BD_ADDR_T * address)
1072:.\Generated_Source\PSoC4/BLE.c ****     {
1073:.\Generated_Source\PSoC4/BLE.c ****         CYBLE_API_RESULT_T apiResult;
1074:.\Generated_Source\PSoC4/BLE.c ****         uint8 i;
1075:.\Generated_Source\PSoC4/BLE.c **** 
1076:.\Generated_Source\PSoC4/BLE.c ****         if(CyBle_GetState() != CYBLE_STATE_DISCONNECTED)
1077:.\Generated_Source\PSoC4/BLE.c ****         {
1078:.\Generated_Source\PSoC4/BLE.c ****             apiResult = CYBLE_ERROR_INVALID_STATE;
1079:.\Generated_Source\PSoC4/BLE.c ****         }
1080:.\Generated_Source\PSoC4/BLE.c ****         else if(address == NULL)
1081:.\Generated_Source\PSoC4/BLE.c ****         {
1082:.\Generated_Source\PSoC4/BLE.c ****             apiResult = CYBLE_ERROR_INVALID_PARAMETER;
1083:.\Generated_Source\PSoC4/BLE.c ****         }
1084:.\Generated_Source\PSoC4/BLE.c ****         else
1085:.\Generated_Source\PSoC4/BLE.c ****         {
1086:.\Generated_Source\PSoC4/BLE.c ****             for(i = 0u; i < CYBLE_GAP_BD_ADDR_SIZE; i++)
1087:.\Generated_Source\PSoC4/BLE.c ****             {
1088:.\Generated_Source\PSoC4/BLE.c ****                 cyBle_connectionParameters.peerBdAddr[i] = address->bdAddr[i];
1089:.\Generated_Source\PSoC4/BLE.c ****             }
1090:.\Generated_Source\PSoC4/BLE.c ****             cyBle_connectionParameters.peerAddrType = address -> type;
1091:.\Generated_Source\PSoC4/BLE.c ****             apiResult = CyBle_GapcInitConnection(&cyBle_connectionParameters);
1092:.\Generated_Source\PSoC4/BLE.c ****             
1093:.\Generated_Source\PSoC4/BLE.c ****             if(apiResult == CYBLE_ERROR_OK)
1094:.\Generated_Source\PSoC4/BLE.c ****             {
1095:.\Generated_Source\PSoC4/BLE.c ****                 CyBle_SetState(CYBLE_STATE_CONNECTING);
1096:.\Generated_Source\PSoC4/BLE.c ****                 if(cyBle_connectingTimeout != 0u)
1097:.\Generated_Source\PSoC4/BLE.c ****                 {
1098:.\Generated_Source\PSoC4/BLE.c ****                     (void)CyBle_StartTimer(cyBle_connectingTimeout);
1099:.\Generated_Source\PSoC4/BLE.c ****                 }
1100:.\Generated_Source\PSoC4/BLE.c ****             }
1101:.\Generated_Source\PSoC4/BLE.c ****         }
1102:.\Generated_Source\PSoC4/BLE.c ****         return (apiResult);
1103:.\Generated_Source\PSoC4/BLE.c ****     }
1104:.\Generated_Source\PSoC4/BLE.c ****     
1105:.\Generated_Source\PSoC4/BLE.c **** 
1106:.\Generated_Source\PSoC4/BLE.c ****     /******************************************************************************
1107:.\Generated_Source\PSoC4/BLE.c ****     * Function Name: CyBle_GapcCancelDeviceConnection
1108:.\Generated_Source\PSoC4/BLE.c ****     ***************************************************************************//**
1109:.\Generated_Source\PSoC4/BLE.c ****     * 
1110:.\Generated_Source\PSoC4/BLE.c ****     *  This function cancels a previously initiated connection with the remote 
1111:.\Generated_Source\PSoC4/BLE.c ****     *  device. It is a blocking function. No event is generated on calling this 
1112:.\Generated_Source\PSoC4/BLE.c ****     *  function. If the devices are already connected then this function should not
1113:.\Generated_Source\PSoC4/BLE.c ****     *  be used. If you intend to disconnect from an existing connection, the function
1114:.\Generated_Source\PSoC4/BLE.c ****     *  CyBle_GapDisconnect() should be used.
1115:.\Generated_Source\PSoC4/BLE.c ****     * 
1116:.\Generated_Source\PSoC4/BLE.c ****     * \return
ARM GAS  C:\Users\mlgjmoor\AppData\Local\Temp\ccKDuCjD.s 			page 21


1117:.\Generated_Source\PSoC4/BLE.c ****     *  CYBLE_API_RESULT_T : Return value indicates if the function succeeded or 
1118:.\Generated_Source\PSoC4/BLE.c ****     *  failed. Following are the possible error codes.
1119:.\Generated_Source\PSoC4/BLE.c ****     *
1120:.\Generated_Source\PSoC4/BLE.c ****     *   Errors codes                       | Description
1121:.\Generated_Source\PSoC4/BLE.c ****     *   ---------------------------------- | --------------------------------------
1122:.\Generated_Source\PSoC4/BLE.c ****     *   CYBLE_ERROR_OK                     | On successful operation.
1123:.\Generated_Source\PSoC4/BLE.c ****     *   CYBLE_ERROR_STACK_INTERNAL         | An error occurred in the BLE stack.
1124:.\Generated_Source\PSoC4/BLE.c ****     *   CYBLE_ERROR_INVALID_STATE          | On calling this API not in Connecting state.
1125:.\Generated_Source\PSoC4/BLE.c ****     *  
1126:.\Generated_Source\PSoC4/BLE.c ****     *******************************************************************************/
1127:.\Generated_Source\PSoC4/BLE.c ****     CYBLE_API_RESULT_T CyBle_GapcCancelDeviceConnection(void)
1128:.\Generated_Source\PSoC4/BLE.c ****     {
1129:.\Generated_Source\PSoC4/BLE.c ****         CYBLE_API_RESULT_T apiResult;
1130:.\Generated_Source\PSoC4/BLE.c ****         
1131:.\Generated_Source\PSoC4/BLE.c ****         if(CyBle_GetState() != CYBLE_STATE_CONNECTING)
1132:.\Generated_Source\PSoC4/BLE.c ****         {
1133:.\Generated_Source\PSoC4/BLE.c ****             apiResult = CYBLE_ERROR_INVALID_STATE;
1134:.\Generated_Source\PSoC4/BLE.c ****         }
1135:.\Generated_Source\PSoC4/BLE.c ****         else 
1136:.\Generated_Source\PSoC4/BLE.c ****         {
1137:.\Generated_Source\PSoC4/BLE.c ****             apiResult = CyBle_GapcCancelConnection();
1138:.\Generated_Source\PSoC4/BLE.c ****             
1139:.\Generated_Source\PSoC4/BLE.c ****             if(cyBle_connectingTimeout != 0u)
1140:.\Generated_Source\PSoC4/BLE.c ****             {
1141:.\Generated_Source\PSoC4/BLE.c ****                 (void)CyBle_StopTimer();
1142:.\Generated_Source\PSoC4/BLE.c ****             }
1143:.\Generated_Source\PSoC4/BLE.c **** 
1144:.\Generated_Source\PSoC4/BLE.c ****             if(apiResult == CYBLE_ERROR_OK)
1145:.\Generated_Source\PSoC4/BLE.c ****             {
1146:.\Generated_Source\PSoC4/BLE.c ****                 CyBle_SetState(CYBLE_STATE_DISCONNECTED);
1147:.\Generated_Source\PSoC4/BLE.c ****             }
1148:.\Generated_Source\PSoC4/BLE.c ****         }
1149:.\Generated_Source\PSoC4/BLE.c ****         return (apiResult);
1150:.\Generated_Source\PSoC4/BLE.c ****     }    
1151:.\Generated_Source\PSoC4/BLE.c **** 
1152:.\Generated_Source\PSoC4/BLE.c ****     
1153:.\Generated_Source\PSoC4/BLE.c **** #endif /* CYBLE_GAP_ROLE_CENTRAL */
1154:.\Generated_Source\PSoC4/BLE.c **** 
1155:.\Generated_Source\PSoC4/BLE.c **** 
1156:.\Generated_Source\PSoC4/BLE.c **** #if(CYBLE_GATT_ROLE_SERVER)
1157:.\Generated_Source\PSoC4/BLE.c **** 
1158:.\Generated_Source\PSoC4/BLE.c **** #if(CYBLE_GAP_ROLE_PERIPHERAL)
1159:.\Generated_Source\PSoC4/BLE.c **** 
1160:.\Generated_Source\PSoC4/BLE.c ****         /******************************************************************************
1161:.\Generated_Source\PSoC4/BLE.c ****         * Function Name: CyBle_ChangeAdLocalName
1162:.\Generated_Source\PSoC4/BLE.c ****         ***************************************************************************//**
1163:.\Generated_Source\PSoC4/BLE.c ****         *  This API is used to set the local device name in the advertisement or scan 
1164:.\Generated_Source\PSoC4/BLE.c ****         *  response data structure.
1165:.\Generated_Source\PSoC4/BLE.c ****         * 
1166:.\Generated_Source\PSoC4/BLE.c ****         *  \param name: The local device name string to be set in advertisement data 
1167:.\Generated_Source\PSoC4/BLE.c ****         *            structure.
1168:.\Generated_Source\PSoC4/BLE.c ****         *  \param dest: 0 - advertisement structure, not zero value selects scan response
1169:.\Generated_Source\PSoC4/BLE.c ****         *              structure.
1170:.\Generated_Source\PSoC4/BLE.c ****         * 
1171:.\Generated_Source\PSoC4/BLE.c ****         * \return
1172:.\Generated_Source\PSoC4/BLE.c ****         *  None
1173:.\Generated_Source\PSoC4/BLE.c ****         *  
ARM GAS  C:\Users\mlgjmoor\AppData\Local\Temp\ccKDuCjD.s 			page 22


1174:.\Generated_Source\PSoC4/BLE.c ****         *******************************************************************************/
1175:.\Generated_Source\PSoC4/BLE.c ****         static void CyBle_ChangeAdLocalName(const char8 name[], uint8 dest)
1176:.\Generated_Source\PSoC4/BLE.c ****         {
  25              		.loc 1 1176 0
  26              		.cfi_startproc
  27              	.LVL0:
  28 0000 70B5     		push	{r4, r5, r6, lr}
  29              		.cfi_def_cfa_offset 16
  30              		.cfi_offset 4, -16
  31              		.cfi_offset 5, -12
  32              		.cfi_offset 6, -8
  33              		.cfi_offset 14, -4
  34              	.LVL1:
1177:.\Generated_Source\PSoC4/BLE.c ****             uint8 i;
1178:.\Generated_Source\PSoC4/BLE.c ****             uint8 flag = 0u;
1179:.\Generated_Source\PSoC4/BLE.c ****             uint8 adLength = 0u;
1180:.\Generated_Source\PSoC4/BLE.c ****             uint8 byteCounter = 0u;
1181:.\Generated_Source\PSoC4/BLE.c ****             uint8 *destBuffer;
1182:.\Generated_Source\PSoC4/BLE.c ****             uint8 maxLength;
1183:.\Generated_Source\PSoC4/BLE.c ****             
1184:.\Generated_Source\PSoC4/BLE.c ****             if(dest == 0u)      /* Destination - advertising structure */
  35              		.loc 1 1184 0
  36 0002 0029     		cmp	r1, #0
  37 0004 05D1     		bne	.L2
  38              	.LVL2:
1185:.\Generated_Source\PSoC4/BLE.c ****             {
1186:.\Generated_Source\PSoC4/BLE.c ****                 destBuffer = cyBle_discoveryData.advData;
1187:.\Generated_Source\PSoC4/BLE.c ****                 maxLength = cyBle_discoveryData.advDataLen;
  39              		.loc 1 1187 0
  40 0006 1A4C     		ldr	r4, .L15
  41 0008 E67F     		ldrb	r6, [r4, #31]
  42              	.LVL3:
  43              	.L4:
1188:.\Generated_Source\PSoC4/BLE.c ****             }
1189:.\Generated_Source\PSoC4/BLE.c ****             else                /* Destination - scan response structure */
1190:.\Generated_Source\PSoC4/BLE.c ****             {
1191:.\Generated_Source\PSoC4/BLE.c ****                 destBuffer = cyBle_scanRspData.scanRspData;
1192:.\Generated_Source\PSoC4/BLE.c ****                 maxLength = cyBle_scanRspData.scanRspDataLen;
1193:.\Generated_Source\PSoC4/BLE.c ****             }
1194:.\Generated_Source\PSoC4/BLE.c ****             
1195:.\Generated_Source\PSoC4/BLE.c ****             while((byteCounter < maxLength) && (0u == flag))
1196:.\Generated_Source\PSoC4/BLE.c ****             {
1197:.\Generated_Source\PSoC4/BLE.c ****                 adLength = destBuffer[byteCounter];
1198:.\Generated_Source\PSoC4/BLE.c ****                 
1199:.\Generated_Source\PSoC4/BLE.c ****                 if(0u != adLength)
1200:.\Generated_Source\PSoC4/BLE.c ****                 {
1201:.\Generated_Source\PSoC4/BLE.c ****                     /* Increment byte counter so it can point to AD type */
1202:.\Generated_Source\PSoC4/BLE.c ****                     byteCounter++;
1203:.\Generated_Source\PSoC4/BLE.c ****                     
1204:.\Generated_Source\PSoC4/BLE.c ****                     if((CYBLE_SHORT_LOCAL_NAME == destBuffer[byteCounter]) || 
1205:.\Generated_Source\PSoC4/BLE.c ****                        (CYBLE_COMPLETE_LOCAL_NAME == destBuffer[byteCounter]))
1206:.\Generated_Source\PSoC4/BLE.c ****                     {
1207:.\Generated_Source\PSoC4/BLE.c ****                         /* Start of the Local Name AD type was fount. Set flag and exit the loop. *
1208:.\Generated_Source\PSoC4/BLE.c ****                         flag = 1u;
  44              		.loc 1 1208 0
  45 000a 0023     		mov	r3, #0
  46 000c 0022     		mov	r2, #0
ARM GAS  C:\Users\mlgjmoor\AppData\Local\Temp\ccKDuCjD.s 			page 23


  47 000e 0025     		mov	r5, #0
  48 0010 0FE0     		b	.L3
  49              	.LVL4:
  50              	.L2:
1192:.\Generated_Source\PSoC4/BLE.c ****             }
  51              		.loc 1 1192 0
  52 0012 184C     		ldr	r4, .L15+4
  53 0014 E67F     		ldrb	r6, [r4, #31]
  54              	.LVL5:
  55 0016 F8E7     		b	.L4
  56              	.LVL6:
  57              	.L7:
1197:.\Generated_Source\PSoC4/BLE.c ****                 
  58              		.loc 1 1197 0
  59 0018 E25C     		ldrb	r2, [r4, r3]
  60              	.LVL7:
1199:.\Generated_Source\PSoC4/BLE.c ****                 {
  61              		.loc 1 1199 0
  62 001a 002A     		cmp	r2, #0
  63 001c 0DD0     		beq	.L5
1202:.\Generated_Source\PSoC4/BLE.c ****                     
  64              		.loc 1 1202 0
  65 001e 0133     		add	r3, r3, #1
  66              	.LVL8:
  67 0020 DBB2     		uxtb	r3, r3
  68              	.LVL9:
1204:.\Generated_Source\PSoC4/BLE.c ****                        (CYBLE_COMPLETE_LOCAL_NAME == destBuffer[byteCounter]))
  69              		.loc 1 1204 0
  70 0022 E15C     		ldrb	r1, [r4, r3]
  71 0024 0839     		sub	r1, r1, #8
  72 0026 0129     		cmp	r1, #1
  73 0028 02D9     		bls	.L14
1209:.\Generated_Source\PSoC4/BLE.c ****                     }
1210:.\Generated_Source\PSoC4/BLE.c ****                     else
1211:.\Generated_Source\PSoC4/BLE.c ****                     {
1212:.\Generated_Source\PSoC4/BLE.c ****                         byteCounter += adLength;
  74              		.loc 1 1212 0
  75 002a 9B18     		add	r3, r3, r2
  76              	.LVL10:
  77 002c DBB2     		uxtb	r3, r3
  78              	.LVL11:
  79 002e 00E0     		b	.L3
  80              	.L14:
1208:.\Generated_Source\PSoC4/BLE.c ****                     }
  81              		.loc 1 1208 0
  82 0030 0125     		mov	r5, #1
  83              	.LVL12:
  84              	.L3:
1195:.\Generated_Source\PSoC4/BLE.c ****             {
  85              		.loc 1 1195 0
  86 0032 B342     		cmp	r3, r6
  87 0034 01D2     		bcs	.L5
1195:.\Generated_Source\PSoC4/BLE.c ****             {
  88              		.loc 1 1195 0 is_stmt 0 discriminator 1
  89 0036 002D     		cmp	r5, #0
  90 0038 EED0     		beq	.L7
  91              	.L5:
ARM GAS  C:\Users\mlgjmoor\AppData\Local\Temp\ccKDuCjD.s 			page 24


1213:.\Generated_Source\PSoC4/BLE.c ****                     }
1214:.\Generated_Source\PSoC4/BLE.c ****                 }
1215:.\Generated_Source\PSoC4/BLE.c ****                 else
1216:.\Generated_Source\PSoC4/BLE.c ****                 {
1217:.\Generated_Source\PSoC4/BLE.c ****                     /* The end of advertisement data structure was encountered though exit the loop
1218:.\Generated_Source\PSoC4/BLE.c ****                     break;
1219:.\Generated_Source\PSoC4/BLE.c ****                 }
1220:.\Generated_Source\PSoC4/BLE.c ****             }
1221:.\Generated_Source\PSoC4/BLE.c ****             
1222:.\Generated_Source\PSoC4/BLE.c ****             if(0u != flag)
  92              		.loc 1 1222 0 is_stmt 1
  93 003a 002D     		cmp	r5, #0
  94 003c 16D0     		beq	.L1
1223:.\Generated_Source\PSoC4/BLE.c ****             {
1224:.\Generated_Source\PSoC4/BLE.c ****                 /* Reuse "adLength" to hold location of the last character of local name in 
1225:.\Generated_Source\PSoC4/BLE.c ****                    AD structure. */
1226:.\Generated_Source\PSoC4/BLE.c ****                 adLength += byteCounter;
  95              		.loc 1 1226 0
  96 003e D218     		add	r2, r2, r3
  97              	.LVL13:
  98 0040 D1B2     		uxtb	r1, r2
  99              	.LVL14:
1227:.\Generated_Source\PSoC4/BLE.c ****                 
1228:.\Generated_Source\PSoC4/BLE.c ****                 /* Increment byte counter to point to start of the local Name string */
1229:.\Generated_Source\PSoC4/BLE.c ****                 byteCounter++;
 100              		.loc 1 1229 0
 101 0042 0133     		add	r3, r3, #1
 102              	.LVL15:
 103 0044 DBB2     		uxtb	r3, r3
 104              	.LVL16:
1230:.\Generated_Source\PSoC4/BLE.c ****                 
1231:.\Generated_Source\PSoC4/BLE.c ****                 for(i = byteCounter; ((i < (adLength)) && (CYBLE_NULL_CHARCTER != name[i - byteCoun
 105              		.loc 1 1231 0
 106 0046 1A1C     		mov	r2, r3
 107 0048 02E0     		b	.L9
 108              	.LVL17:
 109              	.L11:
1232:.\Generated_Source\PSoC4/BLE.c ****                 {
1233:.\Generated_Source\PSoC4/BLE.c ****                     destBuffer[i] = (uint8)name[i - byteCounter];
 110              		.loc 1 1233 0 discriminator 4
 111 004a A554     		strb	r5, [r4, r2]
1231:.\Generated_Source\PSoC4/BLE.c ****                 {
 112              		.loc 1 1231 0 discriminator 4
 113 004c 0132     		add	r2, r2, #1
 114              	.LVL18:
 115 004e D2B2     		uxtb	r2, r2
 116              	.LVL19:
 117              	.L9:
1231:.\Generated_Source\PSoC4/BLE.c ****                 {
 118              		.loc 1 1231 0 is_stmt 0 discriminator 1
 119 0050 8A42     		cmp	r2, r1
 120 0052 09D2     		bcs	.L12
1231:.\Generated_Source\PSoC4/BLE.c ****                 {
 121              		.loc 1 1231 0 discriminator 3
 122 0054 D51A     		sub	r5, r2, r3
 123 0056 455D     		ldrb	r5, [r0, r5]
 124 0058 002D     		cmp	r5, #0
ARM GAS  C:\Users\mlgjmoor\AppData\Local\Temp\ccKDuCjD.s 			page 25


 125 005a F6D1     		bne	.L11
 126 005c 04E0     		b	.L12
 127              	.LVL20:
 128              	.L13:
1234:.\Generated_Source\PSoC4/BLE.c ****                 }
1235:.\Generated_Source\PSoC4/BLE.c ****                 
1236:.\Generated_Source\PSoC4/BLE.c ****                 /* This loop handles the case when new local name is shorted than old one.
1237:.\Generated_Source\PSoC4/BLE.c ****                    In this case all remaining characters should be null characters. */
1238:.\Generated_Source\PSoC4/BLE.c ****                 while(adLength > i)
1239:.\Generated_Source\PSoC4/BLE.c ****                 {
1240:.\Generated_Source\PSoC4/BLE.c ****                     /* Terminate string */
1241:.\Generated_Source\PSoC4/BLE.c ****                     destBuffer[i] = (uint8)CYBLE_NULL_CHARCTER;
 129              		.loc 1 1241 0 is_stmt 1
 130 005e A318     		add	r3, r4, r2
 131 0060 0020     		mov	r0, #0
 132 0062 1870     		strb	r0, [r3]
1242:.\Generated_Source\PSoC4/BLE.c ****                     i++;
 133              		.loc 1 1242 0
 134 0064 0132     		add	r2, r2, #1
 135              	.LVL21:
 136 0066 D2B2     		uxtb	r2, r2
 137              	.LVL22:
 138              	.L12:
1238:.\Generated_Source\PSoC4/BLE.c ****                 {
 139              		.loc 1 1238 0
 140 0068 9142     		cmp	r1, r2
 141 006a F8D8     		bhi	.L13
 142              	.LVL23:
 143              	.L1:
1243:.\Generated_Source\PSoC4/BLE.c ****                 }
1244:.\Generated_Source\PSoC4/BLE.c ****             }
1245:.\Generated_Source\PSoC4/BLE.c ****         }
 144              		.loc 1 1245 0
 145              		@ sp needed
 146              	.LVL24:
 147              	.LVL25:
 148 006c 70BD     		pop	{r4, r5, r6, pc}
 149              	.L16:
 150 006e C046     		.align	2
 151              	.L15:
 152 0070 00000000 		.word	.LANCHOR0
 153 0074 00000000 		.word	.LANCHOR1
 154              		.cfi_endproc
 155              	.LFE11:
 156              		.size	CyBle_ChangeAdLocalName, .-CyBle_ChangeAdLocalName
 157              		.section	.text.CyBle_ServiceInit,"ax",%progbits
 158              		.align	2
 159              		.global	CyBle_ServiceInit
 160              		.code	16
 161              		.thumb_func
 162              		.type	CyBle_ServiceInit, %function
 163              	CyBle_ServiceInit:
 164              	.LFB3:
 202:.\Generated_Source\PSoC4/BLE.c ****     #if(CYBLE_GATT_ROLE_CLIENT)
 165              		.loc 1 202 0
 166              		.cfi_startproc
 167 0000 08B5     		push	{r3, lr}
ARM GAS  C:\Users\mlgjmoor\AppData\Local\Temp\ccKDuCjD.s 			page 26


 168              		.cfi_def_cfa_offset 8
 169              		.cfi_offset 3, -8
 170              		.cfi_offset 14, -4
 256:.\Generated_Source\PSoC4/BLE.c ****     #endif /* CYBLE_CUSTOM */
 171              		.loc 1 256 0
 172 0002 FFF7FEFF 		bl	CyBle_CustomInit
 173              	.LVL26:
 338:.\Generated_Source\PSoC4/BLE.c **** 
 174              		.loc 1 338 0
 175              		@ sp needed
 176 0006 08BD     		pop	{r3, pc}
 177              		.cfi_endproc
 178              	.LFE3:
 179              		.size	CyBle_ServiceInit, .-CyBle_ServiceInit
 180              		.section	.text.CyBle_Init,"ax",%progbits
 181              		.align	2
 182              		.global	CyBle_Init
 183              		.code	16
 184              		.thumb_func
 185              		.type	CyBle_Init, %function
 186              	CyBle_Init:
 187              	.LFB2:
 153:.\Generated_Source\PSoC4/BLE.c ****     cyBle_eventHandlerFlag = 0u;
 188              		.loc 1 153 0
 189              		.cfi_startproc
 190 0000 10B5     		push	{r4, lr}
 191              		.cfi_def_cfa_offset 8
 192              		.cfi_offset 4, -8
 193              		.cfi_offset 14, -4
 154:.\Generated_Source\PSoC4/BLE.c ****     cyBle_busyStatus = CYBLE_STACK_STATE_FREE;
 194              		.loc 1 154 0
 195 0002 0024     		mov	r4, #0
 196 0004 064B     		ldr	r3, .L19
 197 0006 1C70     		strb	r4, [r3]
 155:.\Generated_Source\PSoC4/BLE.c **** 
 198              		.loc 1 155 0
 199 0008 064B     		ldr	r3, .L19+4
 200 000a 1C70     		strb	r4, [r3]
 158:.\Generated_Source\PSoC4/BLE.c ****     #endif /* (CYBLE_GAP_ROLE_PERIPHERAL || CYBLE_GAP_ROLE_BROADCASTER)  */
 201              		.loc 1 158 0
 202 000c 064B     		ldr	r3, .L19+8
 203 000e 1C70     		strb	r4, [r3]
 181:.\Generated_Source\PSoC4/BLE.c **** 
 204              		.loc 1 181 0
 205 0010 FFF7FEFF 		bl	CyBle_ServiceInit
 206              	.LVL27:
 184:.\Generated_Source\PSoC4/BLE.c ****         cyBle_peerBonding = CYBLE_GAP_BONDING_NONE;
 207              		.loc 1 184 0
 208 0014 054B     		ldr	r3, .L19+12
 209 0016 1C70     		strb	r4, [r3]
 185:.\Generated_Source\PSoC4/BLE.c ****     #endif  /* (CYBLE_BONDING_REQUIREMENT == CYBLE_BONDING_YES) */
 210              		.loc 1 185 0
 211 0018 054B     		ldr	r3, .L19+16
 212 001a 1C70     		strb	r4, [r3]
 188:.\Generated_Source\PSoC4/BLE.c **** 
 213              		.loc 1 188 0
 214              		@ sp needed
ARM GAS  C:\Users\mlgjmoor\AppData\Local\Temp\ccKDuCjD.s 			page 27


 215 001c 10BD     		pop	{r4, pc}
 216              	.L20:
 217 001e C046     		.align	2
 218              	.L19:
 219 0020 00000000 		.word	cyBle_eventHandlerFlag
 220 0024 00000000 		.word	cyBle_busyStatus
 221 0028 00000000 		.word	cyBle_advertisingIntervalType
 222 002c 00000000 		.word	cyBle_pendingFlashWrite
 223 0030 00000000 		.word	cyBle_peerBonding
 224              		.cfi_endproc
 225              	.LFE2:
 226              		.size	CyBle_Init, .-CyBle_Init
 227              		.section	.text.CyBle_Start,"ax",%progbits
 228              		.align	2
 229              		.global	CyBle_Start
 230              		.code	16
 231              		.thumb_func
 232              		.type	CyBle_Start, %function
 233              	CyBle_Start:
 234              	.LFB4:
 400:.\Generated_Source\PSoC4/BLE.c ****     CYBLE_API_RESULT_T apiResult = CYBLE_ERROR_OK;
 235              		.loc 1 400 0
 236              		.cfi_startproc
 237              	.LVL28:
 238 0000 10B5     		push	{r4, lr}
 239              		.cfi_def_cfa_offset 8
 240              		.cfi_offset 4, -8
 241              		.cfi_offset 14, -4
 242 0002 90B0     		sub	sp, sp, #64
 243              		.cfi_def_cfa_offset 72
 244 0004 041C     		mov	r4, r0
 245              	.LVL29:
 405:.\Generated_Source\PSoC4/BLE.c ****     {
 246              		.loc 1 405 0
 247 0006 0BA8     		add	r0, sp, #44
 248              	.LVL30:
 249 0008 2249     		ldr	r1, .L25
 250 000a 1422     		mov	r2, #20
 251 000c FFF7FEFF 		bl	memcpy
 252              	.LVL31:
 417:.\Generated_Source\PSoC4/BLE.c ****     {
 253              		.loc 1 417 0
 254 0010 2023     		mov	r3, #32
 255 0012 214A     		ldr	r2, .L25+4
 256 0014 D35C     		ldrb	r3, [r2, r3]
 257 0016 002B     		cmp	r3, #0
 258 0018 05D1     		bne	.L22
 419:.\Generated_Source\PSoC4/BLE.c ****         cyBle_initVar = 1u;
 259              		.loc 1 419 0
 260 001a FFF7FEFF 		bl	CyBle_Init
 261              	.LVL32:
 420:.\Generated_Source\PSoC4/BLE.c ****     }
 262              		.loc 1 420 0
 263 001e 0121     		mov	r1, #1
 264 0020 2023     		mov	r3, #32
 265 0022 1D4A     		ldr	r2, .L25+4
 266 0024 D154     		strb	r1, [r2, r3]
ARM GAS  C:\Users\mlgjmoor\AppData\Local\Temp\ccKDuCjD.s 			page 28


 267              	.L22:
 423:.\Generated_Source\PSoC4/BLE.c ****     {
 268              		.loc 1 423 0
 269 0026 002C     		cmp	r4, #0
 270 0028 30D0     		beq	.L24
 425:.\Generated_Source\PSoC4/BLE.c ****         
 271              		.loc 1 425 0
 272 002a 1C4B     		ldr	r3, .L25+8
 273 002c 1C60     		str	r4, [r3]
 274              	.LBB2:
 444:.\Generated_Source\PSoC4/BLE.c ****             stackConfig.dleConfig = &dleConfigParams;
 275              		.loc 1 444 0
 276 002e 08AC     		add	r4, sp, #32
 277              	.LVL33:
 278 0030 05AA     		add	r2, sp, #20
 279 0032 0992     		str	r2, [sp, #36]
 445:.\Generated_Source\PSoC4/BLE.c ****             
 280              		.loc 1 445 0
 281 0034 06AB     		add	r3, sp, #24
 282 0036 0893     		str	r3, [sp, #32]
 448:.\Generated_Source\PSoC4/BLE.c ****                                        CYBLE_SECURE_CONN_FEATURE;
 283              		.loc 1 448 0
 284 0038 0221     		mov	r1, #2
 285 003a 2181     		strh	r1, [r4, #8]
 452:.\Generated_Source\PSoC4/BLE.c ****             dleConfigParams.dleMaxRxCapability = CYBLE_LL_MAX_RX_PAYLOAD_SIZE;
 286              		.loc 1 452 0
 287 003c 1931     		add	r1, r1, #25
 288 003e 1980     		strh	r1, [r3]
 453:.\Generated_Source\PSoC4/BLE.c ****             dleConfigParams.dleNumTxBuffer = CYBLE_LL_DEFAULT_NUM_ACL_TX_PACKETS;
 289              		.loc 1 453 0
 290 0040 5980     		strh	r1, [r3, #2]
 454:.\Generated_Source\PSoC4/BLE.c ****         #if(CYBLE_DLE_FEATURE_ENABLED)
 291              		.loc 1 454 0
 292 0042 1739     		sub	r1, r1, #23
 293 0044 1971     		strb	r1, [r3, #4]
 460:.\Generated_Source\PSoC4/BLE.c ****         #if(CYBLE_LL_PRIVACY_FEATURE_ENABLED)
 294              		.loc 1 460 0
 295 0046 0823     		mov	r3, #8
 296 0048 1370     		strb	r3, [r2]
 462:.\Generated_Source\PSoC4/BLE.c ****         #endif /* CYBLE_LL_PRIVACY_FEATURE_ENABLED */
 297              		.loc 1 462 0
 298 004a FFF7FEFF 		bl	CyBle_EnablePrivacyFeature
 299              	.LVL34:
 465:.\Generated_Source\PSoC4/BLE.c ****             }
 300              		.loc 1 465 0
 301 004e 201C     		mov	r0, r4
 302 0050 1621     		mov	r1, #22
 303 0052 6944     		add	r1, r1, sp
 304 0054 FFF7FEFF 		bl	CyBle_StackSetFeatureConfig
 305              	.LVL35:
 306              	.LBE2:
 468:.\Generated_Source\PSoC4/BLE.c ****         {
 307              		.loc 1 468 0
 308 0058 0028     		cmp	r0, #0
 309 005a 18D1     		bne	.L23
 473:.\Generated_Source\PSoC4/BLE.c ****                     CYBLE_STACK_RAM_SIZE - CYBLE_GATT_PREPARE_WRITE_BUFF_LEN, cyBle_stackDataBuff, 
 310              		.loc 1 473 0
ARM GAS  C:\Users\mlgjmoor\AppData\Local\Temp\ccKDuCjD.s 			page 29


 311 005c 0523     		mov	r3, #5
 312 005e 0093     		str	r3, [sp]
 313 0060 0F4B     		ldr	r3, .L25+12
 314 0062 0193     		str	r3, [sp, #4]
 315 0064 0F4B     		ldr	r3, .L25+16
 316 0066 0293     		str	r3, [sp, #8]
 317 0068 0F48     		ldr	r0, .L25+20
 318              	.LVL36:
 319 006a 1049     		ldr	r1, .L25+24
 320 006c D822     		mov	r2, #216
 321 006e 1201     		lsl	r2, r2, #4
 322 0070 0BAB     		add	r3, sp, #44
 323 0072 FFF7FEFF 		bl	CyBle_StackInit
 324              	.LVL37:
 486:.\Generated_Source\PSoC4/BLE.c ****             {
 325              		.loc 1 486 0
 326 0076 0028     		cmp	r0, #0
 327 0078 09D1     		bne	.L23
 488:.\Generated_Source\PSoC4/BLE.c ****                 
 328              		.loc 1 488 0
 329 007a 0122     		mov	r2, #1
 330 007c 0C4B     		ldr	r3, .L25+28
 331 007e 1A70     		strb	r2, [r3]
 495:.\Generated_Source\PSoC4/BLE.c ****             #endif /* CYBLE_GATT_ROLE_SERVER */
 332              		.loc 1 495 0
 333 0080 0C48     		ldr	r0, .L25+32
 334              	.LVL38:
 335 0082 1421     		mov	r1, #20
 336 0084 1332     		add	r2, r2, #19
 337 0086 FFF7FEFF 		bl	CyBle_GattsDbRegister
 338              	.LVL39:
 339 008a 00E0     		b	.L23
 340              	.LVL40:
 341              	.L24:
 502:.\Generated_Source\PSoC4/BLE.c ****     }
 342              		.loc 1 502 0
 343 008c 0120     		mov	r0, #1
 344              	.LVL41:
 345              	.L23:
 506:.\Generated_Source\PSoC4/BLE.c **** 
 346              		.loc 1 506 0
 347 008e 10B0     		add	sp, sp, #64
 348              		@ sp needed
 349 0090 10BD     		pop	{r4, pc}
 350              	.L26:
 351 0092 C046     		.align	2
 352              	.L25:
 353 0094 00000000 		.word	.LANCHOR2
 354 0098 00000000 		.word	.LANCHOR1
 355 009c 00000000 		.word	CyBle_ApplCallback
 356 00a0 00000000 		.word	cyBle_flashStorage
 357 00a4 79020000 		.word	633
 358 00a8 00000000 		.word	CyBle_EventHandler
 359 00ac 00000000 		.word	.LANCHOR3
 360 00b0 00000000 		.word	cyBle_state
 361 00b4 00000000 		.word	cyBle_gattDB
 362              		.cfi_endproc
ARM GAS  C:\Users\mlgjmoor\AppData\Local\Temp\ccKDuCjD.s 			page 30


 363              	.LFE4:
 364              		.size	CyBle_Start, .-CyBle_Start
 365              		.section	.text.CyBle_Stop,"ax",%progbits
 366              		.align	2
 367              		.global	CyBle_Stop
 368              		.code	16
 369              		.thumb_func
 370              		.type	CyBle_Stop, %function
 371              	CyBle_Stop:
 372              	.LFB5:
 522:.\Generated_Source\PSoC4/BLE.c ****     CyBle_Shutdown();                         /* Stop all ongoing activities */
 373              		.loc 1 522 0
 374              		.cfi_startproc
 375 0000 08B5     		push	{r3, lr}
 376              		.cfi_def_cfa_offset 8
 377              		.cfi_offset 3, -8
 378              		.cfi_offset 14, -4
 523:.\Generated_Source\PSoC4/BLE.c ****     CyBle_SetState(CYBLE_STATE_STOPPED);
 379              		.loc 1 523 0
 380 0002 FFF7FEFF 		bl	CyBle_Shutdown
 381              	.LVL42:
 524:.\Generated_Source\PSoC4/BLE.c ****     #if(CYBLE_SHARING_MODE_EXPORT)
 382              		.loc 1 524 0
 383 0006 0022     		mov	r2, #0
 384 0008 014B     		ldr	r3, .L28
 385 000a 1A70     		strb	r2, [r3]
 531:.\Generated_Source\PSoC4/BLE.c **** 
 386              		.loc 1 531 0
 387              		@ sp needed
 388 000c 08BD     		pop	{r3, pc}
 389              	.L29:
 390 000e C046     		.align	2
 391              	.L28:
 392 0010 00000000 		.word	cyBle_state
 393              		.cfi_endproc
 394              	.LFE5:
 395              		.size	CyBle_Stop, .-CyBle_Stop
 396              		.section	.text.CyBle_StoreBondingData,"ax",%progbits
 397              		.align	2
 398              		.global	CyBle_StoreBondingData
 399              		.code	16
 400              		.thumb_func
 401              		.type	CyBle_StoreBondingData, %function
 402              	CyBle_StoreBondingData:
 403              	.LFB6:
 575:.\Generated_Source\PSoC4/BLE.c ****     CYBLE_API_RESULT_T apiResult = CYBLE_ERROR_OK;
 404              		.loc 1 575 0
 405              		.cfi_startproc
 406              	.LVL43:
 407 0000 10B5     		push	{r4, lr}
 408              		.cfi_def_cfa_offset 8
 409              		.cfi_offset 4, -8
 410              		.cfi_offset 14, -4
 411 0002 84B0     		sub	sp, sp, #16
 412              		.cfi_def_cfa_offset 24
 413 0004 041C     		mov	r4, r0
 414              	.LVL44:
ARM GAS  C:\Users\mlgjmoor\AppData\Local\Temp\ccKDuCjD.s 			page 31


 579:.\Generated_Source\PSoC4/BLE.c ****     {
 415              		.loc 1 579 0
 416 0006 334B     		ldr	r3, .L41
 417 0008 1B78     		ldrb	r3, [r3]
 418 000a DB07     		lsl	r3, r3, #31
 419 000c 0BD5     		bpl	.L39
 581:.\Generated_Source\PSoC4/BLE.c ****         if(apiResult == CYBLE_ERROR_OK)
 420              		.loc 1 581 0
 421 000e FFF7FEFF 		bl	CyBle_StoreStackData
 422              	.LVL45:
 582:.\Generated_Source\PSoC4/BLE.c ****         {
 423              		.loc 1 582 0
 424 0012 0028     		cmp	r0, #0
 425 0014 0AD1     		bne	.L31
 584:.\Generated_Source\PSoC4/BLE.c ****             /* Change apiResult if there are more pending data to store */
 426              		.loc 1 584 0
 427 0016 2F4A     		ldr	r2, .L41
 428 0018 1378     		ldrb	r3, [r2]
 429 001a 0121     		mov	r1, #1
 430 001c 8B43     		bic	r3, r1
 431 001e 1370     		strb	r3, [r2]
 586:.\Generated_Source\PSoC4/BLE.c ****             {
 432              		.loc 1 586 0
 433 0020 9B07     		lsl	r3, r3, #30
 434 0022 02D4     		bmi	.L40
 435 0024 02E0     		b	.L31
 436              	.LVL46:
 437              	.L39:
 576:.\Generated_Source\PSoC4/BLE.c ****     
 438              		.loc 1 576 0
 439 0026 0020     		mov	r0, #0
 440              	.LVL47:
 441 0028 00E0     		b	.L31
 442              	.LVL48:
 443              	.L40:
 588:.\Generated_Source\PSoC4/BLE.c ****             }
 444              		.loc 1 588 0
 445 002a 2820     		mov	r0, #40
 446              	.LVL49:
 447              	.L31:
 594:.\Generated_Source\PSoC4/BLE.c ****         ((cyBle_pendingFlashWrite & CYBLE_PENDING_CCCD_FLASH_WRITE_BIT) != 0u) &&
 448              		.loc 1 594 0
 449 002c 0028     		cmp	r0, #0
 450 002e 01D0     		beq	.L32
 594:.\Generated_Source\PSoC4/BLE.c ****         ((cyBle_pendingFlashWrite & CYBLE_PENDING_CCCD_FLASH_WRITE_BIT) != 0u) &&
 451              		.loc 1 594 0 is_stmt 0 discriminator 2
 452 0030 002C     		cmp	r4, #0
 453 0032 19D0     		beq	.L33
 454              	.L32:
 595:.\Generated_Source\PSoC4/BLE.c ****         (cyBle_connHandle.bdHandle <= CYBLE_GAP_MAX_BONDED_DEVICE))
 455              		.loc 1 595 0 is_stmt 1 discriminator 3
 456 0034 274B     		ldr	r3, .L41
 457 0036 1B78     		ldrb	r3, [r3]
 594:.\Generated_Source\PSoC4/BLE.c ****         ((cyBle_pendingFlashWrite & CYBLE_PENDING_CCCD_FLASH_WRITE_BIT) != 0u) &&
 458              		.loc 1 594 0 discriminator 3
 459 0038 9B07     		lsl	r3, r3, #30
 460 003a 15D5     		bpl	.L33
ARM GAS  C:\Users\mlgjmoor\AppData\Local\Temp\ccKDuCjD.s 			page 32


 596:.\Generated_Source\PSoC4/BLE.c ****     {
 461              		.loc 1 596 0
 462 003c 264B     		ldr	r3, .L41+4
 463 003e 1B78     		ldrb	r3, [r3]
 595:.\Generated_Source\PSoC4/BLE.c ****         (cyBle_connHandle.bdHandle <= CYBLE_GAP_MAX_BONDED_DEVICE))
 464              		.loc 1 595 0
 465 0040 042B     		cmp	r3, #4
 466 0042 11D8     		bhi	.L33
 598:.\Generated_Source\PSoC4/BLE.c ****                         cyBle_connHandle.bdHandle], CYBLE_GATT_DB_CCCD_COUNT, isForceWrite);
 467              		.loc 1 598 0
 468 0044 3D33     		add	r3, r3, #61
 469 0046 FF33     		add	r3, r3, #255
 470 0048 5B00     		lsl	r3, r3, #1
 471 004a 2449     		ldr	r1, .L41+8
 472 004c 5918     		add	r1, r3, r1
 473 004e 0131     		add	r1, r1, #1
 474 0050 2348     		ldr	r0, .L41+12
 475              	.LVL50:
 476 0052 0222     		mov	r2, #2
 477 0054 231C     		mov	r3, r4
 478 0056 FFF7FEFF 		bl	CyBle_StoreAppData
 479              	.LVL51:
 600:.\Generated_Source\PSoC4/BLE.c ****         {
 480              		.loc 1 600 0
 481 005a 0028     		cmp	r0, #0
 482 005c 04D1     		bne	.L33
 602:.\Generated_Source\PSoC4/BLE.c ****         }
 483              		.loc 1 602 0
 484 005e 1D4A     		ldr	r2, .L41
 485 0060 1378     		ldrb	r3, [r2]
 486 0062 0221     		mov	r1, #2
 487 0064 8B43     		bic	r3, r1
 488 0066 1370     		strb	r3, [r2]
 489              	.LVL52:
 490              	.L33:
 606:.\Generated_Source\PSoC4/BLE.c ****         ((cyBle_pendingFlashWrite & CYBLE_PENDING_CCCD_FLASH_CLEAR_MASK) != 0u) )
 491              		.loc 1 606 0
 492 0068 0028     		cmp	r0, #0
 493 006a 01D0     		beq	.L34
 606:.\Generated_Source\PSoC4/BLE.c ****         ((cyBle_pendingFlashWrite & CYBLE_PENDING_CCCD_FLASH_CLEAR_MASK) != 0u) )
 494              		.loc 1 606 0 is_stmt 0 discriminator 2
 495 006c 002C     		cmp	r4, #0
 496 006e 2FD0     		beq	.L35
 497              	.L34:
 607:.\Generated_Source\PSoC4/BLE.c ****     {
 498              		.loc 1 607 0 is_stmt 1 discriminator 3
 499 0070 184B     		ldr	r3, .L41
 500 0072 1B78     		ldrb	r3, [r3]
 606:.\Generated_Source\PSoC4/BLE.c ****         ((cyBle_pendingFlashWrite & CYBLE_PENDING_CCCD_FLASH_CLEAR_MASK) != 0u) )
 501              		.loc 1 606 0 discriminator 3
 502 0074 0C22     		mov	r2, #12
 503 0076 1A42     		tst	r2, r3
 504 0078 2AD0     		beq	.L35
 609:.\Generated_Source\PSoC4/BLE.c ****         {
 505              		.loc 1 609 0
 506 007a 1B07     		lsl	r3, r3, #28
 507 007c 11D5     		bpl	.L36
ARM GAS  C:\Users\mlgjmoor\AppData\Local\Temp\ccKDuCjD.s 			page 33


 508              	.LBB3:
 614:.\Generated_Source\PSoC4/BLE.c **** 
 509              		.loc 1 614 0
 510 007e 01A8     		add	r0, sp, #4
 511              	.LVL53:
 512 0080 0023     		mov	r3, #0
 513 0082 0193     		str	r3, [sp, #4]
 514 0084 4360     		str	r3, [r0, #4]
 515 0086 0381     		strh	r3, [r0, #8]
 616:.\Generated_Source\PSoC4/BLE.c ****                 (const uint8 *)cyBle_flashStorage.attValuesCCCDFlashMemory, sizeof(defaultValuesCCC
 516              		.loc 1 616 0
 517 0088 1649     		ldr	r1, .L41+16
 518 008a 023A     		sub	r2, r2, #2
 519 008c 231C     		mov	r3, r4
 520 008e FFF7FEFF 		bl	CyBle_StoreAppData
 521              	.LVL54:
 618:.\Generated_Source\PSoC4/BLE.c ****             {
 522              		.loc 1 618 0
 523 0092 0028     		cmp	r0, #0
 524 0094 1CD1     		bne	.L35
 620:.\Generated_Source\PSoC4/BLE.c ****             }
 525              		.loc 1 620 0
 526 0096 0F4A     		ldr	r2, .L41
 527 0098 1378     		ldrb	r3, [r2]
 528 009a 0821     		mov	r1, #8
 529 009c 8B43     		bic	r3, r1
 530 009e 1370     		strb	r3, [r2]
 531 00a0 16E0     		b	.L35
 532              	.L36:
 533              	.LBE3:
 534              	.LBB4:
 625:.\Generated_Source\PSoC4/BLE.c ****             
 535              		.loc 1 625 0
 536 00a2 01A8     		add	r0, sp, #4
 537              	.LVL55:
 538 00a4 0023     		mov	r3, #0
 539 00a6 0380     		strh	r3, [r0]
 627:.\Generated_Source\PSoC4/BLE.c ****                                     cyBle_pendingFlashClearCccdHandle], CYBLE_GATT_DB_CCCD_COUNT, i
 540              		.loc 1 627 0
 541 00a8 2133     		add	r3, r3, #33
 542 00aa 0F4A     		ldr	r2, .L41+20
 543 00ac D15C     		ldrb	r1, [r2, r3]
 544 00ae 3D31     		add	r1, r1, #61
 545 00b0 FF31     		add	r1, r1, #255
 546 00b2 4900     		lsl	r1, r1, #1
 547 00b4 094B     		ldr	r3, .L41+8
 548 00b6 C918     		add	r1, r1, r3
 549 00b8 0131     		add	r1, r1, #1
 550 00ba 0222     		mov	r2, #2
 551 00bc 231C     		mov	r3, r4
 552 00be FFF7FEFF 		bl	CyBle_StoreAppData
 553              	.LVL56:
 629:.\Generated_Source\PSoC4/BLE.c ****             {
 554              		.loc 1 629 0
 555 00c2 0028     		cmp	r0, #0
 556 00c4 04D1     		bne	.L35
 631:.\Generated_Source\PSoC4/BLE.c ****             }
ARM GAS  C:\Users\mlgjmoor\AppData\Local\Temp\ccKDuCjD.s 			page 34


 557              		.loc 1 631 0
 558 00c6 034A     		ldr	r2, .L41
 559 00c8 1378     		ldrb	r3, [r2]
 560 00ca 0421     		mov	r1, #4
 561 00cc 8B43     		bic	r3, r1
 562 00ce 1370     		strb	r3, [r2]
 563              	.LVL57:
 564              	.L35:
 565              	.LBE4:
 637:.\Generated_Source\PSoC4/BLE.c **** 
 566              		.loc 1 637 0
 567 00d0 04B0     		add	sp, sp, #16
 568              		@ sp needed
 569 00d2 10BD     		pop	{r4, pc}
 570              	.L42:
 571              		.align	2
 572              	.L41:
 573 00d4 00000000 		.word	cyBle_pendingFlashWrite
 574 00d8 00000000 		.word	cyBle_connHandle
 575 00dc 00000000 		.word	cyBle_flashStorage
 576 00e0 00000000 		.word	cyBle_attValuesCCCD
 577 00e4 79020000 		.word	cyBle_flashStorage+633
 578 00e8 00000000 		.word	.LANCHOR1
 579              		.cfi_endproc
 580              	.LFE6:
 581              		.size	CyBle_StoreBondingData, .-CyBle_StoreBondingData
 582              		.section	.text.CyBle_GapRemoveBondedDevice,"ax",%progbits
 583              		.align	2
 584              		.global	CyBle_GapRemoveBondedDevice
 585              		.code	16
 586              		.thumb_func
 587              		.type	CyBle_GapRemoveBondedDevice, %function
 588              	CyBle_GapRemoveBondedDevice:
 589              	.LFB7:
 673:.\Generated_Source\PSoC4/BLE.c ****     CYBLE_API_RESULT_T apiResult = CYBLE_ERROR_OK;
 590              		.loc 1 673 0
 591              		.cfi_startproc
 592              	.LVL58:
 593 0000 30B5     		push	{r4, r5, lr}
 594              		.cfi_def_cfa_offset 12
 595              		.cfi_offset 4, -12
 596              		.cfi_offset 5, -8
 597              		.cfi_offset 14, -4
 598 0002 85B0     		sub	sp, sp, #20
 599              		.cfi_def_cfa_offset 32
 600              	.LVL59:
 676:.\Generated_Source\PSoC4/BLE.c ****     {
 601              		.loc 1 676 0
 602 0004 184B     		ldr	r3, .L49
 603 0006 1D78     		ldrb	r5, [r3]
 604 0008 002D     		cmp	r5, #0
 605 000a 2AD1     		bne	.L48
 606 000c 041C     		mov	r4, r0
 607              	.LBB5:
 682:.\Generated_Source\PSoC4/BLE.c **** 
 608              		.loc 1 682 0
 609 000e 02A9     		add	r1, sp, #8
ARM GAS  C:\Users\mlgjmoor\AppData\Local\Temp\ccKDuCjD.s 			page 35


 610 0010 0023     		mov	r3, #0
 611 0012 0B70     		strb	r3, [r1]
 612 0014 4B70     		strb	r3, [r1, #1]
 613 0016 8B70     		strb	r3, [r1, #2]
 614 0018 CB70     		strb	r3, [r1, #3]
 615 001a 0B71     		strb	r3, [r1, #4]
 616 001c 4B71     		strb	r3, [r1, #5]
 617 001e 8B71     		strb	r3, [r1, #6]
 684:.\Generated_Source\PSoC4/BLE.c **** 	    {
 618              		.loc 1 684 0
 619 0020 0622     		mov	r2, #6
 620 0022 FFF7FEFF 		bl	memcmp
 621              	.LVL60:
 622 0026 0028     		cmp	r0, #0
 623 0028 04D1     		bne	.L45
 687:.\Generated_Source\PSoC4/BLE.c ****         }
 624              		.loc 1 687 0
 625 002a 0823     		mov	r3, #8
 626 002c 1D43     		orr	r5, r3
 627 002e 0E4B     		ldr	r3, .L49
 628 0030 1D70     		strb	r5, [r3]
 629 0032 10E0     		b	.L46
 630              	.L45:
 692:.\Generated_Source\PSoC4/BLE.c ****             if(apiResult == CYBLE_ERROR_OK)
 631              		.loc 1 692 0
 632 0034 6B46     		mov	r3, sp
 633 0036 D81D     		add	r0, r3, #7
 634 0038 211C     		mov	r1, r4
 635 003a FFF7FEFF 		bl	CyBle_GapGetPeerBdHandle
 636              	.LVL61:
 693:.\Generated_Source\PSoC4/BLE.c ****             {
 637              		.loc 1 693 0
 638 003e 0028     		cmp	r0, #0
 639 0040 09D1     		bne	.L46
 696:.\Generated_Source\PSoC4/BLE.c ****                 cyBle_pendingFlashClearCccdHandle = bDevHandle;
 640              		.loc 1 696 0
 641 0042 094A     		ldr	r2, .L49
 642 0044 1178     		ldrb	r1, [r2]
 643 0046 0423     		mov	r3, #4
 644 0048 0B43     		orr	r3, r1
 645 004a 1370     		strb	r3, [r2]
 697:.\Generated_Source\PSoC4/BLE.c ****             }
 646              		.loc 1 697 0
 647 004c 6B46     		mov	r3, sp
 648 004e D979     		ldrb	r1, [r3, #7]
 649 0050 2123     		mov	r3, #33
 650 0052 064A     		ldr	r2, .L49+4
 651 0054 D154     		strb	r1, [r2, r3]
 652              	.LVL62:
 653              	.L46:
 700:.\Generated_Source\PSoC4/BLE.c ****         {
 654              		.loc 1 700 0
 655 0056 0028     		cmp	r0, #0
 656 0058 04D1     		bne	.L44
 703:.\Generated_Source\PSoC4/BLE.c ****             #else
 657              		.loc 1 703 0
 658 005a 201C     		mov	r0, r4
ARM GAS  C:\Users\mlgjmoor\AppData\Local\Temp\ccKDuCjD.s 			page 36


 659              	.LVL63:
 660 005c FFF7FEFF 		bl	CyBle_GapRemoveDeviceFromWhiteList
 661              	.LVL64:
 662 0060 00E0     		b	.L44
 663              	.LVL65:
 664              	.L48:
 665              	.LBE5:
 712:.\Generated_Source\PSoC4/BLE.c ****     }
 666              		.loc 1 712 0
 667 0062 0220     		mov	r0, #2
 668              	.LVL66:
 669              	.L44:
 716:.\Generated_Source\PSoC4/BLE.c **** 
 670              		.loc 1 716 0
 671 0064 05B0     		add	sp, sp, #20
 672              		@ sp needed
 673 0066 30BD     		pop	{r4, r5, pc}
 674              	.L50:
 675              		.align	2
 676              	.L49:
 677 0068 00000000 		.word	cyBle_pendingFlashWrite
 678 006c 00000000 		.word	.LANCHOR1
 679              		.cfi_endproc
 680              	.LFE7:
 681              		.size	CyBle_GapRemoveBondedDevice, .-CyBle_GapRemoveBondedDevice
 682              		.section	.text.CyBle_GappStartAdvertisement,"ax",%progbits
 683              		.align	2
 684              		.global	CyBle_GappStartAdvertisement
 685              		.code	16
 686              		.thumb_func
 687              		.type	CyBle_GappStartAdvertisement, %function
 688              	CyBle_GappStartAdvertisement:
 689              	.LFB8:
 774:.\Generated_Source\PSoC4/BLE.c ****         CYBLE_API_RESULT_T apiResult;
 690              		.loc 1 774 0
 691              		.cfi_startproc
 692              	.LVL67:
 693 0000 08B5     		push	{r3, lr}
 694              		.cfi_def_cfa_offset 8
 695              		.cfi_offset 3, -8
 696              		.cfi_offset 14, -4
 777:.\Generated_Source\PSoC4/BLE.c ****         {
 697              		.loc 1 777 0
 698 0002 0228     		cmp	r0, #2
 699 0004 2ED8     		bhi	.L55
 781:.\Generated_Source\PSoC4/BLE.c ****         {   
 700              		.loc 1 781 0
 701 0006 1B4B     		ldr	r3, .L58
 702 0008 1B78     		ldrb	r3, [r3]
 703 000a 042B     		cmp	r3, #4
 704 000c 2CD1     		bne	.L56
 781:.\Generated_Source\PSoC4/BLE.c ****         {   
 705              		.loc 1 781 0 is_stmt 0 discriminator 1
 706 000e 1A4B     		ldr	r3, .L58+4
 707 0010 1B78     		ldrb	r3, [r3]
 708 0012 5B07     		lsl	r3, r3, #29
 709 0014 2BD4     		bmi	.L57
ARM GAS  C:\Users\mlgjmoor\AppData\Local\Temp\ccKDuCjD.s 			page 37


 783:.\Generated_Source\PSoC4/BLE.c ****             {
 710              		.loc 1 783 0 is_stmt 1
 711 0016 0028     		cmp	r0, #0
 712 0018 09D1     		bne	.L53
 785:.\Generated_Source\PSoC4/BLE.c ****                 cyBle_discoveryModeInfo.advParam->advIntvMin = CYBLE_FAST_ADV_INT_MIN;
 713              		.loc 1 785 0
 714 001a 184B     		ldr	r3, .L58+8
 715 001c 1E22     		mov	r2, #30
 716 001e 1A86     		strh	r2, [r3, #48]
 786:.\Generated_Source\PSoC4/BLE.c ****                 cyBle_discoveryModeInfo.advParam->advIntvMax = CYBLE_FAST_ADV_INT_MAX;
 717              		.loc 1 786 0
 718 0020 0232     		add	r2, r2, #2
 719 0022 596A     		ldr	r1, [r3, #36]
 720 0024 0A80     		strh	r2, [r1]
 787:.\Generated_Source\PSoC4/BLE.c ****             }
 721              		.loc 1 787 0
 722 0026 5B6A     		ldr	r3, [r3, #36]
 723 0028 1032     		add	r2, r2, #16
 724 002a 5A80     		strh	r2, [r3, #2]
 725 002c 0CE0     		b	.L54
 726              	.L53:
 789:.\Generated_Source\PSoC4/BLE.c ****             {
 727              		.loc 1 789 0
 728 002e 0128     		cmp	r0, #1
 729 0030 0AD1     		bne	.L54
 791:.\Generated_Source\PSoC4/BLE.c ****                 cyBle_discoveryModeInfo.advParam->advIntvMin = CYBLE_SLOW_ADV_INT_MIN;
 730              		.loc 1 791 0
 731 0032 124B     		ldr	r3, .L58+8
 732 0034 9622     		mov	r2, #150
 733 0036 1A86     		strh	r2, [r3, #48]
 792:.\Generated_Source\PSoC4/BLE.c ****                 cyBle_discoveryModeInfo.advParam->advIntvMax = CYBLE_SLOW_ADV_INT_MAX;
 734              		.loc 1 792 0
 735 0038 C822     		mov	r2, #200
 736 003a D200     		lsl	r2, r2, #3
 737 003c 596A     		ldr	r1, [r3, #36]
 738 003e 0A80     		strh	r2, [r1]
 793:.\Generated_Source\PSoC4/BLE.c ****             }       
 739              		.loc 1 793 0
 740 0040 5B6A     		ldr	r3, [r3, #36]
 741 0042 8022     		mov	r2, #128
 742 0044 D201     		lsl	r2, r2, #7
 743 0046 5A80     		strh	r2, [r3, #2]
 744              	.L54:
 798:.\Generated_Source\PSoC4/BLE.c ****             apiResult = CyBle_GappEnterDiscoveryMode(&cyBle_discoveryModeInfo);
 745              		.loc 1 798 0
 746 0048 0D4B     		ldr	r3, .L58+12
 747 004a 1870     		strb	r0, [r3]
 799:.\Generated_Source\PSoC4/BLE.c ****         
 748              		.loc 1 799 0
 749 004c 0B48     		ldr	r0, .L58+8
 750              	.LVL68:
 751 004e 2030     		add	r0, r0, #32
 752 0050 FFF7FEFF 		bl	CyBle_GappEnterDiscoveryMode
 753              	.LVL69:
 801:.\Generated_Source\PSoC4/BLE.c ****             {
 754              		.loc 1 801 0
 755 0054 0028     		cmp	r0, #0
ARM GAS  C:\Users\mlgjmoor\AppData\Local\Temp\ccKDuCjD.s 			page 38


 756 0056 0CD1     		bne	.L52
 803:.\Generated_Source\PSoC4/BLE.c ****             }
 757              		.loc 1 803 0
 758 0058 074A     		ldr	r2, .L58+4
 759 005a 1178     		ldrb	r1, [r2]
 760 005c 0423     		mov	r3, #4
 761 005e 0B43     		orr	r3, r1
 762 0060 1370     		strb	r3, [r2]
 763 0062 06E0     		b	.L52
 764              	.LVL70:
 765              	.L55:
 779:.\Generated_Source\PSoC4/BLE.c ****         }
 766              		.loc 1 779 0
 767 0064 0120     		mov	r0, #1
 768              	.LVL71:
 769 0066 04E0     		b	.L52
 770              	.LVL72:
 771              	.L56:
 808:.\Generated_Source\PSoC4/BLE.c ****         }
 772              		.loc 1 808 0
 773 0068 0420     		mov	r0, #4
 774              	.LVL73:
 775 006a FF30     		add	r0, r0, #255
 776 006c 01E0     		b	.L52
 777              	.LVL74:
 778              	.L57:
 779 006e 0420     		mov	r0, #4
 780              	.LVL75:
 781 0070 FF30     		add	r0, r0, #255
 782              	.L52:
 783              	.LVL76:
 812:.\Generated_Source\PSoC4/BLE.c **** 
 784              		.loc 1 812 0
 785              		@ sp needed
 786 0072 08BD     		pop	{r3, pc}
 787              	.L59:
 788              		.align	2
 789              	.L58:
 790 0074 00000000 		.word	cyBle_state
 791 0078 00000000 		.word	cyBle_eventHandlerFlag
 792 007c 00000000 		.word	.LANCHOR0
 793 0080 00000000 		.word	cyBle_advertisingIntervalType
 794              		.cfi_endproc
 795              	.LFE8:
 796              		.size	CyBle_GappStartAdvertisement, .-CyBle_GappStartAdvertisement
 797              		.section	.text.CyBle_GappStopAdvertisement,"ax",%progbits
 798              		.align	2
 799              		.global	CyBle_GappStopAdvertisement
 800              		.code	16
 801              		.thumb_func
 802              		.type	CyBle_GappStopAdvertisement, %function
 803              	CyBle_GappStopAdvertisement:
 804              	.LFB9:
 835:.\Generated_Source\PSoC4/BLE.c ****         CyBle_GappExitDiscoveryMode();
 805              		.loc 1 835 0
 806              		.cfi_startproc
 807 0000 08B5     		push	{r3, lr}
ARM GAS  C:\Users\mlgjmoor\AppData\Local\Temp\ccKDuCjD.s 			page 39


 808              		.cfi_def_cfa_offset 8
 809              		.cfi_offset 3, -8
 810              		.cfi_offset 14, -4
 836:.\Generated_Source\PSoC4/BLE.c ****         cyBle_eventHandlerFlag |= CYBLE_STOP_FLAG;
 811              		.loc 1 836 0
 812 0002 FFF7FEFF 		bl	CyBle_GappExitDiscoveryMode
 813              	.LVL77:
 837:.\Generated_Source\PSoC4/BLE.c ****     }
 814              		.loc 1 837 0
 815 0006 034A     		ldr	r2, .L61
 816 0008 1178     		ldrb	r1, [r2]
 817 000a 0823     		mov	r3, #8
 818 000c 0B43     		orr	r3, r1
 819 000e 1370     		strb	r3, [r2]
 838:.\Generated_Source\PSoC4/BLE.c ****     
 820              		.loc 1 838 0
 821              		@ sp needed
 822 0010 08BD     		pop	{r3, pc}
 823              	.L62:
 824 0012 C046     		.align	2
 825              	.L61:
 826 0014 00000000 		.word	cyBle_eventHandlerFlag
 827              		.cfi_endproc
 828              	.LFE9:
 829              		.size	CyBle_GappStopAdvertisement, .-CyBle_GappStopAdvertisement
 830              		.section	.text.CyBle_ChangeAdDeviceAddress,"ax",%progbits
 831              		.align	2
 832              		.global	CyBle_ChangeAdDeviceAddress
 833              		.code	16
 834              		.thumb_func
 835              		.type	CyBle_ChangeAdDeviceAddress, %function
 836              	CyBle_ChangeAdDeviceAddress:
 837              	.LFB10:
 857:.\Generated_Source\PSoC4/BLE.c ****         uint8 i;
 838              		.loc 1 857 0
 839              		.cfi_startproc
 840              	.LVL78:
 884:.\Generated_Source\PSoC4/BLE.c ****   
 841              		.loc 1 884 0
 842              		@ sp needed
 843 0000 7047     		bx	lr
 844              		.cfi_endproc
 845              	.LFE10:
 846              		.size	CyBle_ChangeAdDeviceAddress, .-CyBle_ChangeAdDeviceAddress
 847 0002 C046     		.section	.text.CyBle_GapSetLocalName,"ax",%progbits
 848              		.align	2
 849              		.global	CyBle_GapSetLocalName
 850              		.code	16
 851              		.thumb_func
 852              		.type	CyBle_GapSetLocalName, %function
 853              	CyBle_GapSetLocalName:
 854              	.LFB12:
1246:.\Generated_Source\PSoC4/BLE.c ****         
1247:.\Generated_Source\PSoC4/BLE.c **** #endif /* (CYBLE_GAP_ROLE_PERIPHERAL) */  
1248:.\Generated_Source\PSoC4/BLE.c ****     
1249:.\Generated_Source\PSoC4/BLE.c ****     
1250:.\Generated_Source\PSoC4/BLE.c ****     /******************************************************************************
ARM GAS  C:\Users\mlgjmoor\AppData\Local\Temp\ccKDuCjD.s 			page 40


1251:.\Generated_Source\PSoC4/BLE.c ****     * Function Name: CyBle_GapSetLocalName
1252:.\Generated_Source\PSoC4/BLE.c ****     ***************************************************************************//**
1253:.\Generated_Source\PSoC4/BLE.c ****     *  This API is used to set the local device name - a Characteristic of the 
1254:.\Generated_Source\PSoC4/BLE.c ****     *  GAP Service. If the characteristic length entered in the component customizer
1255:.\Generated_Source\PSoC4/BLE.c ****     *  is shorter than the string specified by the "name" parameter, the local device
1256:.\Generated_Source\PSoC4/BLE.c ****     *  name will be cut to the length specified in the customizer.
1257:.\Generated_Source\PSoC4/BLE.c ****     * 
1258:.\Generated_Source\PSoC4/BLE.c ****     *  \param name: The local device name string. The name string to be written as
1259:.\Generated_Source\PSoC4/BLE.c ****     *              the local device name. It represents a UTF-8 encoded User
1260:.\Generated_Source\PSoC4/BLE.c ****     *              Friendly Descriptive Name for the device. The length of the local
1261:.\Generated_Source\PSoC4/BLE.c ****     *              device string is entered into the component customizer and it can
1262:.\Generated_Source\PSoC4/BLE.c ****     *              be set to a value from 0 to 248 bytes. If the name contained in
1263:.\Generated_Source\PSoC4/BLE.c ****     *              the parameter is shorter than the length from the customizer, the
1264:.\Generated_Source\PSoC4/BLE.c ****     *              end of the name is indicated by a NULL octet (0x00).
1265:.\Generated_Source\PSoC4/BLE.c ****     * 
1266:.\Generated_Source\PSoC4/BLE.c ****     * \return
1267:.\Generated_Source\PSoC4/BLE.c ****     *  CYBLE_API_RESULT_T : Return value indicates if the function succeeded or 
1268:.\Generated_Source\PSoC4/BLE.c ****     *  failed. Following are the possible error codes.
1269:.\Generated_Source\PSoC4/BLE.c ****     *
1270:.\Generated_Source\PSoC4/BLE.c ****     *   Errors codes                       | Description
1271:.\Generated_Source\PSoC4/BLE.c ****     *   ------------                       | -----------
1272:.\Generated_Source\PSoC4/BLE.c ****     *   CYBLE_ERROR_OK                     | Function completed successfully.
1273:.\Generated_Source\PSoC4/BLE.c ****     *   CYBLE_ERROR_INVALID_PARAMETER      | On specifying NULL as input parameter
1274:.\Generated_Source\PSoC4/BLE.c ****     *  
1275:.\Generated_Source\PSoC4/BLE.c ****     *******************************************************************************/
1276:.\Generated_Source\PSoC4/BLE.c ****     CYBLE_API_RESULT_T CyBle_GapSetLocalName(const char8 name[])
1277:.\Generated_Source\PSoC4/BLE.c ****     {
 855              		.loc 1 1277 0
 856              		.cfi_startproc
 857              	.LVL79:
 858 0000 10B5     		push	{r4, lr}
 859              		.cfi_def_cfa_offset 8
 860              		.cfi_offset 4, -8
 861              		.cfi_offset 14, -4
 862              	.LVL80:
1278:.\Generated_Source\PSoC4/BLE.c ****         CYBLE_API_RESULT_T apiResult = CYBLE_ERROR_OK;
1279:.\Generated_Source\PSoC4/BLE.c ****         uint8 i;
1280:.\Generated_Source\PSoC4/BLE.c ****         char8 *ptr;
1281:.\Generated_Source\PSoC4/BLE.c ****         uint8 charLen;
1282:.\Generated_Source\PSoC4/BLE.c **** 
1283:.\Generated_Source\PSoC4/BLE.c ****         if(NULL != name)
 863              		.loc 1 1283 0
 864 0002 0028     		cmp	r0, #0
 865 0004 1DD0     		beq	.L70
1284:.\Generated_Source\PSoC4/BLE.c ****         {
1285:.\Generated_Source\PSoC4/BLE.c ****             /* Get the pointer to the Device Name characteristic  */
1286:.\Generated_Source\PSoC4/BLE.c ****             ptr = (char8 *) CYBLE_GATT_DB_ATTR_GET_ATTR_GEN_PTR(CYBLE_GAP_DEVICE_NAME_INDEX + 1u);
 866              		.loc 1 1286 0
 867 0006 104B     		ldr	r3, .L71
 868 0008 9A6B     		ldr	r2, [r3, #56]
 869 000a 5468     		ldr	r4, [r2, #4]
 870              	.LVL81:
1287:.\Generated_Source\PSoC4/BLE.c **** 
1288:.\Generated_Source\PSoC4/BLE.c ****             /* First need to get the maximum length of the characteristic data in the GATT
1289:.\Generated_Source\PSoC4/BLE.c ****                 database to make sure there is enough place for the data. The length
1290:.\Generated_Source\PSoC4/BLE.c ****                 can't be longer than 248, so only the LSB of 16 bit of length is to
1291:.\Generated_Source\PSoC4/BLE.c ****                 be used. */
ARM GAS  C:\Users\mlgjmoor\AppData\Local\Temp\ccKDuCjD.s 			page 41


1292:.\Generated_Source\PSoC4/BLE.c ****             charLen = (uint8)CYBLE_GATT_DB_ATTR_GET_ATTR_GEN_MAX_LEN(CYBLE_GAP_DEVICE_NAME_INDEX + 
 871              		.loc 1 1292 0
 872 000c 998E     		ldrh	r1, [r3, #52]
 873 000e C9B2     		uxtb	r1, r1
 874              	.LVL82:
1293:.\Generated_Source\PSoC4/BLE.c **** 
1294:.\Generated_Source\PSoC4/BLE.c ****             /* Copy name into characteristic */
1295:.\Generated_Source\PSoC4/BLE.c ****             for(i = 0u; ((i < charLen) && (CYBLE_NULL_CHARCTER != name[i])); i++)
 875              		.loc 1 1295 0
 876 0010 0023     		mov	r3, #0
 877 0012 02E0     		b	.L66
 878              	.LVL83:
 879              	.L68:
1296:.\Generated_Source\PSoC4/BLE.c ****             {
1297:.\Generated_Source\PSoC4/BLE.c ****                 ptr[i] = name[i];
 880              		.loc 1 1297 0 discriminator 4
 881 0014 E254     		strb	r2, [r4, r3]
1295:.\Generated_Source\PSoC4/BLE.c ****             {
 882              		.loc 1 1295 0 discriminator 4
 883 0016 0133     		add	r3, r3, #1
 884              	.LVL84:
 885 0018 DBB2     		uxtb	r3, r3
 886              	.LVL85:
 887              	.L66:
1295:.\Generated_Source\PSoC4/BLE.c ****             {
 888              		.loc 1 1295 0 is_stmt 0 discriminator 1
 889 001a 8B42     		cmp	r3, r1
 890 001c 02D2     		bcs	.L67
1295:.\Generated_Source\PSoC4/BLE.c ****             {
 891              		.loc 1 1295 0 discriminator 3
 892 001e C25C     		ldrb	r2, [r0, r3]
 893 0020 002A     		cmp	r2, #0
 894 0022 F7D1     		bne	.L68
 895              	.L67:
1298:.\Generated_Source\PSoC4/BLE.c ****             }
1299:.\Generated_Source\PSoC4/BLE.c **** 
1300:.\Generated_Source\PSoC4/BLE.c ****             if(i < charLen)
 896              		.loc 1 1300 0 is_stmt 1
 897 0024 8B42     		cmp	r3, r1
 898 0026 02D2     		bcs	.L69
1301:.\Generated_Source\PSoC4/BLE.c ****             {
1302:.\Generated_Source\PSoC4/BLE.c ****                 /* Terminate string */
1303:.\Generated_Source\PSoC4/BLE.c ****                 ptr[i] = CYBLE_NULL_CHARCTER;
 899              		.loc 1 1303 0
 900 0028 E318     		add	r3, r4, r3
 901              	.LVL86:
 902 002a 0022     		mov	r2, #0
 903 002c 1A70     		strb	r2, [r3]
 904              	.L69:
 905 002e 041C     		mov	r4, r0
 906              	.LVL87:
1304:.\Generated_Source\PSoC4/BLE.c ****             }
1305:.\Generated_Source\PSoC4/BLE.c ****             
1306:.\Generated_Source\PSoC4/BLE.c ****             /* Set new actual length */
1307:.\Generated_Source\PSoC4/BLE.c ****             
1308:.\Generated_Source\PSoC4/BLE.c ****             /* Update device name in advertising and scan response structure */
1309:.\Generated_Source\PSoC4/BLE.c ****             #if(CYBLE_GAP_ROLE_PERIPHERAL)
ARM GAS  C:\Users\mlgjmoor\AppData\Local\Temp\ccKDuCjD.s 			page 42


1310:.\Generated_Source\PSoC4/BLE.c ****                 CyBle_ChangeAdLocalName(name, 0u);
 907              		.loc 1 1310 0
 908 0030 0021     		mov	r1, #0
 909              	.LVL88:
 910 0032 FFF7FEFF 		bl	CyBle_ChangeAdLocalName
 911              	.LVL89:
1311:.\Generated_Source\PSoC4/BLE.c ****                 CyBle_ChangeAdLocalName(name, 1u);
 912              		.loc 1 1311 0
 913 0036 201C     		mov	r0, r4
 914 0038 0121     		mov	r1, #1
 915 003a FFF7FEFF 		bl	CyBle_ChangeAdLocalName
 916              	.LVL90:
1278:.\Generated_Source\PSoC4/BLE.c ****         uint8 i;
 917              		.loc 1 1278 0
 918 003e 0020     		mov	r0, #0
 919 0040 00E0     		b	.L65
 920              	.LVL91:
 921              	.L70:
1312:.\Generated_Source\PSoC4/BLE.c ****             #endif /* (CYBLE_GAP_ROLE_PERIPHERAL) */
1313:.\Generated_Source\PSoC4/BLE.c ****         }
1314:.\Generated_Source\PSoC4/BLE.c ****         else
1315:.\Generated_Source\PSoC4/BLE.c ****         {
1316:.\Generated_Source\PSoC4/BLE.c ****             apiResult = CYBLE_ERROR_INVALID_PARAMETER;
 922              		.loc 1 1316 0
 923 0042 0120     		mov	r0, #1
 924              	.LVL92:
 925              	.L65:
1317:.\Generated_Source\PSoC4/BLE.c ****         }
1318:.\Generated_Source\PSoC4/BLE.c ****         
1319:.\Generated_Source\PSoC4/BLE.c ****         return(apiResult);
1320:.\Generated_Source\PSoC4/BLE.c ****     }
 926              		.loc 1 1320 0
 927              		@ sp needed
 928 0044 10BD     		pop	{r4, pc}
 929              	.L72:
 930 0046 C046     		.align	2
 931              	.L71:
 932 0048 00000000 		.word	cyBle_gattDB
 933              		.cfi_endproc
 934              	.LFE12:
 935              		.size	CyBle_GapSetLocalName, .-CyBle_GapSetLocalName
 936              		.section	.text.CyBle_GapGetLocalName,"ax",%progbits
 937              		.align	2
 938              		.global	CyBle_GapGetLocalName
 939              		.code	16
 940              		.thumb_func
 941              		.type	CyBle_GapGetLocalName, %function
 942              	CyBle_GapGetLocalName:
 943              	.LFB13:
1321:.\Generated_Source\PSoC4/BLE.c **** 
1322:.\Generated_Source\PSoC4/BLE.c **** 
1323:.\Generated_Source\PSoC4/BLE.c ****     /******************************************************************************
1324:.\Generated_Source\PSoC4/BLE.c ****     * Function Name: CyBle_GapGetLocalName
1325:.\Generated_Source\PSoC4/BLE.c ****     ***************************************************************************//**
1326:.\Generated_Source\PSoC4/BLE.c ****     *  
1327:.\Generated_Source\PSoC4/BLE.c ****     *  This API is used to read the local device name - a Characteristic of the 
1328:.\Generated_Source\PSoC4/BLE.c ****     *  GAP Service.
ARM GAS  C:\Users\mlgjmoor\AppData\Local\Temp\ccKDuCjD.s 			page 43


1329:.\Generated_Source\PSoC4/BLE.c ****     * 
1330:.\Generated_Source\PSoC4/BLE.c ****     * \param name: The local device name string. Used to read the local name to the
1331:.\Generated_Source\PSoC4/BLE.c ****     *             given string array. It represents a UTF-8 encoded User Friendly 
1332:.\Generated_Source\PSoC4/BLE.c ****     *             Descriptive Name for the device. The length of the local device
1333:.\Generated_Source\PSoC4/BLE.c ****     *             string is entered into the component customizer and it can be set
1334:.\Generated_Source\PSoC4/BLE.c ****     *             to a value from 0 to 248 bytes. If the name contained in the
1335:.\Generated_Source\PSoC4/BLE.c ****     *             parameter is shorter than the length from the customizer, the end
1336:.\Generated_Source\PSoC4/BLE.c ****     *             of the name is indicated by a NULL octet (0x00).
1337:.\Generated_Source\PSoC4/BLE.c ****     * 
1338:.\Generated_Source\PSoC4/BLE.c ****     * \return
1339:.\Generated_Source\PSoC4/BLE.c ****     *  CYBLE_API_RESULT_T : Return value indicates if the function succeeded or 
1340:.\Generated_Source\PSoC4/BLE.c ****     *  failed. Following are the possible error codes.
1341:.\Generated_Source\PSoC4/BLE.c ****     *
1342:.\Generated_Source\PSoC4/BLE.c ****     *   Errors codes                       | Description
1343:.\Generated_Source\PSoC4/BLE.c ****     *   ------------                       | -----------
1344:.\Generated_Source\PSoC4/BLE.c ****     *   CYBLE_ERROR_OK                     | Function completed successfully.
1345:.\Generated_Source\PSoC4/BLE.c ****     *   CYBLE_ERROR_INVALID_PARAMETER      | On specifying NULL as input parameter
1346:.\Generated_Source\PSoC4/BLE.c ****     *
1347:.\Generated_Source\PSoC4/BLE.c ****     *******************************************************************************/
1348:.\Generated_Source\PSoC4/BLE.c ****     CYBLE_API_RESULT_T CyBle_GapGetLocalName(char8 name[])
1349:.\Generated_Source\PSoC4/BLE.c ****     {
 944              		.loc 1 1349 0
 945              		.cfi_startproc
 946              	.LVL93:
 947 0000 10B5     		push	{r4, lr}
 948              		.cfi_def_cfa_offset 8
 949              		.cfi_offset 4, -8
 950              		.cfi_offset 14, -4
 951              	.LVL94:
1350:.\Generated_Source\PSoC4/BLE.c ****         CYBLE_API_RESULT_T apiResult = CYBLE_ERROR_OK;
1351:.\Generated_Source\PSoC4/BLE.c ****         uint8 charLen;
1352:.\Generated_Source\PSoC4/BLE.c ****         uint8 i;
1353:.\Generated_Source\PSoC4/BLE.c ****         char8 *ptr;
1354:.\Generated_Source\PSoC4/BLE.c **** 
1355:.\Generated_Source\PSoC4/BLE.c ****         if(NULL != name)
 952              		.loc 1 1355 0
 953 0002 0028     		cmp	r0, #0
 954 0004 12D0     		beq	.L78
1356:.\Generated_Source\PSoC4/BLE.c ****         {
1357:.\Generated_Source\PSoC4/BLE.c ****             /* Get the pointer to the Device Name characteristic  */
1358:.\Generated_Source\PSoC4/BLE.c ****             ptr = (char8 *) CYBLE_GATT_DB_ATTR_GET_ATTR_GEN_PTR(CYBLE_GAP_DEVICE_NAME_INDEX + 1u);
 955              		.loc 1 1358 0
 956 0006 0A4B     		ldr	r3, .L79
 957 0008 9B6B     		ldr	r3, [r3, #56]
 958 000a 5C68     		ldr	r4, [r3, #4]
 959              	.LVL95:
1359:.\Generated_Source\PSoC4/BLE.c **** 
1360:.\Generated_Source\PSoC4/BLE.c ****             /* First need to get the length of the characteristic data in the GATT
1361:.\Generated_Source\PSoC4/BLE.c ****                 database to make sure there is enough place for the data. The length
1362:.\Generated_Source\PSoC4/BLE.c ****                 can't be longer than 248, so only the LSB of 16 bit of length is to
1363:.\Generated_Source\PSoC4/BLE.c ****                 be used. */
1364:.\Generated_Source\PSoC4/BLE.c ****             charLen = (uint8)CYBLE_GATT_DB_ATTR_GET_ATTR_GEN_LEN(CYBLE_GAP_DEVICE_NAME_INDEX + 1u);
 960              		.loc 1 1364 0
 961 000c 1978     		ldrb	r1, [r3]
 962              	.LVL96:
1365:.\Generated_Source\PSoC4/BLE.c **** 
1366:.\Generated_Source\PSoC4/BLE.c ****             /* Copy name from characteristic */
ARM GAS  C:\Users\mlgjmoor\AppData\Local\Temp\ccKDuCjD.s 			page 44


1367:.\Generated_Source\PSoC4/BLE.c ****             for(i = 0u; ((i < charLen) && (CYBLE_NULL_CHARCTER != ptr[i])); i++)
 963              		.loc 1 1367 0
 964 000e 0023     		mov	r3, #0
 965 0010 02E0     		b	.L75
 966              	.LVL97:
 967              	.L77:
1368:.\Generated_Source\PSoC4/BLE.c ****             {
1369:.\Generated_Source\PSoC4/BLE.c ****                 name[i] = ptr[i];
 968              		.loc 1 1369 0 discriminator 4
 969 0012 C254     		strb	r2, [r0, r3]
1367:.\Generated_Source\PSoC4/BLE.c ****             {
 970              		.loc 1 1367 0 discriminator 4
 971 0014 0133     		add	r3, r3, #1
 972              	.LVL98:
 973 0016 DBB2     		uxtb	r3, r3
 974              	.LVL99:
 975              	.L75:
1367:.\Generated_Source\PSoC4/BLE.c ****             {
 976              		.loc 1 1367 0 is_stmt 0 discriminator 1
 977 0018 8B42     		cmp	r3, r1
 978 001a 02D2     		bcs	.L76
1367:.\Generated_Source\PSoC4/BLE.c ****             {
 979              		.loc 1 1367 0 discriminator 3
 980 001c E25C     		ldrb	r2, [r4, r3]
 981 001e 002A     		cmp	r2, #0
 982 0020 F7D1     		bne	.L77
 983              	.L76:
1370:.\Generated_Source\PSoC4/BLE.c ****             }
1371:.\Generated_Source\PSoC4/BLE.c **** 
1372:.\Generated_Source\PSoC4/BLE.c ****             /* Terminate string */
1373:.\Generated_Source\PSoC4/BLE.c ****             name[i] = CYBLE_NULL_CHARCTER;
 984              		.loc 1 1373 0 is_stmt 1
 985 0022 C318     		add	r3, r0, r3
 986              	.LVL100:
 987 0024 0022     		mov	r2, #0
 988 0026 1A70     		strb	r2, [r3]
1350:.\Generated_Source\PSoC4/BLE.c ****         uint8 charLen;
 989              		.loc 1 1350 0
 990 0028 0020     		mov	r0, #0
 991              	.LVL101:
 992 002a 00E0     		b	.L74
 993              	.LVL102:
 994              	.L78:
1374:.\Generated_Source\PSoC4/BLE.c ****         }
1375:.\Generated_Source\PSoC4/BLE.c ****         else
1376:.\Generated_Source\PSoC4/BLE.c ****         {
1377:.\Generated_Source\PSoC4/BLE.c ****             apiResult = CYBLE_ERROR_INVALID_PARAMETER;
 995              		.loc 1 1377 0
 996 002c 0120     		mov	r0, #1
 997              	.LVL103:
 998              	.L74:
1378:.\Generated_Source\PSoC4/BLE.c ****         }
1379:.\Generated_Source\PSoC4/BLE.c ****         
1380:.\Generated_Source\PSoC4/BLE.c ****         return(apiResult);
1381:.\Generated_Source\PSoC4/BLE.c ****     }
 999              		.loc 1 1381 0
 1000              		@ sp needed
ARM GAS  C:\Users\mlgjmoor\AppData\Local\Temp\ccKDuCjD.s 			page 45


 1001 002e 10BD     		pop	{r4, pc}
 1002              	.L80:
 1003              		.align	2
 1004              	.L79:
 1005 0030 00000000 		.word	cyBle_gattDB
 1006              		.cfi_endproc
 1007              	.LFE13:
 1008              		.size	CyBle_GapGetLocalName, .-CyBle_GapGetLocalName
 1009              		.section	.text.CyBle_Get16ByPtr,"ax",%progbits
 1010              		.align	2
 1011              		.global	CyBle_Get16ByPtr
 1012              		.code	16
 1013              		.thumb_func
 1014              		.type	CyBle_Get16ByPtr, %function
 1015              	CyBle_Get16ByPtr:
 1016              	.LFB14:
1382:.\Generated_Source\PSoC4/BLE.c **** 
1383:.\Generated_Source\PSoC4/BLE.c **** #endif /* (CYBLE_GATT_ROLE_SERVER) */
1384:.\Generated_Source\PSoC4/BLE.c **** 
1385:.\Generated_Source\PSoC4/BLE.c **** 
1386:.\Generated_Source\PSoC4/BLE.c **** /******************************************************************************
1387:.\Generated_Source\PSoC4/BLE.c **** * Function Name: CyBle_Get16ByPtr
1388:.\Generated_Source\PSoC4/BLE.c **** ***************************************************************************//**
1389:.\Generated_Source\PSoC4/BLE.c **** * 
1390:.\Generated_Source\PSoC4/BLE.c **** *  Returns the two-bytes value by using a pointer to the LSB.
1391:.\Generated_Source\PSoC4/BLE.c **** * 
1392:.\Generated_Source\PSoC4/BLE.c **** *  \param ptr: Pointer to the LSB of two-bytes data (little endian).
1393:.\Generated_Source\PSoC4/BLE.c **** * 
1394:.\Generated_Source\PSoC4/BLE.c **** *  \return
1395:.\Generated_Source\PSoC4/BLE.c **** *  uint16: Two-bytes data.
1396:.\Generated_Source\PSoC4/BLE.c **** * 
1397:.\Generated_Source\PSoC4/BLE.c **** ******************************************************************************/
1398:.\Generated_Source\PSoC4/BLE.c **** uint16 CyBle_Get16ByPtr(const uint8 ptr[])
1399:.\Generated_Source\PSoC4/BLE.c **** {
 1017              		.loc 1 1399 0
 1018              		.cfi_startproc
 1019              	.LVL104:
1400:.\Generated_Source\PSoC4/BLE.c ****     return ((uint16) ptr[0u] | ((uint16) (((uint16) ptr[1u]) << 8u)));
 1020              		.loc 1 1400 0
 1021 0000 0378     		ldrb	r3, [r0]
 1022 0002 4078     		ldrb	r0, [r0, #1]
 1023              	.LVL105:
 1024 0004 0002     		lsl	r0, r0, #8
 1025 0006 1843     		orr	r0, r3
1401:.\Generated_Source\PSoC4/BLE.c **** }
 1026              		.loc 1 1401 0
 1027              		@ sp needed
 1028 0008 7047     		bx	lr
 1029              		.cfi_endproc
 1030              	.LFE14:
 1031              		.size	CyBle_Get16ByPtr, .-CyBle_Get16ByPtr
 1032 000a C046     		.section	.text.CyBle_Set16ByPtr,"ax",%progbits
 1033              		.align	2
 1034              		.global	CyBle_Set16ByPtr
 1035              		.code	16
 1036              		.thumb_func
 1037              		.type	CyBle_Set16ByPtr, %function
ARM GAS  C:\Users\mlgjmoor\AppData\Local\Temp\ccKDuCjD.s 			page 46


 1038              	CyBle_Set16ByPtr:
 1039              	.LFB15:
1402:.\Generated_Source\PSoC4/BLE.c **** 
1403:.\Generated_Source\PSoC4/BLE.c **** 
1404:.\Generated_Source\PSoC4/BLE.c **** /******************************************************************************
1405:.\Generated_Source\PSoC4/BLE.c **** * Function Name: CyBle_Set16ByPtr
1406:.\Generated_Source\PSoC4/BLE.c **** ***************************************************************************//**
1407:.\Generated_Source\PSoC4/BLE.c **** * 
1408:.\Generated_Source\PSoC4/BLE.c **** *  Sets the two-bytes value by using a pointer to the LSB.
1409:.\Generated_Source\PSoC4/BLE.c **** * 
1410:.\Generated_Source\PSoC4/BLE.c **** *  \param ptr:    Pointer to the LSB of two-bytes data (little endian).
1411:.\Generated_Source\PSoC4/BLE.c **** *  \param value:  Two-bytes data to be written.
1412:.\Generated_Source\PSoC4/BLE.c **** * 
1413:.\Generated_Source\PSoC4/BLE.c **** *  \return
1414:.\Generated_Source\PSoC4/BLE.c **** *  None
1415:.\Generated_Source\PSoC4/BLE.c **** * 
1416:.\Generated_Source\PSoC4/BLE.c **** ******************************************************************************/
1417:.\Generated_Source\PSoC4/BLE.c **** void CyBle_Set16ByPtr(uint8 ptr[], uint16 value)
1418:.\Generated_Source\PSoC4/BLE.c **** {
 1040              		.loc 1 1418 0
 1041              		.cfi_startproc
 1042              	.LVL106:
1419:.\Generated_Source\PSoC4/BLE.c ****     ptr[0u] = (uint8) value;
 1043              		.loc 1 1419 0
 1044 0000 0170     		strb	r1, [r0]
1420:.\Generated_Source\PSoC4/BLE.c ****     ptr[1u] = (uint8) (value >> 8u);
 1045              		.loc 1 1420 0
 1046 0002 090A     		lsr	r1, r1, #8
 1047              	.LVL107:
 1048 0004 4170     		strb	r1, [r0, #1]
1421:.\Generated_Source\PSoC4/BLE.c **** }
 1049              		.loc 1 1421 0
 1050              		@ sp needed
 1051 0006 7047     		bx	lr
 1052              		.cfi_endproc
 1053              	.LFE15:
 1054              		.size	CyBle_Set16ByPtr, .-CyBle_Set16ByPtr
 1055              		.global	cyBle_sflashDeviceAddress
 1056              		.global	cyBle_deviceAddress
 1057              		.comm	CyBle_ApplCallback,4,4
 1058              		.comm	cyBle_pendingFlashWrite,1,1
 1059              		.comm	cyBle_peerBonding,1,1
 1060              		.global	cyBle_discoveryModeInfo
 1061              		.global	cyBle_scanRspData
 1062              		.global	cyBle_discoveryData
 1063              		.global	cyBle_discoveryParam
 1064              		.global	cyBle_stackMemoryRam
 1065              		.global	cyBle_initVar
 1066              		.section	.rodata
 1067              		.align	2
 1068              		.set	.LANCHOR2,. + 0
 1069              	.LC0:
 1070 0000 2400     		.short	36
 1071 0002 03       		.byte	3
 1072 0003 00       		.space	1
 1073 0004 3000     		.short	48
 1074 0006 01       		.byte	1
ARM GAS  C:\Users\mlgjmoor\AppData\Local\Temp\ccKDuCjD.s 			page 47


 1075 0007 00       		.space	1
 1076 0008 2800     		.short	40
 1077 000a 02       		.byte	2
 1078 000b 00       		.space	1
 1079 000c 2400     		.short	36
 1080 000e 01       		.byte	1
 1081 000f 00       		.space	1
 1082 0010 2400     		.short	36
 1083 0012 01       		.byte	1
 1084 0013 00       		.space	1
 1085              		.data
 1086              		.align	2
 1087              		.set	.LANCHOR0,. + 0
 1088              		.type	cyBle_discoveryData, %object
 1089              		.size	cyBle_discoveryData, 32
 1090              	cyBle_discoveryData:
 1091 0000 02       		.byte	2
 1092 0001 01       		.byte	1
 1093 0002 06       		.byte	6
 1094 0003 08       		.byte	8
 1095 0004 09       		.byte	9
 1096 0005 4E       		.byte	78
 1097 0006 6F       		.byte	111
 1098 0007 64       		.byte	100
 1099 0008 75       		.byte	117
 1100 0009 73       		.byte	115
 1101 000a 20       		.byte	32
 1102 000b 43       		.byte	67
 1103 000c 11       		.byte	17
 1104 000d 07       		.byte	7
 1105 000e FB       		.byte	-5
 1106 000f 34       		.byte	52
 1107 0010 9B       		.byte	-101
 1108 0011 5F       		.byte	95
 1109 0012 80       		.byte	-128
 1110 0013 00       		.byte	0
 1111 0014 00       		.byte	0
 1112 0015 80       		.byte	-128
 1113 0016 00       		.byte	0
 1114 0017 10       		.byte	16
 1115 0018 00       		.byte	0
 1116 0019 00       		.byte	0
 1117 001a 00       		.byte	0
 1118 001b 00       		.byte	0
 1119 001c 00       		.byte	0
 1120 001d 00       		.byte	0
 1121 001e 00       		.byte	0
 1122 001f 1E       		.byte	30
 1123              		.type	cyBle_discoveryModeInfo, %object
 1124              		.size	cyBle_discoveryModeInfo, 20
 1125              	cyBle_discoveryModeInfo:
 1126 0020 02       		.byte	2
 1127 0021 000000   		.space	3
 1128 0024 00000000 		.word	cyBle_discoveryParam
 1129 0028 00000000 		.word	cyBle_discoveryData
 1130 002c 00000000 		.word	cyBle_scanRspData
 1131 0030 1E00     		.short	30
ARM GAS  C:\Users\mlgjmoor\AppData\Local\Temp\ccKDuCjD.s 			page 48


 1132 0032 0000     		.space	2
 1133              		.type	cyBle_sflashDeviceAddress, %object
 1134              		.size	cyBle_sflashDeviceAddress, 4
 1135              	cyBle_sflashDeviceAddress:
 1136 0034 00F4FF0F 		.word	268432384
 1137              		.type	cyBle_deviceAddress, %object
 1138              		.size	cyBle_deviceAddress, 7
 1139              	cyBle_deviceAddress:
 1140 0038 00       		.byte	0
 1141 0039 00       		.byte	0
 1142 003a 00       		.byte	0
 1143 003b 50       		.byte	80
 1144 003c A0       		.byte	-96
 1145 003d 00       		.byte	0
 1146 003e 00       		.byte	0
 1147 003f 00       		.space	1
 1148              		.type	cyBle_discoveryParam, %object
 1149              		.size	cyBle_discoveryParam, 16
 1150              	cyBle_discoveryParam:
 1151 0040 2000     		.short	32
 1152 0042 3000     		.short	48
 1153 0044 00       		.byte	0
 1154 0045 00       		.byte	0
 1155 0046 00       		.byte	0
 1156 0047 00       		.byte	0
 1157 0048 00       		.byte	0
 1158 0049 00       		.byte	0
 1159 004a 50       		.byte	80
 1160 004b A0       		.byte	-96
 1161 004c 00       		.byte	0
 1162 004d 07       		.byte	7
 1163 004e 00       		.byte	0
 1164 004f 00       		.space	1
 1165              		.section	.noinit,"aw",%progbits
 1166              		.align	3
 1167              		.set	.LANCHOR3,. + 0
 1168              		.type	cyBle_stackMemoryRam, %object
 1169              		.size	cyBle_stackMemoryRam, 3456
 1170              	cyBle_stackMemoryRam:
 1171 0000 00000000 		.space	3456
 1171      00000000 
 1171      00000000 
 1171      00000000 
 1171      00000000 
 1172              		.bss
 1173              		.align	2
 1174              		.set	.LANCHOR1,. + 0
 1175              		.type	cyBle_scanRspData, %object
 1176              		.size	cyBle_scanRspData, 32
 1177              	cyBle_scanRspData:
 1178 0000 00000000 		.space	32
 1178      00000000 
 1178      00000000 
 1178      00000000 
 1178      00000000 
 1179              		.type	cyBle_initVar, %object
 1180              		.size	cyBle_initVar, 1
ARM GAS  C:\Users\mlgjmoor\AppData\Local\Temp\ccKDuCjD.s 			page 49


 1181              	cyBle_initVar:
 1182 0020 00       		.space	1
 1183              		.type	cyBle_pendingFlashClearCccdHandle, %object
 1184              		.size	cyBle_pendingFlashClearCccdHandle, 1
 1185              	cyBle_pendingFlashClearCccdHandle:
 1186 0021 00       		.space	1
 1187 0022 0000     		.text
 1188              	.Letext0:
 1189              		.file 2 ".\\Generated_Source\\PSoC4\\cytypes.h"
 1190              		.file 3 "c:\\program files (x86)\\cypress\\psoc creator\\3.3\\psoc creator\\import\\gnu\\arm\\4.9.
 1191              		.file 4 ".\\Generated_Source\\PSoC4\\BLE_Stack.h"
 1192              		.file 5 ".\\Generated_Source\\PSoC4\\BLE_StackGap.h"
 1193              		.file 6 ".\\Generated_Source\\PSoC4\\BLE_StackGatt.h"
 1194              		.file 7 ".\\Generated_Source\\PSoC4\\BLE_StackGattDb.h"
 1195              		.file 8 ".\\Generated_Source\\PSoC4\\BLE.h"
 1196              		.file 9 ".\\Generated_Source\\PSoC4\\BLE_gatt.h"
 1197              		.file 10 ".\\Generated_Source\\PSoC4\\BLE_eventHandler.h"
 1198              		.file 11 ".\\Generated_Source\\PSoC4\\BLE_custom.h"
 1199              		.file 12 ".\\Generated_Source\\PSoC4\\BLE_StackHostMain.h"
 1200              		.file 13 "c:\\program files (x86)\\cypress\\psoc creator\\3.3\\psoc creator\\import\\gnu\\arm\\4.9