ARM GAS  C:\Users\mlgjmoor\AppData\Local\Temp\cccG5TSt.s 			page 1


   1              		.cpu cortex-m0
   2              		.fpu softvfp
   3              		.eabi_attribute 20, 1
   4              		.eabi_attribute 21, 1
   5              		.eabi_attribute 23, 3
   6              		.eabi_attribute 24, 1
   7              		.eabi_attribute 25, 1
   8              		.eabi_attribute 26, 1
   9              		.eabi_attribute 30, 1
  10              		.eabi_attribute 34, 0
  11              		.eabi_attribute 18, 4
  12              		.code	16
  13              		.file	"CapSense_CSHL.c"
  14              		.text
  15              	.Ltext0:
  16              		.cfi_sections	.debug_frame
  17              		.section	.text.CapSense_BaseInit,"ax",%progbits
  18              		.align	2
  19              		.global	CapSense_BaseInit
  20              		.code	16
  21              		.thumb_func
  22              		.type	CapSense_BaseInit, %function
  23              	CapSense_BaseInit:
  24              	.LFB36:
  25              		.file 1 ".\\Generated_Source\\PSoC4\\CapSense_CSHL.c"
   1:.\Generated_Source\PSoC4/CapSense_CSHL.c **** /*******************************************************************************
   2:.\Generated_Source\PSoC4/CapSense_CSHL.c **** * File Name: CapSense_CSHL.c
   3:.\Generated_Source\PSoC4/CapSense_CSHL.c **** * Version 2.40
   4:.\Generated_Source\PSoC4/CapSense_CSHL.c **** *
   5:.\Generated_Source\PSoC4/CapSense_CSHL.c **** * Description:
   6:.\Generated_Source\PSoC4/CapSense_CSHL.c **** *  This file provides the source code to the High Level APIs for the CapSesne
   7:.\Generated_Source\PSoC4/CapSense_CSHL.c **** *  CSD component.
   8:.\Generated_Source\PSoC4/CapSense_CSHL.c **** *
   9:.\Generated_Source\PSoC4/CapSense_CSHL.c **** * Note:
  10:.\Generated_Source\PSoC4/CapSense_CSHL.c **** *
  11:.\Generated_Source\PSoC4/CapSense_CSHL.c **** ********************************************************************************
  12:.\Generated_Source\PSoC4/CapSense_CSHL.c **** * Copyright 2013-2015, Cypress Semiconductor Corporation.  All rights reserved.
  13:.\Generated_Source\PSoC4/CapSense_CSHL.c **** * You may use this file only in accordance with the license, terms, conditions,
  14:.\Generated_Source\PSoC4/CapSense_CSHL.c **** * disclaimers, and limitations in the end user license agreement accompanying
  15:.\Generated_Source\PSoC4/CapSense_CSHL.c **** * the software package with which this file was provided.
  16:.\Generated_Source\PSoC4/CapSense_CSHL.c **** *******************************************************************************/
  17:.\Generated_Source\PSoC4/CapSense_CSHL.c **** 
  18:.\Generated_Source\PSoC4/CapSense_CSHL.c **** #include "CapSense_CSHL.h"
  19:.\Generated_Source\PSoC4/CapSense_CSHL.c **** #include "CapSense_PVT.h"
  20:.\Generated_Source\PSoC4/CapSense_CSHL.c **** 
  21:.\Generated_Source\PSoC4/CapSense_CSHL.c **** /* SmartSense functions */
  22:.\Generated_Source\PSoC4/CapSense_CSHL.c **** #if (CapSense_TUNING_METHOD == CapSense__TUNING_AUTO)
  23:.\Generated_Source\PSoC4/CapSense_CSHL.c ****     extern void CapSense_UpdateThresholds(uint32 sensor);
  24:.\Generated_Source\PSoC4/CapSense_CSHL.c **** #endif /* (CapSense_TUNING_METHOD == CapSense__TUNING_AUTO) */
  25:.\Generated_Source\PSoC4/CapSense_CSHL.c **** 
  26:.\Generated_Source\PSoC4/CapSense_CSHL.c **** /* Storage of filters data */
  27:.\Generated_Source\PSoC4/CapSense_CSHL.c **** #if ( (0u != (CapSense_RAW_FILTER_MASK & CapSense_MEDIAN_FILTER)) || \
  28:.\Generated_Source\PSoC4/CapSense_CSHL.c ****       (0u != (CapSense_RAW_FILTER_MASK & CapSense_AVERAGING_FILTER)) )
  29:.\Generated_Source\PSoC4/CapSense_CSHL.c **** 
  30:.\Generated_Source\PSoC4/CapSense_CSHL.c ****     uint16 CapSense_rawFilterData1[CapSense_TOTAL_SENSOR_COUNT];
  31:.\Generated_Source\PSoC4/CapSense_CSHL.c ****     uint16 CapSense_rawFilterData2[CapSense_TOTAL_SENSOR_COUNT];
  32:.\Generated_Source\PSoC4/CapSense_CSHL.c **** 
ARM GAS  C:\Users\mlgjmoor\AppData\Local\Temp\cccG5TSt.s 			page 2


  33:.\Generated_Source\PSoC4/CapSense_CSHL.c **** #elif ( (0u != (CapSense_RAW_FILTER_MASK & CapSense_IIR2_FILTER))   || \
  34:.\Generated_Source\PSoC4/CapSense_CSHL.c ****         (0u != (CapSense_RAW_FILTER_MASK & CapSense_IIR4_FILTER))   || \
  35:.\Generated_Source\PSoC4/CapSense_CSHL.c ****         (0u != (CapSense_RAW_FILTER_MASK & CapSense_JITTER_FILTER)) || \
  36:.\Generated_Source\PSoC4/CapSense_CSHL.c ****         (0u != (CapSense_RAW_FILTER_MASK & CapSense_IIR8_FILTER))   || \
  37:.\Generated_Source\PSoC4/CapSense_CSHL.c ****         (0u != (CapSense_RAW_FILTER_MASK & CapSense_IIR16_FILTER)) )
  38:.\Generated_Source\PSoC4/CapSense_CSHL.c **** 
  39:.\Generated_Source\PSoC4/CapSense_CSHL.c ****     uint16 CapSense_rawFilterData1[CapSense_TOTAL_SENSOR_COUNT];
  40:.\Generated_Source\PSoC4/CapSense_CSHL.c **** #endif  /* ( (CapSense_RAW_FILTER_MASK & CapSense_MEDIAN_FILTER) || \
  41:.\Generated_Source\PSoC4/CapSense_CSHL.c ****         *    (CapSense_RAW_FILTER_MASK & CapSense_AVERAGING_FILTER) )
  42:.\Generated_Source\PSoC4/CapSense_CSHL.c ****         */
  43:.\Generated_Source\PSoC4/CapSense_CSHL.c **** 
  44:.\Generated_Source\PSoC4/CapSense_CSHL.c **** extern uint16 CapSense_sensorRaw[CapSense_TOTAL_SENSOR_COUNT];
  45:.\Generated_Source\PSoC4/CapSense_CSHL.c **** extern uint8 CapSense_sensorEnableMask[CapSense_TOTAL_SENSOR_MASK];
  46:.\Generated_Source\PSoC4/CapSense_CSHL.c **** extern const uint8 CapSense_widgetNumber[CapSense_TOTAL_SENSOR_COUNT];
  47:.\Generated_Source\PSoC4/CapSense_CSHL.c **** 
  48:.\Generated_Source\PSoC4/CapSense_CSHL.c **** #if (CapSense_TUNING_METHOD != CapSense__TUNING_NONE)
  49:.\Generated_Source\PSoC4/CapSense_CSHL.c ****     extern uint32 CapSense_widgetResolution[CapSense_RESOLUTIONS_TBL_SIZE];
  50:.\Generated_Source\PSoC4/CapSense_CSHL.c **** #endif /* (CapSense_TUNING_METHOD != CapSense__TUNING_NONE) */
  51:.\Generated_Source\PSoC4/CapSense_CSHL.c **** 
  52:.\Generated_Source\PSoC4/CapSense_CSHL.c **** uint16 CapSense_sensorBaseline[CapSense_TOTAL_SENSOR_COUNT] = {0u};
  53:.\Generated_Source\PSoC4/CapSense_CSHL.c **** uint8 CapSense_sensorBaselineLow[CapSense_TOTAL_SENSOR_COUNT] = {0u};
  54:.\Generated_Source\PSoC4/CapSense_CSHL.c **** uint8 CapSense_sensorSignal[CapSense_TOTAL_SENSOR_COUNT] = {0u};
  55:.\Generated_Source\PSoC4/CapSense_CSHL.c **** uint8 CapSense_sensorOnMask[CapSense_TOTAL_SENSOR_MASK] = {0u};
  56:.\Generated_Source\PSoC4/CapSense_CSHL.c **** 
  57:.\Generated_Source\PSoC4/CapSense_CSHL.c **** uint8 CapSense_lowBaselineResetCnt[CapSense_TOTAL_SENSOR_COUNT];
  58:.\Generated_Source\PSoC4/CapSense_CSHL.c **** uint8 CapSense_lowBaselineReset[CapSense_TOTAL_SENSOR_COUNT] = {
  59:.\Generated_Source\PSoC4/CapSense_CSHL.c ****     30u, 30u, 
  60:.\Generated_Source\PSoC4/CapSense_CSHL.c **** };
  61:.\Generated_Source\PSoC4/CapSense_CSHL.c **** 
  62:.\Generated_Source\PSoC4/CapSense_CSHL.c **** 
  63:.\Generated_Source\PSoC4/CapSense_CSHL.c **** 
  64:.\Generated_Source\PSoC4/CapSense_CSHL.c **** #if (CapSense_TUNING_METHOD == CapSense__TUNING_AUTO)
  65:.\Generated_Source\PSoC4/CapSense_CSHL.c ****     extern CapSense_CONFIG_TYPE_P4_v2_40 CapSense_config;
  66:.\Generated_Source\PSoC4/CapSense_CSHL.c **** #endif  /* (CapSense_TUNING_METHOD == CapSense__TUNING_AUTO) */
  67:.\Generated_Source\PSoC4/CapSense_CSHL.c **** 
  68:.\Generated_Source\PSoC4/CapSense_CSHL.c **** #if (CapSense_RAW_FILTER_MASK != 0u)
  69:.\Generated_Source\PSoC4/CapSense_CSHL.c **** uint8 CapSense_enableRawFilters = CapSense_RAW_FILTERS_ENABLED;
  70:.\Generated_Source\PSoC4/CapSense_CSHL.c **** #endif  /* (CapSense_RAW_FILTER_MASK != 0u) */
  71:.\Generated_Source\PSoC4/CapSense_CSHL.c **** 
  72:.\Generated_Source\PSoC4/CapSense_CSHL.c **** /* Generated by Customizer */
  73:.\Generated_Source\PSoC4/CapSense_CSHL.c **** uint8 CapSense_fingerThreshold[CapSense_THRESHOLD_TBL_SIZE];
  74:.\Generated_Source\PSoC4/CapSense_CSHL.c **** 
  75:.\Generated_Source\PSoC4/CapSense_CSHL.c **** uint8 CapSense_noiseThreshold[CapSense_THRESHOLD_TBL_SIZE];
  76:.\Generated_Source\PSoC4/CapSense_CSHL.c **** 
  77:.\Generated_Source\PSoC4/CapSense_CSHL.c **** uint8 CapSense_negativeNoiseThreshold[CapSense_THRESHOLD_TBL_SIZE];
  78:.\Generated_Source\PSoC4/CapSense_CSHL.c **** 
  79:.\Generated_Source\PSoC4/CapSense_CSHL.c **** uint8 CapSense_hysteresis[CapSense_WIDGET_PARAM_TBL_SIZE];
  80:.\Generated_Source\PSoC4/CapSense_CSHL.c **** 
  81:.\Generated_Source\PSoC4/CapSense_CSHL.c **** uint8 CapSense_debounce[] = {
  82:.\Generated_Source\PSoC4/CapSense_CSHL.c ****     5u, 5u, 
  83:.\Generated_Source\PSoC4/CapSense_CSHL.c **** };
  84:.\Generated_Source\PSoC4/CapSense_CSHL.c **** 
  85:.\Generated_Source\PSoC4/CapSense_CSHL.c **** static uint8 CapSense_debounceCounter[] = {
  86:.\Generated_Source\PSoC4/CapSense_CSHL.c ****     0u, 0u, 0u, 
  87:.\Generated_Source\PSoC4/CapSense_CSHL.c **** };
  88:.\Generated_Source\PSoC4/CapSense_CSHL.c **** 
  89:.\Generated_Source\PSoC4/CapSense_CSHL.c **** const uint8 CapSense_rawDataIndex[] = {
ARM GAS  C:\Users\mlgjmoor\AppData\Local\Temp\cccG5TSt.s 			page 3


  90:.\Generated_Source\PSoC4/CapSense_CSHL.c ****     0u, /* Button0__BTN */
  91:.\Generated_Source\PSoC4/CapSense_CSHL.c ****     1u, /* Button1__BTN */
  92:.\Generated_Source\PSoC4/CapSense_CSHL.c **** };
  93:.\Generated_Source\PSoC4/CapSense_CSHL.c **** 
  94:.\Generated_Source\PSoC4/CapSense_CSHL.c **** const uint8 CapSense_numberOfSensors[] = {
  95:.\Generated_Source\PSoC4/CapSense_CSHL.c ****     1u, /* Button0__BTN */
  96:.\Generated_Source\PSoC4/CapSense_CSHL.c ****     1u, /* Button1__BTN */
  97:.\Generated_Source\PSoC4/CapSense_CSHL.c **** };
  98:.\Generated_Source\PSoC4/CapSense_CSHL.c **** 
  99:.\Generated_Source\PSoC4/CapSense_CSHL.c **** 
 100:.\Generated_Source\PSoC4/CapSense_CSHL.c **** 
 101:.\Generated_Source\PSoC4/CapSense_CSHL.c **** 
 102:.\Generated_Source\PSoC4/CapSense_CSHL.c **** /*******************************************************************************
 103:.\Generated_Source\PSoC4/CapSense_CSHL.c **** * Function Name: CapSense_BaseInit
 104:.\Generated_Source\PSoC4/CapSense_CSHL.c **** ********************************************************************************
 105:.\Generated_Source\PSoC4/CapSense_CSHL.c **** *
 106:.\Generated_Source\PSoC4/CapSense_CSHL.c **** * Summary:
 107:.\Generated_Source\PSoC4/CapSense_CSHL.c **** *  Loads the CapSense_sensorBaseline[sensor] array element with an
 108:.\Generated_Source\PSoC4/CapSense_CSHL.c **** *  initial value which is equal to the raw count value.
 109:.\Generated_Source\PSoC4/CapSense_CSHL.c **** *  Resets to zero CapSense_sensorBaselineLow[sensor] and
 110:.\Generated_Source\PSoC4/CapSense_CSHL.c **** *  CapSense_sensorSignal[sensor] array element.
 111:.\Generated_Source\PSoC4/CapSense_CSHL.c **** *  Loads the CapSense_rawFilterData2[sensor] and
 112:.\Generated_Source\PSoC4/CapSense_CSHL.c **** *  CapSense_rawFilterData2[sensor] array element with an
 113:.\Generated_Source\PSoC4/CapSense_CSHL.c **** *  initial value which is equal to the raw count value if the raw data filter is enabled.
 114:.\Generated_Source\PSoC4/CapSense_CSHL.c **** *
 115:.\Generated_Source\PSoC4/CapSense_CSHL.c **** * Parameters:
 116:.\Generated_Source\PSoC4/CapSense_CSHL.c **** *  sensor:  Sensor number.
 117:.\Generated_Source\PSoC4/CapSense_CSHL.c **** *
 118:.\Generated_Source\PSoC4/CapSense_CSHL.c **** * Return:
 119:.\Generated_Source\PSoC4/CapSense_CSHL.c **** *  None
 120:.\Generated_Source\PSoC4/CapSense_CSHL.c **** *
 121:.\Generated_Source\PSoC4/CapSense_CSHL.c **** * Global Variables:
 122:.\Generated_Source\PSoC4/CapSense_CSHL.c **** *  CapSense_sensorBaseline[]    - used to store the baseline value.
 123:.\Generated_Source\PSoC4/CapSense_CSHL.c **** *  CapSense_sensorBaselineLow[] - used to store the fraction byte of
 124:.\Generated_Source\PSoC4/CapSense_CSHL.c **** *  the baseline value.
 125:.\Generated_Source\PSoC4/CapSense_CSHL.c **** *  CapSense_sensorSignal[]      - used to store a difference between
 126:.\Generated_Source\PSoC4/CapSense_CSHL.c **** *  the current value of raw data and the previous value of the baseline.
 127:.\Generated_Source\PSoC4/CapSense_CSHL.c **** *  CapSense_rawFilterData1[]    - used to store a previous sample of
 128:.\Generated_Source\PSoC4/CapSense_CSHL.c **** *  any enabled raw data filter.
 129:.\Generated_Source\PSoC4/CapSense_CSHL.c **** *  CapSense_rawFilterData2[]    - used to store before a previous sample
 130:.\Generated_Source\PSoC4/CapSense_CSHL.c **** *  of the enabled raw data filter. Required only for median or average filters.
 131:.\Generated_Source\PSoC4/CapSense_CSHL.c **** *
 132:.\Generated_Source\PSoC4/CapSense_CSHL.c **** * Side Effects:
 133:.\Generated_Source\PSoC4/CapSense_CSHL.c **** *  None
 134:.\Generated_Source\PSoC4/CapSense_CSHL.c **** *
 135:.\Generated_Source\PSoC4/CapSense_CSHL.c **** *******************************************************************************/
 136:.\Generated_Source\PSoC4/CapSense_CSHL.c **** void CapSense_BaseInit(uint32 sensor)
 137:.\Generated_Source\PSoC4/CapSense_CSHL.c **** {
  26              		.loc 1 137 0
  27              		.cfi_startproc
  28              	.LVL0:
  29 0000 30B5     		push	{r4, r5, lr}
  30              		.cfi_def_cfa_offset 12
  31              		.cfi_offset 4, -12
  32              		.cfi_offset 5, -8
  33              		.cfi_offset 14, -4
 138:.\Generated_Source\PSoC4/CapSense_CSHL.c ****     #if ((CapSense_TOTAL_BUTTONS_COUNT) || (CapSense_TOTAL_MATRIX_BUTTONS_COUNT) || \
ARM GAS  C:\Users\mlgjmoor\AppData\Local\Temp\cccG5TSt.s 			page 4


 139:.\Generated_Source\PSoC4/CapSense_CSHL.c ****          (CapSense_TOTAL_GENERICS_COUNT))
 140:.\Generated_Source\PSoC4/CapSense_CSHL.c ****         uint8 widget = CapSense_widgetNumber[sensor];
  34              		.loc 1 140 0
  35 0002 094B     		ldr	r3, .L2
  36 0004 1B5C     		ldrb	r3, [r3, r0]
  37              	.LVL1:
 141:.\Generated_Source\PSoC4/CapSense_CSHL.c ****     #endif /* ((CapSense_TOTAL_MATRIX_BUTTONS_COUNT) || (CapSense_TOTAL_MATRIX_BUTTONS_COUNT)) */
 142:.\Generated_Source\PSoC4/CapSense_CSHL.c **** 
 143:.\Generated_Source\PSoC4/CapSense_CSHL.c ****     #if (CapSense_TOTAL_MATRIX_BUTTONS_COUNT)
 144:.\Generated_Source\PSoC4/CapSense_CSHL.c ****         uint8 debounceIndex;
 145:.\Generated_Source\PSoC4/CapSense_CSHL.c ****     #endif  /* (CapSense_TOTAL_MATRIX_BUTTONS_COUNT) */
 146:.\Generated_Source\PSoC4/CapSense_CSHL.c **** 
 147:.\Generated_Source\PSoC4/CapSense_CSHL.c ****     #if (CapSense_TOTAL_GENERICS_COUNT)
 148:.\Generated_Source\PSoC4/CapSense_CSHL.c ****         /* Exclude generic widget */
 149:.\Generated_Source\PSoC4/CapSense_CSHL.c ****         if(widget < CapSense_END_OF_WIDGETS_INDEX)
 150:.\Generated_Source\PSoC4/CapSense_CSHL.c ****         {
 151:.\Generated_Source\PSoC4/CapSense_CSHL.c ****     #endif  /* CapSense_TOTAL_GENERICS_COUNT */
 152:.\Generated_Source\PSoC4/CapSense_CSHL.c **** 
 153:.\Generated_Source\PSoC4/CapSense_CSHL.c ****     /* Initialize Baseline */
 154:.\Generated_Source\PSoC4/CapSense_CSHL.c ****     CapSense_sensorBaseline[sensor] = CapSense_sensorRaw[sensor];
  38              		.loc 1 154 0
  39 0006 4200     		lsl	r2, r0, #1
  40 0008 0849     		ldr	r1, .L2+4
  41 000a 545A     		ldrh	r4, [r2, r1]
  42 000c 0849     		ldr	r1, .L2+8
  43 000e 5452     		strh	r4, [r2, r1]
 155:.\Generated_Source\PSoC4/CapSense_CSHL.c ****     CapSense_sensorBaselineLow[sensor] = 0u;
  44              		.loc 1 155 0
  45 0010 0818     		add	r0, r1, r0
  46              	.LVL2:
  47 0012 0025     		mov	r5, #0
  48 0014 0571     		strb	r5, [r0, #4]
 156:.\Generated_Source\PSoC4/CapSense_CSHL.c ****     CapSense_sensorSignal[sensor] = 0u;
  49              		.loc 1 156 0
  50 0016 0572     		strb	r5, [r0, #8]
 157:.\Generated_Source\PSoC4/CapSense_CSHL.c **** 
 158:.\Generated_Source\PSoC4/CapSense_CSHL.c ****     CapSense_debounceCounter[widget] =  CapSense_debounce[widget];
  51              		.loc 1 158 0
  52 0018 0648     		ldr	r0, .L2+12
  53 001a C05C     		ldrb	r0, [r0, r3]
  54 001c CB18     		add	r3, r1, r3
  55              	.LVL3:
  56 001e 1873     		strb	r0, [r3, #12]
 159:.\Generated_Source\PSoC4/CapSense_CSHL.c **** 
 160:.\Generated_Source\PSoC4/CapSense_CSHL.c **** 
 161:.\Generated_Source\PSoC4/CapSense_CSHL.c ****     #if ((0u != (CapSense_RAW_FILTER_MASK & CapSense_MEDIAN_FILTER)) ||\
 162:.\Generated_Source\PSoC4/CapSense_CSHL.c ****          (0u != (CapSense_RAW_FILTER_MASK & CapSense_AVERAGING_FILTER)))
 163:.\Generated_Source\PSoC4/CapSense_CSHL.c **** 
 164:.\Generated_Source\PSoC4/CapSense_CSHL.c ****         CapSense_rawFilterData1[sensor] = CapSense_sensorRaw[sensor];
 165:.\Generated_Source\PSoC4/CapSense_CSHL.c ****         CapSense_rawFilterData2[sensor] = CapSense_sensorRaw[sensor];
 166:.\Generated_Source\PSoC4/CapSense_CSHL.c **** 
 167:.\Generated_Source\PSoC4/CapSense_CSHL.c ****     #elif ((CapSense_RAW_FILTER_MASK & CapSense_IIR2_FILTER) ||\
 168:.\Generated_Source\PSoC4/CapSense_CSHL.c ****            (CapSense_RAW_FILTER_MASK & CapSense_IIR4_FILTER) ||\
 169:.\Generated_Source\PSoC4/CapSense_CSHL.c ****            (CapSense_RAW_FILTER_MASK & CapSense_JITTER_FILTER) ||\
 170:.\Generated_Source\PSoC4/CapSense_CSHL.c ****            (CapSense_RAW_FILTER_MASK & CapSense_IIR8_FILTER) ||\
 171:.\Generated_Source\PSoC4/CapSense_CSHL.c ****            (CapSense_RAW_FILTER_MASK & CapSense_IIR16_FILTER))
 172:.\Generated_Source\PSoC4/CapSense_CSHL.c **** 
ARM GAS  C:\Users\mlgjmoor\AppData\Local\Temp\cccG5TSt.s 			page 5


 173:.\Generated_Source\PSoC4/CapSense_CSHL.c ****         CapSense_rawFilterData1[sensor] = CapSense_sensorRaw[sensor];
  57              		.loc 1 173 0
  58 0020 054B     		ldr	r3, .L2+16
  59 0022 D452     		strh	r4, [r2, r3]
 174:.\Generated_Source\PSoC4/CapSense_CSHL.c **** 
 175:.\Generated_Source\PSoC4/CapSense_CSHL.c ****     #else
 176:.\Generated_Source\PSoC4/CapSense_CSHL.c ****         /* No Raw filters */
 177:.\Generated_Source\PSoC4/CapSense_CSHL.c ****     #endif  /* ((CapSense_RAW_FILTER_MASK & CapSense_MEDIAN_FILTER) || \
 178:.\Generated_Source\PSoC4/CapSense_CSHL.c ****             *   (CapSense_RAW_FILTER_MASK & CapSense_AVERAGING_FILTER))
 179:.\Generated_Source\PSoC4/CapSense_CSHL.c ****             */
 180:.\Generated_Source\PSoC4/CapSense_CSHL.c **** 
 181:.\Generated_Source\PSoC4/CapSense_CSHL.c ****     #if (CapSense_TOTAL_GENERICS_COUNT)
 182:.\Generated_Source\PSoC4/CapSense_CSHL.c ****         /* Exclude generic widget */
 183:.\Generated_Source\PSoC4/CapSense_CSHL.c ****         }
 184:.\Generated_Source\PSoC4/CapSense_CSHL.c ****     #endif  /* CapSense_TOTAL_GENERICS_COUNT */
 185:.\Generated_Source\PSoC4/CapSense_CSHL.c **** }
  60              		.loc 1 185 0
  61              		@ sp needed
  62 0024 30BD     		pop	{r4, r5, pc}
  63              	.L3:
  64 0026 C046     		.align	2
  65              	.L2:
  66 0028 00000000 		.word	CapSense_widgetNumber
  67 002c 00000000 		.word	CapSense_sensorRaw
  68 0030 00000000 		.word	.LANCHOR0
  69 0034 00000000 		.word	.LANCHOR1
  70 0038 00000000 		.word	CapSense_rawFilterData1
  71              		.cfi_endproc
  72              	.LFE36:
  73              		.size	CapSense_BaseInit, .-CapSense_BaseInit
  74              		.section	.text.CapSense_InitializeSensorBaseline,"ax",%progbits
  75              		.align	2
  76              		.global	CapSense_InitializeSensorBaseline
  77              		.code	16
  78              		.thumb_func
  79              		.type	CapSense_InitializeSensorBaseline, %function
  80              	CapSense_InitializeSensorBaseline:
  81              	.LFB37:
 186:.\Generated_Source\PSoC4/CapSense_CSHL.c **** 
 187:.\Generated_Source\PSoC4/CapSense_CSHL.c **** 
 188:.\Generated_Source\PSoC4/CapSense_CSHL.c **** /*******************************************************************************
 189:.\Generated_Source\PSoC4/CapSense_CSHL.c **** * Function Name: CapSense_InitializeSensorBaseline
 190:.\Generated_Source\PSoC4/CapSense_CSHL.c **** ********************************************************************************
 191:.\Generated_Source\PSoC4/CapSense_CSHL.c **** *
 192:.\Generated_Source\PSoC4/CapSense_CSHL.c **** * Summary:
 193:.\Generated_Source\PSoC4/CapSense_CSHL.c **** *  Loads the CapSense_sensorBaseline[sensor] array element with an
 194:.\Generated_Source\PSoC4/CapSense_CSHL.c **** *  initial value by scanning the selected sensor (one channel design) or a pair
 195:.\Generated_Source\PSoC4/CapSense_CSHL.c **** *  of sensors (two channels designs). The raw count value is copied into the
 196:.\Generated_Source\PSoC4/CapSense_CSHL.c **** *  baseline array for each sensor. The raw data filters are initialized if
 197:.\Generated_Source\PSoC4/CapSense_CSHL.c **** *  enabled.
 198:.\Generated_Source\PSoC4/CapSense_CSHL.c **** *
 199:.\Generated_Source\PSoC4/CapSense_CSHL.c **** * Parameters:
 200:.\Generated_Source\PSoC4/CapSense_CSHL.c **** *  sensor:  Sensor number.
 201:.\Generated_Source\PSoC4/CapSense_CSHL.c **** *
 202:.\Generated_Source\PSoC4/CapSense_CSHL.c **** * Return:
 203:.\Generated_Source\PSoC4/CapSense_CSHL.c **** *  None
 204:.\Generated_Source\PSoC4/CapSense_CSHL.c **** *
ARM GAS  C:\Users\mlgjmoor\AppData\Local\Temp\cccG5TSt.s 			page 6


 205:.\Generated_Source\PSoC4/CapSense_CSHL.c **** * Global Variables:
 206:.\Generated_Source\PSoC4/CapSense_CSHL.c **** *  None
 207:.\Generated_Source\PSoC4/CapSense_CSHL.c **** *
 208:.\Generated_Source\PSoC4/CapSense_CSHL.c **** * Side Effects:
 209:.\Generated_Source\PSoC4/CapSense_CSHL.c **** *  None
 210:.\Generated_Source\PSoC4/CapSense_CSHL.c **** *
 211:.\Generated_Source\PSoC4/CapSense_CSHL.c **** *******************************************************************************/
 212:.\Generated_Source\PSoC4/CapSense_CSHL.c **** void CapSense_InitializeSensorBaseline(uint32 sensor)
 213:.\Generated_Source\PSoC4/CapSense_CSHL.c **** {
  82              		.loc 1 213 0
  83              		.cfi_startproc
  84              	.LVL4:
  85 0000 10B5     		push	{r4, lr}
  86              		.cfi_def_cfa_offset 8
  87              		.cfi_offset 4, -8
  88              		.cfi_offset 14, -4
  89 0002 041C     		mov	r4, r0
 214:.\Generated_Source\PSoC4/CapSense_CSHL.c ****     /* Scan sensor */
 215:.\Generated_Source\PSoC4/CapSense_CSHL.c ****     CapSense_ScanSensor(sensor);
  90              		.loc 1 215 0
  91 0004 FFF7FEFF 		bl	CapSense_ScanSensor
  92              	.LVL5:
  93              	.L5:
 216:.\Generated_Source\PSoC4/CapSense_CSHL.c ****     while(CapSense_IsBusy() != 0u)
  94              		.loc 1 216 0 discriminator 1
  95 0008 FFF7FEFF 		bl	CapSense_IsBusy
  96              	.LVL6:
  97 000c 0028     		cmp	r0, #0
  98 000e FBD1     		bne	.L5
 217:.\Generated_Source\PSoC4/CapSense_CSHL.c ****     {
 218:.\Generated_Source\PSoC4/CapSense_CSHL.c ****         /* Wait while sensor is busy */
 219:.\Generated_Source\PSoC4/CapSense_CSHL.c ****     }
 220:.\Generated_Source\PSoC4/CapSense_CSHL.c **** 
 221:.\Generated_Source\PSoC4/CapSense_CSHL.c ****     /* Initialize Baseline, Signal and debounce counters */
 222:.\Generated_Source\PSoC4/CapSense_CSHL.c ****     CapSense_BaseInit(sensor);
  99              		.loc 1 222 0
 100 0010 201C     		mov	r0, r4
 101 0012 FFF7FEFF 		bl	CapSense_BaseInit
 102              	.LVL7:
 223:.\Generated_Source\PSoC4/CapSense_CSHL.c **** }
 103              		.loc 1 223 0
 104              		@ sp needed
 105              	.LVL8:
 106 0016 10BD     		pop	{r4, pc}
 107              		.cfi_endproc
 108              	.LFE37:
 109              		.size	CapSense_InitializeSensorBaseline, .-CapSense_InitializeSensorBaseline
 110              		.section	.text.CapSense_InitializeAllBaselines,"ax",%progbits
 111              		.align	2
 112              		.global	CapSense_InitializeAllBaselines
 113              		.code	16
 114              		.thumb_func
 115              		.type	CapSense_InitializeAllBaselines, %function
 116              	CapSense_InitializeAllBaselines:
 117              	.LFB38:
 224:.\Generated_Source\PSoC4/CapSense_CSHL.c **** 
 225:.\Generated_Source\PSoC4/CapSense_CSHL.c **** 
ARM GAS  C:\Users\mlgjmoor\AppData\Local\Temp\cccG5TSt.s 			page 7


 226:.\Generated_Source\PSoC4/CapSense_CSHL.c **** /*******************************************************************************
 227:.\Generated_Source\PSoC4/CapSense_CSHL.c **** * Function Name: CapSense_InitializeAllBaselines
 228:.\Generated_Source\PSoC4/CapSense_CSHL.c **** ********************************************************************************
 229:.\Generated_Source\PSoC4/CapSense_CSHL.c **** *
 230:.\Generated_Source\PSoC4/CapSense_CSHL.c **** * Summary:
 231:.\Generated_Source\PSoC4/CapSense_CSHL.c **** *  Uses the CapSense_InitializeSensorBaseline function to load the
 232:.\Generated_Source\PSoC4/CapSense_CSHL.c **** *  CapSense_sensorBaseline[] array with an initial values by scanning
 233:.\Generated_Source\PSoC4/CapSense_CSHL.c **** *  all the sensors. The raw count values are copied into the baseline array for
 234:.\Generated_Source\PSoC4/CapSense_CSHL.c **** *  all the sensors. The raw data filters are initialized if enabled.
 235:.\Generated_Source\PSoC4/CapSense_CSHL.c **** *
 236:.\Generated_Source\PSoC4/CapSense_CSHL.c **** * Parameters:
 237:.\Generated_Source\PSoC4/CapSense_CSHL.c **** *  None
 238:.\Generated_Source\PSoC4/CapSense_CSHL.c **** *
 239:.\Generated_Source\PSoC4/CapSense_CSHL.c **** * Return:
 240:.\Generated_Source\PSoC4/CapSense_CSHL.c **** *  None
 241:.\Generated_Source\PSoC4/CapSense_CSHL.c **** *
 242:.\Generated_Source\PSoC4/CapSense_CSHL.c **** * Global Variables:
 243:.\Generated_Source\PSoC4/CapSense_CSHL.c **** *  None
 244:.\Generated_Source\PSoC4/CapSense_CSHL.c **** *
 245:.\Generated_Source\PSoC4/CapSense_CSHL.c **** * Side Effects:
 246:.\Generated_Source\PSoC4/CapSense_CSHL.c **** *  None
 247:.\Generated_Source\PSoC4/CapSense_CSHL.c **** *
 248:.\Generated_Source\PSoC4/CapSense_CSHL.c **** *******************************************************************************/
 249:.\Generated_Source\PSoC4/CapSense_CSHL.c **** void CapSense_InitializeAllBaselines(void)
 250:.\Generated_Source\PSoC4/CapSense_CSHL.c **** {
 118              		.loc 1 250 0
 119              		.cfi_startproc
 120 0000 10B5     		push	{r4, lr}
 121              		.cfi_def_cfa_offset 8
 122              		.cfi_offset 4, -8
 123              		.cfi_offset 14, -4
 124              	.LVL9:
 251:.\Generated_Source\PSoC4/CapSense_CSHL.c ****     uint32 i;
 252:.\Generated_Source\PSoC4/CapSense_CSHL.c **** 
 253:.\Generated_Source\PSoC4/CapSense_CSHL.c ****     for(i = 0u; i < CapSense_TOTAL_SCANSLOT_COUNT; i++)
 125              		.loc 1 253 0
 126 0002 0024     		mov	r4, #0
 127 0004 03E0     		b	.L7
 128              	.LVL10:
 129              	.L8:
 254:.\Generated_Source\PSoC4/CapSense_CSHL.c ****     {
 255:.\Generated_Source\PSoC4/CapSense_CSHL.c ****         CapSense_InitializeSensorBaseline(i);
 130              		.loc 1 255 0 discriminator 3
 131 0006 201C     		mov	r0, r4
 132 0008 FFF7FEFF 		bl	CapSense_InitializeSensorBaseline
 133              	.LVL11:
 253:.\Generated_Source\PSoC4/CapSense_CSHL.c ****     {
 134              		.loc 1 253 0 discriminator 3
 135 000c 0134     		add	r4, r4, #1
 136              	.LVL12:
 137              	.L7:
 253:.\Generated_Source\PSoC4/CapSense_CSHL.c ****     {
 138              		.loc 1 253 0 is_stmt 0 discriminator 1
 139 000e 012C     		cmp	r4, #1
 140 0010 F9D9     		bls	.L8
 256:.\Generated_Source\PSoC4/CapSense_CSHL.c ****     }
 257:.\Generated_Source\PSoC4/CapSense_CSHL.c **** }
ARM GAS  C:\Users\mlgjmoor\AppData\Local\Temp\cccG5TSt.s 			page 8


 141              		.loc 1 257 0 is_stmt 1
 142              		@ sp needed
 143              	.LVL13:
 144 0012 10BD     		pop	{r4, pc}
 145              		.cfi_endproc
 146              	.LFE38:
 147              		.size	CapSense_InitializeAllBaselines, .-CapSense_InitializeAllBaselines
 148              		.section	.text.CapSense_InitializeEnabledBaselines,"ax",%progbits
 149              		.align	2
 150              		.global	CapSense_InitializeEnabledBaselines
 151              		.code	16
 152              		.thumb_func
 153              		.type	CapSense_InitializeEnabledBaselines, %function
 154              	CapSense_InitializeEnabledBaselines:
 155              	.LFB39:
 258:.\Generated_Source\PSoC4/CapSense_CSHL.c **** 
 259:.\Generated_Source\PSoC4/CapSense_CSHL.c **** 
 260:.\Generated_Source\PSoC4/CapSense_CSHL.c **** /*******************************************************************************
 261:.\Generated_Source\PSoC4/CapSense_CSHL.c **** * Function Name: CapSense_InitializeEnabledBaselines
 262:.\Generated_Source\PSoC4/CapSense_CSHL.c **** ********************************************************************************
 263:.\Generated_Source\PSoC4/CapSense_CSHL.c **** *
 264:.\Generated_Source\PSoC4/CapSense_CSHL.c **** * Summary:
 265:.\Generated_Source\PSoC4/CapSense_CSHL.c **** *  Scans all the enabled widgets and the raw count values are copied into the
 266:.\Generated_Source\PSoC4/CapSense_CSHL.c **** *  baseline array for all the sensors enabled in the scanning process. The baselines
 267:.\Generated_Source\PSoC4/CapSense_CSHL.c **** *  are initialized with zero values for sensors disabled from the scanning process.
 268:.\Generated_Source\PSoC4/CapSense_CSHL.c **** *  The raw data filters are initialized if enabled.
 269:.\Generated_Source\PSoC4/CapSense_CSHL.c **** *
 270:.\Generated_Source\PSoC4/CapSense_CSHL.c **** * Parameters:
 271:.\Generated_Source\PSoC4/CapSense_CSHL.c **** *  None
 272:.\Generated_Source\PSoC4/CapSense_CSHL.c **** *
 273:.\Generated_Source\PSoC4/CapSense_CSHL.c **** * Return:
 274:.\Generated_Source\PSoC4/CapSense_CSHL.c **** *  None
 275:.\Generated_Source\PSoC4/CapSense_CSHL.c **** *
 276:.\Generated_Source\PSoC4/CapSense_CSHL.c **** * Global Variables:
 277:.\Generated_Source\PSoC4/CapSense_CSHL.c **** *  CapSense_sensorRaw[] - used to store the sensors raw data.
 278:.\Generated_Source\PSoC4/CapSense_CSHL.c **** *  CapSense_sensorEnableMask[ ] - used to store bit masks of the enabled sensors.
 279:.\Generated_Source\PSoC4/CapSense_CSHL.c **** *
 280:.\Generated_Source\PSoC4/CapSense_CSHL.c **** * Side Effects:
 281:.\Generated_Source\PSoC4/CapSense_CSHL.c **** *  None
 282:.\Generated_Source\PSoC4/CapSense_CSHL.c **** *
 283:.\Generated_Source\PSoC4/CapSense_CSHL.c **** *******************************************************************************/
 284:.\Generated_Source\PSoC4/CapSense_CSHL.c **** void CapSense_InitializeEnabledBaselines(void)
 285:.\Generated_Source\PSoC4/CapSense_CSHL.c **** {
 156              		.loc 1 285 0
 157              		.cfi_startproc
 158 0000 10B5     		push	{r4, lr}
 159              		.cfi_def_cfa_offset 8
 160              		.cfi_offset 4, -8
 161              		.cfi_offset 14, -4
 286:.\Generated_Source\PSoC4/CapSense_CSHL.c ****     uint32 i;
 287:.\Generated_Source\PSoC4/CapSense_CSHL.c ****     uint32 isSensorEnabled;
 288:.\Generated_Source\PSoC4/CapSense_CSHL.c **** 
 289:.\Generated_Source\PSoC4/CapSense_CSHL.c ****     CapSense_ScanEnabledWidgets();
 162              		.loc 1 289 0
 163 0002 FFF7FEFF 		bl	CapSense_ScanEnabledWidgets
 164              	.LVL14:
 165              	.L10:
ARM GAS  C:\Users\mlgjmoor\AppData\Local\Temp\cccG5TSt.s 			page 9


 290:.\Generated_Source\PSoC4/CapSense_CSHL.c ****     while(CapSense_IsBusy() != 0u)
 166              		.loc 1 290 0 discriminator 1
 167 0006 FFF7FEFF 		bl	CapSense_IsBusy
 168              	.LVL15:
 169 000a 0028     		cmp	r0, #0
 170 000c FBD1     		bne	.L10
 171 000e 0024     		mov	r4, #0
 172 0010 09E0     		b	.L11
 173              	.LVL16:
 174              	.L13:
 291:.\Generated_Source\PSoC4/CapSense_CSHL.c ****     {
 292:.\Generated_Source\PSoC4/CapSense_CSHL.c ****         /* Wait while sensor is busy */
 293:.\Generated_Source\PSoC4/CapSense_CSHL.c ****     }
 294:.\Generated_Source\PSoC4/CapSense_CSHL.c **** 
 295:.\Generated_Source\PSoC4/CapSense_CSHL.c ****     for(i = 0u; i < CapSense_TOTAL_SENSOR_COUNT; i++)
 296:.\Generated_Source\PSoC4/CapSense_CSHL.c ****     {
 297:.\Generated_Source\PSoC4/CapSense_CSHL.c ****         isSensorEnabled = CapSense_GetBitValue(CapSense_sensorEnableMask, i);
 175              		.loc 1 297 0
 176 0012 0648     		ldr	r0, .L14
 177 0014 211C     		mov	r1, r4
 178 0016 FFF7FEFF 		bl	CapSense_GetBitValue
 179              	.LVL17:
 298:.\Generated_Source\PSoC4/CapSense_CSHL.c **** 
 299:.\Generated_Source\PSoC4/CapSense_CSHL.c ****         /* Clear raw data if sensor is disabled from scanning process */
 300:.\Generated_Source\PSoC4/CapSense_CSHL.c ****         if(isSensorEnabled != 0u)
 180              		.loc 1 300 0
 181 001a 0028     		cmp	r0, #0
 182 001c 02D0     		beq	.L12
 301:.\Generated_Source\PSoC4/CapSense_CSHL.c ****         {
 302:.\Generated_Source\PSoC4/CapSense_CSHL.c ****             /* Initialize baselines */
 303:.\Generated_Source\PSoC4/CapSense_CSHL.c ****             CapSense_BaseInit(i);
 183              		.loc 1 303 0
 184 001e 201C     		mov	r0, r4
 185              	.LVL18:
 186 0020 FFF7FEFF 		bl	CapSense_BaseInit
 187              	.LVL19:
 188              	.L12:
 295:.\Generated_Source\PSoC4/CapSense_CSHL.c ****     {
 189              		.loc 1 295 0 discriminator 2
 190 0024 0134     		add	r4, r4, #1
 191              	.LVL20:
 192              	.L11:
 295:.\Generated_Source\PSoC4/CapSense_CSHL.c ****     {
 193              		.loc 1 295 0 is_stmt 0 discriminator 1
 194 0026 012C     		cmp	r4, #1
 195 0028 F3D9     		bls	.L13
 304:.\Generated_Source\PSoC4/CapSense_CSHL.c ****         }
 305:.\Generated_Source\PSoC4/CapSense_CSHL.c ****     }
 306:.\Generated_Source\PSoC4/CapSense_CSHL.c **** }
 196              		.loc 1 306 0 is_stmt 1
 197              		@ sp needed
 198              	.LVL21:
 199 002a 10BD     		pop	{r4, pc}
 200              	.L15:
 201              		.align	2
 202              	.L14:
 203 002c 00000000 		.word	CapSense_sensorEnableMask
ARM GAS  C:\Users\mlgjmoor\AppData\Local\Temp\cccG5TSt.s 			page 10


 204              		.cfi_endproc
 205              	.LFE39:
 206              		.size	CapSense_InitializeEnabledBaselines, .-CapSense_InitializeEnabledBaselines
 207              		.section	.text.CapSense_GetBaselineData,"ax",%progbits
 208              		.align	2
 209              		.global	CapSense_GetBaselineData
 210              		.code	16
 211              		.thumb_func
 212              		.type	CapSense_GetBaselineData, %function
 213              	CapSense_GetBaselineData:
 214              	.LFB44:
 307:.\Generated_Source\PSoC4/CapSense_CSHL.c **** 
 308:.\Generated_Source\PSoC4/CapSense_CSHL.c **** 
 309:.\Generated_Source\PSoC4/CapSense_CSHL.c **** /*******************************************************************************
 310:.\Generated_Source\PSoC4/CapSense_CSHL.c **** * Function Name: CapSense_UpdateBaselineNoThreshold
 311:.\Generated_Source\PSoC4/CapSense_CSHL.c **** ********************************************************************************
 312:.\Generated_Source\PSoC4/CapSense_CSHL.c **** *
 313:.\Generated_Source\PSoC4/CapSense_CSHL.c **** * Summary:
 314:.\Generated_Source\PSoC4/CapSense_CSHL.c **** *  Updates the CapSense_sensorBaseline[sensor] array element using the
 315:.\Generated_Source\PSoC4/CapSense_CSHL.c **** *  LP filter with k = 256. The signal calculates the difference of count by
 316:.\Generated_Source\PSoC4/CapSense_CSHL.c **** *  subtracting the previous baseline from the current raw count value and stores
 317:.\Generated_Source\PSoC4/CapSense_CSHL.c **** *  it in CapSense_sensorSignal[sensor].
 318:.\Generated_Source\PSoC4/CapSense_CSHL.c **** *  If the auto reset option is enabled, the baseline updated regards the noise threshold.
 319:.\Generated_Source\PSoC4/CapSense_CSHL.c **** *  If the auto reset option is disabled, the baseline stops updating; baseline is loaded
 320:.\Generated_Source\PSoC4/CapSense_CSHL.c **** *  with a raw count value if a signal is greater than zero and if signal is less
 321:.\Generated_Source\PSoC4/CapSense_CSHL.c **** *  than noise threshold.
 322:.\Generated_Source\PSoC4/CapSense_CSHL.c **** *  Raw data filters are applied to the values if enabled before baseline
 323:.\Generated_Source\PSoC4/CapSense_CSHL.c **** *  calculation.
 324:.\Generated_Source\PSoC4/CapSense_CSHL.c **** *
 325:.\Generated_Source\PSoC4/CapSense_CSHL.c **** *  This API does not update the thresholds in the Smartsense Mode.
 326:.\Generated_Source\PSoC4/CapSense_CSHL.c **** *
 327:.\Generated_Source\PSoC4/CapSense_CSHL.c **** * Parameters:
 328:.\Generated_Source\PSoC4/CapSense_CSHL.c **** *  sensor:  Sensor number.
 329:.\Generated_Source\PSoC4/CapSense_CSHL.c **** *
 330:.\Generated_Source\PSoC4/CapSense_CSHL.c **** * Return:
 331:.\Generated_Source\PSoC4/CapSense_CSHL.c **** *  None
 332:.\Generated_Source\PSoC4/CapSense_CSHL.c **** *
 333:.\Generated_Source\PSoC4/CapSense_CSHL.c **** * Global Variables:
 334:.\Generated_Source\PSoC4/CapSense_CSHL.c **** *  CapSense_widgetNumber[]  - stores widget numbers.
 335:.\Generated_Source\PSoC4/CapSense_CSHL.c **** *  CapSense_sensorBaseline[]    - used to store baseline value.
 336:.\Generated_Source\PSoC4/CapSense_CSHL.c **** *  CapSense_sensorBaselineLow[] - used to store fraction byte of
 337:.\Generated_Source\PSoC4/CapSense_CSHL.c **** *  baseline value.
 338:.\Generated_Source\PSoC4/CapSense_CSHL.c **** *  CapSense_sensorSignal[]      - used to store difference between
 339:.\Generated_Source\PSoC4/CapSense_CSHL.c **** *  current value of raw data and previous value of baseline.
 340:.\Generated_Source\PSoC4/CapSense_CSHL.c **** *  CapSense_rawFilterData1[]    - used to store previous sample of
 341:.\Generated_Source\PSoC4/CapSense_CSHL.c **** *  any enabled raw data filter.
 342:.\Generated_Source\PSoC4/CapSense_CSHL.c **** *  CapSense_rawFilterData2[]    - used to store before previous sample
 343:.\Generated_Source\PSoC4/CapSense_CSHL.c **** *  of enabled raw data filter. Only required for median or average filters.
 344:.\Generated_Source\PSoC4/CapSense_CSHL.c **** *
 345:.\Generated_Source\PSoC4/CapSense_CSHL.c **** * Side Effects:
 346:.\Generated_Source\PSoC4/CapSense_CSHL.c **** *  None
 347:.\Generated_Source\PSoC4/CapSense_CSHL.c **** *
 348:.\Generated_Source\PSoC4/CapSense_CSHL.c **** *******************************************************************************/
 349:.\Generated_Source\PSoC4/CapSense_CSHL.c **** void CapSense_UpdateBaselineNoThreshold(uint32 sensor)
 350:.\Generated_Source\PSoC4/CapSense_CSHL.c **** {
 351:.\Generated_Source\PSoC4/CapSense_CSHL.c ****     uint32 calc;
 352:.\Generated_Source\PSoC4/CapSense_CSHL.c ****     uint32 sign;
ARM GAS  C:\Users\mlgjmoor\AppData\Local\Temp\cccG5TSt.s 			page 11


 353:.\Generated_Source\PSoC4/CapSense_CSHL.c ****     uint16 tempRaw;
 354:.\Generated_Source\PSoC4/CapSense_CSHL.c ****     uint16 filteredRawData;
 355:.\Generated_Source\PSoC4/CapSense_CSHL.c ****     uint8 widget = CapSense_widgetNumber[sensor];
 356:.\Generated_Source\PSoC4/CapSense_CSHL.c ****     uint8 noiseThreshold;
 357:.\Generated_Source\PSoC4/CapSense_CSHL.c **** 
 358:.\Generated_Source\PSoC4/CapSense_CSHL.c ****     #if (CapSense_TOTAL_GENERICS_COUNT)
 359:.\Generated_Source\PSoC4/CapSense_CSHL.c ****         /* Exclude generic widget */
 360:.\Generated_Source\PSoC4/CapSense_CSHL.c ****         if(widget < CapSense_END_OF_WIDGETS_INDEX)
 361:.\Generated_Source\PSoC4/CapSense_CSHL.c ****         {
 362:.\Generated_Source\PSoC4/CapSense_CSHL.c ****     #endif  /* CapSense_TOTAL_GENERICS_COUNT */
 363:.\Generated_Source\PSoC4/CapSense_CSHL.c **** 
 364:.\Generated_Source\PSoC4/CapSense_CSHL.c ****     noiseThreshold = CapSense_noiseThreshold[widget];
 365:.\Generated_Source\PSoC4/CapSense_CSHL.c ****     filteredRawData = CapSense_sensorRaw[sensor];
 366:.\Generated_Source\PSoC4/CapSense_CSHL.c **** 
 367:.\Generated_Source\PSoC4/CapSense_CSHL.c ****     #if (CapSense_RAW_FILTER_MASK != 0u)
 368:.\Generated_Source\PSoC4/CapSense_CSHL.c ****     if(CapSense_enableRawFilters != 0u)
 369:.\Generated_Source\PSoC4/CapSense_CSHL.c ****     {
 370:.\Generated_Source\PSoC4/CapSense_CSHL.c ****         #if (CapSense_RAW_FILTER_MASK & CapSense_MEDIAN_FILTER)
 371:.\Generated_Source\PSoC4/CapSense_CSHL.c ****             tempRaw = filteredRawData;
 372:.\Generated_Source\PSoC4/CapSense_CSHL.c ****             filteredRawData = CapSense_MedianFilter(filteredRawData, CapSense_rawFilterData1[sensor
 373:.\Generated_Source\PSoC4/CapSense_CSHL.c ****                                                             CapSense_rawFilterData2[sensor]);
 374:.\Generated_Source\PSoC4/CapSense_CSHL.c ****             CapSense_rawFilterData2[sensor] = CapSense_rawFilterData1[sensor];
 375:.\Generated_Source\PSoC4/CapSense_CSHL.c ****             CapSense_rawFilterData1[sensor] = tempRaw;
 376:.\Generated_Source\PSoC4/CapSense_CSHL.c **** 
 377:.\Generated_Source\PSoC4/CapSense_CSHL.c ****         #elif (CapSense_RAW_FILTER_MASK & CapSense_AVERAGING_FILTER)
 378:.\Generated_Source\PSoC4/CapSense_CSHL.c ****             tempRaw = filteredRawData;
 379:.\Generated_Source\PSoC4/CapSense_CSHL.c ****             filteredRawData = CapSense_AveragingFilter(filteredRawData, CapSense_rawFilterData1[sen
 380:.\Generated_Source\PSoC4/CapSense_CSHL.c ****                                                                CapSense_rawFilterData2[sensor]);
 381:.\Generated_Source\PSoC4/CapSense_CSHL.c ****             CapSense_rawFilterData2[sensor] = CapSense_rawFilterData1[sensor];
 382:.\Generated_Source\PSoC4/CapSense_CSHL.c ****             CapSense_rawFilterData1[sensor] = tempRaw;
 383:.\Generated_Source\PSoC4/CapSense_CSHL.c **** 
 384:.\Generated_Source\PSoC4/CapSense_CSHL.c ****         #elif (CapSense_RAW_FILTER_MASK & CapSense_IIR2_FILTER)
 385:.\Generated_Source\PSoC4/CapSense_CSHL.c ****             filteredRawData = CapSense_IIR2Filter(filteredRawData, CapSense_rawFilterData1[sensor])
 386:.\Generated_Source\PSoC4/CapSense_CSHL.c ****             CapSense_rawFilterData1[sensor] = filteredRawData;
 387:.\Generated_Source\PSoC4/CapSense_CSHL.c **** 
 388:.\Generated_Source\PSoC4/CapSense_CSHL.c ****         #elif (CapSense_RAW_FILTER_MASK & CapSense_IIR4_FILTER)
 389:.\Generated_Source\PSoC4/CapSense_CSHL.c ****             filteredRawData = CapSense_IIR4Filter(filteredRawData, CapSense_rawFilterData1[sensor])
 390:.\Generated_Source\PSoC4/CapSense_CSHL.c ****             CapSense_rawFilterData1[sensor] = filteredRawData;
 391:.\Generated_Source\PSoC4/CapSense_CSHL.c **** 
 392:.\Generated_Source\PSoC4/CapSense_CSHL.c ****         #elif (CapSense_RAW_FILTER_MASK & CapSense_JITTER_FILTER)
 393:.\Generated_Source\PSoC4/CapSense_CSHL.c ****             filteredRawData = CapSense_JitterFilter(filteredRawData, CapSense_rawFilterData1[sensor
 394:.\Generated_Source\PSoC4/CapSense_CSHL.c ****             CapSense_rawFilterData1[sensor] = filteredRawData;
 395:.\Generated_Source\PSoC4/CapSense_CSHL.c **** 
 396:.\Generated_Source\PSoC4/CapSense_CSHL.c ****         #elif (CapSense_RAW_FILTER_MASK & CapSense_IIR8_FILTER)
 397:.\Generated_Source\PSoC4/CapSense_CSHL.c ****             filteredRawData = CapSense_IIR8Filter(filteredRawData, CapSense_rawFilterData1[sensor])
 398:.\Generated_Source\PSoC4/CapSense_CSHL.c ****             CapSense_rawFilterData1[sensor] = filteredRawData;
 399:.\Generated_Source\PSoC4/CapSense_CSHL.c **** 
 400:.\Generated_Source\PSoC4/CapSense_CSHL.c ****         #elif (CapSense_RAW_FILTER_MASK & CapSense_IIR16_FILTER)
 401:.\Generated_Source\PSoC4/CapSense_CSHL.c ****             filteredRawData = CapSense_IIR16Filter(filteredRawData, CapSense_rawFilterData1[sensor]
 402:.\Generated_Source\PSoC4/CapSense_CSHL.c ****             CapSense_rawFilterData1[sensor] = filteredRawData;
 403:.\Generated_Source\PSoC4/CapSense_CSHL.c **** 
 404:.\Generated_Source\PSoC4/CapSense_CSHL.c ****         #else
 405:.\Generated_Source\PSoC4/CapSense_CSHL.c ****             /* No Raw filters */
 406:.\Generated_Source\PSoC4/CapSense_CSHL.c ****         #endif  /* (CapSense_RAW_FILTER_MASK & CapSense_MEDIAN_FILTER) */
 407:.\Generated_Source\PSoC4/CapSense_CSHL.c ****     }
 408:.\Generated_Source\PSoC4/CapSense_CSHL.c ****     #endif  /* (CapSense_RAW_FILTER_MASK != 0u) */
 409:.\Generated_Source\PSoC4/CapSense_CSHL.c **** 
ARM GAS  C:\Users\mlgjmoor\AppData\Local\Temp\cccG5TSt.s 			page 12


 410:.\Generated_Source\PSoC4/CapSense_CSHL.c ****     #if (CapSense_TUNING_METHOD == CapSense__TUNING_AUTO)
 411:.\Generated_Source\PSoC4/CapSense_CSHL.c ****         MeasureNoiseEnvelope_P4_v2_40(&CapSense_config, (uint8)sensor, CapSense_sensorRaw);
 412:.\Generated_Source\PSoC4/CapSense_CSHL.c ****     #endif /* (CapSense_TUNING_METHOD == CapSense__TUNING_AUTO) */
 413:.\Generated_Source\PSoC4/CapSense_CSHL.c **** 
 414:.\Generated_Source\PSoC4/CapSense_CSHL.c ****     /* Baseline calculation */
 415:.\Generated_Source\PSoC4/CapSense_CSHL.c ****     /* Calculate difference RawData[cur] - Baseline[prev] */
 416:.\Generated_Source\PSoC4/CapSense_CSHL.c ****     if(filteredRawData >= CapSense_sensorBaseline[sensor])
 417:.\Generated_Source\PSoC4/CapSense_CSHL.c ****     {
 418:.\Generated_Source\PSoC4/CapSense_CSHL.c ****         CapSense_lowBaselineResetCnt[sensor] = 0u;
 419:.\Generated_Source\PSoC4/CapSense_CSHL.c ****         tempRaw = filteredRawData - CapSense_sensorBaseline[sensor];
 420:.\Generated_Source\PSoC4/CapSense_CSHL.c ****         sign = 1u;    /* Positive difference - Calculate the Signal */
 421:.\Generated_Source\PSoC4/CapSense_CSHL.c ****     }
 422:.\Generated_Source\PSoC4/CapSense_CSHL.c ****     else
 423:.\Generated_Source\PSoC4/CapSense_CSHL.c ****     {
 424:.\Generated_Source\PSoC4/CapSense_CSHL.c ****         tempRaw = CapSense_sensorBaseline[sensor] - filteredRawData;
 425:.\Generated_Source\PSoC4/CapSense_CSHL.c ****         sign = 0u;    /* Negative difference - Do NOT calculate the Signal */
 426:.\Generated_Source\PSoC4/CapSense_CSHL.c ****     }
 427:.\Generated_Source\PSoC4/CapSense_CSHL.c **** 
 428:.\Generated_Source\PSoC4/CapSense_CSHL.c ****     #if (CapSense_TUNING_METHOD != CapSense__TUNING_NONE)
 429:.\Generated_Source\PSoC4/CapSense_CSHL.c ****     if((sign == 0u) && (tempRaw > (uint16) CapSense_negativeNoiseThreshold[widget]))
 430:.\Generated_Source\PSoC4/CapSense_CSHL.c ****     #else
 431:.\Generated_Source\PSoC4/CapSense_CSHL.c ****     if((sign == 0u) && (tempRaw > (uint16) CapSense_NEGATIVE_NOISE_THRESHOLD))
 432:.\Generated_Source\PSoC4/CapSense_CSHL.c ****     #endif /* (CapSense_TUNING_METHOD != CapSense__TUNING_NONE) */
 433:.\Generated_Source\PSoC4/CapSense_CSHL.c ****     {
 434:.\Generated_Source\PSoC4/CapSense_CSHL.c ****         if(CapSense_lowBaselineResetCnt[sensor] >= CapSense_lowBaselineReset[sensor])
 435:.\Generated_Source\PSoC4/CapSense_CSHL.c ****         {
 436:.\Generated_Source\PSoC4/CapSense_CSHL.c ****             CapSense_BaseInit(sensor);
 437:.\Generated_Source\PSoC4/CapSense_CSHL.c ****             CapSense_lowBaselineResetCnt[sensor] = 0u;
 438:.\Generated_Source\PSoC4/CapSense_CSHL.c ****         }
 439:.\Generated_Source\PSoC4/CapSense_CSHL.c ****         else
 440:.\Generated_Source\PSoC4/CapSense_CSHL.c ****         {
 441:.\Generated_Source\PSoC4/CapSense_CSHL.c ****             CapSense_lowBaselineResetCnt[sensor]++;
 442:.\Generated_Source\PSoC4/CapSense_CSHL.c ****         }
 443:.\Generated_Source\PSoC4/CapSense_CSHL.c ****     }
 444:.\Generated_Source\PSoC4/CapSense_CSHL.c ****     else
 445:.\Generated_Source\PSoC4/CapSense_CSHL.c ****     {
 446:.\Generated_Source\PSoC4/CapSense_CSHL.c ****         #if (CapSense_AUTO_RESET == CapSense_AUTO_RESET_DISABLE)
 447:.\Generated_Source\PSoC4/CapSense_CSHL.c ****         #if (CapSense_TUNING_METHOD != CapSense__TUNING_NONE)
 448:.\Generated_Source\PSoC4/CapSense_CSHL.c ****             /* Update Baseline if lower than noiseThreshold */
 449:.\Generated_Source\PSoC4/CapSense_CSHL.c ****             if ( (tempRaw <= noiseThreshold) ||
 450:.\Generated_Source\PSoC4/CapSense_CSHL.c ****              ((tempRaw < (uint16) CapSense_negativeNoiseThreshold[widget])
 451:.\Generated_Source\PSoC4/CapSense_CSHL.c ****                && (sign == 0u)))
 452:.\Generated_Source\PSoC4/CapSense_CSHL.c ****             {
 453:.\Generated_Source\PSoC4/CapSense_CSHL.c ****         #else
 454:.\Generated_Source\PSoC4/CapSense_CSHL.c ****             /* Update Baseline if lower than noiseThreshold */
 455:.\Generated_Source\PSoC4/CapSense_CSHL.c ****             if ( (tempRaw <= noiseThreshold) ||
 456:.\Generated_Source\PSoC4/CapSense_CSHL.c ****                  ((tempRaw < (uint16) CapSense_NEGATIVE_NOISE_THRESHOLD)
 457:.\Generated_Source\PSoC4/CapSense_CSHL.c ****                    && (sign == 0u)))
 458:.\Generated_Source\PSoC4/CapSense_CSHL.c ****             {
 459:.\Generated_Source\PSoC4/CapSense_CSHL.c ****         #endif /* (CapSense_TUNING_METHOD != CapSense__TUNING_NONE) */
 460:.\Generated_Source\PSoC4/CapSense_CSHL.c ****         #endif /* (CapSense_AUTO_RESET == CapSense_AUTO_RESET_DISABLE) */
 461:.\Generated_Source\PSoC4/CapSense_CSHL.c ****                 /* Make full Baseline 23 bits */
 462:.\Generated_Source\PSoC4/CapSense_CSHL.c ****                 calc = (uint32) CapSense_sensorBaseline[sensor] << 8u;
 463:.\Generated_Source\PSoC4/CapSense_CSHL.c ****                 calc |= (uint32) CapSense_sensorBaselineLow[sensor];
 464:.\Generated_Source\PSoC4/CapSense_CSHL.c **** 
 465:.\Generated_Source\PSoC4/CapSense_CSHL.c ****                 /* Add Raw Data to Baseline */
 466:.\Generated_Source\PSoC4/CapSense_CSHL.c ****                 calc += filteredRawData;
ARM GAS  C:\Users\mlgjmoor\AppData\Local\Temp\cccG5TSt.s 			page 13


 467:.\Generated_Source\PSoC4/CapSense_CSHL.c **** 
 468:.\Generated_Source\PSoC4/CapSense_CSHL.c ****                 /* Sub the high Baseline */
 469:.\Generated_Source\PSoC4/CapSense_CSHL.c ****                 calc -= CapSense_sensorBaseline[sensor];
 470:.\Generated_Source\PSoC4/CapSense_CSHL.c **** 
 471:.\Generated_Source\PSoC4/CapSense_CSHL.c ****                 /* Put Baseline and BaselineLow */
 472:.\Generated_Source\PSoC4/CapSense_CSHL.c ****                 CapSense_sensorBaseline[sensor] = ((uint16) (calc >> 8u));
 473:.\Generated_Source\PSoC4/CapSense_CSHL.c ****                 CapSense_sensorBaselineLow[sensor] = ((uint8) calc);
 474:.\Generated_Source\PSoC4/CapSense_CSHL.c **** 
 475:.\Generated_Source\PSoC4/CapSense_CSHL.c ****                 CapSense_lowBaselineResetCnt[sensor] = 0u;
 476:.\Generated_Source\PSoC4/CapSense_CSHL.c ****         #if (CapSense_AUTO_RESET == CapSense_AUTO_RESET_DISABLE)
 477:.\Generated_Source\PSoC4/CapSense_CSHL.c ****             }
 478:.\Generated_Source\PSoC4/CapSense_CSHL.c ****         #endif /* (CapSense_AUTO_RESET == CapSense_AUTO_RESET_DISABLE) */
 479:.\Generated_Source\PSoC4/CapSense_CSHL.c ****     }
 480:.\Generated_Source\PSoC4/CapSense_CSHL.c **** 
 481:.\Generated_Source\PSoC4/CapSense_CSHL.c ****     /* Calculate Signal if positive difference > noiseThreshold */
 482:.\Generated_Source\PSoC4/CapSense_CSHL.c ****     if((tempRaw > (uint16) noiseThreshold) && (sign != 0u))
 483:.\Generated_Source\PSoC4/CapSense_CSHL.c ****     {
 484:.\Generated_Source\PSoC4/CapSense_CSHL.c ****         #if (CapSense_SIGNAL_SIZE == CapSense_SIGNAL_SIZE_UINT8)
 485:.\Generated_Source\PSoC4/CapSense_CSHL.c ****             /* Over flow defence for uint8 */
 486:.\Generated_Source\PSoC4/CapSense_CSHL.c ****             if (tempRaw > 0xFFu)
 487:.\Generated_Source\PSoC4/CapSense_CSHL.c ****             {
 488:.\Generated_Source\PSoC4/CapSense_CSHL.c ****                 CapSense_sensorSignal[sensor] = 0xFFu;
 489:.\Generated_Source\PSoC4/CapSense_CSHL.c ****             }
 490:.\Generated_Source\PSoC4/CapSense_CSHL.c ****             else
 491:.\Generated_Source\PSoC4/CapSense_CSHL.c ****             {
 492:.\Generated_Source\PSoC4/CapSense_CSHL.c ****                 CapSense_sensorSignal[sensor] = ((uint8) tempRaw);
 493:.\Generated_Source\PSoC4/CapSense_CSHL.c ****             }
 494:.\Generated_Source\PSoC4/CapSense_CSHL.c ****         #else
 495:.\Generated_Source\PSoC4/CapSense_CSHL.c ****             CapSense_sensorSignal[sensor] = ((uint16) tempRaw);
 496:.\Generated_Source\PSoC4/CapSense_CSHL.c ****         #endif  /* (CapSense_SIGNAL_SIZE == CapSense_SIGNAL_SIZE_UINT8) */
 497:.\Generated_Source\PSoC4/CapSense_CSHL.c ****     }
 498:.\Generated_Source\PSoC4/CapSense_CSHL.c ****     else
 499:.\Generated_Source\PSoC4/CapSense_CSHL.c ****     {
 500:.\Generated_Source\PSoC4/CapSense_CSHL.c ****         /* Signal is zero */
 501:.\Generated_Source\PSoC4/CapSense_CSHL.c ****         CapSense_sensorSignal[sensor] = 0u;
 502:.\Generated_Source\PSoC4/CapSense_CSHL.c ****     }
 503:.\Generated_Source\PSoC4/CapSense_CSHL.c **** 
 504:.\Generated_Source\PSoC4/CapSense_CSHL.c ****     #if (CapSense_TOTAL_GENERICS_COUNT)
 505:.\Generated_Source\PSoC4/CapSense_CSHL.c ****         /* Exclude generic widget */
 506:.\Generated_Source\PSoC4/CapSense_CSHL.c ****         }
 507:.\Generated_Source\PSoC4/CapSense_CSHL.c ****     #endif  /* CapSense_TOTAL_GENERICS_COUNT */
 508:.\Generated_Source\PSoC4/CapSense_CSHL.c **** }
 509:.\Generated_Source\PSoC4/CapSense_CSHL.c **** 
 510:.\Generated_Source\PSoC4/CapSense_CSHL.c **** 
 511:.\Generated_Source\PSoC4/CapSense_CSHL.c **** /*******************************************************************************
 512:.\Generated_Source\PSoC4/CapSense_CSHL.c **** * Function Name: CapSense_UpdateSensorBaseline
 513:.\Generated_Source\PSoC4/CapSense_CSHL.c **** ********************************************************************************
 514:.\Generated_Source\PSoC4/CapSense_CSHL.c **** *
 515:.\Generated_Source\PSoC4/CapSense_CSHL.c **** * Summary:
 516:.\Generated_Source\PSoC4/CapSense_CSHL.c **** *  Updates the CapSense_sensorBaseline[sensor] array element using the
 517:.\Generated_Source\PSoC4/CapSense_CSHL.c **** *  LP filter with k = 256. The signal calculates the difference of count by
 518:.\Generated_Source\PSoC4/CapSense_CSHL.c **** *  subtracting the previous baseline from the current raw count value and stores
 519:.\Generated_Source\PSoC4/CapSense_CSHL.c **** *  it in CapSense_sensorSignal[sensor].
 520:.\Generated_Source\PSoC4/CapSense_CSHL.c **** *  If the auto reset option is enabled, the baseline updated regards the noise threshold.
 521:.\Generated_Source\PSoC4/CapSense_CSHL.c **** *  If the auto reset option is disabled, the baseline stops updating.
 522:.\Generated_Source\PSoC4/CapSense_CSHL.c **** *  Baseline is loaded with raw count value if a signal is greater than zero and
 523:.\Generated_Source\PSoC4/CapSense_CSHL.c **** *  if signal is less than noise threshold.
ARM GAS  C:\Users\mlgjmoor\AppData\Local\Temp\cccG5TSt.s 			page 14


 524:.\Generated_Source\PSoC4/CapSense_CSHL.c **** *  Raw data filters are applied to the values if enabled before baseline
 525:.\Generated_Source\PSoC4/CapSense_CSHL.c **** *  calculation.
 526:.\Generated_Source\PSoC4/CapSense_CSHL.c **** *  This API updates the thresholds in the Smartsense Mode.
 527:.\Generated_Source\PSoC4/CapSense_CSHL.c **** *
 528:.\Generated_Source\PSoC4/CapSense_CSHL.c **** * Parameters:
 529:.\Generated_Source\PSoC4/CapSense_CSHL.c **** *  sensor:  Sensor number.
 530:.\Generated_Source\PSoC4/CapSense_CSHL.c **** *
 531:.\Generated_Source\PSoC4/CapSense_CSHL.c **** * Return:
 532:.\Generated_Source\PSoC4/CapSense_CSHL.c **** *  None
 533:.\Generated_Source\PSoC4/CapSense_CSHL.c **** *
 534:.\Generated_Source\PSoC4/CapSense_CSHL.c **** * Global Variables:
 535:.\Generated_Source\PSoC4/CapSense_CSHL.c **** *  CapSense_widgetNumber[]  - stores widget numbers.
 536:.\Generated_Source\PSoC4/CapSense_CSHL.c **** *
 537:.\Generated_Source\PSoC4/CapSense_CSHL.c **** * Side Effects:
 538:.\Generated_Source\PSoC4/CapSense_CSHL.c **** *  None
 539:.\Generated_Source\PSoC4/CapSense_CSHL.c **** *
 540:.\Generated_Source\PSoC4/CapSense_CSHL.c **** *******************************************************************************/
 541:.\Generated_Source\PSoC4/CapSense_CSHL.c ****  void CapSense_UpdateSensorBaseline(uint32 sensor)
 542:.\Generated_Source\PSoC4/CapSense_CSHL.c **** {
 543:.\Generated_Source\PSoC4/CapSense_CSHL.c ****     #if (CapSense_TOTAL_GENERICS_COUNT)
 544:.\Generated_Source\PSoC4/CapSense_CSHL.c ****         uint32 widget;
 545:.\Generated_Source\PSoC4/CapSense_CSHL.c **** 
 546:.\Generated_Source\PSoC4/CapSense_CSHL.c ****         widget = CapSense_widgetNumber[sensor];
 547:.\Generated_Source\PSoC4/CapSense_CSHL.c **** 
 548:.\Generated_Source\PSoC4/CapSense_CSHL.c ****         /* Exclude generic widget */
 549:.\Generated_Source\PSoC4/CapSense_CSHL.c ****         if(widget < CapSense_END_OF_WIDGETS_INDEX)
 550:.\Generated_Source\PSoC4/CapSense_CSHL.c ****         {
 551:.\Generated_Source\PSoC4/CapSense_CSHL.c ****     #endif  /* CapSense_TOTAL_GENERICS_COUNT */
 552:.\Generated_Source\PSoC4/CapSense_CSHL.c **** 
 553:.\Generated_Source\PSoC4/CapSense_CSHL.c ****     #if (CapSense_TUNING_METHOD == CapSense__TUNING_AUTO)
 554:.\Generated_Source\PSoC4/CapSense_CSHL.c ****         CapSense_UpdateThresholds(sensor);
 555:.\Generated_Source\PSoC4/CapSense_CSHL.c ****     #endif /* (CapSense_TUNING_METHOD == CapSense__TUNING_AUTO) */
 556:.\Generated_Source\PSoC4/CapSense_CSHL.c **** 
 557:.\Generated_Source\PSoC4/CapSense_CSHL.c ****     CapSense_UpdateBaselineNoThreshold(sensor);
 558:.\Generated_Source\PSoC4/CapSense_CSHL.c **** 
 559:.\Generated_Source\PSoC4/CapSense_CSHL.c ****     #if (CapSense_TOTAL_GENERICS_COUNT)
 560:.\Generated_Source\PSoC4/CapSense_CSHL.c ****         /* Exclude generic widget */
 561:.\Generated_Source\PSoC4/CapSense_CSHL.c ****         }
 562:.\Generated_Source\PSoC4/CapSense_CSHL.c ****     #endif  /* CapSense_TOTAL_GENERICS_COUNT */
 563:.\Generated_Source\PSoC4/CapSense_CSHL.c **** }
 564:.\Generated_Source\PSoC4/CapSense_CSHL.c **** 
 565:.\Generated_Source\PSoC4/CapSense_CSHL.c **** 
 566:.\Generated_Source\PSoC4/CapSense_CSHL.c **** /*******************************************************************************
 567:.\Generated_Source\PSoC4/CapSense_CSHL.c **** * Function Name: CapSense_UpdateEnabledBaselines
 568:.\Generated_Source\PSoC4/CapSense_CSHL.c **** ********************************************************************************
 569:.\Generated_Source\PSoC4/CapSense_CSHL.c **** *
 570:.\Generated_Source\PSoC4/CapSense_CSHL.c **** * Summary:
 571:.\Generated_Source\PSoC4/CapSense_CSHL.c **** *  Checks CapSense_sensorEnableMask[] array and calls the
 572:.\Generated_Source\PSoC4/CapSense_CSHL.c **** *  CapSense_UpdateSensorBaseline function to update the baselines
 573:.\Generated_Source\PSoC4/CapSense_CSHL.c **** *  for the enabled sensors.
 574:.\Generated_Source\PSoC4/CapSense_CSHL.c **** *
 575:.\Generated_Source\PSoC4/CapSense_CSHL.c **** * Parameters:
 576:.\Generated_Source\PSoC4/CapSense_CSHL.c **** *  None
 577:.\Generated_Source\PSoC4/CapSense_CSHL.c **** *
 578:.\Generated_Source\PSoC4/CapSense_CSHL.c **** * Return:
 579:.\Generated_Source\PSoC4/CapSense_CSHL.c **** *  None
 580:.\Generated_Source\PSoC4/CapSense_CSHL.c **** *
ARM GAS  C:\Users\mlgjmoor\AppData\Local\Temp\cccG5TSt.s 			page 15


 581:.\Generated_Source\PSoC4/CapSense_CSHL.c **** * Global Variables:
 582:.\Generated_Source\PSoC4/CapSense_CSHL.c **** *  CapSense_sensorEnableMask[] - used to store the sensor scanning
 583:.\Generated_Source\PSoC4/CapSense_CSHL.c **** *  state.
 584:.\Generated_Source\PSoC4/CapSense_CSHL.c **** *  CapSense_sensorEnableMask[0] contains the masked bits for sensors
 585:.\Generated_Source\PSoC4/CapSense_CSHL.c **** *   0 through 7 (sensor 0 is bit 0, sensor 1 is bit 1).
 586:.\Generated_Source\PSoC4/CapSense_CSHL.c **** *  CapSense_sensorEnableMask[1] contains the masked bits for
 587:.\Generated_Source\PSoC4/CapSense_CSHL.c **** *  sensors 8 through 15 (if needed), and so on.
 588:.\Generated_Source\PSoC4/CapSense_CSHL.c **** *  0 - sensor doesn't scan by CapSense_ScanEnabledWidgets().
 589:.\Generated_Source\PSoC4/CapSense_CSHL.c **** *  1 - sensor scans by CapSense_ScanEnabledWidgets().
 590:.\Generated_Source\PSoC4/CapSense_CSHL.c **** *
 591:.\Generated_Source\PSoC4/CapSense_CSHL.c **** * Side Effects:
 592:.\Generated_Source\PSoC4/CapSense_CSHL.c **** *  None
 593:.\Generated_Source\PSoC4/CapSense_CSHL.c **** *
 594:.\Generated_Source\PSoC4/CapSense_CSHL.c **** *******************************************************************************/
 595:.\Generated_Source\PSoC4/CapSense_CSHL.c ****  void CapSense_UpdateEnabledBaselines(void)
 596:.\Generated_Source\PSoC4/CapSense_CSHL.c **** {
 597:.\Generated_Source\PSoC4/CapSense_CSHL.c ****     uint32 i;
 598:.\Generated_Source\PSoC4/CapSense_CSHL.c ****     uint32 isSensorEnabled;
 599:.\Generated_Source\PSoC4/CapSense_CSHL.c **** 
 600:.\Generated_Source\PSoC4/CapSense_CSHL.c ****     for(i = 0u; i < CapSense_TOTAL_SENSOR_COUNT; i++)
 601:.\Generated_Source\PSoC4/CapSense_CSHL.c ****     {
 602:.\Generated_Source\PSoC4/CapSense_CSHL.c ****         isSensorEnabled = CapSense_GetBitValue(CapSense_sensorEnableMask, i);
 603:.\Generated_Source\PSoC4/CapSense_CSHL.c **** 
 604:.\Generated_Source\PSoC4/CapSense_CSHL.c ****         if(0u != isSensorEnabled)
 605:.\Generated_Source\PSoC4/CapSense_CSHL.c ****         {
 606:.\Generated_Source\PSoC4/CapSense_CSHL.c ****             CapSense_UpdateSensorBaseline(i);
 607:.\Generated_Source\PSoC4/CapSense_CSHL.c ****         }
 608:.\Generated_Source\PSoC4/CapSense_CSHL.c ****     }
 609:.\Generated_Source\PSoC4/CapSense_CSHL.c **** }
 610:.\Generated_Source\PSoC4/CapSense_CSHL.c **** 
 611:.\Generated_Source\PSoC4/CapSense_CSHL.c **** /*******************************************************************************
 612:.\Generated_Source\PSoC4/CapSense_CSHL.c **** * Function Name: CapSense_UpdateWidgetBaseline
 613:.\Generated_Source\PSoC4/CapSense_CSHL.c **** ********************************************************************************
 614:.\Generated_Source\PSoC4/CapSense_CSHL.c **** *
 615:.\Generated_Source\PSoC4/CapSense_CSHL.c **** * Summary:
 616:.\Generated_Source\PSoC4/CapSense_CSHL.c **** *  Checks CapSense_sensorEnableMask[] array and calls the
 617:.\Generated_Source\PSoC4/CapSense_CSHL.c **** *  CapSense_UpdateSensorBaseline function to update the baselines
 618:.\Generated_Source\PSoC4/CapSense_CSHL.c **** *  for the enabled sensors that belong to widget.
 619:.\Generated_Source\PSoC4/CapSense_CSHL.c **** *
 620:.\Generated_Source\PSoC4/CapSense_CSHL.c **** * Parameters:
 621:.\Generated_Source\PSoC4/CapSense_CSHL.c **** *  widget:  Widget number.
 622:.\Generated_Source\PSoC4/CapSense_CSHL.c **** *
 623:.\Generated_Source\PSoC4/CapSense_CSHL.c **** * Return:
 624:.\Generated_Source\PSoC4/CapSense_CSHL.c **** *  None
 625:.\Generated_Source\PSoC4/CapSense_CSHL.c **** *
 626:.\Generated_Source\PSoC4/CapSense_CSHL.c **** * Global Variables:
 627:.\Generated_Source\PSoC4/CapSense_CSHL.c **** *  CapSense_sensorEnableMask[] - used to store the sensor scanning
 628:.\Generated_Source\PSoC4/CapSense_CSHL.c **** *  state.
 629:.\Generated_Source\PSoC4/CapSense_CSHL.c **** *  CapSense_sensorEnableMask[0] contains the masked bits for sensors
 630:.\Generated_Source\PSoC4/CapSense_CSHL.c **** *   0 through 7 (sensor 0 is bit 0, sensor 1 is bit 1).
 631:.\Generated_Source\PSoC4/CapSense_CSHL.c **** *  CapSense_sensorEnableMask[1] contains the masked bits for
 632:.\Generated_Source\PSoC4/CapSense_CSHL.c **** *  sensors 8 through 15 (if needed), and so on.
 633:.\Generated_Source\PSoC4/CapSense_CSHL.c **** *  0 - sensor doesn't scan by CapSense_ScanEnabledWidgets().
 634:.\Generated_Source\PSoC4/CapSense_CSHL.c **** *  1 - sensor scans by CapSense_ScanEnabledWidgets().
 635:.\Generated_Source\PSoC4/CapSense_CSHL.c **** *
 636:.\Generated_Source\PSoC4/CapSense_CSHL.c **** * Side Effects:
 637:.\Generated_Source\PSoC4/CapSense_CSHL.c **** *  None
ARM GAS  C:\Users\mlgjmoor\AppData\Local\Temp\cccG5TSt.s 			page 16


 638:.\Generated_Source\PSoC4/CapSense_CSHL.c **** *
 639:.\Generated_Source\PSoC4/CapSense_CSHL.c **** *******************************************************************************/
 640:.\Generated_Source\PSoC4/CapSense_CSHL.c **** void CapSense_UpdateWidgetBaseline(uint32 widget)
 641:.\Generated_Source\PSoC4/CapSense_CSHL.c **** {
 642:.\Generated_Source\PSoC4/CapSense_CSHL.c ****     uint32 sensorsPerWidget;
 643:.\Generated_Source\PSoC4/CapSense_CSHL.c ****     uint32 firstSensor;
 644:.\Generated_Source\PSoC4/CapSense_CSHL.c ****     uint32 lastSensor;
 645:.\Generated_Source\PSoC4/CapSense_CSHL.c ****     uint32 i;
 646:.\Generated_Source\PSoC4/CapSense_CSHL.c ****     uint32 isSensorEnabled;
 647:.\Generated_Source\PSoC4/CapSense_CSHL.c **** 
 648:.\Generated_Source\PSoC4/CapSense_CSHL.c ****     /* Get number of sensors in widget */
 649:.\Generated_Source\PSoC4/CapSense_CSHL.c ****     sensorsPerWidget = CapSense_numberOfSensors[widget];
 650:.\Generated_Source\PSoC4/CapSense_CSHL.c **** 
 651:.\Generated_Source\PSoC4/CapSense_CSHL.c ****     /* Get first sensor in widget */
 652:.\Generated_Source\PSoC4/CapSense_CSHL.c ****     firstSensor = CapSense_rawDataIndex[widget];
 653:.\Generated_Source\PSoC4/CapSense_CSHL.c **** 
 654:.\Generated_Source\PSoC4/CapSense_CSHL.c ****     /* Get last sensor in widget */
 655:.\Generated_Source\PSoC4/CapSense_CSHL.c ****     lastSensor = (CapSense_rawDataIndex[widget] + sensorsPerWidget);
 656:.\Generated_Source\PSoC4/CapSense_CSHL.c **** 
 657:.\Generated_Source\PSoC4/CapSense_CSHL.c ****     for(i = firstSensor; i < lastSensor; i++)
 658:.\Generated_Source\PSoC4/CapSense_CSHL.c ****     {
 659:.\Generated_Source\PSoC4/CapSense_CSHL.c ****         isSensorEnabled = CapSense_GetBitValue(CapSense_sensorEnableMask, i);
 660:.\Generated_Source\PSoC4/CapSense_CSHL.c **** 
 661:.\Generated_Source\PSoC4/CapSense_CSHL.c ****         if(0u != isSensorEnabled)
 662:.\Generated_Source\PSoC4/CapSense_CSHL.c ****         {
 663:.\Generated_Source\PSoC4/CapSense_CSHL.c ****             CapSense_UpdateSensorBaseline(i);
 664:.\Generated_Source\PSoC4/CapSense_CSHL.c ****         }
 665:.\Generated_Source\PSoC4/CapSense_CSHL.c ****     }
 666:.\Generated_Source\PSoC4/CapSense_CSHL.c **** }
 667:.\Generated_Source\PSoC4/CapSense_CSHL.c **** 
 668:.\Generated_Source\PSoC4/CapSense_CSHL.c **** 
 669:.\Generated_Source\PSoC4/CapSense_CSHL.c **** /*******************************************************************************
 670:.\Generated_Source\PSoC4/CapSense_CSHL.c **** * Function Name: CapSense_GetBaselineData
 671:.\Generated_Source\PSoC4/CapSense_CSHL.c **** ********************************************************************************
 672:.\Generated_Source\PSoC4/CapSense_CSHL.c **** *
 673:.\Generated_Source\PSoC4/CapSense_CSHL.c **** * Summary:
 674:.\Generated_Source\PSoC4/CapSense_CSHL.c **** *  This function reads the sensor baseline from the component.
 675:.\Generated_Source\PSoC4/CapSense_CSHL.c **** *
 676:.\Generated_Source\PSoC4/CapSense_CSHL.c **** * Parameters:
 677:.\Generated_Source\PSoC4/CapSense_CSHL.c **** *  sensor:  Sensor number.
 678:.\Generated_Source\PSoC4/CapSense_CSHL.c **** *
 679:.\Generated_Source\PSoC4/CapSense_CSHL.c **** * Return:
 680:.\Generated_Source\PSoC4/CapSense_CSHL.c **** *  This API returns the baseline value of the sensor indicated by an argument.
 681:.\Generated_Source\PSoC4/CapSense_CSHL.c **** *
 682:.\Generated_Source\PSoC4/CapSense_CSHL.c **** * Global Variables:
 683:.\Generated_Source\PSoC4/CapSense_CSHL.c **** *  CapSense_sensorBaseline[] - the array with an initial values by scanning
 684:.\Generated_Source\PSoC4/CapSense_CSHL.c **** *
 685:.\Generated_Source\PSoC4/CapSense_CSHL.c **** * Side Effects:
 686:.\Generated_Source\PSoC4/CapSense_CSHL.c **** *  None
 687:.\Generated_Source\PSoC4/CapSense_CSHL.c **** *
 688:.\Generated_Source\PSoC4/CapSense_CSHL.c **** *******************************************************************************/
 689:.\Generated_Source\PSoC4/CapSense_CSHL.c **** uint16 CapSense_GetBaselineData(uint32 sensor)
 690:.\Generated_Source\PSoC4/CapSense_CSHL.c **** {
 215              		.loc 1 690 0
 216              		.cfi_startproc
 217              	.LVL22:
 691:.\Generated_Source\PSoC4/CapSense_CSHL.c ****     return (CapSense_sensorBaseline[sensor]);
ARM GAS  C:\Users\mlgjmoor\AppData\Local\Temp\cccG5TSt.s 			page 17


 218              		.loc 1 691 0
 219 0000 4000     		lsl	r0, r0, #1
 220              	.LVL23:
 221 0002 014B     		ldr	r3, .L17
 222 0004 185A     		ldrh	r0, [r3, r0]
 692:.\Generated_Source\PSoC4/CapSense_CSHL.c **** }
 223              		.loc 1 692 0
 224              		@ sp needed
 225 0006 7047     		bx	lr
 226              	.L18:
 227              		.align	2
 228              	.L17:
 229 0008 00000000 		.word	.LANCHOR0
 230              		.cfi_endproc
 231              	.LFE44:
 232              		.size	CapSense_GetBaselineData, .-CapSense_GetBaselineData
 233              		.section	.text.CapSense_SetBaselineData,"ax",%progbits
 234              		.align	2
 235              		.global	CapSense_SetBaselineData
 236              		.code	16
 237              		.thumb_func
 238              		.type	CapSense_SetBaselineData, %function
 239              	CapSense_SetBaselineData:
 240              	.LFB45:
 693:.\Generated_Source\PSoC4/CapSense_CSHL.c **** 
 694:.\Generated_Source\PSoC4/CapSense_CSHL.c **** 
 695:.\Generated_Source\PSoC4/CapSense_CSHL.c **** /*******************************************************************************
 696:.\Generated_Source\PSoC4/CapSense_CSHL.c **** * Function Name: CapSense_SetBaselineData
 697:.\Generated_Source\PSoC4/CapSense_CSHL.c **** ********************************************************************************
 698:.\Generated_Source\PSoC4/CapSense_CSHL.c **** *
 699:.\Generated_Source\PSoC4/CapSense_CSHL.c **** * Summary:
 700:.\Generated_Source\PSoC4/CapSense_CSHL.c **** *  This API writes the data value passed as an argument to the sensor baseline array.
 701:.\Generated_Source\PSoC4/CapSense_CSHL.c **** *
 702:.\Generated_Source\PSoC4/CapSense_CSHL.c **** * Parameters:
 703:.\Generated_Source\PSoC4/CapSense_CSHL.c **** *  sensor:  Sensor number.
 704:.\Generated_Source\PSoC4/CapSense_CSHL.c **** *  data:    Sensor baseline.
 705:.\Generated_Source\PSoC4/CapSense_CSHL.c **** *
 706:.\Generated_Source\PSoC4/CapSense_CSHL.c **** * Return:
 707:.\Generated_Source\PSoC4/CapSense_CSHL.c **** *  None.
 708:.\Generated_Source\PSoC4/CapSense_CSHL.c **** *
 709:.\Generated_Source\PSoC4/CapSense_CSHL.c **** * Global Variables:
 710:.\Generated_Source\PSoC4/CapSense_CSHL.c **** *  CapSense_sensorBaseline[] - the array with initial values by scanning
 711:.\Generated_Source\PSoC4/CapSense_CSHL.c **** *
 712:.\Generated_Source\PSoC4/CapSense_CSHL.c **** * Side Effects:
 713:.\Generated_Source\PSoC4/CapSense_CSHL.c **** *  None
 714:.\Generated_Source\PSoC4/CapSense_CSHL.c **** *
 715:.\Generated_Source\PSoC4/CapSense_CSHL.c **** *******************************************************************************/
 716:.\Generated_Source\PSoC4/CapSense_CSHL.c **** void CapSense_SetBaselineData(uint32 sensor, uint16 data)
 717:.\Generated_Source\PSoC4/CapSense_CSHL.c **** {
 241              		.loc 1 717 0
 242              		.cfi_startproc
 243              	.LVL24:
 718:.\Generated_Source\PSoC4/CapSense_CSHL.c ****     CapSense_sensorBaseline[sensor] = data;
 244              		.loc 1 718 0
 245 0000 4000     		lsl	r0, r0, #1
 246              	.LVL25:
 247 0002 014B     		ldr	r3, .L20
ARM GAS  C:\Users\mlgjmoor\AppData\Local\Temp\cccG5TSt.s 			page 18


 248 0004 C152     		strh	r1, [r0, r3]
 719:.\Generated_Source\PSoC4/CapSense_CSHL.c **** }
 249              		.loc 1 719 0
 250              		@ sp needed
 251 0006 7047     		bx	lr
 252              	.L21:
 253              		.align	2
 254              	.L20:
 255 0008 00000000 		.word	.LANCHOR0
 256              		.cfi_endproc
 257              	.LFE45:
 258              		.size	CapSense_SetBaselineData, .-CapSense_SetBaselineData
 259              		.section	.text.CapSense_GetDiffCountData,"ax",%progbits
 260              		.align	2
 261              		.global	CapSense_GetDiffCountData
 262              		.code	16
 263              		.thumb_func
 264              		.type	CapSense_GetDiffCountData, %function
 265              	CapSense_GetDiffCountData:
 266              	.LFB46:
 720:.\Generated_Source\PSoC4/CapSense_CSHL.c **** 
 721:.\Generated_Source\PSoC4/CapSense_CSHL.c **** 
 722:.\Generated_Source\PSoC4/CapSense_CSHL.c **** /*******************************************************************************
 723:.\Generated_Source\PSoC4/CapSense_CSHL.c **** * Function Name: CapSense_GetDiffCountData
 724:.\Generated_Source\PSoC4/CapSense_CSHL.c **** ********************************************************************************
 725:.\Generated_Source\PSoC4/CapSense_CSHL.c **** *
 726:.\Generated_Source\PSoC4/CapSense_CSHL.c **** * Summary:
 727:.\Generated_Source\PSoC4/CapSense_CSHL.c **** *  This function returns the Sensor Signal from the component.
 728:.\Generated_Source\PSoC4/CapSense_CSHL.c **** *
 729:.\Generated_Source\PSoC4/CapSense_CSHL.c **** * Parameters:
 730:.\Generated_Source\PSoC4/CapSense_CSHL.c **** *  sensor:  Sensor number.
 731:.\Generated_Source\PSoC4/CapSense_CSHL.c **** *
 732:.\Generated_Source\PSoC4/CapSense_CSHL.c **** * Return:
 733:.\Generated_Source\PSoC4/CapSense_CSHL.c **** *  This API returns the difference count value of the sensor indicated by the
 734:.\Generated_Source\PSoC4/CapSense_CSHL.c **** *  argument.
 735:.\Generated_Source\PSoC4/CapSense_CSHL.c **** *
 736:.\Generated_Source\PSoC4/CapSense_CSHL.c **** * Global Variables:
 737:.\Generated_Source\PSoC4/CapSense_CSHL.c **** *  CapSense_sensorSignal[] - the array with difference counts for sensors
 738:.\Generated_Source\PSoC4/CapSense_CSHL.c **** *
 739:.\Generated_Source\PSoC4/CapSense_CSHL.c **** * Side Effects:
 740:.\Generated_Source\PSoC4/CapSense_CSHL.c **** *  None
 741:.\Generated_Source\PSoC4/CapSense_CSHL.c **** *
 742:.\Generated_Source\PSoC4/CapSense_CSHL.c **** *******************************************************************************/
 743:.\Generated_Source\PSoC4/CapSense_CSHL.c **** uint8 CapSense_GetDiffCountData(uint32 sensor)
 744:.\Generated_Source\PSoC4/CapSense_CSHL.c **** {
 267              		.loc 1 744 0
 268              		.cfi_startproc
 269              	.LVL26:
 745:.\Generated_Source\PSoC4/CapSense_CSHL.c ****     return (CapSense_sensorSignal[sensor]);
 270              		.loc 1 745 0
 271 0000 014B     		ldr	r3, .L23
 272 0002 1818     		add	r0, r3, r0
 273              	.LVL27:
 274 0004 007A     		ldrb	r0, [r0, #8]
 746:.\Generated_Source\PSoC4/CapSense_CSHL.c **** }
 275              		.loc 1 746 0
 276              		@ sp needed
ARM GAS  C:\Users\mlgjmoor\AppData\Local\Temp\cccG5TSt.s 			page 19


 277 0006 7047     		bx	lr
 278              	.L24:
 279              		.align	2
 280              	.L23:
 281 0008 00000000 		.word	.LANCHOR0
 282              		.cfi_endproc
 283              	.LFE46:
 284              		.size	CapSense_GetDiffCountData, .-CapSense_GetDiffCountData
 285              		.section	.text.CapSense_SetDiffCountData,"ax",%progbits
 286              		.align	2
 287              		.global	CapSense_SetDiffCountData
 288              		.code	16
 289              		.thumb_func
 290              		.type	CapSense_SetDiffCountData, %function
 291              	CapSense_SetDiffCountData:
 292              	.LFB47:
 747:.\Generated_Source\PSoC4/CapSense_CSHL.c **** 
 748:.\Generated_Source\PSoC4/CapSense_CSHL.c **** 
 749:.\Generated_Source\PSoC4/CapSense_CSHL.c **** /*******************************************************************************
 750:.\Generated_Source\PSoC4/CapSense_CSHL.c **** * Function Name: CapSense_SetDiffCountData
 751:.\Generated_Source\PSoC4/CapSense_CSHL.c **** ********************************************************************************
 752:.\Generated_Source\PSoC4/CapSense_CSHL.c **** *
 753:.\Generated_Source\PSoC4/CapSense_CSHL.c **** * Summary:
 754:.\Generated_Source\PSoC4/CapSense_CSHL.c **** *  This API writes the data value passed as an argument to the sensor signal array.
 755:.\Generated_Source\PSoC4/CapSense_CSHL.c **** *
 756:.\Generated_Source\PSoC4/CapSense_CSHL.c **** * Parameters:
 757:.\Generated_Source\PSoC4/CapSense_CSHL.c **** *  sensor:  Sensor number.
 758:.\Generated_Source\PSoC4/CapSense_CSHL.c **** *  value:   Sensor signal.
 759:.\Generated_Source\PSoC4/CapSense_CSHL.c **** *
 760:.\Generated_Source\PSoC4/CapSense_CSHL.c **** * Return:
 761:.\Generated_Source\PSoC4/CapSense_CSHL.c **** *  None.
 762:.\Generated_Source\PSoC4/CapSense_CSHL.c **** *
 763:.\Generated_Source\PSoC4/CapSense_CSHL.c **** * Global Variables:
 764:.\Generated_Source\PSoC4/CapSense_CSHL.c **** *  CapSense_sensorSignal[] - the array with difference counts for sensors
 765:.\Generated_Source\PSoC4/CapSense_CSHL.c **** *
 766:.\Generated_Source\PSoC4/CapSense_CSHL.c **** * Side Effects:
 767:.\Generated_Source\PSoC4/CapSense_CSHL.c **** *  None
 768:.\Generated_Source\PSoC4/CapSense_CSHL.c **** *
 769:.\Generated_Source\PSoC4/CapSense_CSHL.c **** *******************************************************************************/
 770:.\Generated_Source\PSoC4/CapSense_CSHL.c **** void CapSense_SetDiffCountData(uint32 sensor, uint8 value)
 771:.\Generated_Source\PSoC4/CapSense_CSHL.c **** {
 293              		.loc 1 771 0
 294              		.cfi_startproc
 295              	.LVL28:
 772:.\Generated_Source\PSoC4/CapSense_CSHL.c ****     CapSense_sensorSignal[sensor] = value;
 296              		.loc 1 772 0
 297 0000 014B     		ldr	r3, .L26
 298 0002 1818     		add	r0, r3, r0
 299              	.LVL29:
 300 0004 0172     		strb	r1, [r0, #8]
 773:.\Generated_Source\PSoC4/CapSense_CSHL.c **** }
 301              		.loc 1 773 0
 302              		@ sp needed
 303 0006 7047     		bx	lr
 304              	.L27:
 305              		.align	2
 306              	.L26:
ARM GAS  C:\Users\mlgjmoor\AppData\Local\Temp\cccG5TSt.s 			page 20


 307 0008 00000000 		.word	.LANCHOR0
 308              		.cfi_endproc
 309              	.LFE47:
 310              		.size	CapSense_SetDiffCountData, .-CapSense_SetDiffCountData
 311              		.section	.text.CapSense_GetFingerThreshold,"ax",%progbits
 312              		.align	2
 313              		.global	CapSense_GetFingerThreshold
 314              		.code	16
 315              		.thumb_func
 316              		.type	CapSense_GetFingerThreshold, %function
 317              	CapSense_GetFingerThreshold:
 318              	.LFB48:
 774:.\Generated_Source\PSoC4/CapSense_CSHL.c **** 
 775:.\Generated_Source\PSoC4/CapSense_CSHL.c **** 
 776:.\Generated_Source\PSoC4/CapSense_CSHL.c **** /*******************************************************************************
 777:.\Generated_Source\PSoC4/CapSense_CSHL.c **** * Function Name: CapSense_GetFingerThreshold
 778:.\Generated_Source\PSoC4/CapSense_CSHL.c **** ********************************************************************************
 779:.\Generated_Source\PSoC4/CapSense_CSHL.c **** *
 780:.\Generated_Source\PSoC4/CapSense_CSHL.c **** * Summary:
 781:.\Generated_Source\PSoC4/CapSense_CSHL.c **** *  This function reads the finger threshold from the component.
 782:.\Generated_Source\PSoC4/CapSense_CSHL.c **** *
 783:.\Generated_Source\PSoC4/CapSense_CSHL.c **** * Parameters:
 784:.\Generated_Source\PSoC4/CapSense_CSHL.c **** *  widget:  widget number.
 785:.\Generated_Source\PSoC4/CapSense_CSHL.c **** *
 786:.\Generated_Source\PSoC4/CapSense_CSHL.c **** * Return:
 787:.\Generated_Source\PSoC4/CapSense_CSHL.c **** *  This API returns the finger threshold of the widget indicated by the argument.
 788:.\Generated_Source\PSoC4/CapSense_CSHL.c **** *
 789:.\Generated_Source\PSoC4/CapSense_CSHL.c **** * Global Variables:
 790:.\Generated_Source\PSoC4/CapSense_CSHL.c **** *  CapSense_fingerThreshold[] - This array contains the level of signal
 791:.\Generated_Source\PSoC4/CapSense_CSHL.c **** *  for each widget that is determined if a finger is present on the widget.
 792:.\Generated_Source\PSoC4/CapSense_CSHL.c **** *
 793:.\Generated_Source\PSoC4/CapSense_CSHL.c **** * Side Effects:
 794:.\Generated_Source\PSoC4/CapSense_CSHL.c **** *  None
 795:.\Generated_Source\PSoC4/CapSense_CSHL.c **** *
 796:.\Generated_Source\PSoC4/CapSense_CSHL.c **** *******************************************************************************/
 797:.\Generated_Source\PSoC4/CapSense_CSHL.c **** uint8 CapSense_GetFingerThreshold(uint32 widget)
 798:.\Generated_Source\PSoC4/CapSense_CSHL.c **** {
 319              		.loc 1 798 0
 320              		.cfi_startproc
 321              	.LVL30:
 799:.\Generated_Source\PSoC4/CapSense_CSHL.c ****     return(CapSense_fingerThreshold[widget]);
 322              		.loc 1 799 0
 323 0000 014B     		ldr	r3, .L29
 324 0002 185C     		ldrb	r0, [r3, r0]
 325              	.LVL31:
 800:.\Generated_Source\PSoC4/CapSense_CSHL.c **** }
 326              		.loc 1 800 0
 327              		@ sp needed
 328 0004 7047     		bx	lr
 329              	.L30:
 330 0006 C046     		.align	2
 331              	.L29:
 332 0008 00000000 		.word	CapSense_fingerThreshold
 333              		.cfi_endproc
 334              	.LFE48:
 335              		.size	CapSense_GetFingerThreshold, .-CapSense_GetFingerThreshold
 336              		.section	.text.CapSense_GetNoiseThreshold,"ax",%progbits
ARM GAS  C:\Users\mlgjmoor\AppData\Local\Temp\cccG5TSt.s 			page 21


 337              		.align	2
 338              		.global	CapSense_GetNoiseThreshold
 339              		.code	16
 340              		.thumb_func
 341              		.type	CapSense_GetNoiseThreshold, %function
 342              	CapSense_GetNoiseThreshold:
 343              	.LFB49:
 801:.\Generated_Source\PSoC4/CapSense_CSHL.c **** 
 802:.\Generated_Source\PSoC4/CapSense_CSHL.c **** 
 803:.\Generated_Source\PSoC4/CapSense_CSHL.c **** /*******************************************************************************
 804:.\Generated_Source\PSoC4/CapSense_CSHL.c **** * Function Name: CapSense_GetNoiseThreshold
 805:.\Generated_Source\PSoC4/CapSense_CSHL.c **** ********************************************************************************
 806:.\Generated_Source\PSoC4/CapSense_CSHL.c **** *
 807:.\Generated_Source\PSoC4/CapSense_CSHL.c **** * Summary:
 808:.\Generated_Source\PSoC4/CapSense_CSHL.c **** *  This function reads the noise threshold from the component.
 809:.\Generated_Source\PSoC4/CapSense_CSHL.c **** *
 810:.\Generated_Source\PSoC4/CapSense_CSHL.c **** * Parameters:
 811:.\Generated_Source\PSoC4/CapSense_CSHL.c **** *  widget:  widget number.
 812:.\Generated_Source\PSoC4/CapSense_CSHL.c **** *
 813:.\Generated_Source\PSoC4/CapSense_CSHL.c **** * Return:
 814:.\Generated_Source\PSoC4/CapSense_CSHL.c **** *  This API returns the noise threshold of the widget indicated by the argument.
 815:.\Generated_Source\PSoC4/CapSense_CSHL.c **** *
 816:.\Generated_Source\PSoC4/CapSense_CSHL.c **** * Global Variables:
 817:.\Generated_Source\PSoC4/CapSense_CSHL.c **** *  CapSense_noiseThreshold[] - This array contains the level of signal
 818:.\Generated_Source\PSoC4/CapSense_CSHL.c **** *  for each widget that determines the level of noise in the capacitive scan.
 819:.\Generated_Source\PSoC4/CapSense_CSHL.c **** *
 820:.\Generated_Source\PSoC4/CapSense_CSHL.c **** * Side Effects:
 821:.\Generated_Source\PSoC4/CapSense_CSHL.c **** *  None
 822:.\Generated_Source\PSoC4/CapSense_CSHL.c **** *
 823:.\Generated_Source\PSoC4/CapSense_CSHL.c **** *******************************************************************************/
 824:.\Generated_Source\PSoC4/CapSense_CSHL.c **** uint8 CapSense_GetNoiseThreshold(uint32 widget)
 825:.\Generated_Source\PSoC4/CapSense_CSHL.c **** {
 344              		.loc 1 825 0
 345              		.cfi_startproc
 346              	.LVL32:
 826:.\Generated_Source\PSoC4/CapSense_CSHL.c ****     return (CapSense_noiseThreshold[widget]);
 347              		.loc 1 826 0
 348 0000 014B     		ldr	r3, .L32
 349 0002 185C     		ldrb	r0, [r3, r0]
 350              	.LVL33:
 827:.\Generated_Source\PSoC4/CapSense_CSHL.c **** }
 351              		.loc 1 827 0
 352              		@ sp needed
 353 0004 7047     		bx	lr
 354              	.L33:
 355 0006 C046     		.align	2
 356              	.L32:
 357 0008 00000000 		.word	CapSense_noiseThreshold
 358              		.cfi_endproc
 359              	.LFE49:
 360              		.size	CapSense_GetNoiseThreshold, .-CapSense_GetNoiseThreshold
 361              		.section	.text.CapSense_GetFingerHysteresis,"ax",%progbits
 362              		.align	2
 363              		.global	CapSense_GetFingerHysteresis
 364              		.code	16
 365              		.thumb_func
 366              		.type	CapSense_GetFingerHysteresis, %function
ARM GAS  C:\Users\mlgjmoor\AppData\Local\Temp\cccG5TSt.s 			page 22


 367              	CapSense_GetFingerHysteresis:
 368              	.LFB50:
 828:.\Generated_Source\PSoC4/CapSense_CSHL.c **** 
 829:.\Generated_Source\PSoC4/CapSense_CSHL.c **** 
 830:.\Generated_Source\PSoC4/CapSense_CSHL.c **** /*******************************************************************************
 831:.\Generated_Source\PSoC4/CapSense_CSHL.c **** * Function Name: CapSense_GetFingerHysteresis
 832:.\Generated_Source\PSoC4/CapSense_CSHL.c **** ********************************************************************************
 833:.\Generated_Source\PSoC4/CapSense_CSHL.c **** *
 834:.\Generated_Source\PSoC4/CapSense_CSHL.c **** * Summary:
 835:.\Generated_Source\PSoC4/CapSense_CSHL.c **** *  This function reads the Hysteresis value from the component.
 836:.\Generated_Source\PSoC4/CapSense_CSHL.c **** *
 837:.\Generated_Source\PSoC4/CapSense_CSHL.c **** * Parameters:
 838:.\Generated_Source\PSoC4/CapSense_CSHL.c **** *  widget:  widget number.
 839:.\Generated_Source\PSoC4/CapSense_CSHL.c **** *
 840:.\Generated_Source\PSoC4/CapSense_CSHL.c **** * Return:
 841:.\Generated_Source\PSoC4/CapSense_CSHL.c **** *  This API returns the Hysteresis of the widget indicated by the argument.
 842:.\Generated_Source\PSoC4/CapSense_CSHL.c **** *
 843:.\Generated_Source\PSoC4/CapSense_CSHL.c **** * Global Variables:
 844:.\Generated_Source\PSoC4/CapSense_CSHL.c **** *  CapSense_hysteresis[] - This array contains the hysteresis value
 845:.\Generated_Source\PSoC4/CapSense_CSHL.c **** *   for each widget.
 846:.\Generated_Source\PSoC4/CapSense_CSHL.c **** *  CapSense_widgetNumberSld - structure with dynamic sliders' parameters.
 847:.\Generated_Source\PSoC4/CapSense_CSHL.c **** *
 848:.\Generated_Source\PSoC4/CapSense_CSHL.c **** * Side Effects:
 849:.\Generated_Source\PSoC4/CapSense_CSHL.c **** *  None
 850:.\Generated_Source\PSoC4/CapSense_CSHL.c **** *
 851:.\Generated_Source\PSoC4/CapSense_CSHL.c **** *******************************************************************************/
 852:.\Generated_Source\PSoC4/CapSense_CSHL.c **** uint8 CapSense_GetFingerHysteresis(uint32 widget)
 853:.\Generated_Source\PSoC4/CapSense_CSHL.c **** {
 369              		.loc 1 853 0
 370              		.cfi_startproc
 371              	.LVL34:
 854:.\Generated_Source\PSoC4/CapSense_CSHL.c ****     return(CapSense_hysteresis[widget]);
 372              		.loc 1 854 0
 373 0000 014B     		ldr	r3, .L35
 374 0002 185C     		ldrb	r0, [r3, r0]
 375              	.LVL35:
 855:.\Generated_Source\PSoC4/CapSense_CSHL.c **** }
 376              		.loc 1 855 0
 377              		@ sp needed
 378 0004 7047     		bx	lr
 379              	.L36:
 380 0006 C046     		.align	2
 381              	.L35:
 382 0008 00000000 		.word	CapSense_hysteresis
 383              		.cfi_endproc
 384              	.LFE50:
 385              		.size	CapSense_GetFingerHysteresis, .-CapSense_GetFingerHysteresis
 386              		.section	.text.CapSense_GetNegativeNoiseThreshold,"ax",%progbits
 387              		.align	2
 388              		.global	CapSense_GetNegativeNoiseThreshold
 389              		.code	16
 390              		.thumb_func
 391              		.type	CapSense_GetNegativeNoiseThreshold, %function
 392              	CapSense_GetNegativeNoiseThreshold:
 393              	.LFB51:
 856:.\Generated_Source\PSoC4/CapSense_CSHL.c **** 
 857:.\Generated_Source\PSoC4/CapSense_CSHL.c **** 
ARM GAS  C:\Users\mlgjmoor\AppData\Local\Temp\cccG5TSt.s 			page 23


 858:.\Generated_Source\PSoC4/CapSense_CSHL.c **** /*******************************************************************************
 859:.\Generated_Source\PSoC4/CapSense_CSHL.c **** * Function Name: CapSense_GetNegativeNoiseThreshold
 860:.\Generated_Source\PSoC4/CapSense_CSHL.c **** ********************************************************************************
 861:.\Generated_Source\PSoC4/CapSense_CSHL.c **** *
 862:.\Generated_Source\PSoC4/CapSense_CSHL.c **** * Summary:
 863:.\Generated_Source\PSoC4/CapSense_CSHL.c **** *  This function reads the negative noise threshold from the component.
 864:.\Generated_Source\PSoC4/CapSense_CSHL.c **** *
 865:.\Generated_Source\PSoC4/CapSense_CSHL.c **** * Parameters:
 866:.\Generated_Source\PSoC4/CapSense_CSHL.c **** *  None.
 867:.\Generated_Source\PSoC4/CapSense_CSHL.c **** *
 868:.\Generated_Source\PSoC4/CapSense_CSHL.c **** * Return Value:
 869:.\Generated_Source\PSoC4/CapSense_CSHL.c **** *  This API returns the negative noise threshold
 870:.\Generated_Source\PSoC4/CapSense_CSHL.c **** *
 871:.\Generated_Source\PSoC4/CapSense_CSHL.c **** * Global Variables:
 872:.\Generated_Source\PSoC4/CapSense_CSHL.c **** *  CapSense_negativeNoiseThreshold - This variable specifies the negative
 873:.\Generated_Source\PSoC4/CapSense_CSHL.c **** *   difference between the raw count and baseline levels for Baseline resetting
 874:.\Generated_Source\PSoC4/CapSense_CSHL.c **** *   to the raw count level.
 875:.\Generated_Source\PSoC4/CapSense_CSHL.c **** *
 876:.\Generated_Source\PSoC4/CapSense_CSHL.c **** * Side Effects:
 877:.\Generated_Source\PSoC4/CapSense_CSHL.c **** *  None
 878:.\Generated_Source\PSoC4/CapSense_CSHL.c **** *
 879:.\Generated_Source\PSoC4/CapSense_CSHL.c **** *******************************************************************************/
 880:.\Generated_Source\PSoC4/CapSense_CSHL.c **** uint8 CapSense_GetNegativeNoiseThreshold(uint32 widget)
 881:.\Generated_Source\PSoC4/CapSense_CSHL.c **** {
 394              		.loc 1 881 0
 395              		.cfi_startproc
 396              	.LVL36:
 882:.\Generated_Source\PSoC4/CapSense_CSHL.c **** #if (CapSense_TUNING_METHOD != CapSense__TUNING_NONE)
 883:.\Generated_Source\PSoC4/CapSense_CSHL.c ****     return(CapSense_negativeNoiseThreshold[widget]);
 397              		.loc 1 883 0
 398 0000 014B     		ldr	r3, .L38
 399 0002 185C     		ldrb	r0, [r3, r0]
 400              	.LVL37:
 884:.\Generated_Source\PSoC4/CapSense_CSHL.c **** #else
 885:.\Generated_Source\PSoC4/CapSense_CSHL.c ****     return(CapSense_NEGATIVE_NOISE_THRESHOLD);
 886:.\Generated_Source\PSoC4/CapSense_CSHL.c **** #endif /* (CapSense_TUNING_METHOD != CapSense__TUNING_NONE) */
 887:.\Generated_Source\PSoC4/CapSense_CSHL.c **** }
 401              		.loc 1 887 0
 402              		@ sp needed
 403 0004 7047     		bx	lr
 404              	.L39:
 405 0006 C046     		.align	2
 406              	.L38:
 407 0008 00000000 		.word	CapSense_negativeNoiseThreshold
 408              		.cfi_endproc
 409              	.LFE51:
 410              		.size	CapSense_GetNegativeNoiseThreshold, .-CapSense_GetNegativeNoiseThreshold
 411              		.section	.text.CapSense_SetFingerThreshold,"ax",%progbits
 412              		.align	2
 413              		.global	CapSense_SetFingerThreshold
 414              		.code	16
 415              		.thumb_func
 416              		.type	CapSense_SetFingerThreshold, %function
 417              	CapSense_SetFingerThreshold:
 418              	.LFB52:
 888:.\Generated_Source\PSoC4/CapSense_CSHL.c **** 
 889:.\Generated_Source\PSoC4/CapSense_CSHL.c **** 
ARM GAS  C:\Users\mlgjmoor\AppData\Local\Temp\cccG5TSt.s 			page 24


 890:.\Generated_Source\PSoC4/CapSense_CSHL.c **** #if(CapSense_TUNING_METHOD != CapSense__TUNING_NONE)
 891:.\Generated_Source\PSoC4/CapSense_CSHL.c ****     /*******************************************************************************
 892:.\Generated_Source\PSoC4/CapSense_CSHL.c ****     * Function Name: CapSense_SetFingerThreshold
 893:.\Generated_Source\PSoC4/CapSense_CSHL.c ****     ********************************************************************************
 894:.\Generated_Source\PSoC4/CapSense_CSHL.c ****     *
 895:.\Generated_Source\PSoC4/CapSense_CSHL.c ****     * Summary:
 896:.\Generated_Source\PSoC4/CapSense_CSHL.c ****     *  This API sets the finger threshold value for a widget.
 897:.\Generated_Source\PSoC4/CapSense_CSHL.c ****     *
 898:.\Generated_Source\PSoC4/CapSense_CSHL.c ****     * Parameters:
 899:.\Generated_Source\PSoC4/CapSense_CSHL.c ****     *  sensorNumber:  widget index.
 900:.\Generated_Source\PSoC4/CapSense_CSHL.c ****     *  value:  Finger threshold value for the widget.
 901:.\Generated_Source\PSoC4/CapSense_CSHL.c ****     *
 902:.\Generated_Source\PSoC4/CapSense_CSHL.c ****     * Return Value:
 903:.\Generated_Source\PSoC4/CapSense_CSHL.c ****     *  None
 904:.\Generated_Source\PSoC4/CapSense_CSHL.c ****     *
 905:.\Generated_Source\PSoC4/CapSense_CSHL.c ****     * Global Variables:
 906:.\Generated_Source\PSoC4/CapSense_CSHL.c ****     *  CapSense_fingerThreshold[] - This array contains the level of signal
 907:.\Generated_Source\PSoC4/CapSense_CSHL.c ****     *   for each widget that determines if a finger is present on the widget.
 908:.\Generated_Source\PSoC4/CapSense_CSHL.c ****     *
 909:.\Generated_Source\PSoC4/CapSense_CSHL.c ****     * Side Effects:
 910:.\Generated_Source\PSoC4/CapSense_CSHL.c ****     *  None
 911:.\Generated_Source\PSoC4/CapSense_CSHL.c ****     *
 912:.\Generated_Source\PSoC4/CapSense_CSHL.c ****     *******************************************************************************/
 913:.\Generated_Source\PSoC4/CapSense_CSHL.c ****     void CapSense_SetFingerThreshold(uint32 widget, uint8 value)
 914:.\Generated_Source\PSoC4/CapSense_CSHL.c ****     {
 419              		.loc 1 914 0
 420              		.cfi_startproc
 421              	.LVL38:
 915:.\Generated_Source\PSoC4/CapSense_CSHL.c ****         CapSense_fingerThreshold[widget] = value;
 422              		.loc 1 915 0
 423 0000 014B     		ldr	r3, .L41
 424 0002 1954     		strb	r1, [r3, r0]
 916:.\Generated_Source\PSoC4/CapSense_CSHL.c ****     }
 425              		.loc 1 916 0
 426              		@ sp needed
 427 0004 7047     		bx	lr
 428              	.L42:
 429 0006 C046     		.align	2
 430              	.L41:
 431 0008 00000000 		.word	CapSense_fingerThreshold
 432              		.cfi_endproc
 433              	.LFE52:
 434              		.size	CapSense_SetFingerThreshold, .-CapSense_SetFingerThreshold
 435              		.section	.text.CapSense_SetNoiseThreshold,"ax",%progbits
 436              		.align	2
 437              		.global	CapSense_SetNoiseThreshold
 438              		.code	16
 439              		.thumb_func
 440              		.type	CapSense_SetNoiseThreshold, %function
 441              	CapSense_SetNoiseThreshold:
 442              	.LFB53:
 917:.\Generated_Source\PSoC4/CapSense_CSHL.c **** 
 918:.\Generated_Source\PSoC4/CapSense_CSHL.c **** 
 919:.\Generated_Source\PSoC4/CapSense_CSHL.c ****     /*******************************************************************************
 920:.\Generated_Source\PSoC4/CapSense_CSHL.c ****     * Function Name: CapSense_SetNoiseThreshold
 921:.\Generated_Source\PSoC4/CapSense_CSHL.c ****     ********************************************************************************
 922:.\Generated_Source\PSoC4/CapSense_CSHL.c ****     *
ARM GAS  C:\Users\mlgjmoor\AppData\Local\Temp\cccG5TSt.s 			page 25


 923:.\Generated_Source\PSoC4/CapSense_CSHL.c ****     * Summary:
 924:.\Generated_Source\PSoC4/CapSense_CSHL.c ****     *  This API sets the Noise Threshold value for each widget.
 925:.\Generated_Source\PSoC4/CapSense_CSHL.c ****     *
 926:.\Generated_Source\PSoC4/CapSense_CSHL.c ****     * Parameters:
 927:.\Generated_Source\PSoC4/CapSense_CSHL.c ****     *  widget:  Sensor index number.
 928:.\Generated_Source\PSoC4/CapSense_CSHL.c ****     *  value:   Noise Threshold value for widget.
 929:.\Generated_Source\PSoC4/CapSense_CSHL.c ****     *
 930:.\Generated_Source\PSoC4/CapSense_CSHL.c ****     * Return Value:
 931:.\Generated_Source\PSoC4/CapSense_CSHL.c ****     *  None
 932:.\Generated_Source\PSoC4/CapSense_CSHL.c ****     *
 933:.\Generated_Source\PSoC4/CapSense_CSHL.c ****     * Global Variables:
 934:.\Generated_Source\PSoC4/CapSense_CSHL.c ****     *  CapSense_noiseThreshold[] - This array contains the level of signal
 935:.\Generated_Source\PSoC4/CapSense_CSHL.c ****     *   for each widget that determines the level of noise in the capacitive scan.
 936:.\Generated_Source\PSoC4/CapSense_CSHL.c ****     *
 937:.\Generated_Source\PSoC4/CapSense_CSHL.c ****     * Side Effects:
 938:.\Generated_Source\PSoC4/CapSense_CSHL.c ****     *  None
 939:.\Generated_Source\PSoC4/CapSense_CSHL.c ****     *
 940:.\Generated_Source\PSoC4/CapSense_CSHL.c ****     *******************************************************************************/
 941:.\Generated_Source\PSoC4/CapSense_CSHL.c ****     void CapSense_SetNoiseThreshold(uint32 widget, uint8 value)
 942:.\Generated_Source\PSoC4/CapSense_CSHL.c ****     {
 443              		.loc 1 942 0
 444              		.cfi_startproc
 445              	.LVL39:
 943:.\Generated_Source\PSoC4/CapSense_CSHL.c ****         CapSense_noiseThreshold[widget] = value;
 446              		.loc 1 943 0
 447 0000 014B     		ldr	r3, .L44
 448 0002 1954     		strb	r1, [r3, r0]
 944:.\Generated_Source\PSoC4/CapSense_CSHL.c ****     }
 449              		.loc 1 944 0
 450              		@ sp needed
 451 0004 7047     		bx	lr
 452              	.L45:
 453 0006 C046     		.align	2
 454              	.L44:
 455 0008 00000000 		.word	CapSense_noiseThreshold
 456              		.cfi_endproc
 457              	.LFE53:
 458              		.size	CapSense_SetNoiseThreshold, .-CapSense_SetNoiseThreshold
 459              		.section	.text.CapSense_SetFingerHysteresis,"ax",%progbits
 460              		.align	2
 461              		.global	CapSense_SetFingerHysteresis
 462              		.code	16
 463              		.thumb_func
 464              		.type	CapSense_SetFingerHysteresis, %function
 465              	CapSense_SetFingerHysteresis:
 466              	.LFB54:
 945:.\Generated_Source\PSoC4/CapSense_CSHL.c **** 
 946:.\Generated_Source\PSoC4/CapSense_CSHL.c **** 
 947:.\Generated_Source\PSoC4/CapSense_CSHL.c ****     /*******************************************************************************
 948:.\Generated_Source\PSoC4/CapSense_CSHL.c ****     * Function Name: CapSense_SetFingerHysteresis
 949:.\Generated_Source\PSoC4/CapSense_CSHL.c ****     ********************************************************************************
 950:.\Generated_Source\PSoC4/CapSense_CSHL.c ****     *
 951:.\Generated_Source\PSoC4/CapSense_CSHL.c ****     * Summary:
 952:.\Generated_Source\PSoC4/CapSense_CSHL.c ****     *  This API sets the Hysteresis value of a widget
 953:.\Generated_Source\PSoC4/CapSense_CSHL.c ****     *
 954:.\Generated_Source\PSoC4/CapSense_CSHL.c ****     * Parameters:
 955:.\Generated_Source\PSoC4/CapSense_CSHL.c ****     *  value:  Hysteresis value for widgets.
ARM GAS  C:\Users\mlgjmoor\AppData\Local\Temp\cccG5TSt.s 			page 26


 956:.\Generated_Source\PSoC4/CapSense_CSHL.c ****     *  widget:  widget number
 957:.\Generated_Source\PSoC4/CapSense_CSHL.c ****     *
 958:.\Generated_Source\PSoC4/CapSense_CSHL.c ****     * Return Value:
 959:.\Generated_Source\PSoC4/CapSense_CSHL.c ****     *  None
 960:.\Generated_Source\PSoC4/CapSense_CSHL.c ****     *
 961:.\Generated_Source\PSoC4/CapSense_CSHL.c ****     * Global Variables:
 962:.\Generated_Source\PSoC4/CapSense_CSHL.c ****     *  CapSense_hysteresis[] - This array contains the hysteresis value for each widget.
 963:.\Generated_Source\PSoC4/CapSense_CSHL.c ****     *  CapSense_widgetNumberSld - structure with dynamic sliders' parameters.
 964:.\Generated_Source\PSoC4/CapSense_CSHL.c ****     *
 965:.\Generated_Source\PSoC4/CapSense_CSHL.c ****     * Side Effects:
 966:.\Generated_Source\PSoC4/CapSense_CSHL.c ****     *  None
 967:.\Generated_Source\PSoC4/CapSense_CSHL.c ****     *
 968:.\Generated_Source\PSoC4/CapSense_CSHL.c ****     *******************************************************************************/
 969:.\Generated_Source\PSoC4/CapSense_CSHL.c ****     void CapSense_SetFingerHysteresis(uint32 widget, uint8 value)
 970:.\Generated_Source\PSoC4/CapSense_CSHL.c ****     {
 467              		.loc 1 970 0
 468              		.cfi_startproc
 469              	.LVL40:
 971:.\Generated_Source\PSoC4/CapSense_CSHL.c ****         CapSense_hysteresis[widget] = value;
 470              		.loc 1 971 0
 471 0000 014B     		ldr	r3, .L47
 472 0002 1954     		strb	r1, [r3, r0]
 972:.\Generated_Source\PSoC4/CapSense_CSHL.c ****     }
 473              		.loc 1 972 0
 474              		@ sp needed
 475 0004 7047     		bx	lr
 476              	.L48:
 477 0006 C046     		.align	2
 478              	.L47:
 479 0008 00000000 		.word	CapSense_hysteresis
 480              		.cfi_endproc
 481              	.LFE54:
 482              		.size	CapSense_SetFingerHysteresis, .-CapSense_SetFingerHysteresis
 483              		.section	.text.CapSense_SetNegativeNoiseThreshold,"ax",%progbits
 484              		.align	2
 485              		.global	CapSense_SetNegativeNoiseThreshold
 486              		.code	16
 487              		.thumb_func
 488              		.type	CapSense_SetNegativeNoiseThreshold, %function
 489              	CapSense_SetNegativeNoiseThreshold:
 490              	.LFB55:
 973:.\Generated_Source\PSoC4/CapSense_CSHL.c **** 
 974:.\Generated_Source\PSoC4/CapSense_CSHL.c **** 
 975:.\Generated_Source\PSoC4/CapSense_CSHL.c ****     /*******************************************************************************
 976:.\Generated_Source\PSoC4/CapSense_CSHL.c ****     * Function Name: CapSense_SetNegativeNoiseThreshold
 977:.\Generated_Source\PSoC4/CapSense_CSHL.c ****     ********************************************************************************
 978:.\Generated_Source\PSoC4/CapSense_CSHL.c ****     *
 979:.\Generated_Source\PSoC4/CapSense_CSHL.c ****     * Summary:
 980:.\Generated_Source\PSoC4/CapSense_CSHL.c ****     *  This API sets the Negative Noise Threshold value of a widget
 981:.\Generated_Source\PSoC4/CapSense_CSHL.c ****     *
 982:.\Generated_Source\PSoC4/CapSense_CSHL.c ****     * Parameters:
 983:.\Generated_Source\PSoC4/CapSense_CSHL.c ****     *  value:  Negative Noise Threshold value for widgets.
 984:.\Generated_Source\PSoC4/CapSense_CSHL.c ****     *  widget: widget number
 985:.\Generated_Source\PSoC4/CapSense_CSHL.c ****     *
 986:.\Generated_Source\PSoC4/CapSense_CSHL.c ****     * Return Value:
 987:.\Generated_Source\PSoC4/CapSense_CSHL.c ****     *  None
 988:.\Generated_Source\PSoC4/CapSense_CSHL.c ****     *
ARM GAS  C:\Users\mlgjmoor\AppData\Local\Temp\cccG5TSt.s 			page 27


 989:.\Generated_Source\PSoC4/CapSense_CSHL.c ****     * Global Variables:
 990:.\Generated_Source\PSoC4/CapSense_CSHL.c ****     *  CapSense_negativeNoiseThreshold  - This parameter specifies the negative
 991:.\Generated_Source\PSoC4/CapSense_CSHL.c ****     *   difference between the raw count and baseline levels for Baseline resetting to
 992:.\Generated_Source\PSoC4/CapSense_CSHL.c ****     *   the raw count level.
 993:.\Generated_Source\PSoC4/CapSense_CSHL.c ****     *
 994:.\Generated_Source\PSoC4/CapSense_CSHL.c ****     * Side Effects:
 995:.\Generated_Source\PSoC4/CapSense_CSHL.c ****     *  None
 996:.\Generated_Source\PSoC4/CapSense_CSHL.c ****     *
 997:.\Generated_Source\PSoC4/CapSense_CSHL.c ****     *******************************************************************************/
 998:.\Generated_Source\PSoC4/CapSense_CSHL.c ****     void CapSense_SetNegativeNoiseThreshold(uint32 widget, uint8 value)
 999:.\Generated_Source\PSoC4/CapSense_CSHL.c ****     {
 491              		.loc 1 999 0
 492              		.cfi_startproc
 493              	.LVL41:
1000:.\Generated_Source\PSoC4/CapSense_CSHL.c ****         CapSense_negativeNoiseThreshold[widget] = value;
 494              		.loc 1 1000 0
 495 0000 014B     		ldr	r3, .L50
 496 0002 1954     		strb	r1, [r3, r0]
1001:.\Generated_Source\PSoC4/CapSense_CSHL.c ****     }
 497              		.loc 1 1001 0
 498              		@ sp needed
 499 0004 7047     		bx	lr
 500              	.L51:
 501 0006 C046     		.align	2
 502              	.L50:
 503 0008 00000000 		.word	CapSense_negativeNoiseThreshold
 504              		.cfi_endproc
 505              	.LFE55:
 506              		.size	CapSense_SetNegativeNoiseThreshold, .-CapSense_SetNegativeNoiseThreshold
 507              		.section	.text.CapSense_SetDebounce,"ax",%progbits
 508              		.align	2
 509              		.global	CapSense_SetDebounce
 510              		.code	16
 511              		.thumb_func
 512              		.type	CapSense_SetDebounce, %function
 513              	CapSense_SetDebounce:
 514              	.LFB56:
1002:.\Generated_Source\PSoC4/CapSense_CSHL.c **** 
1003:.\Generated_Source\PSoC4/CapSense_CSHL.c **** 
1004:.\Generated_Source\PSoC4/CapSense_CSHL.c ****     /*******************************************************************************
1005:.\Generated_Source\PSoC4/CapSense_CSHL.c ****     * Function Name: CapSense_SetDebounce
1006:.\Generated_Source\PSoC4/CapSense_CSHL.c ****     ********************************************************************************
1007:.\Generated_Source\PSoC4/CapSense_CSHL.c ****     *
1008:.\Generated_Source\PSoC4/CapSense_CSHL.c ****     * Summary:
1009:.\Generated_Source\PSoC4/CapSense_CSHL.c ****     *  This API sets the debounce value for a widget.
1010:.\Generated_Source\PSoC4/CapSense_CSHL.c ****     *
1011:.\Generated_Source\PSoC4/CapSense_CSHL.c ****     * Parameters:
1012:.\Generated_Source\PSoC4/CapSense_CSHL.c ****     *  value:  Debounce value for widget.
1013:.\Generated_Source\PSoC4/CapSense_CSHL.c ****     *  widget: widget index.
1014:.\Generated_Source\PSoC4/CapSense_CSHL.c ****     *
1015:.\Generated_Source\PSoC4/CapSense_CSHL.c ****     * Return Value:
1016:.\Generated_Source\PSoC4/CapSense_CSHL.c ****     *  None
1017:.\Generated_Source\PSoC4/CapSense_CSHL.c ****     *
1018:.\Generated_Source\PSoC4/CapSense_CSHL.c ****     * Global Variables:
1019:.\Generated_Source\PSoC4/CapSense_CSHL.c ****     *  CapSense_debounce[] - This array contains the debounce value for each widget.
1020:.\Generated_Source\PSoC4/CapSense_CSHL.c ****     *  CapSense_widgetNumberSld - structure with dynamic sliders' parameters.
1021:.\Generated_Source\PSoC4/CapSense_CSHL.c ****     *
ARM GAS  C:\Users\mlgjmoor\AppData\Local\Temp\cccG5TSt.s 			page 28


1022:.\Generated_Source\PSoC4/CapSense_CSHL.c ****     * Side Effects:
1023:.\Generated_Source\PSoC4/CapSense_CSHL.c ****     *  None
1024:.\Generated_Source\PSoC4/CapSense_CSHL.c ****     *
1025:.\Generated_Source\PSoC4/CapSense_CSHL.c ****     *******************************************************************************/
1026:.\Generated_Source\PSoC4/CapSense_CSHL.c ****     void CapSense_SetDebounce(uint32 widget, uint8 value)
1027:.\Generated_Source\PSoC4/CapSense_CSHL.c ****     {
 515              		.loc 1 1027 0
 516              		.cfi_startproc
 517              	.LVL42:
1028:.\Generated_Source\PSoC4/CapSense_CSHL.c ****         CapSense_debounce[widget] = value;
 518              		.loc 1 1028 0
 519 0000 014B     		ldr	r3, .L53
 520 0002 1954     		strb	r1, [r3, r0]
1029:.\Generated_Source\PSoC4/CapSense_CSHL.c ****     }
 521              		.loc 1 1029 0
 522              		@ sp needed
 523 0004 7047     		bx	lr
 524              	.L54:
 525 0006 C046     		.align	2
 526              	.L53:
 527 0008 00000000 		.word	.LANCHOR1
 528              		.cfi_endproc
 529              	.LFE56:
 530              		.size	CapSense_SetDebounce, .-CapSense_SetDebounce
 531              		.section	.text.CapSense_SetLowBaselineReset,"ax",%progbits
 532              		.align	2
 533              		.global	CapSense_SetLowBaselineReset
 534              		.code	16
 535              		.thumb_func
 536              		.type	CapSense_SetLowBaselineReset, %function
 537              	CapSense_SetLowBaselineReset:
 538              	.LFB57:
1030:.\Generated_Source\PSoC4/CapSense_CSHL.c **** 
1031:.\Generated_Source\PSoC4/CapSense_CSHL.c **** 
1032:.\Generated_Source\PSoC4/CapSense_CSHL.c ****     /*******************************************************************************
1033:.\Generated_Source\PSoC4/CapSense_CSHL.c ****     * Function Name: CapSense_SetLowBaselineReset
1034:.\Generated_Source\PSoC4/CapSense_CSHL.c ****     ********************************************************************************
1035:.\Generated_Source\PSoC4/CapSense_CSHL.c ****     *
1036:.\Generated_Source\PSoC4/CapSense_CSHL.c ****     * Summary:
1037:.\Generated_Source\PSoC4/CapSense_CSHL.c ****     *  This API sets the low baseline reset threshold value for the sensor.
1038:.\Generated_Source\PSoC4/CapSense_CSHL.c ****     *
1039:.\Generated_Source\PSoC4/CapSense_CSHL.c ****     * Parameters:
1040:.\Generated_Source\PSoC4/CapSense_CSHL.c ****     *  value: low baseline reset threshold value.
1041:.\Generated_Source\PSoC4/CapSense_CSHL.c ****     *  sensor: Sensor index.
1042:.\Generated_Source\PSoC4/CapSense_CSHL.c ****     *
1043:.\Generated_Source\PSoC4/CapSense_CSHL.c ****     * Return Value:
1044:.\Generated_Source\PSoC4/CapSense_CSHL.c ****     *  None
1045:.\Generated_Source\PSoC4/CapSense_CSHL.c ****     *
1046:.\Generated_Source\PSoC4/CapSense_CSHL.c ****     * Global Variables:
1047:.\Generated_Source\PSoC4/CapSense_CSHL.c ****     *  CapSense_lowBaselineReset[] - This array contains the Baseline update
1048:.\Generated_Source\PSoC4/CapSense_CSHL.c ****     *  threshold value for each sensor.
1049:.\Generated_Source\PSoC4/CapSense_CSHL.c ****     *
1050:.\Generated_Source\PSoC4/CapSense_CSHL.c ****     * Side Effects:
1051:.\Generated_Source\PSoC4/CapSense_CSHL.c ****     *  None
1052:.\Generated_Source\PSoC4/CapSense_CSHL.c ****     *
1053:.\Generated_Source\PSoC4/CapSense_CSHL.c ****     *******************************************************************************/
1054:.\Generated_Source\PSoC4/CapSense_CSHL.c ****     void CapSense_SetLowBaselineReset(uint32 sensor, uint8 value)
ARM GAS  C:\Users\mlgjmoor\AppData\Local\Temp\cccG5TSt.s 			page 29


1055:.\Generated_Source\PSoC4/CapSense_CSHL.c ****     {
 539              		.loc 1 1055 0
 540              		.cfi_startproc
 541              	.LVL43:
1056:.\Generated_Source\PSoC4/CapSense_CSHL.c ****         CapSense_lowBaselineReset[sensor] = value;
 542              		.loc 1 1056 0
 543 0000 014B     		ldr	r3, .L56
 544 0002 1818     		add	r0, r3, r0
 545              	.LVL44:
 546 0004 0171     		strb	r1, [r0, #4]
1057:.\Generated_Source\PSoC4/CapSense_CSHL.c ****     }
 547              		.loc 1 1057 0
 548              		@ sp needed
 549 0006 7047     		bx	lr
 550              	.L57:
 551              		.align	2
 552              	.L56:
 553 0008 00000000 		.word	.LANCHOR1
 554              		.cfi_endproc
 555              	.LFE57:
 556              		.size	CapSense_SetLowBaselineReset, .-CapSense_SetLowBaselineReset
 557              		.section	.text.CapSense_CheckIsSensorActive,"ax",%progbits
 558              		.align	2
 559              		.global	CapSense_CheckIsSensorActive
 560              		.code	16
 561              		.thumb_func
 562              		.type	CapSense_CheckIsSensorActive, %function
 563              	CapSense_CheckIsSensorActive:
 564              	.LFB58:
1058:.\Generated_Source\PSoC4/CapSense_CSHL.c **** #endif /* (CapSense_TUNING_METHOD != CapSense__TUNING_NONE) */
1059:.\Generated_Source\PSoC4/CapSense_CSHL.c **** 
1060:.\Generated_Source\PSoC4/CapSense_CSHL.c **** 
1061:.\Generated_Source\PSoC4/CapSense_CSHL.c **** /*******************************************************************************
1062:.\Generated_Source\PSoC4/CapSense_CSHL.c **** * Function Name: CapSense_CheckIsSensorActive
1063:.\Generated_Source\PSoC4/CapSense_CSHL.c **** ********************************************************************************
1064:.\Generated_Source\PSoC4/CapSense_CSHL.c **** *
1065:.\Generated_Source\PSoC4/CapSense_CSHL.c **** * Summary:
1066:.\Generated_Source\PSoC4/CapSense_CSHL.c **** *  Compares the CapSense_sensorSignal[sensor] array element to the finger
1067:.\Generated_Source\PSoC4/CapSense_CSHL.c **** *  threshold of the widget it belongs to. The hysteresis and debounce are taken into
1068:.\Generated_Source\PSoC4/CapSense_CSHL.c **** *  account. The hysteresis is added or subtracted from the finger threshold
1069:.\Generated_Source\PSoC4/CapSense_CSHL.c **** *  based on whether the sensor is currently active.
1070:.\Generated_Source\PSoC4/CapSense_CSHL.c **** *  If the sensor is active, the threshold is lowered by the hysteresis amount.
1071:.\Generated_Source\PSoC4/CapSense_CSHL.c **** *  If the sensor is inactive, the threshold is raised by the hysteresis amount.
1072:.\Generated_Source\PSoC4/CapSense_CSHL.c **** *  The debounce counter is added to the sensor active transition.
1073:.\Generated_Source\PSoC4/CapSense_CSHL.c **** *  This function updates the CapSense_sensorOnMask[] array element.
1074:.\Generated_Source\PSoC4/CapSense_CSHL.c **** *
1075:.\Generated_Source\PSoC4/CapSense_CSHL.c **** * Parameters:
1076:.\Generated_Source\PSoC4/CapSense_CSHL.c **** *  sensor:  Sensor number.
1077:.\Generated_Source\PSoC4/CapSense_CSHL.c **** *
1078:.\Generated_Source\PSoC4/CapSense_CSHL.c **** * Return:
1079:.\Generated_Source\PSoC4/CapSense_CSHL.c **** *  Returns sensor state 1 if active, 0 if not active.
1080:.\Generated_Source\PSoC4/CapSense_CSHL.c **** *
1081:.\Generated_Source\PSoC4/CapSense_CSHL.c **** * Global Variables:
1082:.\Generated_Source\PSoC4/CapSense_CSHL.c **** *  CapSense_sensorSignal[] - used to store the difference between
1083:.\Generated_Source\PSoC4/CapSense_CSHL.c **** *  the current value of raw data and a previous value of the baseline.
1084:.\Generated_Source\PSoC4/CapSense_CSHL.c **** *  CapSense_debounceCounter[]   - used to store the current debounce
1085:.\Generated_Source\PSoC4/CapSense_CSHL.c **** *  counter of the sensor. the widget which have this parameter are buttons, matrix
ARM GAS  C:\Users\mlgjmoor\AppData\Local\Temp\cccG5TSt.s 			page 30


1086:.\Generated_Source\PSoC4/CapSense_CSHL.c **** *  buttons, proximity, and guard. All other widgets don't have the  debounce parameter
1087:.\Generated_Source\PSoC4/CapSense_CSHL.c **** *  and use the last element of this array with value 0 (it means no debounce).
1088:.\Generated_Source\PSoC4/CapSense_CSHL.c **** *  CapSense_sensorOnMask[] - used to store the sensors on/off state.
1089:.\Generated_Source\PSoC4/CapSense_CSHL.c **** *  CapSense_sensorOnMask[0] contains the masked bits for sensors
1090:.\Generated_Source\PSoC4/CapSense_CSHL.c **** *   0 through 7 (sensor 0 is bit 0, sensor 1 is bit 1).
1091:.\Generated_Source\PSoC4/CapSense_CSHL.c **** *  CapSense_sensorEnableMask[1] contains the masked bits for
1092:.\Generated_Source\PSoC4/CapSense_CSHL.c **** *  sensors 8 through 15 (if needed), and so on.
1093:.\Generated_Source\PSoC4/CapSense_CSHL.c **** *  0 - sensor is inactive.
1094:.\Generated_Source\PSoC4/CapSense_CSHL.c **** *  1 - sensor is active.
1095:.\Generated_Source\PSoC4/CapSense_CSHL.c **** *
1096:.\Generated_Source\PSoC4/CapSense_CSHL.c **** * Side Effects:
1097:.\Generated_Source\PSoC4/CapSense_CSHL.c **** *  None
1098:.\Generated_Source\PSoC4/CapSense_CSHL.c **** *
1099:.\Generated_Source\PSoC4/CapSense_CSHL.c **** *******************************************************************************/
1100:.\Generated_Source\PSoC4/CapSense_CSHL.c **** uint32 CapSense_CheckIsSensorActive(uint32 sensor)
1101:.\Generated_Source\PSoC4/CapSense_CSHL.c **** {
 565              		.loc 1 1101 0
 566              		.cfi_startproc
 567              	.LVL45:
 568 0000 F0B5     		push	{r4, r5, r6, r7, lr}
 569              		.cfi_def_cfa_offset 20
 570              		.cfi_offset 4, -20
 571              		.cfi_offset 5, -16
 572              		.cfi_offset 6, -12
 573              		.cfi_offset 7, -8
 574              		.cfi_offset 14, -4
 575 0002 4746     		mov	r7, r8
 576 0004 80B4     		push	{r7}
 577              		.cfi_def_cfa_offset 24
 578              		.cfi_offset 8, -24
 579 0006 041C     		mov	r4, r0
1102:.\Generated_Source\PSoC4/CapSense_CSHL.c ****     uint8 widget;
1103:.\Generated_Source\PSoC4/CapSense_CSHL.c ****     uint8 debounce;
1104:.\Generated_Source\PSoC4/CapSense_CSHL.c ****     uint8 debounceIndex;
1105:.\Generated_Source\PSoC4/CapSense_CSHL.c **** 
1106:.\Generated_Source\PSoC4/CapSense_CSHL.c ****     uint8 fingerThreshold;
1107:.\Generated_Source\PSoC4/CapSense_CSHL.c ****     uint8 hysteresis;
1108:.\Generated_Source\PSoC4/CapSense_CSHL.c ****     
1109:.\Generated_Source\PSoC4/CapSense_CSHL.c **** 
1110:.\Generated_Source\PSoC4/CapSense_CSHL.c ****     /* Prepare to find debounce counter index */
1111:.\Generated_Source\PSoC4/CapSense_CSHL.c ****     widget = CapSense_widgetNumber[sensor];
 580              		.loc 1 1111 0
 581 0008 224B     		ldr	r3, .L63
 582 000a 1D5C     		ldrb	r5, [r3, r0]
1112:.\Generated_Source\PSoC4/CapSense_CSHL.c **** 
1113:.\Generated_Source\PSoC4/CapSense_CSHL.c ****     fingerThreshold = CapSense_fingerThreshold[widget];
 583              		.loc 1 1113 0
 584 000c 224B     		ldr	r3, .L63+4
 585 000e 5F5D     		ldrb	r7, [r3, r5]
 586              	.LVL46:
1114:.\Generated_Source\PSoC4/CapSense_CSHL.c ****     hysteresis = CapSense_hysteresis[widget];
 587              		.loc 1 1114 0
 588 0010 224B     		ldr	r3, .L63+8
 589 0012 5E5D     		ldrb	r6, [r3, r5]
 590              	.LVL47:
1115:.\Generated_Source\PSoC4/CapSense_CSHL.c ****     debounce = CapSense_debounce[widget];
 591              		.loc 1 1115 0
ARM GAS  C:\Users\mlgjmoor\AppData\Local\Temp\cccG5TSt.s 			page 31


 592 0014 224B     		ldr	r3, .L63+12
 593 0016 5B5D     		ldrb	r3, [r3, r5]
 594 0018 9846     		mov	r8, r3
 595              	.LVL48:
1116:.\Generated_Source\PSoC4/CapSense_CSHL.c **** 
1117:.\Generated_Source\PSoC4/CapSense_CSHL.c ****         debounceIndex = widget;
1118:.\Generated_Source\PSoC4/CapSense_CSHL.c **** 
1119:.\Generated_Source\PSoC4/CapSense_CSHL.c **** 
1120:.\Generated_Source\PSoC4/CapSense_CSHL.c ****     /* Was on */
1121:.\Generated_Source\PSoC4/CapSense_CSHL.c ****     if (0u != CapSense_GetBitValue(CapSense_sensorOnMask, sensor))
 596              		.loc 1 1121 0
 597 001a 2248     		ldr	r0, .L63+16
 598              	.LVL49:
 599 001c 1030     		add	r0, r0, #16
 600 001e 211C     		mov	r1, r4
 601 0020 FFF7FEFF 		bl	CapSense_GetBitValue
 602              	.LVL50:
 603 0024 0028     		cmp	r0, #0
 604 0026 10D0     		beq	.L59
1122:.\Generated_Source\PSoC4/CapSense_CSHL.c ****     {
1123:.\Generated_Source\PSoC4/CapSense_CSHL.c ****         /* Hysteresis minus */
1124:.\Generated_Source\PSoC4/CapSense_CSHL.c ****         if (CapSense_sensorSignal[sensor] < (fingerThreshold - hysteresis))
 605              		.loc 1 1124 0
 606 0028 1E4B     		ldr	r3, .L63+16
 607 002a 1B19     		add	r3, r3, r4
 608 002c 1B7A     		ldrb	r3, [r3, #8]
 609 002e BE1B     		sub	r6, r7, r6
 610              	.LVL51:
 611 0030 B342     		cmp	r3, r6
 612 0032 23DA     		bge	.L60
1125:.\Generated_Source\PSoC4/CapSense_CSHL.c ****         {
1126:.\Generated_Source\PSoC4/CapSense_CSHL.c ****             CapSense_SetBitValue(CapSense_sensorOnMask, sensor, 0u);
 613              		.loc 1 1126 0
 614 0034 1B4E     		ldr	r6, .L63+16
 615 0036 301C     		mov	r0, r6
 616 0038 1030     		add	r0, r0, #16
 617 003a 211C     		mov	r1, r4
 618 003c 0022     		mov	r2, #0
 619 003e FFF7FEFF 		bl	CapSense_SetBitValue
 620              	.LVL52:
1127:.\Generated_Source\PSoC4/CapSense_CSHL.c ****             /* Sensor inactive - reset Debounce counter */
1128:.\Generated_Source\PSoC4/CapSense_CSHL.c ****             CapSense_debounceCounter[debounceIndex] = debounce;
 621              		.loc 1 1128 0
 622 0042 7519     		add	r5, r6, r5
 623 0044 4346     		mov	r3, r8
 624 0046 2B73     		strb	r3, [r5, #12]
 625 0048 18E0     		b	.L60
 626              	.LVL53:
 627              	.L59:
1129:.\Generated_Source\PSoC4/CapSense_CSHL.c ****         }
1130:.\Generated_Source\PSoC4/CapSense_CSHL.c ****     }
1131:.\Generated_Source\PSoC4/CapSense_CSHL.c ****     else    /* Was off */
1132:.\Generated_Source\PSoC4/CapSense_CSHL.c ****     {
1133:.\Generated_Source\PSoC4/CapSense_CSHL.c ****         /* Hysteresis plus */
1134:.\Generated_Source\PSoC4/CapSense_CSHL.c ****         if (CapSense_sensorSignal[sensor] >= (fingerThreshold + hysteresis))
 628              		.loc 1 1134 0
 629 004a 164B     		ldr	r3, .L63+16
ARM GAS  C:\Users\mlgjmoor\AppData\Local\Temp\cccG5TSt.s 			page 32


 630 004c 1B19     		add	r3, r3, r4
 631 004e 1B7A     		ldrb	r3, [r3, #8]
 632 0050 BE19     		add	r6, r7, r6
 633              	.LVL54:
 634 0052 B342     		cmp	r3, r6
 635 0054 0EDB     		blt	.L61
1135:.\Generated_Source\PSoC4/CapSense_CSHL.c ****         {
1136:.\Generated_Source\PSoC4/CapSense_CSHL.c ****             CapSense_debounceCounter[debounceIndex]--;
 636              		.loc 1 1136 0
 637 0056 134B     		ldr	r3, .L63+16
 638 0058 5D19     		add	r5, r3, r5
 639 005a 2B7B     		ldrb	r3, [r5, #12]
 640 005c 013B     		sub	r3, r3, #1
 641 005e DBB2     		uxtb	r3, r3
 642 0060 2B73     		strb	r3, [r5, #12]
1137:.\Generated_Source\PSoC4/CapSense_CSHL.c ****             /* Sensor active, decrement debounce counter */
1138:.\Generated_Source\PSoC4/CapSense_CSHL.c ****             if(CapSense_debounceCounter[debounceIndex] == 0u)
 643              		.loc 1 1138 0
 644 0062 002B     		cmp	r3, #0
 645 0064 0AD1     		bne	.L60
1139:.\Generated_Source\PSoC4/CapSense_CSHL.c ****             {
1140:.\Generated_Source\PSoC4/CapSense_CSHL.c ****                 CapSense_SetBitValue(CapSense_sensorOnMask, sensor, 1u);
 646              		.loc 1 1140 0
 647 0066 0F48     		ldr	r0, .L63+16
 648 0068 1030     		add	r0, r0, #16
 649 006a 211C     		mov	r1, r4
 650 006c 0122     		mov	r2, #1
 651 006e FFF7FEFF 		bl	CapSense_SetBitValue
 652              	.LVL55:
 653 0072 03E0     		b	.L60
 654              	.L61:
1141:.\Generated_Source\PSoC4/CapSense_CSHL.c ****             }
1142:.\Generated_Source\PSoC4/CapSense_CSHL.c ****         }
1143:.\Generated_Source\PSoC4/CapSense_CSHL.c ****         else
1144:.\Generated_Source\PSoC4/CapSense_CSHL.c ****         {
1145:.\Generated_Source\PSoC4/CapSense_CSHL.c ****             /* Sensor inactive - reset Debounce counter */
1146:.\Generated_Source\PSoC4/CapSense_CSHL.c ****             CapSense_debounceCounter[debounceIndex] = debounce;
 655              		.loc 1 1146 0
 656 0074 0B4B     		ldr	r3, .L63+16
 657 0076 5D19     		add	r5, r3, r5
 658 0078 4346     		mov	r3, r8
 659 007a 2B73     		strb	r3, [r5, #12]
 660              	.L60:
1147:.\Generated_Source\PSoC4/CapSense_CSHL.c ****         }
1148:.\Generated_Source\PSoC4/CapSense_CSHL.c ****     }
1149:.\Generated_Source\PSoC4/CapSense_CSHL.c **** 
1150:.\Generated_Source\PSoC4/CapSense_CSHL.c ****     return ((uint32)((0u != CapSense_GetBitValue(CapSense_sensorOnMask, sensor)) ? 1u : 0u));
 661              		.loc 1 1150 0
 662 007c 0948     		ldr	r0, .L63+16
 663 007e 1030     		add	r0, r0, #16
 664 0080 211C     		mov	r1, r4
 665 0082 FFF7FEFF 		bl	CapSense_GetBitValue
 666              	.LVL56:
 667 0086 0028     		cmp	r0, #0
 668 0088 00D0     		beq	.L62
 669 008a 0120     		mov	r0, #1
 670              	.L62:
ARM GAS  C:\Users\mlgjmoor\AppData\Local\Temp\cccG5TSt.s 			page 33


1151:.\Generated_Source\PSoC4/CapSense_CSHL.c **** }
 671              		.loc 1 1151 0 discriminator 4
 672              		@ sp needed
 673              	.LVL57:
 674              	.LVL58:
 675              	.LVL59:
 676 008c 04BC     		pop	{r2}
 677 008e 9046     		mov	r8, r2
 678 0090 F0BD     		pop	{r4, r5, r6, r7, pc}
 679              	.L64:
 680 0092 C046     		.align	2
 681              	.L63:
 682 0094 00000000 		.word	CapSense_widgetNumber
 683 0098 00000000 		.word	CapSense_fingerThreshold
 684 009c 00000000 		.word	CapSense_hysteresis
 685 00a0 00000000 		.word	.LANCHOR1
 686 00a4 00000000 		.word	.LANCHOR0
 687              		.cfi_endproc
 688              	.LFE58:
 689              		.size	CapSense_CheckIsSensorActive, .-CapSense_CheckIsSensorActive
 690              		.section	.text.CapSense_CheckIsWidgetActive,"ax",%progbits
 691              		.align	2
 692              		.global	CapSense_CheckIsWidgetActive
 693              		.code	16
 694              		.thumb_func
 695              		.type	CapSense_CheckIsWidgetActive, %function
 696              	CapSense_CheckIsWidgetActive:
 697              	.LFB59:
1152:.\Generated_Source\PSoC4/CapSense_CSHL.c **** 
1153:.\Generated_Source\PSoC4/CapSense_CSHL.c **** 
1154:.\Generated_Source\PSoC4/CapSense_CSHL.c **** /*******************************************************************************
1155:.\Generated_Source\PSoC4/CapSense_CSHL.c **** * Function Name: CapSense_CheckIsWidgetActive
1156:.\Generated_Source\PSoC4/CapSense_CSHL.c **** ********************************************************************************
1157:.\Generated_Source\PSoC4/CapSense_CSHL.c **** *
1158:.\Generated_Source\PSoC4/CapSense_CSHL.c **** * Summary:
1159:.\Generated_Source\PSoC4/CapSense_CSHL.c **** *  Compares the CapSense_sensorSignal[] array element to the finger threshold of
1160:.\Generated_Source\PSoC4/CapSense_CSHL.c **** * the widget it belongs to. The hysteresis and debounce are taken into account.
1161:.\Generated_Source\PSoC4/CapSense_CSHL.c **** * The hysteresis is added or subtracted from the finger threshold based on whether
1162:.\Generated_Source\PSoC4/CapSense_CSHL.c **** *  the sensor is currently active. If the sensor is active, the threshold is
1163:.\Generated_Source\PSoC4/CapSense_CSHL.c **** *  lowered by the hysteresis amount. If the sensor is inactive, the threshold
1164:.\Generated_Source\PSoC4/CapSense_CSHL.c **** *  is raised by the hysteresis amount.
1165:.\Generated_Source\PSoC4/CapSense_CSHL.c **** * The debounce counter added to the sensor active transition.
1166:.\Generated_Source\PSoC4/CapSense_CSHL.c **** * This function updates CapSense_sensorOnMask[] array element
1167:.\Generated_Source\PSoC4/CapSense_CSHL.c **** *
1168:.\Generated_Source\PSoC4/CapSense_CSHL.c **** * Parameters:
1169:.\Generated_Source\PSoC4/CapSense_CSHL.c **** *  widget:  widget number.
1170:.\Generated_Source\PSoC4/CapSense_CSHL.c **** *
1171:.\Generated_Source\PSoC4/CapSense_CSHL.c **** * Return:
1172:.\Generated_Source\PSoC4/CapSense_CSHL.c **** *  Returns widget sensor state 1 if one or more sensors within widget is/are
1173:.\Generated_Source\PSoC4/CapSense_CSHL.c **** *  active, 0 if all sensors within widget are inactive.
1174:.\Generated_Source\PSoC4/CapSense_CSHL.c **** *
1175:.\Generated_Source\PSoC4/CapSense_CSHL.c **** * Global Variables:
1176:.\Generated_Source\PSoC4/CapSense_CSHL.c **** *  rawDataIndex[]: Contains the  1st sensor position in the widget
1177:.\Generated_Source\PSoC4/CapSense_CSHL.c **** *
1178:.\Generated_Source\PSoC4/CapSense_CSHL.c **** * Side Effects:
1179:.\Generated_Source\PSoC4/CapSense_CSHL.c **** *  None
1180:.\Generated_Source\PSoC4/CapSense_CSHL.c **** *
ARM GAS  C:\Users\mlgjmoor\AppData\Local\Temp\cccG5TSt.s 			page 34


1181:.\Generated_Source\PSoC4/CapSense_CSHL.c **** *******************************************************************************/
1182:.\Generated_Source\PSoC4/CapSense_CSHL.c **** uint32 CapSense_CheckIsWidgetActive(uint32 widget)
1183:.\Generated_Source\PSoC4/CapSense_CSHL.c **** {
 698              		.loc 1 1183 0
 699              		.cfi_startproc
 700              	.LVL60:
 701 0000 70B5     		push	{r4, r5, r6, lr}
 702              		.cfi_def_cfa_offset 16
 703              		.cfi_offset 4, -16
 704              		.cfi_offset 5, -12
 705              		.cfi_offset 6, -8
 706              		.cfi_offset 14, -4
1184:.\Generated_Source\PSoC4/CapSense_CSHL.c ****     uint32 rawIndex = (uint32)CapSense_rawDataIndex[widget];
 707              		.loc 1 1184 0
 708 0002 084B     		ldr	r3, .L69
 709 0004 1C5C     		ldrb	r4, [r3, r0]
 710              	.LVL61:
1185:.\Generated_Source\PSoC4/CapSense_CSHL.c ****     uint32 numOfSensors = (uint32)CapSense_numberOfSensors[widget] + rawIndex;
 711              		.loc 1 1185 0
 712 0006 1818     		add	r0, r3, r0
 713              	.LVL62:
 714 0008 0579     		ldrb	r5, [r0, #4]
 715 000a 2D19     		add	r5, r5, r4
 716              	.LVL63:
1186:.\Generated_Source\PSoC4/CapSense_CSHL.c ****     uint32 state = 0u;
 717              		.loc 1 1186 0
 718 000c 0026     		mov	r6, #0
 719              	.LVL64:
 720              	.L67:
1187:.\Generated_Source\PSoC4/CapSense_CSHL.c **** 
1188:.\Generated_Source\PSoC4/CapSense_CSHL.c ****     /* Check all sensors of widget */
1189:.\Generated_Source\PSoC4/CapSense_CSHL.c ****     do
1190:.\Generated_Source\PSoC4/CapSense_CSHL.c ****     {
1191:.\Generated_Source\PSoC4/CapSense_CSHL.c ****         if(CapSense_CheckIsSensorActive((uint32)rawIndex) != 0u)
 721              		.loc 1 1191 0
 722 000e 201C     		mov	r0, r4
 723 0010 FFF7FEFF 		bl	CapSense_CheckIsSensorActive
 724              	.LVL65:
 725 0014 0028     		cmp	r0, #0
 726 0016 00D0     		beq	.L66
1192:.\Generated_Source\PSoC4/CapSense_CSHL.c ****         {
1193:.\Generated_Source\PSoC4/CapSense_CSHL.c ****             state = CapSense_SENSOR_IS_ACTIVE;
 727              		.loc 1 1193 0
 728 0018 0126     		mov	r6, #1
 729              	.LVL66:
 730              	.L66:
1194:.\Generated_Source\PSoC4/CapSense_CSHL.c ****         }
1195:.\Generated_Source\PSoC4/CapSense_CSHL.c ****         rawIndex++;
 731              		.loc 1 1195 0
 732 001a 0134     		add	r4, r4, #1
 733              	.LVL67:
1196:.\Generated_Source\PSoC4/CapSense_CSHL.c ****     }
1197:.\Generated_Source\PSoC4/CapSense_CSHL.c ****     while(rawIndex < numOfSensors);
 734              		.loc 1 1197 0
 735 001c AC42     		cmp	r4, r5
 736 001e F6D3     		bcc	.L67
1198:.\Generated_Source\PSoC4/CapSense_CSHL.c **** 
ARM GAS  C:\Users\mlgjmoor\AppData\Local\Temp\cccG5TSt.s 			page 35


1199:.\Generated_Source\PSoC4/CapSense_CSHL.c **** 
1200:.\Generated_Source\PSoC4/CapSense_CSHL.c **** 
1201:.\Generated_Source\PSoC4/CapSense_CSHL.c ****     return state;
1202:.\Generated_Source\PSoC4/CapSense_CSHL.c **** }
 737              		.loc 1 1202 0
 738 0020 301C     		mov	r0, r6
 739              		@ sp needed
 740              	.LVL68:
 741              	.LVL69:
 742              	.LVL70:
 743 0022 70BD     		pop	{r4, r5, r6, pc}
 744              	.L70:
 745              		.align	2
 746              	.L69:
 747 0024 00000000 		.word	.LANCHOR2
 748              		.cfi_endproc
 749              	.LFE59:
 750              		.size	CapSense_CheckIsWidgetActive, .-CapSense_CheckIsWidgetActive
 751              		.section	.text.CapSense_CheckIsAnyWidgetActive,"ax",%progbits
 752              		.align	2
 753              		.global	CapSense_CheckIsAnyWidgetActive
 754              		.code	16
 755              		.thumb_func
 756              		.type	CapSense_CheckIsAnyWidgetActive, %function
 757              	CapSense_CheckIsAnyWidgetActive:
 758              	.LFB60:
1203:.\Generated_Source\PSoC4/CapSense_CSHL.c **** 
1204:.\Generated_Source\PSoC4/CapSense_CSHL.c **** 
1205:.\Generated_Source\PSoC4/CapSense_CSHL.c **** /*******************************************************************************
1206:.\Generated_Source\PSoC4/CapSense_CSHL.c **** * Function Name: CapSense_CheckIsAnyWidgetActive
1207:.\Generated_Source\PSoC4/CapSense_CSHL.c **** ********************************************************************************
1208:.\Generated_Source\PSoC4/CapSense_CSHL.c **** *
1209:.\Generated_Source\PSoC4/CapSense_CSHL.c **** * Summary:
1210:.\Generated_Source\PSoC4/CapSense_CSHL.c **** *  Compares all the sensors of the CapSense_Signal[] array to their finger
1211:.\Generated_Source\PSoC4/CapSense_CSHL.c **** *  threshold. Calls CapSense_CheckIsWidgetActive() for each widget so
1212:.\Generated_Source\PSoC4/CapSense_CSHL.c **** *  the CapSense_sensorOnMask[] array is up to date after calling this
1213:.\Generated_Source\PSoC4/CapSense_CSHL.c **** *  function.
1214:.\Generated_Source\PSoC4/CapSense_CSHL.c **** *
1215:.\Generated_Source\PSoC4/CapSense_CSHL.c **** * Parameters:
1216:.\Generated_Source\PSoC4/CapSense_CSHL.c **** *  widget:  widget number.
1217:.\Generated_Source\PSoC4/CapSense_CSHL.c **** *
1218:.\Generated_Source\PSoC4/CapSense_CSHL.c **** * Return:
1219:.\Generated_Source\PSoC4/CapSense_CSHL.c **** *  Returns 1 if any widget is active, 0 none of widgets are active.
1220:.\Generated_Source\PSoC4/CapSense_CSHL.c **** *
1221:.\Generated_Source\PSoC4/CapSense_CSHL.c **** * Global Variables:
1222:.\Generated_Source\PSoC4/CapSense_CSHL.c **** *  None
1223:.\Generated_Source\PSoC4/CapSense_CSHL.c **** *
1224:.\Generated_Source\PSoC4/CapSense_CSHL.c **** * Side Effects:
1225:.\Generated_Source\PSoC4/CapSense_CSHL.c **** *  None
1226:.\Generated_Source\PSoC4/CapSense_CSHL.c **** *
1227:.\Generated_Source\PSoC4/CapSense_CSHL.c **** *******************************************************************************/
1228:.\Generated_Source\PSoC4/CapSense_CSHL.c **** uint32 CapSense_CheckIsAnyWidgetActive(void)
1229:.\Generated_Source\PSoC4/CapSense_CSHL.c **** {
 759              		.loc 1 1229 0
 760              		.cfi_startproc
 761 0000 38B5     		push	{r3, r4, r5, lr}
 762              		.cfi_def_cfa_offset 16
ARM GAS  C:\Users\mlgjmoor\AppData\Local\Temp\cccG5TSt.s 			page 36


 763              		.cfi_offset 3, -16
 764              		.cfi_offset 4, -12
 765              		.cfi_offset 5, -8
 766              		.cfi_offset 14, -4
 767              	.LVL71:
1230:.\Generated_Source\PSoC4/CapSense_CSHL.c **** 
1231:.\Generated_Source\PSoC4/CapSense_CSHL.c ****         uint32 i;
1232:.\Generated_Source\PSoC4/CapSense_CSHL.c ****     uint32 state = 0u;
 768              		.loc 1 1232 0
 769 0002 0025     		mov	r5, #0
1233:.\Generated_Source\PSoC4/CapSense_CSHL.c ****     
1234:.\Generated_Source\PSoC4/CapSense_CSHL.c ****     for(i = 0u; i < CapSense_TOTAL_WIDGET_COUNT; i++)
 770              		.loc 1 1234 0
 771 0004 0024     		mov	r4, #0
 772 0006 06E0     		b	.L72
 773              	.LVL72:
 774              	.L74:
1235:.\Generated_Source\PSoC4/CapSense_CSHL.c ****     {
1236:.\Generated_Source\PSoC4/CapSense_CSHL.c ****         if (CapSense_CheckIsWidgetActive(i) != 0u)
 775              		.loc 1 1236 0
 776 0008 201C     		mov	r0, r4
 777 000a FFF7FEFF 		bl	CapSense_CheckIsWidgetActive
 778              	.LVL73:
 779 000e 0028     		cmp	r0, #0
 780 0010 00D0     		beq	.L73
1237:.\Generated_Source\PSoC4/CapSense_CSHL.c ****         {
1238:.\Generated_Source\PSoC4/CapSense_CSHL.c ****             state = CapSense_WIDGET_IS_ACTIVE;
 781              		.loc 1 1238 0
 782 0012 0125     		mov	r5, #1
 783              	.LVL74:
 784              	.L73:
1234:.\Generated_Source\PSoC4/CapSense_CSHL.c ****     {
 785              		.loc 1 1234 0 discriminator 2
 786 0014 0134     		add	r4, r4, #1
 787              	.LVL75:
 788              	.L72:
1234:.\Generated_Source\PSoC4/CapSense_CSHL.c ****     {
 789              		.loc 1 1234 0 is_stmt 0 discriminator 1
 790 0016 012C     		cmp	r4, #1
 791 0018 F6D9     		bls	.L74
1239:.\Generated_Source\PSoC4/CapSense_CSHL.c ****         }
1240:.\Generated_Source\PSoC4/CapSense_CSHL.c ****     }
1241:.\Generated_Source\PSoC4/CapSense_CSHL.c ****     
1242:.\Generated_Source\PSoC4/CapSense_CSHL.c **** 
1243:.\Generated_Source\PSoC4/CapSense_CSHL.c **** 
1244:.\Generated_Source\PSoC4/CapSense_CSHL.c ****     return state;
1245:.\Generated_Source\PSoC4/CapSense_CSHL.c **** }
 792              		.loc 1 1245 0 is_stmt 1
 793 001a 281C     		mov	r0, r5
 794              		@ sp needed
 795              	.LVL76:
 796              	.LVL77:
 797 001c 38BD     		pop	{r3, r4, r5, pc}
 798              		.cfi_endproc
 799              	.LFE60:
 800              		.size	CapSense_CheckIsAnyWidgetActive, .-CapSense_CheckIsAnyWidgetActive
 801 001e C046     		.section	.text.CapSense_EnableWidget,"ax",%progbits
ARM GAS  C:\Users\mlgjmoor\AppData\Local\Temp\cccG5TSt.s 			page 37


 802              		.align	2
 803              		.global	CapSense_EnableWidget
 804              		.code	16
 805              		.thumb_func
 806              		.type	CapSense_EnableWidget, %function
 807              	CapSense_EnableWidget:
 808              	.LFB61:
1246:.\Generated_Source\PSoC4/CapSense_CSHL.c **** 
1247:.\Generated_Source\PSoC4/CapSense_CSHL.c **** 
1248:.\Generated_Source\PSoC4/CapSense_CSHL.c **** /*******************************************************************************
1249:.\Generated_Source\PSoC4/CapSense_CSHL.c **** * Function Name: CapSense_EnableWidget
1250:.\Generated_Source\PSoC4/CapSense_CSHL.c **** ********************************************************************************
1251:.\Generated_Source\PSoC4/CapSense_CSHL.c **** *
1252:.\Generated_Source\PSoC4/CapSense_CSHL.c **** * Summary:
1253:.\Generated_Source\PSoC4/CapSense_CSHL.c **** *  Enables all the widget elements (sensors) to the scanning process.
1254:.\Generated_Source\PSoC4/CapSense_CSHL.c **** *
1255:.\Generated_Source\PSoC4/CapSense_CSHL.c **** * Parameters:
1256:.\Generated_Source\PSoC4/CapSense_CSHL.c **** *  widget:  widget number.
1257:.\Generated_Source\PSoC4/CapSense_CSHL.c **** *
1258:.\Generated_Source\PSoC4/CapSense_CSHL.c **** * Return:
1259:.\Generated_Source\PSoC4/CapSense_CSHL.c **** *  None
1260:.\Generated_Source\PSoC4/CapSense_CSHL.c **** *
1261:.\Generated_Source\PSoC4/CapSense_CSHL.c **** * Global Variables:
1262:.\Generated_Source\PSoC4/CapSense_CSHL.c **** *  CapSense_sensorEnableMask[] - used to store the sensor scanning
1263:.\Generated_Source\PSoC4/CapSense_CSHL.c **** *  state.
1264:.\Generated_Source\PSoC4/CapSense_CSHL.c **** *  CapSense_sensorEnableMask[0] contains the masked bits for sensors
1265:.\Generated_Source\PSoC4/CapSense_CSHL.c **** *  0 through 7 (sensor 0 is bit 0, sensor 1 is bit 1).
1266:.\Generated_Source\PSoC4/CapSense_CSHL.c **** *  CapSense_sensorEnableMask[1] contains the masked bits for
1267:.\Generated_Source\PSoC4/CapSense_CSHL.c **** *  sensors 8 through 15 (if needed), and so on.
1268:.\Generated_Source\PSoC4/CapSense_CSHL.c **** *  0 - sensor doesn't scan by CapSense_ScanEnabledWidgets().
1269:.\Generated_Source\PSoC4/CapSense_CSHL.c **** *  1 - sensor scans by CapSense_ScanEnabledWidgets().
1270:.\Generated_Source\PSoC4/CapSense_CSHL.c **** *
1271:.\Generated_Source\PSoC4/CapSense_CSHL.c **** * Side Effects:
1272:.\Generated_Source\PSoC4/CapSense_CSHL.c **** *  None
1273:.\Generated_Source\PSoC4/CapSense_CSHL.c **** *
1274:.\Generated_Source\PSoC4/CapSense_CSHL.c **** *******************************************************************************/
1275:.\Generated_Source\PSoC4/CapSense_CSHL.c **** void CapSense_EnableWidget(uint32 widget)
1276:.\Generated_Source\PSoC4/CapSense_CSHL.c **** {
 809              		.loc 1 1276 0
 810              		.cfi_startproc
 811              	.LVL78:
 812 0000 38B5     		push	{r3, r4, r5, lr}
 813              		.cfi_def_cfa_offset 16
 814              		.cfi_offset 3, -16
 815              		.cfi_offset 4, -12
 816              		.cfi_offset 5, -8
 817              		.cfi_offset 14, -4
1277:.\Generated_Source\PSoC4/CapSense_CSHL.c **** 
1278:.\Generated_Source\PSoC4/CapSense_CSHL.c ****     uint8 rawIndex = CapSense_rawDataIndex[widget];
 818              		.loc 1 1278 0
 819 0002 084B     		ldr	r3, .L78
 820 0004 1C5C     		ldrb	r4, [r3, r0]
 821              	.LVL79:
1279:.\Generated_Source\PSoC4/CapSense_CSHL.c ****     uint8 numOfSensors = CapSense_numberOfSensors[widget] + rawIndex;
 822              		.loc 1 1279 0
 823 0006 1818     		add	r0, r3, r0
 824              	.LVL80:
ARM GAS  C:\Users\mlgjmoor\AppData\Local\Temp\cccG5TSt.s 			page 38


 825 0008 0579     		ldrb	r5, [r0, #4]
 826 000a 2D19     		add	r5, r5, r4
 827 000c EDB2     		uxtb	r5, r5
 828              	.LVL81:
 829              	.L77:
1280:.\Generated_Source\PSoC4/CapSense_CSHL.c **** 
1281:.\Generated_Source\PSoC4/CapSense_CSHL.c ****     /* Enable all sensors of widget */
1282:.\Generated_Source\PSoC4/CapSense_CSHL.c ****     do
1283:.\Generated_Source\PSoC4/CapSense_CSHL.c ****     {
1284:.\Generated_Source\PSoC4/CapSense_CSHL.c ****         CapSense_SetBitValue(CapSense_sensorEnableMask, (uint32)rawIndex, 1u);
 830              		.loc 1 1284 0 discriminator 1
 831 000e 0648     		ldr	r0, .L78+4
 832 0010 211C     		mov	r1, r4
 833 0012 0122     		mov	r2, #1
 834 0014 FFF7FEFF 		bl	CapSense_SetBitValue
 835              	.LVL82:
1285:.\Generated_Source\PSoC4/CapSense_CSHL.c ****         rawIndex++;
 836              		.loc 1 1285 0 discriminator 1
 837 0018 0134     		add	r4, r4, #1
 838              	.LVL83:
 839 001a E4B2     		uxtb	r4, r4
 840              	.LVL84:
1286:.\Generated_Source\PSoC4/CapSense_CSHL.c ****     }
1287:.\Generated_Source\PSoC4/CapSense_CSHL.c ****     while(rawIndex < numOfSensors);
 841              		.loc 1 1287 0 discriminator 1
 842 001c AC42     		cmp	r4, r5
 843 001e F6D3     		bcc	.L77
1288:.\Generated_Source\PSoC4/CapSense_CSHL.c **** }
 844              		.loc 1 1288 0
 845              		@ sp needed
 846              	.LVL85:
 847              	.LVL86:
 848 0020 38BD     		pop	{r3, r4, r5, pc}
 849              	.L79:
 850 0022 C046     		.align	2
 851              	.L78:
 852 0024 00000000 		.word	.LANCHOR2
 853 0028 00000000 		.word	CapSense_sensorEnableMask
 854              		.cfi_endproc
 855              	.LFE61:
 856              		.size	CapSense_EnableWidget, .-CapSense_EnableWidget
 857              		.section	.text.CapSense_DisableWidget,"ax",%progbits
 858              		.align	2
 859              		.global	CapSense_DisableWidget
 860              		.code	16
 861              		.thumb_func
 862              		.type	CapSense_DisableWidget, %function
 863              	CapSense_DisableWidget:
 864              	.LFB62:
1289:.\Generated_Source\PSoC4/CapSense_CSHL.c **** 
1290:.\Generated_Source\PSoC4/CapSense_CSHL.c **** 
1291:.\Generated_Source\PSoC4/CapSense_CSHL.c **** /*******************************************************************************
1292:.\Generated_Source\PSoC4/CapSense_CSHL.c **** * Function Name: CapSense_DisableWidget
1293:.\Generated_Source\PSoC4/CapSense_CSHL.c **** ********************************************************************************
1294:.\Generated_Source\PSoC4/CapSense_CSHL.c **** *
1295:.\Generated_Source\PSoC4/CapSense_CSHL.c **** * Summary:
1296:.\Generated_Source\PSoC4/CapSense_CSHL.c **** *  Disables all the widget elements (sensors) from the scanning process.
ARM GAS  C:\Users\mlgjmoor\AppData\Local\Temp\cccG5TSt.s 			page 39


1297:.\Generated_Source\PSoC4/CapSense_CSHL.c **** *
1298:.\Generated_Source\PSoC4/CapSense_CSHL.c **** * Parameters:
1299:.\Generated_Source\PSoC4/CapSense_CSHL.c **** *  widget:  widget number.
1300:.\Generated_Source\PSoC4/CapSense_CSHL.c **** *
1301:.\Generated_Source\PSoC4/CapSense_CSHL.c **** * Return:
1302:.\Generated_Source\PSoC4/CapSense_CSHL.c **** *  None
1303:.\Generated_Source\PSoC4/CapSense_CSHL.c **** *
1304:.\Generated_Source\PSoC4/CapSense_CSHL.c **** * Global Variables:
1305:.\Generated_Source\PSoC4/CapSense_CSHL.c **** *  CapSense_sensorEnableMask[] - used to store the sensor scanning
1306:.\Generated_Source\PSoC4/CapSense_CSHL.c **** *  state.
1307:.\Generated_Source\PSoC4/CapSense_CSHL.c **** *  CapSense_sensorEnableMask[0] contains the masked bits for sensors
1308:.\Generated_Source\PSoC4/CapSense_CSHL.c **** *  0 through 7 (sensor 0 is bit 0, sensor 1 is bit 1).
1309:.\Generated_Source\PSoC4/CapSense_CSHL.c **** *  CapSense_sensorEnableMask[1] contains the masked bits for
1310:.\Generated_Source\PSoC4/CapSense_CSHL.c **** *  sensors 8 through 15 (if needed), and so on.
1311:.\Generated_Source\PSoC4/CapSense_CSHL.c **** *  0 - sensor isn't scanned by CapSense_ScanEnabledWidgets().
1312:.\Generated_Source\PSoC4/CapSense_CSHL.c **** *  1 - sensor is scanned by CapSense_ScanEnabledWidgets().
1313:.\Generated_Source\PSoC4/CapSense_CSHL.c **** *
1314:.\Generated_Source\PSoC4/CapSense_CSHL.c **** * Side Effects:
1315:.\Generated_Source\PSoC4/CapSense_CSHL.c **** *  None
1316:.\Generated_Source\PSoC4/CapSense_CSHL.c **** *
1317:.\Generated_Source\PSoC4/CapSense_CSHL.c **** *******************************************************************************/
1318:.\Generated_Source\PSoC4/CapSense_CSHL.c **** void CapSense_DisableWidget(uint32 widget)
1319:.\Generated_Source\PSoC4/CapSense_CSHL.c **** {
 865              		.loc 1 1319 0
 866              		.cfi_startproc
 867              	.LVL87:
 868 0000 38B5     		push	{r3, r4, r5, lr}
 869              		.cfi_def_cfa_offset 16
 870              		.cfi_offset 3, -16
 871              		.cfi_offset 4, -12
 872              		.cfi_offset 5, -8
 873              		.cfi_offset 14, -4
1320:.\Generated_Source\PSoC4/CapSense_CSHL.c ****     uint8 rawIndex = CapSense_rawDataIndex[widget];
 874              		.loc 1 1320 0
 875 0002 084B     		ldr	r3, .L82
 876 0004 1C5C     		ldrb	r4, [r3, r0]
 877              	.LVL88:
1321:.\Generated_Source\PSoC4/CapSense_CSHL.c ****     uint8 numOfSensors = CapSense_numberOfSensors[widget] + rawIndex;
 878              		.loc 1 1321 0
 879 0006 1818     		add	r0, r3, r0
 880              	.LVL89:
 881 0008 0579     		ldrb	r5, [r0, #4]
 882 000a 2D19     		add	r5, r5, r4
 883 000c EDB2     		uxtb	r5, r5
 884              	.LVL90:
 885              	.L81:
1322:.\Generated_Source\PSoC4/CapSense_CSHL.c **** 
1323:.\Generated_Source\PSoC4/CapSense_CSHL.c ****     /* Disable all sensors of widget */
1324:.\Generated_Source\PSoC4/CapSense_CSHL.c ****     do
1325:.\Generated_Source\PSoC4/CapSense_CSHL.c ****     {
1326:.\Generated_Source\PSoC4/CapSense_CSHL.c **** 
1327:.\Generated_Source\PSoC4/CapSense_CSHL.c ****         CapSense_SetBitValue(CapSense_sensorEnableMask, (uint32)rawIndex, 0u);
 886              		.loc 1 1327 0 discriminator 1
 887 000e 0648     		ldr	r0, .L82+4
 888 0010 211C     		mov	r1, r4
 889 0012 0022     		mov	r2, #0
 890 0014 FFF7FEFF 		bl	CapSense_SetBitValue
ARM GAS  C:\Users\mlgjmoor\AppData\Local\Temp\cccG5TSt.s 			page 40


 891              	.LVL91:
1328:.\Generated_Source\PSoC4/CapSense_CSHL.c ****         rawIndex++;
 892              		.loc 1 1328 0 discriminator 1
 893 0018 0134     		add	r4, r4, #1
 894              	.LVL92:
 895 001a E4B2     		uxtb	r4, r4
 896              	.LVL93:
1329:.\Generated_Source\PSoC4/CapSense_CSHL.c ****     }
1330:.\Generated_Source\PSoC4/CapSense_CSHL.c ****     while(rawIndex < numOfSensors);
 897              		.loc 1 1330 0 discriminator 1
 898 001c AC42     		cmp	r4, r5
 899 001e F6D3     		bcc	.L81
1331:.\Generated_Source\PSoC4/CapSense_CSHL.c **** }
 900              		.loc 1 1331 0
 901              		@ sp needed
 902              	.LVL94:
 903              	.LVL95:
 904 0020 38BD     		pop	{r3, r4, r5, pc}
 905              	.L83:
 906 0022 C046     		.align	2
 907              	.L82:
 908 0024 00000000 		.word	.LANCHOR2
 909 0028 00000000 		.word	CapSense_sensorEnableMask
 910              		.cfi_endproc
 911              	.LFE62:
 912              		.size	CapSense_DisableWidget, .-CapSense_DisableWidget
 913              		.section	.text.CapSense_MedianFilter,"ax",%progbits
 914              		.align	2
 915              		.global	CapSense_MedianFilter
 916              		.code	16
 917              		.thumb_func
 918              		.type	CapSense_MedianFilter, %function
 919              	CapSense_MedianFilter:
 920              	.LFB63:
1332:.\Generated_Source\PSoC4/CapSense_CSHL.c **** 
1333:.\Generated_Source\PSoC4/CapSense_CSHL.c **** 
1334:.\Generated_Source\PSoC4/CapSense_CSHL.c **** #if(CapSense_TOTAL_CENTROIDS_BASIC_COUNT)
1335:.\Generated_Source\PSoC4/CapSense_CSHL.c ****     /*******************************************************************************
1336:.\Generated_Source\PSoC4/CapSense_CSHL.c ****     * Function Name: CapSense_FindMaximum
1337:.\Generated_Source\PSoC4/CapSense_CSHL.c ****     ********************************************************************************
1338:.\Generated_Source\PSoC4/CapSense_CSHL.c ****     *
1339:.\Generated_Source\PSoC4/CapSense_CSHL.c ****     * Summary:
1340:.\Generated_Source\PSoC4/CapSense_CSHL.c ****     *  Finds the index of the maximum element within a defined centroid. Checks
1341:.\Generated_Source\PSoC4/CapSense_CSHL.c ****     *  CapSense_sensorSignal[] within a defined centroid and
1342:.\Generated_Source\PSoC4/CapSense_CSHL.c ****     *  returns the index of the maximum element. The values below the finger threshold are
1343:.\Generated_Source\PSoC4/CapSense_CSHL.c ****     *  ignored.
1344:.\Generated_Source\PSoC4/CapSense_CSHL.c ****     *  The centroid is defined by offset of the first element and a number of elements - count.
1345:.\Generated_Source\PSoC4/CapSense_CSHL.c ****     *  The diplexed centroid requires at least two consecutive elements above
1346:.\Generated_Source\PSoC4/CapSense_CSHL.c ****     *  FingerThreshold to find the index of the maximum element.
1347:.\Generated_Source\PSoC4/CapSense_CSHL.c ****     *
1348:.\Generated_Source\PSoC4/CapSense_CSHL.c ****     * Parameters:
1349:.\Generated_Source\PSoC4/CapSense_CSHL.c ****     *  offset:  Start index of centroid in CapSense_sensorSignal[] array.
1350:.\Generated_Source\PSoC4/CapSense_CSHL.c ****     *  count:   number of elements within centroid.
1351:.\Generated_Source\PSoC4/CapSense_CSHL.c ****     *  fingerThreshold:  Finger threshold.
1352:.\Generated_Source\PSoC4/CapSense_CSHL.c ****     *  diplex:   pointer to diplex table.
1353:.\Generated_Source\PSoC4/CapSense_CSHL.c ****     *
1354:.\Generated_Source\PSoC4/CapSense_CSHL.c ****     * Return:
ARM GAS  C:\Users\mlgjmoor\AppData\Local\Temp\cccG5TSt.s 			page 41


1355:.\Generated_Source\PSoC4/CapSense_CSHL.c ****     *  Returns the index of the maximum element within a defined centroid.
1356:.\Generated_Source\PSoC4/CapSense_CSHL.c ****     *  If the index of the maximum element isn't found it returns 0xFF.
1357:.\Generated_Source\PSoC4/CapSense_CSHL.c ****     *
1358:.\Generated_Source\PSoC4/CapSense_CSHL.c ****     * Global Variables:
1359:.\Generated_Source\PSoC4/CapSense_CSHL.c ****     *  CapSense_startOfSlider[] - contains the index of the first slider element
1360:.\Generated_Source\PSoC4/CapSense_CSHL.c ****     *
1361:.\Generated_Source\PSoC4/CapSense_CSHL.c ****     * Side Effects:
1362:.\Generated_Source\PSoC4/CapSense_CSHL.c ****     *  None
1363:.\Generated_Source\PSoC4/CapSense_CSHL.c ****     *
1364:.\Generated_Source\PSoC4/CapSense_CSHL.c ****     *******************************************************************************/
1365:.\Generated_Source\PSoC4/CapSense_CSHL.c ****     #if (CapSense_IS_DIPLEX_SLIDER)
1366:.\Generated_Source\PSoC4/CapSense_CSHL.c ****         uint8 CapSense_FindMaximum(uint8 offset, uint8 count, uint8 fingerThreshold, const uint8 *d
1367:.\Generated_Source\PSoC4/CapSense_CSHL.c ****     #else
1368:.\Generated_Source\PSoC4/CapSense_CSHL.c ****         uint8 CapSense_FindMaximum(uint8 offset, uint8 count, uint8 fingerThreshold)
1369:.\Generated_Source\PSoC4/CapSense_CSHL.c ****     #endif /* (CapSense_IS_DIPLEX_SLIDER) */
1370:.\Generated_Source\PSoC4/CapSense_CSHL.c ****     {
1371:.\Generated_Source\PSoC4/CapSense_CSHL.c ****         uint8 i;
1372:.\Generated_Source\PSoC4/CapSense_CSHL.c ****         #if (CapSense_IS_DIPLEX_SLIDER)
1373:.\Generated_Source\PSoC4/CapSense_CSHL.c ****             uint8 curPos = 0u;
1374:.\Generated_Source\PSoC4/CapSense_CSHL.c ****             /* No centroid at Start */
1375:.\Generated_Source\PSoC4/CapSense_CSHL.c ****             uint8 curCntrdSize = 0u;
1376:.\Generated_Source\PSoC4/CapSense_CSHL.c ****             uint8 curCtrdStartPos = CapSense_MAXIMUM_CENTROID;
1377:.\Generated_Source\PSoC4/CapSense_CSHL.c ****             /* Biggest centroid is zero */
1378:.\Generated_Source\PSoC4/CapSense_CSHL.c ****             uint8 biggestCtrdSize = 0u;
1379:.\Generated_Source\PSoC4/CapSense_CSHL.c ****             uint8 biggestCtrdStartPos = 0u;
1380:.\Generated_Source\PSoC4/CapSense_CSHL.c ****         #endif /* (CapSense_IS_DIPLEX_SLIDER) */
1381:.\Generated_Source\PSoC4/CapSense_CSHL.c ****         uint8 maximum = CapSense_MAXIMUM_CENTROID;
1382:.\Generated_Source\PSoC4/CapSense_CSHL.c **** 
1383:.\Generated_Source\PSoC4/CapSense_CSHL.c ****         uint8 temp = 0u;
1384:.\Generated_Source\PSoC4/CapSense_CSHL.c ****         uint8 *startOfSlider = &CapSense_sensorSignal[offset];
1385:.\Generated_Source\PSoC4/CapSense_CSHL.c **** 
1386:.\Generated_Source\PSoC4/CapSense_CSHL.c ****         #if (CapSense_IS_DIPLEX_SLIDER)
1387:.\Generated_Source\PSoC4/CapSense_CSHL.c ****             if(diplex != 0u)
1388:.\Generated_Source\PSoC4/CapSense_CSHL.c ****             {
1389:.\Generated_Source\PSoC4/CapSense_CSHL.c ****                 /* Initialize */
1390:.\Generated_Source\PSoC4/CapSense_CSHL.c ****                 i = 0u;
1391:.\Generated_Source\PSoC4/CapSense_CSHL.c **** 
1392:.\Generated_Source\PSoC4/CapSense_CSHL.c ****                 /* Make slider x2 as Diplexed */
1393:.\Generated_Source\PSoC4/CapSense_CSHL.c ****                 count <<= 1u;
1394:.\Generated_Source\PSoC4/CapSense_CSHL.c ****                 while(1u)
1395:.\Generated_Source\PSoC4/CapSense_CSHL.c ****                 {
1396:.\Generated_Source\PSoC4/CapSense_CSHL.c ****                     if (startOfSlider[curPos] > 0u)    /* Looking for centroids */
1397:.\Generated_Source\PSoC4/CapSense_CSHL.c ****                     {
1398:.\Generated_Source\PSoC4/CapSense_CSHL.c ****                         if (curCtrdStartPos == CapSense_MAXIMUM_CENTROID)
1399:.\Generated_Source\PSoC4/CapSense_CSHL.c ****                         {
1400:.\Generated_Source\PSoC4/CapSense_CSHL.c ****                             /* Start of centroid */
1401:.\Generated_Source\PSoC4/CapSense_CSHL.c ****                             curCtrdStartPos = i;
1402:.\Generated_Source\PSoC4/CapSense_CSHL.c ****                             curCntrdSize++;
1403:.\Generated_Source\PSoC4/CapSense_CSHL.c ****                         }
1404:.\Generated_Source\PSoC4/CapSense_CSHL.c ****                         else
1405:.\Generated_Source\PSoC4/CapSense_CSHL.c ****                         {
1406:.\Generated_Source\PSoC4/CapSense_CSHL.c ****                             curCntrdSize++;
1407:.\Generated_Source\PSoC4/CapSense_CSHL.c ****                         }
1408:.\Generated_Source\PSoC4/CapSense_CSHL.c ****                     }
1409:.\Generated_Source\PSoC4/CapSense_CSHL.c ****                     else   /* Select biggest and indicate zero start */
1410:.\Generated_Source\PSoC4/CapSense_CSHL.c ****                     {
1411:.\Generated_Source\PSoC4/CapSense_CSHL.c ****                         if(curCntrdSize > 0u)
ARM GAS  C:\Users\mlgjmoor\AppData\Local\Temp\cccG5TSt.s 			page 42


1412:.\Generated_Source\PSoC4/CapSense_CSHL.c ****                         {
1413:.\Generated_Source\PSoC4/CapSense_CSHL.c ****                             /* We are at the end of current */
1414:.\Generated_Source\PSoC4/CapSense_CSHL.c ****                             if(curCntrdSize > biggestCtrdSize)
1415:.\Generated_Source\PSoC4/CapSense_CSHL.c ****                             {
1416:.\Generated_Source\PSoC4/CapSense_CSHL.c ****                                 biggestCtrdSize = curCntrdSize;
1417:.\Generated_Source\PSoC4/CapSense_CSHL.c ****                                 biggestCtrdStartPos = curCtrdStartPos;
1418:.\Generated_Source\PSoC4/CapSense_CSHL.c ****                             }
1419:.\Generated_Source\PSoC4/CapSense_CSHL.c **** 
1420:.\Generated_Source\PSoC4/CapSense_CSHL.c ****                             curCntrdSize = 0u;
1421:.\Generated_Source\PSoC4/CapSense_CSHL.c ****                             curCtrdStartPos = CapSense_MAXIMUM_CENTROID;
1422:.\Generated_Source\PSoC4/CapSense_CSHL.c ****                         }
1423:.\Generated_Source\PSoC4/CapSense_CSHL.c ****                     }
1424:.\Generated_Source\PSoC4/CapSense_CSHL.c **** 
1425:.\Generated_Source\PSoC4/CapSense_CSHL.c ****                     i++;
1426:.\Generated_Source\PSoC4/CapSense_CSHL.c ****                     curPos = diplex[i];
1427:.\Generated_Source\PSoC4/CapSense_CSHL.c ****                     if(i == count)
1428:.\Generated_Source\PSoC4/CapSense_CSHL.c ****                     {
1429:.\Generated_Source\PSoC4/CapSense_CSHL.c ****                         break;
1430:.\Generated_Source\PSoC4/CapSense_CSHL.c ****                     }
1431:.\Generated_Source\PSoC4/CapSense_CSHL.c ****                 }
1432:.\Generated_Source\PSoC4/CapSense_CSHL.c **** 
1433:.\Generated_Source\PSoC4/CapSense_CSHL.c ****                     /* Find biggest centroid if two are same size, last one wins
1434:.\Generated_Source\PSoC4/CapSense_CSHL.c ****                        We are at the end of current */
1435:.\Generated_Source\PSoC4/CapSense_CSHL.c ****                 if (curCntrdSize >= biggestCtrdSize)
1436:.\Generated_Source\PSoC4/CapSense_CSHL.c ****                 {
1437:.\Generated_Source\PSoC4/CapSense_CSHL.c ****                     biggestCtrdSize = curCntrdSize;
1438:.\Generated_Source\PSoC4/CapSense_CSHL.c ****                     biggestCtrdStartPos = curCtrdStartPos;
1439:.\Generated_Source\PSoC4/CapSense_CSHL.c ****                 }
1440:.\Generated_Source\PSoC4/CapSense_CSHL.c ****             }
1441:.\Generated_Source\PSoC4/CapSense_CSHL.c ****             else
1442:.\Generated_Source\PSoC4/CapSense_CSHL.c ****             {
1443:.\Generated_Source\PSoC4/CapSense_CSHL.c ****                 /* Without diplexing */
1444:.\Generated_Source\PSoC4/CapSense_CSHL.c ****                 biggestCtrdSize = count;
1445:.\Generated_Source\PSoC4/CapSense_CSHL.c ****             }
1446:.\Generated_Source\PSoC4/CapSense_CSHL.c **** 
1447:.\Generated_Source\PSoC4/CapSense_CSHL.c **** 
1448:.\Generated_Source\PSoC4/CapSense_CSHL.c ****             /* Check centroid size */
1449:.\Generated_Source\PSoC4/CapSense_CSHL.c ****             #if (CapSense_IS_NON_DIPLEX_SLIDER)
1450:.\Generated_Source\PSoC4/CapSense_CSHL.c ****                 if((biggestCtrdSize >= 2u) || ((biggestCtrdSize == 1u) && (diplex == 0u)))
1451:.\Generated_Source\PSoC4/CapSense_CSHL.c ****             #else
1452:.\Generated_Source\PSoC4/CapSense_CSHL.c ****                 if(biggestCtrdSize >= 2u)
1453:.\Generated_Source\PSoC4/CapSense_CSHL.c ****             #endif /* (CapSense_IS_NON_DIPLEX_SLIDER) */
1454:.\Generated_Source\PSoC4/CapSense_CSHL.c ****                 {
1455:.\Generated_Source\PSoC4/CapSense_CSHL.c ****                     for (i = biggestCtrdStartPos; i < (biggestCtrdStartPos + biggestCtrdSize); i++)
1456:.\Generated_Source\PSoC4/CapSense_CSHL.c ****                     {
1457:.\Generated_Source\PSoC4/CapSense_CSHL.c ****                         #if (CapSense_IS_DIPLEX_SLIDER && CapSense_IS_NON_DIPLEX_SLIDER)
1458:.\Generated_Source\PSoC4/CapSense_CSHL.c ****                             if (diplex == 0u)
1459:.\Generated_Source\PSoC4/CapSense_CSHL.c ****                             {
1460:.\Generated_Source\PSoC4/CapSense_CSHL.c ****                                 curPos = i;
1461:.\Generated_Source\PSoC4/CapSense_CSHL.c ****                             }
1462:.\Generated_Source\PSoC4/CapSense_CSHL.c ****                             else
1463:.\Generated_Source\PSoC4/CapSense_CSHL.c ****                             {
1464:.\Generated_Source\PSoC4/CapSense_CSHL.c ****                                 curPos = diplex[i];
1465:.\Generated_Source\PSoC4/CapSense_CSHL.c ****                             }
1466:.\Generated_Source\PSoC4/CapSense_CSHL.c ****                         #elif (CapSense_IS_DIPLEX_SLIDER)
1467:.\Generated_Source\PSoC4/CapSense_CSHL.c ****                             curPos = diplex[i];
1468:.\Generated_Source\PSoC4/CapSense_CSHL.c ****                         #endif /* (CapSense_IS_DIPLEX_SLIDER && CapSense_IS_NON_DIPLEX_SLIDER) */
ARM GAS  C:\Users\mlgjmoor\AppData\Local\Temp\cccG5TSt.s 			page 43


1469:.\Generated_Source\PSoC4/CapSense_CSHL.c ****                         /* Looking for greater element within centroid */
1470:.\Generated_Source\PSoC4/CapSense_CSHL.c ****                         if(startOfSlider[curPos] > fingerThreshold)
1471:.\Generated_Source\PSoC4/CapSense_CSHL.c ****                         {
1472:.\Generated_Source\PSoC4/CapSense_CSHL.c ****                             if(startOfSlider[curPos] > temp)
1473:.\Generated_Source\PSoC4/CapSense_CSHL.c ****                             {
1474:.\Generated_Source\PSoC4/CapSense_CSHL.c ****                                 maximum = i;
1475:.\Generated_Source\PSoC4/CapSense_CSHL.c ****                                 temp = startOfSlider[curPos];
1476:.\Generated_Source\PSoC4/CapSense_CSHL.c ****                             }
1477:.\Generated_Source\PSoC4/CapSense_CSHL.c ****                         }
1478:.\Generated_Source\PSoC4/CapSense_CSHL.c ****                     }
1479:.\Generated_Source\PSoC4/CapSense_CSHL.c ****                 }
1480:.\Generated_Source\PSoC4/CapSense_CSHL.c ****         #else
1481:.\Generated_Source\PSoC4/CapSense_CSHL.c ****             for (i = 0u; i < count; i++)
1482:.\Generated_Source\PSoC4/CapSense_CSHL.c ****             {
1483:.\Generated_Source\PSoC4/CapSense_CSHL.c ****                 /* Looking for greater element within centroid */
1484:.\Generated_Source\PSoC4/CapSense_CSHL.c ****                 if(startOfSlider[i] > fingerThreshold)
1485:.\Generated_Source\PSoC4/CapSense_CSHL.c ****                 {
1486:.\Generated_Source\PSoC4/CapSense_CSHL.c ****                     if(startOfSlider[i] > temp)
1487:.\Generated_Source\PSoC4/CapSense_CSHL.c ****                     {
1488:.\Generated_Source\PSoC4/CapSense_CSHL.c ****                         maximum = i;
1489:.\Generated_Source\PSoC4/CapSense_CSHL.c ****                         temp = startOfSlider[i];
1490:.\Generated_Source\PSoC4/CapSense_CSHL.c ****                     }
1491:.\Generated_Source\PSoC4/CapSense_CSHL.c ****                 }
1492:.\Generated_Source\PSoC4/CapSense_CSHL.c ****             }
1493:.\Generated_Source\PSoC4/CapSense_CSHL.c ****         #endif /* (CapSense_IS_DIPLEX_SLIDER) */
1494:.\Generated_Source\PSoC4/CapSense_CSHL.c ****         return (maximum);
1495:.\Generated_Source\PSoC4/CapSense_CSHL.c ****     }
1496:.\Generated_Source\PSoC4/CapSense_CSHL.c **** 
1497:.\Generated_Source\PSoC4/CapSense_CSHL.c **** 
1498:.\Generated_Source\PSoC4/CapSense_CSHL.c ****     /*******************************************************************************
1499:.\Generated_Source\PSoC4/CapSense_CSHL.c ****     * Function Name: CapSense_CalcCentroid
1500:.\Generated_Source\PSoC4/CapSense_CSHL.c ****     ********************************************************************************
1501:.\Generated_Source\PSoC4/CapSense_CSHL.c ****     *
1502:.\Generated_Source\PSoC4/CapSense_CSHL.c ****     * Summary:
1503:.\Generated_Source\PSoC4/CapSense_CSHL.c ****     *  Returns a position value calculated according to the index of the maximum element and API
1504:.\Generated_Source\PSoC4/CapSense_CSHL.c ****     *  resolution.
1505:.\Generated_Source\PSoC4/CapSense_CSHL.c ****     *
1506:.\Generated_Source\PSoC4/CapSense_CSHL.c ****     * Parameters:
1507:.\Generated_Source\PSoC4/CapSense_CSHL.c ****     *  type:  widget type.
1508:.\Generated_Source\PSoC4/CapSense_CSHL.c ****     *  diplex:  pointer to diplex table.
1509:.\Generated_Source\PSoC4/CapSense_CSHL.c ****     *  maximum:  Index of maximum element within centroid.
1510:.\Generated_Source\PSoC4/CapSense_CSHL.c ****     *  offset:   Start index of centroid in CapSense_sensorSignal[] array.
1511:.\Generated_Source\PSoC4/CapSense_CSHL.c ****     *  count:    Number of elements within centroid.
1512:.\Generated_Source\PSoC4/CapSense_CSHL.c ****     *  resolution:  multiplicator calculated according to centroid type and
1513:.\Generated_Source\PSoC4/CapSense_CSHL.c ****     *  API resolution.
1514:.\Generated_Source\PSoC4/CapSense_CSHL.c ****     *  noiseThreshold:  Noise threshold.
1515:.\Generated_Source\PSoC4/CapSense_CSHL.c ****     *
1516:.\Generated_Source\PSoC4/CapSense_CSHL.c ****     * Return:
1517:.\Generated_Source\PSoC4/CapSense_CSHL.c ****     *  Returns a position value of the slider.
1518:.\Generated_Source\PSoC4/CapSense_CSHL.c ****     *
1519:.\Generated_Source\PSoC4/CapSense_CSHL.c ****     * Side Effects:
1520:.\Generated_Source\PSoC4/CapSense_CSHL.c ****     *  None
1521:.\Generated_Source\PSoC4/CapSense_CSHL.c ****     *
1522:.\Generated_Source\PSoC4/CapSense_CSHL.c ****     *******************************************************************************/
1523:.\Generated_Source\PSoC4/CapSense_CSHL.c **** #if (CapSense_TOTAL_TRACKPAD_GESTURES_COUNT > 0u)
1524:.\Generated_Source\PSoC4/CapSense_CSHL.c ****     uint8 CapSense_CalcCentroid(uint8 maximum, uint8 offset,
1525:.\Generated_Source\PSoC4/CapSense_CSHL.c ****                                         uint8 count, uint32 resolution, uint8 noiseThreshold)
ARM GAS  C:\Users\mlgjmoor\AppData\Local\Temp\cccG5TSt.s 			page 44


1526:.\Generated_Source\PSoC4/CapSense_CSHL.c **** #else
1527:.\Generated_Source\PSoC4/CapSense_CSHL.c ****     uint8 CapSense_CalcCentroid(uint8 maximum, uint8 offset,
1528:.\Generated_Source\PSoC4/CapSense_CSHL.c ****                                         uint8 count, uint16 resolution, uint8 noiseThreshold)
1529:.\Generated_Source\PSoC4/CapSense_CSHL.c **** #endif /* (CapSense_TOTAL_TRACKPAD_GESTURES_COUNT > 0u) */
1530:.\Generated_Source\PSoC4/CapSense_CSHL.c ****     {
1531:.\Generated_Source\PSoC4/CapSense_CSHL.c ****         #if ((CapSense_TOTAL_LINEAR_SLIDERS_COUNT > 0u) || (CapSense_TOTAL_TOUCH_PADS_BASIC_COUNT >
1532:.\Generated_Source\PSoC4/CapSense_CSHL.c ****             uint8 posPrev;
1533:.\Generated_Source\PSoC4/CapSense_CSHL.c ****             uint8 posNext;
1534:.\Generated_Source\PSoC4/CapSense_CSHL.c ****         #endif /* ((CapSense_TOTAL_LINEAR_SLIDERS_COUNT>0u) || (CapSense_TOTAL_TOUCH_PADS_BASIC_COU
1535:.\Generated_Source\PSoC4/CapSense_CSHL.c **** 
1536:.\Generated_Source\PSoC4/CapSense_CSHL.c ****         /* Helps during centroid calculation */
1537:.\Generated_Source\PSoC4/CapSense_CSHL.c ****         #if (CapSense_TOTAL_CENTROIDS_BASIC_COUNT)
1538:.\Generated_Source\PSoC4/CapSense_CSHL.c ****             static uint8 CapSense_centroid[3u];
1539:.\Generated_Source\PSoC4/CapSense_CSHL.c ****         #endif  /* (CapSense_TOTAL_CENTROIDS_BASIC_COUNT) */
1540:.\Generated_Source\PSoC4/CapSense_CSHL.c **** 
1541:.\Generated_Source\PSoC4/CapSense_CSHL.c ****         #if (CapSense_IS_DIPLEX_SLIDER)
1542:.\Generated_Source\PSoC4/CapSense_CSHL.c ****             uint8 pos;
1543:.\Generated_Source\PSoC4/CapSense_CSHL.c ****         #endif /* (CapSense_IS_DIPLEX_SLIDER) */
1544:.\Generated_Source\PSoC4/CapSense_CSHL.c **** 
1545:.\Generated_Source\PSoC4/CapSense_CSHL.c ****         uint8 position;
1546:.\Generated_Source\PSoC4/CapSense_CSHL.c ****         uint32 numerator;
1547:.\Generated_Source\PSoC4/CapSense_CSHL.c ****         int32 denominator;
1548:.\Generated_Source\PSoC4/CapSense_CSHL.c **** 
1549:.\Generated_Source\PSoC4/CapSense_CSHL.c ****         uint8  *startOfSlider = &CapSense_sensorSignal[offset];
1550:.\Generated_Source\PSoC4/CapSense_CSHL.c **** 
1551:.\Generated_Source\PSoC4/CapSense_CSHL.c ****         #if ((CapSense_TOTAL_LINEAR_SLIDERS_COUNT > 0u) || (CapSense_TOTAL_TOUCH_PADS_BASIC_COUNT >
1552:.\Generated_Source\PSoC4/CapSense_CSHL.c ****             posPrev = 0u;
1553:.\Generated_Source\PSoC4/CapSense_CSHL.c ****         #endif /* ((CapSense_TOTAL_LINEAR_SLIDERS_COUNT>0u) || (CapSense_TOTAL_TOUCH_PADS_BASIC_COU
1554:.\Generated_Source\PSoC4/CapSense_CSHL.c **** 
1555:.\Generated_Source\PSoC4/CapSense_CSHL.c ****         #if (CapSense_ADD_SLIDER_TYPE)
1556:.\Generated_Source\PSoC4/CapSense_CSHL.c ****             if(type == CapSense_TYPE_RADIAL_SLIDER)
1557:.\Generated_Source\PSoC4/CapSense_CSHL.c ****             {
1558:.\Generated_Source\PSoC4/CapSense_CSHL.c ****         #endif /* (CapSense_ADD_SLIDER_TYPE) */
1559:.\Generated_Source\PSoC4/CapSense_CSHL.c **** 
1560:.\Generated_Source\PSoC4/CapSense_CSHL.c ****             #if (CapSense_TOTAL_RADIAL_SLIDERS_COUNT > 0u)
1561:.\Generated_Source\PSoC4/CapSense_CSHL.c ****                 /* Copy Signal to the centroid array */
1562:.\Generated_Source\PSoC4/CapSense_CSHL.c ****                 CapSense_centroid[CapSense_POS] = startOfSlider[maximum];
1563:.\Generated_Source\PSoC4/CapSense_CSHL.c **** 
1564:.\Generated_Source\PSoC4/CapSense_CSHL.c ****                 /* Check borders for ROTARY Slider */
1565:.\Generated_Source\PSoC4/CapSense_CSHL.c ****                 if (maximum == 0u)                   /* Start of centroid */
1566:.\Generated_Source\PSoC4/CapSense_CSHL.c ****                 {
1567:.\Generated_Source\PSoC4/CapSense_CSHL.c ****                     CapSense_centroid[CapSense_POS_PREV] = startOfSlider[count - 1u];
1568:.\Generated_Source\PSoC4/CapSense_CSHL.c ****                     CapSense_centroid[CapSense_POS_NEXT] = startOfSlider[1u];
1569:.\Generated_Source\PSoC4/CapSense_CSHL.c ****                 }
1570:.\Generated_Source\PSoC4/CapSense_CSHL.c ****                 else if (maximum == (count - 1u))    /* End of centroid */
1571:.\Generated_Source\PSoC4/CapSense_CSHL.c ****                 {
1572:.\Generated_Source\PSoC4/CapSense_CSHL.c ****                     CapSense_centroid[CapSense_POS_PREV] = startOfSlider[maximum - 1u];
1573:.\Generated_Source\PSoC4/CapSense_CSHL.c ****                     CapSense_centroid[CapSense_POS_NEXT] = startOfSlider[0u];
1574:.\Generated_Source\PSoC4/CapSense_CSHL.c ****                 }
1575:.\Generated_Source\PSoC4/CapSense_CSHL.c ****                 else                                /* Not first Not last */
1576:.\Generated_Source\PSoC4/CapSense_CSHL.c ****                 {
1577:.\Generated_Source\PSoC4/CapSense_CSHL.c ****                     CapSense_centroid[CapSense_POS_PREV] = startOfSlider[maximum - 1u];
1578:.\Generated_Source\PSoC4/CapSense_CSHL.c ****                     CapSense_centroid[CapSense_POS_NEXT] = startOfSlider[maximum + 1u];
1579:.\Generated_Source\PSoC4/CapSense_CSHL.c ****                 }
1580:.\Generated_Source\PSoC4/CapSense_CSHL.c ****             #endif /* (CapSense_TOTAL_RADIAL_SLIDERS_COUNT > 0u) */
1581:.\Generated_Source\PSoC4/CapSense_CSHL.c **** 
1582:.\Generated_Source\PSoC4/CapSense_CSHL.c ****         #if (CapSense_ADD_SLIDER_TYPE)
ARM GAS  C:\Users\mlgjmoor\AppData\Local\Temp\cccG5TSt.s 			page 45


1583:.\Generated_Source\PSoC4/CapSense_CSHL.c ****             }
1584:.\Generated_Source\PSoC4/CapSense_CSHL.c ****             else
1585:.\Generated_Source\PSoC4/CapSense_CSHL.c ****             {
1586:.\Generated_Source\PSoC4/CapSense_CSHL.c ****         #endif /* (CapSense_ADD_SLIDER_TYPE) */
1587:.\Generated_Source\PSoC4/CapSense_CSHL.c **** 
1588:.\Generated_Source\PSoC4/CapSense_CSHL.c ****             #if ((CapSense_TOTAL_LINEAR_SLIDERS_COUNT > 0u) || (CapSense_TOTAL_TOUCH_PADS_BASIC_COU
1589:.\Generated_Source\PSoC4/CapSense_CSHL.c ****                 #if (CapSense_IS_DIPLEX_SLIDER && CapSense_IS_NON_DIPLEX_SLIDER)
1590:.\Generated_Source\PSoC4/CapSense_CSHL.c ****                     /* Calculate next and previous near to maximum */
1591:.\Generated_Source\PSoC4/CapSense_CSHL.c ****                     if(diplex == 0u)
1592:.\Generated_Source\PSoC4/CapSense_CSHL.c ****                     {
1593:.\Generated_Source\PSoC4/CapSense_CSHL.c ****                         pos     = maximum;
1594:.\Generated_Source\PSoC4/CapSense_CSHL.c ****                         posPrev = maximum - 1u;
1595:.\Generated_Source\PSoC4/CapSense_CSHL.c ****                         posNext = maximum + 1u;
1596:.\Generated_Source\PSoC4/CapSense_CSHL.c ****                     }
1597:.\Generated_Source\PSoC4/CapSense_CSHL.c ****                     else
1598:.\Generated_Source\PSoC4/CapSense_CSHL.c ****                     {
1599:.\Generated_Source\PSoC4/CapSense_CSHL.c ****                         pos     = diplex[maximum];
1600:.\Generated_Source\PSoC4/CapSense_CSHL.c ****                         posPrev = diplex[maximum - 1u];
1601:.\Generated_Source\PSoC4/CapSense_CSHL.c ****                         posNext = diplex[maximum + 1u];
1602:.\Generated_Source\PSoC4/CapSense_CSHL.c ****                         count <<= 1u;
1603:.\Generated_Source\PSoC4/CapSense_CSHL.c ****                     }
1604:.\Generated_Source\PSoC4/CapSense_CSHL.c ****                 #elif (CapSense_IS_DIPLEX_SLIDER)
1605:.\Generated_Source\PSoC4/CapSense_CSHL.c ****                     /* Calculate next and previous near to maximum */
1606:.\Generated_Source\PSoC4/CapSense_CSHL.c ****                     pos     = diplex[maximum];
1607:.\Generated_Source\PSoC4/CapSense_CSHL.c ****                     posPrev = diplex[maximum - 1u];
1608:.\Generated_Source\PSoC4/CapSense_CSHL.c ****                     posNext = diplex[maximum + 1u];
1609:.\Generated_Source\PSoC4/CapSense_CSHL.c ****                     count <<= 1u;
1610:.\Generated_Source\PSoC4/CapSense_CSHL.c ****                 #else
1611:.\Generated_Source\PSoC4/CapSense_CSHL.c ****                     /* Calculate next and previous near to maximum */
1612:.\Generated_Source\PSoC4/CapSense_CSHL.c ****                     if (maximum >= 1u)
1613:.\Generated_Source\PSoC4/CapSense_CSHL.c ****                     {
1614:.\Generated_Source\PSoC4/CapSense_CSHL.c ****                         posPrev = maximum - 1u;
1615:.\Generated_Source\PSoC4/CapSense_CSHL.c ****                     }
1616:.\Generated_Source\PSoC4/CapSense_CSHL.c ****                     posNext = maximum + 1u;
1617:.\Generated_Source\PSoC4/CapSense_CSHL.c ****                 #endif /* (CapSense_IS_DIPLEX_SLIDER && CapSense_IS_NON_DIPLEX_SLIDER) */
1618:.\Generated_Source\PSoC4/CapSense_CSHL.c **** 
1619:.\Generated_Source\PSoC4/CapSense_CSHL.c ****                 /* Copy Signal to the centroid array */
1620:.\Generated_Source\PSoC4/CapSense_CSHL.c ****                 #if (CapSense_IS_DIPLEX_SLIDER)
1621:.\Generated_Source\PSoC4/CapSense_CSHL.c ****                     CapSense_centroid[CapSense_POS] = startOfSlider[pos];
1622:.\Generated_Source\PSoC4/CapSense_CSHL.c ****                 #else
1623:.\Generated_Source\PSoC4/CapSense_CSHL.c ****                     CapSense_centroid[CapSense_POS] = startOfSlider[maximum];
1624:.\Generated_Source\PSoC4/CapSense_CSHL.c ****                 #endif /* (CapSense_IS_DIPLEX_SLIDER) */
1625:.\Generated_Source\PSoC4/CapSense_CSHL.c **** 
1626:.\Generated_Source\PSoC4/CapSense_CSHL.c ****                 /* Check borders for LINEAR Slider */
1627:.\Generated_Source\PSoC4/CapSense_CSHL.c ****                 if (maximum == 0u)                   /* Start of centroid */
1628:.\Generated_Source\PSoC4/CapSense_CSHL.c ****                 {
1629:.\Generated_Source\PSoC4/CapSense_CSHL.c ****                     CapSense_centroid[CapSense_POS_PREV] = 0u;
1630:.\Generated_Source\PSoC4/CapSense_CSHL.c ****                     CapSense_centroid[CapSense_POS_NEXT] = startOfSlider[posNext];
1631:.\Generated_Source\PSoC4/CapSense_CSHL.c ****                 }
1632:.\Generated_Source\PSoC4/CapSense_CSHL.c ****                 else if (maximum == ((count) - 1u)) /* End of centroid */
1633:.\Generated_Source\PSoC4/CapSense_CSHL.c ****                 {
1634:.\Generated_Source\PSoC4/CapSense_CSHL.c ****                     CapSense_centroid[CapSense_POS_PREV] = startOfSlider[posPrev];
1635:.\Generated_Source\PSoC4/CapSense_CSHL.c ****                     CapSense_centroid[CapSense_POS_NEXT] = 0u;
1636:.\Generated_Source\PSoC4/CapSense_CSHL.c ****                 }
1637:.\Generated_Source\PSoC4/CapSense_CSHL.c ****                 else                                /* Not first Not last */
1638:.\Generated_Source\PSoC4/CapSense_CSHL.c ****                 {
1639:.\Generated_Source\PSoC4/CapSense_CSHL.c ****                     CapSense_centroid[CapSense_POS_PREV] = startOfSlider[posPrev];
ARM GAS  C:\Users\mlgjmoor\AppData\Local\Temp\cccG5TSt.s 			page 46


1640:.\Generated_Source\PSoC4/CapSense_CSHL.c ****                     CapSense_centroid[CapSense_POS_NEXT] = startOfSlider[posNext];
1641:.\Generated_Source\PSoC4/CapSense_CSHL.c ****                 }
1642:.\Generated_Source\PSoC4/CapSense_CSHL.c ****             #endif /* ((CapSense_TOTAL_LINEAR_SLIDERS_COUNT>0u)||(CapSense_TOTAL_TOUCH_PADS_BASIC_C
1643:.\Generated_Source\PSoC4/CapSense_CSHL.c **** 
1644:.\Generated_Source\PSoC4/CapSense_CSHL.c ****         #if (CapSense_ADD_SLIDER_TYPE)
1645:.\Generated_Source\PSoC4/CapSense_CSHL.c ****             }
1646:.\Generated_Source\PSoC4/CapSense_CSHL.c ****         #endif /* (CapSense_ADD_SLIDER_TYPE) */
1647:.\Generated_Source\PSoC4/CapSense_CSHL.c **** 
1648:.\Generated_Source\PSoC4/CapSense_CSHL.c ****         /* Subtract noiseThreshold */
1649:.\Generated_Source\PSoC4/CapSense_CSHL.c ****         if(CapSense_centroid[CapSense_POS_PREV] > noiseThreshold)
1650:.\Generated_Source\PSoC4/CapSense_CSHL.c ****         {
1651:.\Generated_Source\PSoC4/CapSense_CSHL.c ****             CapSense_centroid[CapSense_POS_PREV] -= noiseThreshold;
1652:.\Generated_Source\PSoC4/CapSense_CSHL.c ****         }
1653:.\Generated_Source\PSoC4/CapSense_CSHL.c ****         else
1654:.\Generated_Source\PSoC4/CapSense_CSHL.c ****         {
1655:.\Generated_Source\PSoC4/CapSense_CSHL.c ****             CapSense_centroid[CapSense_POS_PREV] = 0u;
1656:.\Generated_Source\PSoC4/CapSense_CSHL.c ****         }
1657:.\Generated_Source\PSoC4/CapSense_CSHL.c **** 
1658:.\Generated_Source\PSoC4/CapSense_CSHL.c ****         /* Maximum always greater than fingerThreshold, so greater than noiseThreshold */
1659:.\Generated_Source\PSoC4/CapSense_CSHL.c ****         CapSense_centroid[CapSense_POS] -= noiseThreshold;
1660:.\Generated_Source\PSoC4/CapSense_CSHL.c **** 
1661:.\Generated_Source\PSoC4/CapSense_CSHL.c ****         /* Subtract noiseThreshold */
1662:.\Generated_Source\PSoC4/CapSense_CSHL.c ****         if(CapSense_centroid[CapSense_POS_NEXT] > noiseThreshold)
1663:.\Generated_Source\PSoC4/CapSense_CSHL.c ****         {
1664:.\Generated_Source\PSoC4/CapSense_CSHL.c ****             CapSense_centroid[CapSense_POS_NEXT] -= noiseThreshold;
1665:.\Generated_Source\PSoC4/CapSense_CSHL.c ****         }
1666:.\Generated_Source\PSoC4/CapSense_CSHL.c ****         else
1667:.\Generated_Source\PSoC4/CapSense_CSHL.c ****         {
1668:.\Generated_Source\PSoC4/CapSense_CSHL.c ****             CapSense_centroid[CapSense_POS_NEXT] = 0u;
1669:.\Generated_Source\PSoC4/CapSense_CSHL.c ****         }
1670:.\Generated_Source\PSoC4/CapSense_CSHL.c **** 
1671:.\Generated_Source\PSoC4/CapSense_CSHL.c **** 
1672:.\Generated_Source\PSoC4/CapSense_CSHL.c ****         /* Si+1 - Si-1 */
1673:.\Generated_Source\PSoC4/CapSense_CSHL.c ****         numerator = (uint32) CapSense_centroid[CapSense_POS_NEXT] -
1674:.\Generated_Source\PSoC4/CapSense_CSHL.c ****                     (uint32) CapSense_centroid[CapSense_POS_PREV];
1675:.\Generated_Source\PSoC4/CapSense_CSHL.c **** 
1676:.\Generated_Source\PSoC4/CapSense_CSHL.c ****         /* Si+1 + Si + Si-1 */
1677:.\Generated_Source\PSoC4/CapSense_CSHL.c ****         denominator = (int32) CapSense_centroid[CapSense_POS_PREV] +
1678:.\Generated_Source\PSoC4/CapSense_CSHL.c ****                       (int32) CapSense_centroid[CapSense_POS] +
1679:.\Generated_Source\PSoC4/CapSense_CSHL.c ****                       (int32) CapSense_centroid[CapSense_POS_NEXT];
1680:.\Generated_Source\PSoC4/CapSense_CSHL.c **** 
1681:.\Generated_Source\PSoC4/CapSense_CSHL.c ****         /* (numerator/denominator) + maximum */
1682:.\Generated_Source\PSoC4/CapSense_CSHL.c ****         denominator = (((int32)(uint32)((uint32)numerator << 8u)/denominator) + (int32)(uint32)((ui
1683:.\Generated_Source\PSoC4/CapSense_CSHL.c **** 
1684:.\Generated_Source\PSoC4/CapSense_CSHL.c ****         #if(CapSense_TOTAL_RADIAL_SLIDERS_COUNT > 0u)
1685:.\Generated_Source\PSoC4/CapSense_CSHL.c ****             /* Only required for RADIAL Slider */
1686:.\Generated_Source\PSoC4/CapSense_CSHL.c ****             if(denominator < 0)
1687:.\Generated_Source\PSoC4/CapSense_CSHL.c ****             {
1688:.\Generated_Source\PSoC4/CapSense_CSHL.c ****                 denominator += (int32)((uint16)((uint16) count << 8u));
1689:.\Generated_Source\PSoC4/CapSense_CSHL.c ****             }
1690:.\Generated_Source\PSoC4/CapSense_CSHL.c ****         #endif /* (CapSense_TOTAL_RADIAL_SLIDERS_COUNT > 0u) */
1691:.\Generated_Source\PSoC4/CapSense_CSHL.c **** 
1692:.\Generated_Source\PSoC4/CapSense_CSHL.c ****         denominator *= (int16)resolution;
1693:.\Generated_Source\PSoC4/CapSense_CSHL.c **** 
1694:.\Generated_Source\PSoC4/CapSense_CSHL.c ****         /* Round result and put it to uint8 */
1695:.\Generated_Source\PSoC4/CapSense_CSHL.c ****         position = ((uint8) HI16((uint32)denominator + CapSense_CENTROID_ROUND_VALUE));
1696:.\Generated_Source\PSoC4/CapSense_CSHL.c **** 
ARM GAS  C:\Users\mlgjmoor\AppData\Local\Temp\cccG5TSt.s 			page 47


1697:.\Generated_Source\PSoC4/CapSense_CSHL.c ****         return (position);
1698:.\Generated_Source\PSoC4/CapSense_CSHL.c ****     }
1699:.\Generated_Source\PSoC4/CapSense_CSHL.c **** #endif /* (CapSense_TOTAL_CENTROIDS_BASIC_COUNT) */
1700:.\Generated_Source\PSoC4/CapSense_CSHL.c **** 
1701:.\Generated_Source\PSoC4/CapSense_CSHL.c **** 
1702:.\Generated_Source\PSoC4/CapSense_CSHL.c **** #if((CapSense_TOTAL_RADIAL_SLIDERS_COUNT > 0u) || (CapSense_TOTAL_LINEAR_SLIDERS_COUNT > 0u))
1703:.\Generated_Source\PSoC4/CapSense_CSHL.c ****     /*******************************************************************************
1704:.\Generated_Source\PSoC4/CapSense_CSHL.c ****     * Function Name: CapSense_GetCentroidPos
1705:.\Generated_Source\PSoC4/CapSense_CSHL.c ****     ********************************************************************************
1706:.\Generated_Source\PSoC4/CapSense_CSHL.c ****     *
1707:.\Generated_Source\PSoC4/CapSense_CSHL.c ****     * Summary:
1708:.\Generated_Source\PSoC4/CapSense_CSHL.c ****     *  Checks the CapSense_Signal[ ] array for a centroid within
1709:.\Generated_Source\PSoC4/CapSense_CSHL.c ****     *  a slider specified range. The centroid position is calculated according to the resolution
1710:.\Generated_Source\PSoC4/CapSense_CSHL.c ****     *  specified in the CapSense customizer. The position filters are applied to the
1711:.\Generated_Source\PSoC4/CapSense_CSHL.c ****     *  result if enabled.
1712:.\Generated_Source\PSoC4/CapSense_CSHL.c ****     *
1713:.\Generated_Source\PSoC4/CapSense_CSHL.c ****     * Parameters:
1714:.\Generated_Source\PSoC4/CapSense_CSHL.c ****     *  widget:  Widget number.
1715:.\Generated_Source\PSoC4/CapSense_CSHL.c ****     *  For every linear slider widget there are defines in this format:
1716:.\Generated_Source\PSoC4/CapSense_CSHL.c ****     *  #define CapSense_"widget_name"__LS           5
1717:.\Generated_Source\PSoC4/CapSense_CSHL.c ****     *
1718:.\Generated_Source\PSoC4/CapSense_CSHL.c ****     * Return:
1719:.\Generated_Source\PSoC4/CapSense_CSHL.c ****     *  Returns a position value of the linear slider.
1720:.\Generated_Source\PSoC4/CapSense_CSHL.c ****     *
1721:.\Generated_Source\PSoC4/CapSense_CSHL.c ****     * Global Variables:
1722:.\Generated_Source\PSoC4/CapSense_CSHL.c ****     *  None
1723:.\Generated_Source\PSoC4/CapSense_CSHL.c ****     *
1724:.\Generated_Source\PSoC4/CapSense_CSHL.c ****     * Side Effects:
1725:.\Generated_Source\PSoC4/CapSense_CSHL.c ****     *  If any sensor within the slider widget is active, the function returns values
1726:.\Generated_Source\PSoC4/CapSense_CSHL.c ****     *  from zero to the API resolution value set in the CapSense customizer. If no
1727:.\Generated_Source\PSoC4/CapSense_CSHL.c ****     *  sensors are active, the function returns 0xFFFF. If an error occurs during
1728:.\Generated_Source\PSoC4/CapSense_CSHL.c ****     *  execution of the centroid/diplexing algorithm, the function returns 0xFFFF.
1729:.\Generated_Source\PSoC4/CapSense_CSHL.c ****     *  There are no checks of the widget type argument provided to this function.
1730:.\Generated_Source\PSoC4/CapSense_CSHL.c ****     *  The unproper widget type provided will cause unexpected position calculations.
1731:.\Generated_Source\PSoC4/CapSense_CSHL.c ****     *
1732:.\Generated_Source\PSoC4/CapSense_CSHL.c ****     * Note:
1733:.\Generated_Source\PSoC4/CapSense_CSHL.c ****     *  If noise counts on the slider segments are greater than the noise
1734:.\Generated_Source\PSoC4/CapSense_CSHL.c ****     *  threshold, this subroutine may generate a false centroid result. The noise
1735:.\Generated_Source\PSoC4/CapSense_CSHL.c ****     *  threshold should be set carefully (high enough above the noise level) so
1736:.\Generated_Source\PSoC4/CapSense_CSHL.c ****     *  that noise will not generate a false centroid.
1737:.\Generated_Source\PSoC4/CapSense_CSHL.c ****     *******************************************************************************/
1738:.\Generated_Source\PSoC4/CapSense_CSHL.c ****     uint16 CapSense_GetCentroidPos(uint32 widget)
1739:.\Generated_Source\PSoC4/CapSense_CSHL.c ****     {
1740:.\Generated_Source\PSoC4/CapSense_CSHL.c ****         #if (CapSense_IS_DIPLEX_SLIDER)
1741:.\Generated_Source\PSoC4/CapSense_CSHL.c ****             const uint8 *diplex;
1742:.\Generated_Source\PSoC4/CapSense_CSHL.c ****         #endif /* (CapSense_IS_DIPLEX_SLIDER) */
1743:.\Generated_Source\PSoC4/CapSense_CSHL.c **** 
1744:.\Generated_Source\PSoC4/CapSense_CSHL.c ****         #if (0u != CapSense_LINEAR_SLIDERS_POS_FILTERS_MASK)
1745:.\Generated_Source\PSoC4/CapSense_CSHL.c ****             uint8 posIndex;
1746:.\Generated_Source\PSoC4/CapSense_CSHL.c ****             uint8 firstTimeIndex = CapSense_posFiltersData[widget];
1747:.\Generated_Source\PSoC4/CapSense_CSHL.c ****             uint8 posFiltersMask = CapSense_posFiltersMask[widget];
1748:.\Generated_Source\PSoC4/CapSense_CSHL.c ****         #endif /* (0u != CapSense_LINEAR_SLIDERS_POS_FILTERS_MASK) */
1749:.\Generated_Source\PSoC4/CapSense_CSHL.c **** 
1750:.\Generated_Source\PSoC4/CapSense_CSHL.c ****         #if ((0u != (CapSense_MEDIAN_FILTER & CapSense_LINEAR_SLIDERS_POS_FILTERS_MASK)) || \
1751:.\Generated_Source\PSoC4/CapSense_CSHL.c ****              (0u != (CapSense_AVERAGING_FILTER & CapSense_LINEAR_SLIDERS_POS_FILTERS_MASK)))
1752:.\Generated_Source\PSoC4/CapSense_CSHL.c ****             uint8 tempPos;
1753:.\Generated_Source\PSoC4/CapSense_CSHL.c ****         #endif /* ((0u != (CapSense_MEDIAN_FILTER & CapSense_LINEAR_SLIDERS_POS_FILTERS_MASK)) || \
ARM GAS  C:\Users\mlgjmoor\AppData\Local\Temp\cccG5TSt.s 			page 48


1754:.\Generated_Source\PSoC4/CapSense_CSHL.c ****                *   (0u != (CapSense_AVERAGING_FILTER & CapSense_LINEAR_SLIDERS_POS_FILTERS_MASK)))
1755:.\Generated_Source\PSoC4/CapSense_CSHL.c ****                */
1756:.\Generated_Source\PSoC4/CapSense_CSHL.c **** 
1757:.\Generated_Source\PSoC4/CapSense_CSHL.c ****         uint8 maximum;
1758:.\Generated_Source\PSoC4/CapSense_CSHL.c ****         uint16 position;
1759:.\Generated_Source\PSoC4/CapSense_CSHL.c ****         uint8 offset = CapSense_rawDataIndex[widget];
1760:.\Generated_Source\PSoC4/CapSense_CSHL.c ****         uint8 count = CapSense_numberOfSensors[widget];
1761:.\Generated_Source\PSoC4/CapSense_CSHL.c **** 
1762:.\Generated_Source\PSoC4/CapSense_CSHL.c ****         #if (CapSense_IS_DIPLEX_SLIDER)
1763:.\Generated_Source\PSoC4/CapSense_CSHL.c ****             if(widget < CapSense_TOTAL_DIPLEXED_SLIDERS_COUNT)
1764:.\Generated_Source\PSoC4/CapSense_CSHL.c ****             {
1765:.\Generated_Source\PSoC4/CapSense_CSHL.c ****                 maximum = CapSense_diplexTable[widget];
1766:.\Generated_Source\PSoC4/CapSense_CSHL.c ****                 diplex = &CapSense_diplexTable[maximum];
1767:.\Generated_Source\PSoC4/CapSense_CSHL.c ****             }
1768:.\Generated_Source\PSoC4/CapSense_CSHL.c ****             else
1769:.\Generated_Source\PSoC4/CapSense_CSHL.c ****             {
1770:.\Generated_Source\PSoC4/CapSense_CSHL.c ****                 diplex = 0u;
1771:.\Generated_Source\PSoC4/CapSense_CSHL.c ****             }
1772:.\Generated_Source\PSoC4/CapSense_CSHL.c ****         #endif /* (CapSense_IS_DIPLEX_SLIDER) */
1773:.\Generated_Source\PSoC4/CapSense_CSHL.c **** 
1774:.\Generated_Source\PSoC4/CapSense_CSHL.c ****         /* Find Maximum within centroid */
1775:.\Generated_Source\PSoC4/CapSense_CSHL.c ****         #if (CapSense_IS_DIPLEX_SLIDER)
1776:.\Generated_Source\PSoC4/CapSense_CSHL.c ****             maximum = CapSense_FindMaximum(offset, count, (uint8)CapSense_fingerThreshold[widget], 
1777:.\Generated_Source\PSoC4/CapSense_CSHL.c ****         #else
1778:.\Generated_Source\PSoC4/CapSense_CSHL.c ****             maximum = CapSense_FindMaximum(offset, count, (uint8)CapSense_fingerThreshold[widget]);
1779:.\Generated_Source\PSoC4/CapSense_CSHL.c ****         #endif /* (CapSense_IS_DIPLEX_SLIDER) */
1780:.\Generated_Source\PSoC4/CapSense_CSHL.c **** 
1781:.\Generated_Source\PSoC4/CapSense_CSHL.c ****         if (maximum != 0xFFu)
1782:.\Generated_Source\PSoC4/CapSense_CSHL.c ****         {
1783:.\Generated_Source\PSoC4/CapSense_CSHL.c ****             /* Calculate centroid */
1784:.\Generated_Source\PSoC4/CapSense_CSHL.c ****             position = (uint16) CapSense_CalcCentroid(maximum,
1785:.\Generated_Source\PSoC4/CapSense_CSHL.c ****                          offset, count, CapSense_centroidMult[widget], CapSense_noiseThreshold[widg
1786:.\Generated_Source\PSoC4/CapSense_CSHL.c **** 
1787:.\Generated_Source\PSoC4/CapSense_CSHL.c ****             #if (0u != CapSense_LINEAR_SLIDERS_POS_FILTERS_MASK)
1788:.\Generated_Source\PSoC4/CapSense_CSHL.c ****                 /* Check if this linear slider has enabled filters */
1789:.\Generated_Source\PSoC4/CapSense_CSHL.c ****                 if (0u != (posFiltersMask & CapSense_ANY_POS_FILTER))
1790:.\Generated_Source\PSoC4/CapSense_CSHL.c ****                 {
1791:.\Generated_Source\PSoC4/CapSense_CSHL.c ****                     /* Calculate position to store filters data */
1792:.\Generated_Source\PSoC4/CapSense_CSHL.c ****                     posIndex  = firstTimeIndex + 1u;
1793:.\Generated_Source\PSoC4/CapSense_CSHL.c **** 
1794:.\Generated_Source\PSoC4/CapSense_CSHL.c ****                     if (0u == CapSense_posFiltersData[firstTimeIndex])
1795:.\Generated_Source\PSoC4/CapSense_CSHL.c ****                     {
1796:.\Generated_Source\PSoC4/CapSense_CSHL.c ****                         /* Init filters */
1797:.\Generated_Source\PSoC4/CapSense_CSHL.c ****                         CapSense_posFiltersData[posIndex] = (uint8) position;
1798:.\Generated_Source\PSoC4/CapSense_CSHL.c ****                         #if ((0u != (CapSense_MEDIAN_FILTER & \
1799:.\Generated_Source\PSoC4/CapSense_CSHL.c ****                                      CapSense_LINEAR_SLIDERS_POS_FILTERS_MASK)) || \
1800:.\Generated_Source\PSoC4/CapSense_CSHL.c ****                              (0u != (CapSense_AVERAGING_FILTER & \
1801:.\Generated_Source\PSoC4/CapSense_CSHL.c ****                                      CapSense_LINEAR_SLIDERS_POS_FILTERS_MASK)))
1802:.\Generated_Source\PSoC4/CapSense_CSHL.c **** 
1803:.\Generated_Source\PSoC4/CapSense_CSHL.c ****                             if ( (0u != (posFiltersMask & CapSense_MEDIAN_FILTER)) ||
1804:.\Generated_Source\PSoC4/CapSense_CSHL.c ****                                  (0u != (posFiltersMask & CapSense_AVERAGING_FILTER)) )
1805:.\Generated_Source\PSoC4/CapSense_CSHL.c ****                             {
1806:.\Generated_Source\PSoC4/CapSense_CSHL.c ****                                 CapSense_posFiltersData[posIndex + 1u] = (uint8) position;
1807:.\Generated_Source\PSoC4/CapSense_CSHL.c ****                             }
1808:.\Generated_Source\PSoC4/CapSense_CSHL.c ****                         #endif /* ((0u != (CapSense_MEDIAN_FILTER & \
1809:.\Generated_Source\PSoC4/CapSense_CSHL.c ****                                *           CapSense_LINEAR_SLIDERS_POS_FILTERS_MASK)) || \
1810:.\Generated_Source\PSoC4/CapSense_CSHL.c ****                                *   (0u != (CapSense_AVERAGING_FILTER & \
ARM GAS  C:\Users\mlgjmoor\AppData\Local\Temp\cccG5TSt.s 			page 49


1811:.\Generated_Source\PSoC4/CapSense_CSHL.c ****                                *           CapSense_LINEAR_SLIDERS_POS_FILTERS_MASK)))
1812:.\Generated_Source\PSoC4/CapSense_CSHL.c ****                                */
1813:.\Generated_Source\PSoC4/CapSense_CSHL.c **** 
1814:.\Generated_Source\PSoC4/CapSense_CSHL.c ****                         CapSense_posFiltersData[firstTimeIndex] = 1u;
1815:.\Generated_Source\PSoC4/CapSense_CSHL.c ****                     }
1816:.\Generated_Source\PSoC4/CapSense_CSHL.c ****                     else
1817:.\Generated_Source\PSoC4/CapSense_CSHL.c ****                     {
1818:.\Generated_Source\PSoC4/CapSense_CSHL.c ****                         /* Do filtering */
1819:.\Generated_Source\PSoC4/CapSense_CSHL.c ****                         #if (0u != (CapSense_MEDIAN_FILTER & CapSense_LINEAR_SLIDERS_POS_FILTERS_MA
1820:.\Generated_Source\PSoC4/CapSense_CSHL.c ****                             if (0u != (posFiltersMask & CapSense_MEDIAN_FILTER))
1821:.\Generated_Source\PSoC4/CapSense_CSHL.c ****                             {
1822:.\Generated_Source\PSoC4/CapSense_CSHL.c ****                                 tempPos = (uint8) position;
1823:.\Generated_Source\PSoC4/CapSense_CSHL.c ****                                 position = CapSense_MedianFilter(position,
1824:.\Generated_Source\PSoC4/CapSense_CSHL.c ****                                                                 (uint16)CapSense_posFiltersData[pos
1825:.\Generated_Source\PSoC4/CapSense_CSHL.c ****                                                                 (uint16)CapSense_posFiltersData[pos
1826:.\Generated_Source\PSoC4/CapSense_CSHL.c ****                                 CapSense_posFiltersData[posIndex + 1u] =
1827:.\Generated_Source\PSoC4/CapSense_CSHL.c ****                                                                              CapSense_posFiltersDat
1828:.\Generated_Source\PSoC4/CapSense_CSHL.c ****                                 CapSense_posFiltersData[posIndex] = tempPos;
1829:.\Generated_Source\PSoC4/CapSense_CSHL.c ****                             }
1830:.\Generated_Source\PSoC4/CapSense_CSHL.c ****                         #endif /*(0u != (CapSense_MEDIAN_FILTER &
1831:.\Generated_Source\PSoC4/CapSense_CSHL.c ****                                *         CapSense_LINEAR_SLIDERS_POS_FILTERS_MASK))
1832:.\Generated_Source\PSoC4/CapSense_CSHL.c ****                                */
1833:.\Generated_Source\PSoC4/CapSense_CSHL.c **** 
1834:.\Generated_Source\PSoC4/CapSense_CSHL.c ****                         #if(0u!=(CapSense_AVERAGING_FILTER & CapSense_LINEAR_SLIDERS_POS_FILTERS_MA
1835:.\Generated_Source\PSoC4/CapSense_CSHL.c ****                             if (0u != (posFiltersMask & CapSense_AVERAGING_FILTER))
1836:.\Generated_Source\PSoC4/CapSense_CSHL.c ****                             {
1837:.\Generated_Source\PSoC4/CapSense_CSHL.c ****                                 tempPos = (uint8) position;
1838:.\Generated_Source\PSoC4/CapSense_CSHL.c ****                                 position = CapSense_AveragingFilter(position,
1839:.\Generated_Source\PSoC4/CapSense_CSHL.c ****                                                                 (uint16)CapSense_posFiltersData[pos
1840:.\Generated_Source\PSoC4/CapSense_CSHL.c ****                                                                 (uint16)CapSense_posFiltersData[pos
1841:.\Generated_Source\PSoC4/CapSense_CSHL.c ****                                 CapSense_posFiltersData[posIndex+1u]=CapSense_posFiltersData[posInd
1842:.\Generated_Source\PSoC4/CapSense_CSHL.c ****                                 CapSense_posFiltersData[posIndex] = tempPos;
1843:.\Generated_Source\PSoC4/CapSense_CSHL.c ****                             }
1844:.\Generated_Source\PSoC4/CapSense_CSHL.c ****                         #endif /* (0u != (CapSense_AVERAGING_FILTER & \
1845:.\Generated_Source\PSoC4/CapSense_CSHL.c ****                                *           CapSense_LINEAR_SLIDERS_POS_FILTERS_MASK))
1846:.\Generated_Source\PSoC4/CapSense_CSHL.c ****                                */
1847:.\Generated_Source\PSoC4/CapSense_CSHL.c **** 
1848:.\Generated_Source\PSoC4/CapSense_CSHL.c ****                         #if (0u != (CapSense_IIR2_FILTER & CapSense_LINEAR_SLIDERS_POS_FILTERS_MASK
1849:.\Generated_Source\PSoC4/CapSense_CSHL.c ****                             if (0u != (posFiltersMask & CapSense_IIR2_FILTER))
1850:.\Generated_Source\PSoC4/CapSense_CSHL.c ****                             {
1851:.\Generated_Source\PSoC4/CapSense_CSHL.c ****                                 position = CapSense_IIR2Filter(position,
1852:.\Generated_Source\PSoC4/CapSense_CSHL.c ****                                                                     (uint16)CapSense_posFiltersData
1853:.\Generated_Source\PSoC4/CapSense_CSHL.c ****                                 CapSense_posFiltersData[posIndex] = (uint8) position;
1854:.\Generated_Source\PSoC4/CapSense_CSHL.c ****                             }
1855:.\Generated_Source\PSoC4/CapSense_CSHL.c ****                         #endif /* (0u != (CapSense_IIR2_FILTER & \
1856:.\Generated_Source\PSoC4/CapSense_CSHL.c ****                                *          CapSense_LINEAR_SLIDERS_POS_FILTERS_MASK))
1857:.\Generated_Source\PSoC4/CapSense_CSHL.c ****                                */
1858:.\Generated_Source\PSoC4/CapSense_CSHL.c **** 
1859:.\Generated_Source\PSoC4/CapSense_CSHL.c ****                         #if (0u != (CapSense_IIR4_FILTER & CapSense_LINEAR_SLIDERS_POS_FILTERS_MASK
1860:.\Generated_Source\PSoC4/CapSense_CSHL.c ****                             if (0u != (posFiltersMask & CapSense_IIR4_FILTER))
1861:.\Generated_Source\PSoC4/CapSense_CSHL.c ****                             {
1862:.\Generated_Source\PSoC4/CapSense_CSHL.c ****                                 position = CapSense_IIR4Filter(position,
1863:.\Generated_Source\PSoC4/CapSense_CSHL.c ****                                                                     (uint16)CapSense_posFiltersData
1864:.\Generated_Source\PSoC4/CapSense_CSHL.c ****                                 CapSense_posFiltersData[posIndex] = (uint8) position;
1865:.\Generated_Source\PSoC4/CapSense_CSHL.c ****                             }
1866:.\Generated_Source\PSoC4/CapSense_CSHL.c ****                         #endif /* (0u != (CapSense_IIR4_FILTER & \
1867:.\Generated_Source\PSoC4/CapSense_CSHL.c ****                                *          CapSense_LINEAR_SLIDERS_POS_FILTERS_MASK))
ARM GAS  C:\Users\mlgjmoor\AppData\Local\Temp\cccG5TSt.s 			page 50


1868:.\Generated_Source\PSoC4/CapSense_CSHL.c ****                                */
1869:.\Generated_Source\PSoC4/CapSense_CSHL.c **** 
1870:.\Generated_Source\PSoC4/CapSense_CSHL.c ****                         #if (0u != (CapSense_JITTER_FILTER & CapSense_LINEAR_SLIDERS_POS_FILTERS_MA
1871:.\Generated_Source\PSoC4/CapSense_CSHL.c ****                             if (0u != (posFiltersMask & CapSense_JITTER_FILTER))
1872:.\Generated_Source\PSoC4/CapSense_CSHL.c ****                             {
1873:.\Generated_Source\PSoC4/CapSense_CSHL.c ****                                 position = CapSense_JitterFilter(position,
1874:.\Generated_Source\PSoC4/CapSense_CSHL.c ****                                                                     (uint16)CapSense_posFiltersData
1875:.\Generated_Source\PSoC4/CapSense_CSHL.c ****                                 CapSense_posFiltersData[posIndex] = (uint8) position;
1876:.\Generated_Source\PSoC4/CapSense_CSHL.c ****                             }
1877:.\Generated_Source\PSoC4/CapSense_CSHL.c ****                         #endif /* (0u != (CapSense_JITTER_FILTER & \
1878:.\Generated_Source\PSoC4/CapSense_CSHL.c ****                                *           CapSense_LINEAR_SLIDERS_POS_FILTERS_MASK))
1879:.\Generated_Source\PSoC4/CapSense_CSHL.c ****                                */
1880:.\Generated_Source\PSoC4/CapSense_CSHL.c ****                     }
1881:.\Generated_Source\PSoC4/CapSense_CSHL.c ****                 }
1882:.\Generated_Source\PSoC4/CapSense_CSHL.c ****             #endif /* (0u != CapSense_LINEAR_SLIDERS_POS_FILTERS_MASK) */
1883:.\Generated_Source\PSoC4/CapSense_CSHL.c **** 
1884:.\Generated_Source\PSoC4/CapSense_CSHL.c ****         }
1885:.\Generated_Source\PSoC4/CapSense_CSHL.c ****         else
1886:.\Generated_Source\PSoC4/CapSense_CSHL.c ****         {
1887:.\Generated_Source\PSoC4/CapSense_CSHL.c ****             /* Maximum wasn't found */
1888:.\Generated_Source\PSoC4/CapSense_CSHL.c ****             position = 0xFFFFu;
1889:.\Generated_Source\PSoC4/CapSense_CSHL.c **** 
1890:.\Generated_Source\PSoC4/CapSense_CSHL.c ****             #if(0u != CapSense_LINEAR_SLIDERS_POS_FILTERS_MASK)
1891:.\Generated_Source\PSoC4/CapSense_CSHL.c ****                 /* Reset filters */
1892:.\Generated_Source\PSoC4/CapSense_CSHL.c ****                 if(0u != (posFiltersMask & CapSense_ANY_POS_FILTER))
1893:.\Generated_Source\PSoC4/CapSense_CSHL.c ****                 {
1894:.\Generated_Source\PSoC4/CapSense_CSHL.c ****                     CapSense_posFiltersData[firstTimeIndex] = 0u;
1895:.\Generated_Source\PSoC4/CapSense_CSHL.c ****                 }
1896:.\Generated_Source\PSoC4/CapSense_CSHL.c ****             #endif /* (0u != CapSense_LINEAR_SLIDERS_POS_FILTERS_MASK) */
1897:.\Generated_Source\PSoC4/CapSense_CSHL.c ****         }
1898:.\Generated_Source\PSoC4/CapSense_CSHL.c **** 
1899:.\Generated_Source\PSoC4/CapSense_CSHL.c **** 
1900:.\Generated_Source\PSoC4/CapSense_CSHL.c ****         return (position);
1901:.\Generated_Source\PSoC4/CapSense_CSHL.c ****     }
1902:.\Generated_Source\PSoC4/CapSense_CSHL.c **** #endif /* ((CapSense_TOTAL_RADIAL_SLIDERS_COUNT > 0u) || (CapSense_TOTAL_LINEAR_SLIDERS_COUNT > 0u)
1903:.\Generated_Source\PSoC4/CapSense_CSHL.c **** 
1904:.\Generated_Source\PSoC4/CapSense_CSHL.c **** 
1905:.\Generated_Source\PSoC4/CapSense_CSHL.c **** #if((CapSense_TOTAL_RADIAL_SLIDERS_COUNT > 0u) || (CapSense_TOTAL_LINEAR_SLIDERS_COUNT > 0u))
1906:.\Generated_Source\PSoC4/CapSense_CSHL.c ****     /*******************************************************************************
1907:.\Generated_Source\PSoC4/CapSense_CSHL.c ****     * Function Name: CapSense_GetRadialCentroidPos
1908:.\Generated_Source\PSoC4/CapSense_CSHL.c ****     ********************************************************************************
1909:.\Generated_Source\PSoC4/CapSense_CSHL.c ****     *
1910:.\Generated_Source\PSoC4/CapSense_CSHL.c ****     * Summary:
1911:.\Generated_Source\PSoC4/CapSense_CSHL.c ****     *  Checks the CapSense_Signal[ ] array for a centroid within
1912:.\Generated_Source\PSoC4/CapSense_CSHL.c ****     *  a slider specified range. The centroid position is calculated according to the resolution
1913:.\Generated_Source\PSoC4/CapSense_CSHL.c ****     *  specified in the CapSense customizer. The position filters are applied to the
1914:.\Generated_Source\PSoC4/CapSense_CSHL.c ****     *  result if enabled.
1915:.\Generated_Source\PSoC4/CapSense_CSHL.c ****     *
1916:.\Generated_Source\PSoC4/CapSense_CSHL.c ****     * Parameters:
1917:.\Generated_Source\PSoC4/CapSense_CSHL.c ****     *  widget:  Widget number.
1918:.\Generated_Source\PSoC4/CapSense_CSHL.c ****     *  For every radial slider widget there are defines in this format:
1919:.\Generated_Source\PSoC4/CapSense_CSHL.c ****     *  #define CapSense_"widget_name"__RS           5
1920:.\Generated_Source\PSoC4/CapSense_CSHL.c ****     *
1921:.\Generated_Source\PSoC4/CapSense_CSHL.c ****     * Return:
1922:.\Generated_Source\PSoC4/CapSense_CSHL.c ****     *  Returns a position value of the radial slider.
1923:.\Generated_Source\PSoC4/CapSense_CSHL.c ****     *
1924:.\Generated_Source\PSoC4/CapSense_CSHL.c ****     * Global Variables:
ARM GAS  C:\Users\mlgjmoor\AppData\Local\Temp\cccG5TSt.s 			page 51


1925:.\Generated_Source\PSoC4/CapSense_CSHL.c ****     *  None.
1926:.\Generated_Source\PSoC4/CapSense_CSHL.c ****     *
1927:.\Generated_Source\PSoC4/CapSense_CSHL.c ****     * Side Effects:
1928:.\Generated_Source\PSoC4/CapSense_CSHL.c ****     *  If any sensor within the slider widget is active, the function returns values
1929:.\Generated_Source\PSoC4/CapSense_CSHL.c ****     *  from zero to the API resolution value set in the CapSense customizer. If no
1930:.\Generated_Source\PSoC4/CapSense_CSHL.c ****     *  sensors are active, the function returns 0xFFFF.
1931:.\Generated_Source\PSoC4/CapSense_CSHL.c ****     *  There are no checks of the widget type argument provided to this function.
1932:.\Generated_Source\PSoC4/CapSense_CSHL.c ****     *  The unproper widget type provided will cause unexpected position calculations.
1933:.\Generated_Source\PSoC4/CapSense_CSHL.c ****     *
1934:.\Generated_Source\PSoC4/CapSense_CSHL.c ****     * Note:
1935:.\Generated_Source\PSoC4/CapSense_CSHL.c ****     *  If noise counts on the slider segments are greater than the noise
1936:.\Generated_Source\PSoC4/CapSense_CSHL.c ****     *  threshold, this subroutine may generate a false centroid result. The noise
1937:.\Generated_Source\PSoC4/CapSense_CSHL.c ****     *  threshold should be set carefully (high enough above the noise level) so
1938:.\Generated_Source\PSoC4/CapSense_CSHL.c ****     *  that noise will not generate a false centroid.
1939:.\Generated_Source\PSoC4/CapSense_CSHL.c ****     *
1940:.\Generated_Source\PSoC4/CapSense_CSHL.c ****     *******************************************************************************/
1941:.\Generated_Source\PSoC4/CapSense_CSHL.c ****      uint16 CapSense_GetRadialCentroidPos(uint32 widget)
1942:.\Generated_Source\PSoC4/CapSense_CSHL.c ****     {
1943:.\Generated_Source\PSoC4/CapSense_CSHL.c ****         #if (0u != CapSense_RADIAL_SLIDERS_POS_FILTERS_MASK)
1944:.\Generated_Source\PSoC4/CapSense_CSHL.c ****             uint8 posIndex;
1945:.\Generated_Source\PSoC4/CapSense_CSHL.c ****             uint8 firstTimeIndex = CapSense_posFiltersData[widget];
1946:.\Generated_Source\PSoC4/CapSense_CSHL.c ****             uint8 posFiltersMask = CapSense_posFiltersMask[widget];
1947:.\Generated_Source\PSoC4/CapSense_CSHL.c ****         #endif /* (0u != CapSense_RADIAL_SLIDERS_POS_FILTERS_MASK) */
1948:.\Generated_Source\PSoC4/CapSense_CSHL.c **** 
1949:.\Generated_Source\PSoC4/CapSense_CSHL.c ****         #if ((0u != (CapSense_MEDIAN_FILTER & CapSense_RADIAL_SLIDERS_POS_FILTERS_MASK)) || \
1950:.\Generated_Source\PSoC4/CapSense_CSHL.c ****              (0u != (CapSense_AVERAGING_FILTER & CapSense_RADIAL_SLIDERS_POS_FILTERS_MASK)))
1951:.\Generated_Source\PSoC4/CapSense_CSHL.c ****             uint8 tempPos;
1952:.\Generated_Source\PSoC4/CapSense_CSHL.c ****         #endif /* ((0u != (CapSense_MEDIAN_FILTER & CapSense_RADIAL_SLIDERS_POS_FILTERS_MASK)) || \
1953:.\Generated_Source\PSoC4/CapSense_CSHL.c ****                *   (0u != (CapSense_AVERAGING_FILTER & CapSense_RADIAL_SLIDERS_POS_FILTERS_MASK)))
1954:.\Generated_Source\PSoC4/CapSense_CSHL.c ****                */
1955:.\Generated_Source\PSoC4/CapSense_CSHL.c **** 
1956:.\Generated_Source\PSoC4/CapSense_CSHL.c ****         uint8 maximum;
1957:.\Generated_Source\PSoC4/CapSense_CSHL.c ****         uint16 position;
1958:.\Generated_Source\PSoC4/CapSense_CSHL.c ****         uint8 offset = CapSense_rawDataIndex[widget];
1959:.\Generated_Source\PSoC4/CapSense_CSHL.c ****         uint8 count = CapSense_numberOfSensors[widget];
1960:.\Generated_Source\PSoC4/CapSense_CSHL.c **** 
1961:.\Generated_Source\PSoC4/CapSense_CSHL.c ****         /* Find Maximum within centroid */
1962:.\Generated_Source\PSoC4/CapSense_CSHL.c ****         #if (CapSense_IS_DIPLEX_SLIDER)
1963:.\Generated_Source\PSoC4/CapSense_CSHL.c ****             maximum = CapSense_FindMaximum(offset, count, (uint8)CapSense_fingerThreshold[widget], 
1964:.\Generated_Source\PSoC4/CapSense_CSHL.c ****         #else
1965:.\Generated_Source\PSoC4/CapSense_CSHL.c ****             maximum = CapSense_FindMaximum(offset, count, (uint8)CapSense_fingerThreshold[widget]);
1966:.\Generated_Source\PSoC4/CapSense_CSHL.c ****         #endif /* (CapSense_IS_DIPLEX_SLIDER) */
1967:.\Generated_Source\PSoC4/CapSense_CSHL.c **** 
1968:.\Generated_Source\PSoC4/CapSense_CSHL.c ****         if (maximum != CapSense_MAXIMUM_CENTROID)
1969:.\Generated_Source\PSoC4/CapSense_CSHL.c ****         {
1970:.\Generated_Source\PSoC4/CapSense_CSHL.c ****             /* Calculate centroid */
1971:.\Generated_Source\PSoC4/CapSense_CSHL.c ****             position = (uint16) CapSense_CalcCentroid(maximum,
1972:.\Generated_Source\PSoC4/CapSense_CSHL.c ****                          offset, count, CapSense_centroidMult[widget], CapSense_noiseThreshold[widg
1973:.\Generated_Source\PSoC4/CapSense_CSHL.c **** 
1974:.\Generated_Source\PSoC4/CapSense_CSHL.c ****             #if (0u != CapSense_RADIAL_SLIDERS_POS_FILTERS_MASK)
1975:.\Generated_Source\PSoC4/CapSense_CSHL.c ****                 /* Check if this Radial slider has enabled filters */
1976:.\Generated_Source\PSoC4/CapSense_CSHL.c ****                 if (0u != (posFiltersMask & CapSense_ANY_POS_FILTER))
1977:.\Generated_Source\PSoC4/CapSense_CSHL.c ****                 {
1978:.\Generated_Source\PSoC4/CapSense_CSHL.c ****                     /* Calculate position to store filters data */
1979:.\Generated_Source\PSoC4/CapSense_CSHL.c ****                     posIndex  = firstTimeIndex + 1u;
1980:.\Generated_Source\PSoC4/CapSense_CSHL.c **** 
1981:.\Generated_Source\PSoC4/CapSense_CSHL.c ****                     if (0u == CapSense_posFiltersData[firstTimeIndex])
ARM GAS  C:\Users\mlgjmoor\AppData\Local\Temp\cccG5TSt.s 			page 52


1982:.\Generated_Source\PSoC4/CapSense_CSHL.c ****                     {
1983:.\Generated_Source\PSoC4/CapSense_CSHL.c ****                         /* Init filters */
1984:.\Generated_Source\PSoC4/CapSense_CSHL.c ****                         CapSense_posFiltersData[posIndex] = (uint8) position;
1985:.\Generated_Source\PSoC4/CapSense_CSHL.c ****                         #if ((0u != (CapSense_MEDIAN_FILTER & \
1986:.\Generated_Source\PSoC4/CapSense_CSHL.c ****                                      CapSense_RADIAL_SLIDERS_POS_FILTERS_MASK)) || \
1987:.\Generated_Source\PSoC4/CapSense_CSHL.c ****                              (0u != (CapSense_AVERAGING_FILTER & \
1988:.\Generated_Source\PSoC4/CapSense_CSHL.c ****                                      CapSense_RADIAL_SLIDERS_POS_FILTERS_MASK)))
1989:.\Generated_Source\PSoC4/CapSense_CSHL.c **** 
1990:.\Generated_Source\PSoC4/CapSense_CSHL.c ****                             if ( (0u != (posFiltersMask & CapSense_MEDIAN_FILTER))  ||
1991:.\Generated_Source\PSoC4/CapSense_CSHL.c ****                                  (0u != (posFiltersMask & CapSense_AVERAGING_FILTER)) )
1992:.\Generated_Source\PSoC4/CapSense_CSHL.c ****                             {
1993:.\Generated_Source\PSoC4/CapSense_CSHL.c ****                                 CapSense_posFiltersData[posIndex + 1u] = (uint8) position;
1994:.\Generated_Source\PSoC4/CapSense_CSHL.c ****                             }
1995:.\Generated_Source\PSoC4/CapSense_CSHL.c ****                         #endif /* ((0u != (CapSense_MEDIAN_FILTER & \
1996:.\Generated_Source\PSoC4/CapSense_CSHL.c ****                                *           CapSense_RADIAL_SLIDERS_POS_FILTERS_MASK)) || \
1997:.\Generated_Source\PSoC4/CapSense_CSHL.c ****                                *   (0u != (CapSense_AVERAGING_FILTER & \
1998:.\Generated_Source\PSoC4/CapSense_CSHL.c ****                                *           CapSense_RADIAL_SLIDERS_POS_FILTERS_MASK)))
1999:.\Generated_Source\PSoC4/CapSense_CSHL.c ****                                */
2000:.\Generated_Source\PSoC4/CapSense_CSHL.c **** 
2001:.\Generated_Source\PSoC4/CapSense_CSHL.c ****                         CapSense_posFiltersData[firstTimeIndex] = 1u;
2002:.\Generated_Source\PSoC4/CapSense_CSHL.c ****                     }
2003:.\Generated_Source\PSoC4/CapSense_CSHL.c ****                     else
2004:.\Generated_Source\PSoC4/CapSense_CSHL.c ****                     {
2005:.\Generated_Source\PSoC4/CapSense_CSHL.c ****                         /* Do filtering */
2006:.\Generated_Source\PSoC4/CapSense_CSHL.c ****                         #if (0u != (CapSense_MEDIAN_FILTER & CapSense_RADIAL_SLIDERS_POS_FILTERS_MA
2007:.\Generated_Source\PSoC4/CapSense_CSHL.c ****                             if (0u != (posFiltersMask & CapSense_MEDIAN_FILTER))
2008:.\Generated_Source\PSoC4/CapSense_CSHL.c ****                             {
2009:.\Generated_Source\PSoC4/CapSense_CSHL.c ****                                 tempPos = (uint8) position;
2010:.\Generated_Source\PSoC4/CapSense_CSHL.c ****                                 position = CapSense_MedianFilter(position,
2011:.\Generated_Source\PSoC4/CapSense_CSHL.c ****                                                                         CapSense_posFiltersData[pos
2012:.\Generated_Source\PSoC4/CapSense_CSHL.c ****                                                                         CapSense_posFiltersData[pos
2013:.\Generated_Source\PSoC4/CapSense_CSHL.c ****                                 CapSense_posFiltersData[posIndex + 1u] =
2014:.\Generated_Source\PSoC4/CapSense_CSHL.c ****                                                                               CapSense_posFiltersDa
2015:.\Generated_Source\PSoC4/CapSense_CSHL.c ****                                 CapSense_posFiltersData[posIndex] = tempPos;
2016:.\Generated_Source\PSoC4/CapSense_CSHL.c ****                             }
2017:.\Generated_Source\PSoC4/CapSense_CSHL.c ****                         #endif /* (0u != (CapSense_MEDIAN_FILTER &
2018:.\Generated_Source\PSoC4/CapSense_CSHL.c ****                                *          CapSense_RADIAL_SLIDERS_POS_FILTERS_MASK))
2019:.\Generated_Source\PSoC4/CapSense_CSHL.c ****                                */
2020:.\Generated_Source\PSoC4/CapSense_CSHL.c **** 
2021:.\Generated_Source\PSoC4/CapSense_CSHL.c ****                         #if (0u != (CapSense_AVERAGING_FILTER & \
2022:.\Generated_Source\PSoC4/CapSense_CSHL.c ****                                     CapSense_RADIAL_SLIDERS_POS_FILTERS_MASK))
2023:.\Generated_Source\PSoC4/CapSense_CSHL.c ****                             if (0u != (posFiltersMask & CapSense_AVERAGING_FILTER))
2024:.\Generated_Source\PSoC4/CapSense_CSHL.c ****                             {
2025:.\Generated_Source\PSoC4/CapSense_CSHL.c ****                                 tempPos = (uint8) position;
2026:.\Generated_Source\PSoC4/CapSense_CSHL.c ****                                 position = CapSense_AveragingFilter(position,
2027:.\Generated_Source\PSoC4/CapSense_CSHL.c ****                                                                        CapSense_posFiltersData[posI
2028:.\Generated_Source\PSoC4/CapSense_CSHL.c ****                                                                        CapSense_posFiltersData[posI
2029:.\Generated_Source\PSoC4/CapSense_CSHL.c ****                                 CapSense_posFiltersData[posIndex+1u]= CapSense_posFiltersData[posIn
2030:.\Generated_Source\PSoC4/CapSense_CSHL.c ****                                 CapSense_posFiltersData[posIndex] = tempPos;
2031:.\Generated_Source\PSoC4/CapSense_CSHL.c ****                             }
2032:.\Generated_Source\PSoC4/CapSense_CSHL.c ****                         #endif /* (0u != (CapSense_AVERAGING_FILTER & \
2033:.\Generated_Source\PSoC4/CapSense_CSHL.c ****                                *          CapSense_RADIAL_SLIDERS_POS_FILTERS_MASK))
2034:.\Generated_Source\PSoC4/CapSense_CSHL.c ****                                */
2035:.\Generated_Source\PSoC4/CapSense_CSHL.c **** 
2036:.\Generated_Source\PSoC4/CapSense_CSHL.c ****                         #if (0u != (CapSense_IIR2_FILTER & CapSense_RADIAL_SLIDERS_POS_FILTERS_MASK
2037:.\Generated_Source\PSoC4/CapSense_CSHL.c ****                             if (0u != (posFiltersMask & CapSense_IIR2_FILTER))
2038:.\Generated_Source\PSoC4/CapSense_CSHL.c ****                             {
ARM GAS  C:\Users\mlgjmoor\AppData\Local\Temp\cccG5TSt.s 			page 53


2039:.\Generated_Source\PSoC4/CapSense_CSHL.c ****                                 position = CapSense_IIR2Filter(position,
2040:.\Generated_Source\PSoC4/CapSense_CSHL.c ****                                                                     (uint16)CapSense_posFiltersData
2041:.\Generated_Source\PSoC4/CapSense_CSHL.c ****                                 CapSense_posFiltersData[posIndex] = (uint8) position;
2042:.\Generated_Source\PSoC4/CapSense_CSHL.c ****                             }
2043:.\Generated_Source\PSoC4/CapSense_CSHL.c ****                         #endif /* (0u != (CapSense_IIR2_FILTER &
2044:.\Generated_Source\PSoC4/CapSense_CSHL.c ****                                *          CapSense_RADIAL_SLIDERS_POS_FILTERS_MASK))
2045:.\Generated_Source\PSoC4/CapSense_CSHL.c ****                                */
2046:.\Generated_Source\PSoC4/CapSense_CSHL.c **** 
2047:.\Generated_Source\PSoC4/CapSense_CSHL.c ****                         #if (0u != (CapSense_IIR4_FILTER & CapSense_RADIAL_SLIDERS_POS_FILTERS_MASK
2048:.\Generated_Source\PSoC4/CapSense_CSHL.c ****                             if (0u != (posFiltersMask & CapSense_IIR4_FILTER))
2049:.\Generated_Source\PSoC4/CapSense_CSHL.c ****                             {
2050:.\Generated_Source\PSoC4/CapSense_CSHL.c ****                                 position = CapSense_IIR4Filter(position,
2051:.\Generated_Source\PSoC4/CapSense_CSHL.c ****                                                                     (uint16)CapSense_posFiltersData
2052:.\Generated_Source\PSoC4/CapSense_CSHL.c ****                                 CapSense_posFiltersData[posIndex] = (uint8) position;
2053:.\Generated_Source\PSoC4/CapSense_CSHL.c ****                             }
2054:.\Generated_Source\PSoC4/CapSense_CSHL.c ****                         #endif /* (0u != (CapSense_IIR4_FILTER &
2055:.\Generated_Source\PSoC4/CapSense_CSHL.c ****                                *          CapSense_RADIAL_SLIDERS_POS_FILTERS_MASK))
2056:.\Generated_Source\PSoC4/CapSense_CSHL.c ****                                */
2057:.\Generated_Source\PSoC4/CapSense_CSHL.c **** 
2058:.\Generated_Source\PSoC4/CapSense_CSHL.c ****                         #if (0u != (CapSense_JITTER_FILTER & CapSense_RADIAL_SLIDERS_POS_FILTERS_MA
2059:.\Generated_Source\PSoC4/CapSense_CSHL.c ****                             if (0u != (posFiltersMask & CapSense_JITTER_FILTER))
2060:.\Generated_Source\PSoC4/CapSense_CSHL.c ****                             {
2061:.\Generated_Source\PSoC4/CapSense_CSHL.c ****                                 position = CapSense_JitterFilter(position,
2062:.\Generated_Source\PSoC4/CapSense_CSHL.c ****                                                                          CapSense_posFiltersData[po
2063:.\Generated_Source\PSoC4/CapSense_CSHL.c ****                                 CapSense_posFiltersData[posIndex] = (uint8) position;
2064:.\Generated_Source\PSoC4/CapSense_CSHL.c ****                             }
2065:.\Generated_Source\PSoC4/CapSense_CSHL.c ****                         #endif /* (0u != (CapSense_JITTER_FILTER &
2066:.\Generated_Source\PSoC4/CapSense_CSHL.c ****                                *           CapSense_RADIAL_SLIDERS_POS_FILTERS_MASK))
2067:.\Generated_Source\PSoC4/CapSense_CSHL.c ****                                */
2068:.\Generated_Source\PSoC4/CapSense_CSHL.c ****                     }
2069:.\Generated_Source\PSoC4/CapSense_CSHL.c ****                 }
2070:.\Generated_Source\PSoC4/CapSense_CSHL.c ****             #endif /* (0u != CapSense_RADIAL_SLIDERS_POS_FILTERS_MASK) */
2071:.\Generated_Source\PSoC4/CapSense_CSHL.c **** 
2072:.\Generated_Source\PSoC4/CapSense_CSHL.c ****         }
2073:.\Generated_Source\PSoC4/CapSense_CSHL.c ****         else
2074:.\Generated_Source\PSoC4/CapSense_CSHL.c ****         {
2075:.\Generated_Source\PSoC4/CapSense_CSHL.c ****             /* Maximum was not found */
2076:.\Generated_Source\PSoC4/CapSense_CSHL.c ****             position = 0xFFFFu;
2077:.\Generated_Source\PSoC4/CapSense_CSHL.c **** 
2078:.\Generated_Source\PSoC4/CapSense_CSHL.c ****             #if (0u != CapSense_RADIAL_SLIDERS_POS_FILTERS_MASK)
2079:.\Generated_Source\PSoC4/CapSense_CSHL.c ****                 /* Reset filters */
2080:.\Generated_Source\PSoC4/CapSense_CSHL.c ****                 if((posFiltersMask & CapSense_ANY_POS_FILTER) != 0u)
2081:.\Generated_Source\PSoC4/CapSense_CSHL.c ****                 {
2082:.\Generated_Source\PSoC4/CapSense_CSHL.c ****                     CapSense_posFiltersData[firstTimeIndex] = 0u;
2083:.\Generated_Source\PSoC4/CapSense_CSHL.c ****                 }
2084:.\Generated_Source\PSoC4/CapSense_CSHL.c ****             #endif /* (0u != CapSense_RADIAL_SLIDERS_POS_FILTERS_MASK) */
2085:.\Generated_Source\PSoC4/CapSense_CSHL.c ****         }
2086:.\Generated_Source\PSoC4/CapSense_CSHL.c **** 
2087:.\Generated_Source\PSoC4/CapSense_CSHL.c ****         return (position);
2088:.\Generated_Source\PSoC4/CapSense_CSHL.c ****     }
2089:.\Generated_Source\PSoC4/CapSense_CSHL.c **** #endif /* ((CapSense_TOTAL_RADIAL_SLIDERS_COUNT > 0u) || (CapSense_TOTAL_LINEAR_SLIDERS_COUNT > 0u)
2090:.\Generated_Source\PSoC4/CapSense_CSHL.c **** 
2091:.\Generated_Source\PSoC4/CapSense_CSHL.c **** 
2092:.\Generated_Source\PSoC4/CapSense_CSHL.c **** #if(CapSense_TOTAL_TOUCH_PADS_BASIC_COUNT > 0u)
2093:.\Generated_Source\PSoC4/CapSense_CSHL.c ****     /*******************************************************************************
2094:.\Generated_Source\PSoC4/CapSense_CSHL.c ****     * Function Name: CapSense_GetTouchCentroidPos
2095:.\Generated_Source\PSoC4/CapSense_CSHL.c ****     ********************************************************************************
ARM GAS  C:\Users\mlgjmoor\AppData\Local\Temp\cccG5TSt.s 			page 54


2096:.\Generated_Source\PSoC4/CapSense_CSHL.c ****     *
2097:.\Generated_Source\PSoC4/CapSense_CSHL.c ****     * Summary:
2098:.\Generated_Source\PSoC4/CapSense_CSHL.c ****     *  If a finger is present on a touchpad, this function calculates the X and Y
2099:.\Generated_Source\PSoC4/CapSense_CSHL.c ****     *  position of the finger by calculating the centroids within touchpad specified
2100:.\Generated_Source\PSoC4/CapSense_CSHL.c ****     *  range. The X and Y positions are calculated according to the API resolutions set in the
2101:.\Generated_Source\PSoC4/CapSense_CSHL.c ****     *  CapSense customizer. Returns 1 if a finger is on the touchpad.
2102:.\Generated_Source\PSoC4/CapSense_CSHL.c ****     *  The position filter is applied to the result if enabled.
2103:.\Generated_Source\PSoC4/CapSense_CSHL.c ****     *  This function is available only if a touch pad is defined by the CapSense
2104:.\Generated_Source\PSoC4/CapSense_CSHL.c ****     *  customizer.
2105:.\Generated_Source\PSoC4/CapSense_CSHL.c ****     *
2106:.\Generated_Source\PSoC4/CapSense_CSHL.c ****     * Parameters:
2107:.\Generated_Source\PSoC4/CapSense_CSHL.c ****     *  widget:  Widget number.
2108:.\Generated_Source\PSoC4/CapSense_CSHL.c ****     *  For every touchpad widget there are defines in this format:
2109:.\Generated_Source\PSoC4/CapSense_CSHL.c ****     *  #define CapSense_"widget_name"__TP            5
2110:.\Generated_Source\PSoC4/CapSense_CSHL.c ****     *
2111:.\Generated_Source\PSoC4/CapSense_CSHL.c ****     *  pos:     Pointer to the array of two uint16 elements, where result
2112:.\Generated_Source\PSoC4/CapSense_CSHL.c ****     *  result of calculation of X and Y position are stored.
2113:.\Generated_Source\PSoC4/CapSense_CSHL.c ****     *  pos[0u]  - position of X
2114:.\Generated_Source\PSoC4/CapSense_CSHL.c ****     *  pos[1u]  - position of Y
2115:.\Generated_Source\PSoC4/CapSense_CSHL.c ****     *
2116:.\Generated_Source\PSoC4/CapSense_CSHL.c ****     * Return:
2117:.\Generated_Source\PSoC4/CapSense_CSHL.c ****     *  Returns a 1 if a finger is on the touch pad, 0 - if not.
2118:.\Generated_Source\PSoC4/CapSense_CSHL.c ****     *
2119:.\Generated_Source\PSoC4/CapSense_CSHL.c ****     * Global Variables:
2120:.\Generated_Source\PSoC4/CapSense_CSHL.c ****     *  None.
2121:.\Generated_Source\PSoC4/CapSense_CSHL.c ****     *
2122:.\Generated_Source\PSoC4/CapSense_CSHL.c ****     * Side Effects:
2123:.\Generated_Source\PSoC4/CapSense_CSHL.c ****     *   There are no checks of the widget type argument provided to this function.
2124:.\Generated_Source\PSoC4/CapSense_CSHL.c ****     *   The unproper widget type provided will cause unexpected position
2125:.\Generated_Source\PSoC4/CapSense_CSHL.c ****     *   calculations.
2126:.\Generated_Source\PSoC4/CapSense_CSHL.c ****     *
2127:.\Generated_Source\PSoC4/CapSense_CSHL.c ****     *******************************************************************************/
2128:.\Generated_Source\PSoC4/CapSense_CSHL.c ****     uint32 CapSense_GetTouchCentroidPos(uint32 widget, uint16* pos)
2129:.\Generated_Source\PSoC4/CapSense_CSHL.c ****     {
2130:.\Generated_Source\PSoC4/CapSense_CSHL.c ****         #if (0u != CapSense_TOUCH_PADS_POS_FILTERS_MASK)
2131:.\Generated_Source\PSoC4/CapSense_CSHL.c ****             uint8 posXIndex;
2132:.\Generated_Source\PSoC4/CapSense_CSHL.c ****             uint8 posYIndex;
2133:.\Generated_Source\PSoC4/CapSense_CSHL.c ****             uint8 firstTimeIndex = CapSense_posFiltersData[widget];
2134:.\Generated_Source\PSoC4/CapSense_CSHL.c ****             uint8 posFiltersMask = CapSense_posFiltersMask[widget];
2135:.\Generated_Source\PSoC4/CapSense_CSHL.c ****         #endif /* (0u != CapSense_TOUCH_PADS_POS_FILTERS_MASK) */
2136:.\Generated_Source\PSoC4/CapSense_CSHL.c **** 
2137:.\Generated_Source\PSoC4/CapSense_CSHL.c ****         #if ((0u != (CapSense_MEDIAN_FILTER & CapSense_TOUCH_PADS_POS_FILTERS_MASK)) || \
2138:.\Generated_Source\PSoC4/CapSense_CSHL.c ****              (0u != (CapSense_AVERAGING_FILTER & CapSense_TOUCH_PADS_POS_FILTERS_MASK)))
2139:.\Generated_Source\PSoC4/CapSense_CSHL.c ****             uint16 tempPos;
2140:.\Generated_Source\PSoC4/CapSense_CSHL.c ****         #endif /* ((0u != (CapSense_MEDIAN_FILTER & CapSense_TOUCH_PADS_POS_FILTERS_MASK)) || \
2141:.\Generated_Source\PSoC4/CapSense_CSHL.c ****                *   (0u != (CapSense_AVERAGING_FILTER & CapSense_TOUCH_PADS_POS_FILTERS_MASK)))
2142:.\Generated_Source\PSoC4/CapSense_CSHL.c ****                */
2143:.\Generated_Source\PSoC4/CapSense_CSHL.c **** 
2144:.\Generated_Source\PSoC4/CapSense_CSHL.c ****         uint8 MaxX;
2145:.\Generated_Source\PSoC4/CapSense_CSHL.c ****         uint8 MaxY;
2146:.\Generated_Source\PSoC4/CapSense_CSHL.c ****         uint8 posX;
2147:.\Generated_Source\PSoC4/CapSense_CSHL.c ****         uint8 posY;
2148:.\Generated_Source\PSoC4/CapSense_CSHL.c ****         uint32 touch = 0u;
2149:.\Generated_Source\PSoC4/CapSense_CSHL.c ****         uint8 offset = CapSense_rawDataIndex[widget];
2150:.\Generated_Source\PSoC4/CapSense_CSHL.c ****         uint8 count = CapSense_numberOfSensors[widget];
2151:.\Generated_Source\PSoC4/CapSense_CSHL.c **** 
2152:.\Generated_Source\PSoC4/CapSense_CSHL.c ****         /* Find Maximum within X centroid */
ARM GAS  C:\Users\mlgjmoor\AppData\Local\Temp\cccG5TSt.s 			page 55


2153:.\Generated_Source\PSoC4/CapSense_CSHL.c ****         #if (CapSense_IS_DIPLEX_SLIDER)
2154:.\Generated_Source\PSoC4/CapSense_CSHL.c ****             MaxX = CapSense_FindMaximum(offset, count, CapSense_fingerThreshold[widget], 0u);
2155:.\Generated_Source\PSoC4/CapSense_CSHL.c ****         #else
2156:.\Generated_Source\PSoC4/CapSense_CSHL.c ****             MaxX = CapSense_FindMaximum(offset, count, CapSense_fingerThreshold[widget]);
2157:.\Generated_Source\PSoC4/CapSense_CSHL.c ****         #endif /* (CapSense_IS_DIPLEX_SLIDER) */
2158:.\Generated_Source\PSoC4/CapSense_CSHL.c **** 
2159:.\Generated_Source\PSoC4/CapSense_CSHL.c ****         if (MaxX != CapSense_MAXIMUM_CENTROID)
2160:.\Generated_Source\PSoC4/CapSense_CSHL.c ****         {
2161:.\Generated_Source\PSoC4/CapSense_CSHL.c ****             offset = CapSense_rawDataIndex[widget + 1u];
2162:.\Generated_Source\PSoC4/CapSense_CSHL.c ****             count = CapSense_numberOfSensors[widget + 1u];
2163:.\Generated_Source\PSoC4/CapSense_CSHL.c **** 
2164:.\Generated_Source\PSoC4/CapSense_CSHL.c ****             /* Find Maximum within Y centroid */
2165:.\Generated_Source\PSoC4/CapSense_CSHL.c ****             #if (CapSense_IS_DIPLEX_SLIDER)
2166:.\Generated_Source\PSoC4/CapSense_CSHL.c ****                 MaxY = CapSense_FindMaximum(offset, count, CapSense_fingerThreshold[widget + 1u], 0
2167:.\Generated_Source\PSoC4/CapSense_CSHL.c ****             #else
2168:.\Generated_Source\PSoC4/CapSense_CSHL.c ****                 MaxY = CapSense_FindMaximum(offset, count, CapSense_fingerThreshold[widget + 1u]);
2169:.\Generated_Source\PSoC4/CapSense_CSHL.c ****             #endif /* (CapSense_IS_DIPLEX_SLIDER) */
2170:.\Generated_Source\PSoC4/CapSense_CSHL.c **** 
2171:.\Generated_Source\PSoC4/CapSense_CSHL.c ****             if (MaxY != CapSense_MAXIMUM_CENTROID)
2172:.\Generated_Source\PSoC4/CapSense_CSHL.c ****             {
2173:.\Generated_Source\PSoC4/CapSense_CSHL.c ****                 /* X and Y maximums are found = true touch */
2174:.\Generated_Source\PSoC4/CapSense_CSHL.c ****                 touch = 1u;
2175:.\Generated_Source\PSoC4/CapSense_CSHL.c **** 
2176:.\Generated_Source\PSoC4/CapSense_CSHL.c ****                 /* Calculate Y centroid */
2177:.\Generated_Source\PSoC4/CapSense_CSHL.c ****                 posY = CapSense_CalcCentroid(MaxY, offset, count,
2178:.\Generated_Source\PSoC4/CapSense_CSHL.c ****                             CapSense_centroidMult[widget + 1u], CapSense_noiseThreshold[widget + 1u
2179:.\Generated_Source\PSoC4/CapSense_CSHL.c **** 
2180:.\Generated_Source\PSoC4/CapSense_CSHL.c ****                 /* Calculate X centroid */
2181:.\Generated_Source\PSoC4/CapSense_CSHL.c ****                 offset = CapSense_rawDataIndex[widget];
2182:.\Generated_Source\PSoC4/CapSense_CSHL.c ****                 count = CapSense_numberOfSensors[widget];
2183:.\Generated_Source\PSoC4/CapSense_CSHL.c **** 
2184:.\Generated_Source\PSoC4/CapSense_CSHL.c ****                 posX = CapSense_CalcCentroid(MaxX, offset, count,
2185:.\Generated_Source\PSoC4/CapSense_CSHL.c ****                             CapSense_centroidMult[widget],CapSense_noiseThreshold[widget]);
2186:.\Generated_Source\PSoC4/CapSense_CSHL.c **** 
2187:.\Generated_Source\PSoC4/CapSense_CSHL.c ****                 #if (0u != CapSense_TOUCH_PADS_POS_FILTERS_MASK)
2188:.\Generated_Source\PSoC4/CapSense_CSHL.c ****                     /* Check if this TP has enabled filters */
2189:.\Generated_Source\PSoC4/CapSense_CSHL.c ****                     if (0u != (posFiltersMask & CapSense_ANY_POS_FILTER))
2190:.\Generated_Source\PSoC4/CapSense_CSHL.c ****                     {
2191:.\Generated_Source\PSoC4/CapSense_CSHL.c ****                         /* Calculate position to store filters data */
2192:.\Generated_Source\PSoC4/CapSense_CSHL.c ****                         posXIndex  = firstTimeIndex + 1u;
2193:.\Generated_Source\PSoC4/CapSense_CSHL.c ****                         posYIndex  = CapSense_posFiltersData[widget + 1u];
2194:.\Generated_Source\PSoC4/CapSense_CSHL.c **** 
2195:.\Generated_Source\PSoC4/CapSense_CSHL.c ****                         if (0u == CapSense_posFiltersData[firstTimeIndex])
2196:.\Generated_Source\PSoC4/CapSense_CSHL.c ****                         {
2197:.\Generated_Source\PSoC4/CapSense_CSHL.c ****                             /* Init filters */
2198:.\Generated_Source\PSoC4/CapSense_CSHL.c ****                             CapSense_posFiltersData[posXIndex] = posX;
2199:.\Generated_Source\PSoC4/CapSense_CSHL.c ****                             CapSense_posFiltersData[posYIndex] = posY;
2200:.\Generated_Source\PSoC4/CapSense_CSHL.c **** 
2201:.\Generated_Source\PSoC4/CapSense_CSHL.c ****                             #if((0u != (CapSense_MEDIAN_FILTER & \
2202:.\Generated_Source\PSoC4/CapSense_CSHL.c ****                                         CapSense_TOUCH_PADS_POS_FILTERS_MASK))|| \
2203:.\Generated_Source\PSoC4/CapSense_CSHL.c ****                                 (0u != (CapSense_AVERAGING_FILTER & \
2204:.\Generated_Source\PSoC4/CapSense_CSHL.c ****                                         CapSense_TOUCH_PADS_POS_FILTERS_MASK)))
2205:.\Generated_Source\PSoC4/CapSense_CSHL.c **** 
2206:.\Generated_Source\PSoC4/CapSense_CSHL.c ****                                 if ( (0u != (posFiltersMask & CapSense_MEDIAN_FILTER)) ||
2207:.\Generated_Source\PSoC4/CapSense_CSHL.c ****                                      (0u != (posFiltersMask & CapSense_AVERAGING_FILTER)) )
2208:.\Generated_Source\PSoC4/CapSense_CSHL.c ****                                 {
2209:.\Generated_Source\PSoC4/CapSense_CSHL.c ****                                     CapSense_posFiltersData[posXIndex + 1u] = posX;
ARM GAS  C:\Users\mlgjmoor\AppData\Local\Temp\cccG5TSt.s 			page 56


2210:.\Generated_Source\PSoC4/CapSense_CSHL.c ****                                     CapSense_posFiltersData[posYIndex + 1u] = posY;
2211:.\Generated_Source\PSoC4/CapSense_CSHL.c ****                                 }
2212:.\Generated_Source\PSoC4/CapSense_CSHL.c ****                             #endif /* ((0u != (CapSense_MEDIAN_FILTER & \
2213:.\Generated_Source\PSoC4/CapSense_CSHL.c ****                                    *           CapSense_TOUCH_PADS_POS_FILTERS_MASK)) || \
2214:.\Generated_Source\PSoC4/CapSense_CSHL.c ****                                    *    (0u != (CapSense_AVERAGING_FILTER & \
2215:.\Generated_Source\PSoC4/CapSense_CSHL.c ****                                    *            CapSense_TOUCH_PADS_POS_FILTERS_MASK)))
2216:.\Generated_Source\PSoC4/CapSense_CSHL.c ****                                    */
2217:.\Generated_Source\PSoC4/CapSense_CSHL.c **** 
2218:.\Generated_Source\PSoC4/CapSense_CSHL.c ****                             CapSense_posFiltersData[firstTimeIndex] = 1u;
2219:.\Generated_Source\PSoC4/CapSense_CSHL.c ****                         }
2220:.\Generated_Source\PSoC4/CapSense_CSHL.c ****                         else
2221:.\Generated_Source\PSoC4/CapSense_CSHL.c ****                         {
2222:.\Generated_Source\PSoC4/CapSense_CSHL.c ****                             /* Do filtering */
2223:.\Generated_Source\PSoC4/CapSense_CSHL.c ****                             #if (0u != (CapSense_MEDIAN_FILTER & CapSense_TOUCH_PADS_POS_FILTERS_MA
2224:.\Generated_Source\PSoC4/CapSense_CSHL.c ****                                 if (0u != (posFiltersMask & CapSense_MEDIAN_FILTER))
2225:.\Generated_Source\PSoC4/CapSense_CSHL.c ****                                 {
2226:.\Generated_Source\PSoC4/CapSense_CSHL.c ****                                     tempPos = posX;
2227:.\Generated_Source\PSoC4/CapSense_CSHL.c ****                                     posX = (uint8) CapSense_MedianFilter(posX,
2228:.\Generated_Source\PSoC4/CapSense_CSHL.c ****                                                                       CapSense_posFiltersData[posXI
2229:.\Generated_Source\PSoC4/CapSense_CSHL.c ****                                                                       CapSense_posFiltersData[posXI
2230:.\Generated_Source\PSoC4/CapSense_CSHL.c ****                                     CapSense_posFiltersData[posXIndex + 1u] =
2231:.\Generated_Source\PSoC4/CapSense_CSHL.c ****                                                                              CapSense_posFiltersDat
2232:.\Generated_Source\PSoC4/CapSense_CSHL.c ****                                     CapSense_posFiltersData[posXIndex] = tempPos;
2233:.\Generated_Source\PSoC4/CapSense_CSHL.c **** 
2234:.\Generated_Source\PSoC4/CapSense_CSHL.c ****                                     tempPos = posY;
2235:.\Generated_Source\PSoC4/CapSense_CSHL.c ****                                     posY = (uint8) CapSense_MedianFilter(posY,
2236:.\Generated_Source\PSoC4/CapSense_CSHL.c ****                                                                        CapSense_posFiltersData[posY
2237:.\Generated_Source\PSoC4/CapSense_CSHL.c ****                                                                        CapSense_posFiltersData[posY
2238:.\Generated_Source\PSoC4/CapSense_CSHL.c ****                                     CapSense_posFiltersData[posYIndex + 1u] =
2239:.\Generated_Source\PSoC4/CapSense_CSHL.c ****                                                                              CapSense_posFiltersDat
2240:.\Generated_Source\PSoC4/CapSense_CSHL.c ****                                     CapSense_posFiltersData[posYIndex] = tempPos;
2241:.\Generated_Source\PSoC4/CapSense_CSHL.c ****                                 }
2242:.\Generated_Source\PSoC4/CapSense_CSHL.c **** 
2243:.\Generated_Source\PSoC4/CapSense_CSHL.c ****                             #endif /* (0u != (CapSense_MEDIAN_FILTER & \
2244:.\Generated_Source\PSoC4/CapSense_CSHL.c ****                                    *          CapSense_TOUCH_PADS_POS_FILTERS_MASK))
2245:.\Generated_Source\PSoC4/CapSense_CSHL.c ****                                    */
2246:.\Generated_Source\PSoC4/CapSense_CSHL.c **** 
2247:.\Generated_Source\PSoC4/CapSense_CSHL.c ****                             #if(0u !=(CapSense_AVERAGING_FILTER & CapSense_TOUCH_PADS_POS_FILTERS_M
2248:.\Generated_Source\PSoC4/CapSense_CSHL.c ****                                 if (0u != (posFiltersMask & CapSense_AVERAGING_FILTER))
2249:.\Generated_Source\PSoC4/CapSense_CSHL.c ****                                 {
2250:.\Generated_Source\PSoC4/CapSense_CSHL.c ****                                     tempPos = posX;
2251:.\Generated_Source\PSoC4/CapSense_CSHL.c ****                                     posX = (uint8) CapSense_AveragingFilter(posX,
2252:.\Generated_Source\PSoC4/CapSense_CSHL.c ****                                                                        CapSense_posFiltersData[posX
2253:.\Generated_Source\PSoC4/CapSense_CSHL.c ****                                                                        CapSense_posFiltersData[posX
2254:.\Generated_Source\PSoC4/CapSense_CSHL.c ****                                     CapSense_posFiltersData[posXIndex + 1u] =
2255:.\Generated_Source\PSoC4/CapSense_CSHL.c ****                                                                              CapSense_posFiltersDat
2256:.\Generated_Source\PSoC4/CapSense_CSHL.c ****                                     CapSense_posFiltersData[posXIndex] = tempPos;
2257:.\Generated_Source\PSoC4/CapSense_CSHL.c **** 
2258:.\Generated_Source\PSoC4/CapSense_CSHL.c ****                                     tempPos = posY;
2259:.\Generated_Source\PSoC4/CapSense_CSHL.c ****                                     posY = (uint8) CapSense_AveragingFilter(posY,
2260:.\Generated_Source\PSoC4/CapSense_CSHL.c ****                                                                       CapSense_posFiltersData[posYI
2261:.\Generated_Source\PSoC4/CapSense_CSHL.c ****                                                                       CapSense_posFiltersData[posYI
2262:.\Generated_Source\PSoC4/CapSense_CSHL.c ****                                     CapSense_posFiltersData[posYIndex + 1u] =
2263:.\Generated_Source\PSoC4/CapSense_CSHL.c ****                                                                             CapSense_posFiltersData
2264:.\Generated_Source\PSoC4/CapSense_CSHL.c ****                                     CapSense_posFiltersData[posYIndex] = tempPos;
2265:.\Generated_Source\PSoC4/CapSense_CSHL.c ****                                 }
2266:.\Generated_Source\PSoC4/CapSense_CSHL.c **** 
ARM GAS  C:\Users\mlgjmoor\AppData\Local\Temp\cccG5TSt.s 			page 57


2267:.\Generated_Source\PSoC4/CapSense_CSHL.c ****                             #endif /* (0u != (CapSense_AVERAGING_FILTER & \
2268:.\Generated_Source\PSoC4/CapSense_CSHL.c ****                                    *           CapSense_TOUCH_PADS_POS_FILTERS_MASK))
2269:.\Generated_Source\PSoC4/CapSense_CSHL.c ****                                    */
2270:.\Generated_Source\PSoC4/CapSense_CSHL.c **** 
2271:.\Generated_Source\PSoC4/CapSense_CSHL.c ****                             #if (0u != (CapSense_IIR2_FILTER & CapSense_TOUCH_PADS_POS_FILTERS_MASK
2272:.\Generated_Source\PSoC4/CapSense_CSHL.c ****                                 if (0u != (posFiltersMask & CapSense_IIR2_FILTER))
2273:.\Generated_Source\PSoC4/CapSense_CSHL.c ****                                 {
2274:.\Generated_Source\PSoC4/CapSense_CSHL.c ****                                     posX = (uint8) CapSense_IIR2Filter(posX,
2275:.\Generated_Source\PSoC4/CapSense_CSHL.c ****                                                                            CapSense_posFiltersData[
2276:.\Generated_Source\PSoC4/CapSense_CSHL.c ****                                     CapSense_posFiltersData[posXIndex] = posX;
2277:.\Generated_Source\PSoC4/CapSense_CSHL.c **** 
2278:.\Generated_Source\PSoC4/CapSense_CSHL.c ****                                     posY = (uint8) CapSense_IIR2Filter(posY,
2279:.\Generated_Source\PSoC4/CapSense_CSHL.c ****                                                                             CapSense_posFiltersData
2280:.\Generated_Source\PSoC4/CapSense_CSHL.c ****                                     CapSense_posFiltersData[posYIndex] = posY;
2281:.\Generated_Source\PSoC4/CapSense_CSHL.c ****                                 }
2282:.\Generated_Source\PSoC4/CapSense_CSHL.c **** 
2283:.\Generated_Source\PSoC4/CapSense_CSHL.c ****                             #endif /* (0u != (CapSense_IIR2_FILTER & \
2284:.\Generated_Source\PSoC4/CapSense_CSHL.c ****                                    *          CapSense_TOUCH_PADS_POS_FILTERS_MASK))
2285:.\Generated_Source\PSoC4/CapSense_CSHL.c ****                                    */
2286:.\Generated_Source\PSoC4/CapSense_CSHL.c **** 
2287:.\Generated_Source\PSoC4/CapSense_CSHL.c ****                             #if (0u != (CapSense_IIR4_FILTER & CapSense_TOUCH_PADS_POS_FILTERS_MASK
2288:.\Generated_Source\PSoC4/CapSense_CSHL.c ****                                 if (0u != (posFiltersMask & CapSense_IIR4_FILTER))
2289:.\Generated_Source\PSoC4/CapSense_CSHL.c ****                                 {
2290:.\Generated_Source\PSoC4/CapSense_CSHL.c ****                                     posX = (uint8) CapSense_IIR4Filter((uint16)posX,
2291:.\Generated_Source\PSoC4/CapSense_CSHL.c ****                                                                     (uint16)CapSense_posFiltersData
2292:.\Generated_Source\PSoC4/CapSense_CSHL.c ****                                     CapSense_posFiltersData[posXIndex] = posX;
2293:.\Generated_Source\PSoC4/CapSense_CSHL.c **** 
2294:.\Generated_Source\PSoC4/CapSense_CSHL.c ****                                     posY = (uint8) CapSense_IIR4Filter((uint16)posY,
2295:.\Generated_Source\PSoC4/CapSense_CSHL.c ****                                                                     (uint16)CapSense_posFiltersData
2296:.\Generated_Source\PSoC4/CapSense_CSHL.c ****                                     CapSense_posFiltersData[posYIndex] = posY;
2297:.\Generated_Source\PSoC4/CapSense_CSHL.c ****                                 }
2298:.\Generated_Source\PSoC4/CapSense_CSHL.c **** 
2299:.\Generated_Source\PSoC4/CapSense_CSHL.c ****                             #endif /* (0u != (CapSense_IIR4_FILTER & \
2300:.\Generated_Source\PSoC4/CapSense_CSHL.c ****                                    *           CapSense_TOUCH_PADS_POS_FILTERS_MASK))
2301:.\Generated_Source\PSoC4/CapSense_CSHL.c ****                                    */
2302:.\Generated_Source\PSoC4/CapSense_CSHL.c **** 
2303:.\Generated_Source\PSoC4/CapSense_CSHL.c ****                             #if (0u != (CapSense_JITTER_FILTER & CapSense_TOUCH_PADS_POS_FILTERS_MA
2304:.\Generated_Source\PSoC4/CapSense_CSHL.c ****                                 if (0u != (posFiltersMask & CapSense_JITTER_FILTER))
2305:.\Generated_Source\PSoC4/CapSense_CSHL.c ****                                     {
2306:.\Generated_Source\PSoC4/CapSense_CSHL.c ****                                         posX = (uint8) CapSense_JitterFilter(posX,
2307:.\Generated_Source\PSoC4/CapSense_CSHL.c ****                                                                             CapSense_posFiltersData
2308:.\Generated_Source\PSoC4/CapSense_CSHL.c ****                                         CapSense_posFiltersData[posXIndex] = posX;
2309:.\Generated_Source\PSoC4/CapSense_CSHL.c **** 
2310:.\Generated_Source\PSoC4/CapSense_CSHL.c ****                                         posY = (uint8) CapSense_JitterFilter(posY,
2311:.\Generated_Source\PSoC4/CapSense_CSHL.c ****                                                                             CapSense_posFiltersData
2312:.\Generated_Source\PSoC4/CapSense_CSHL.c ****                                         CapSense_posFiltersData[posYIndex] = posY;
2313:.\Generated_Source\PSoC4/CapSense_CSHL.c ****                                     }
2314:.\Generated_Source\PSoC4/CapSense_CSHL.c ****                             #endif /* (0u != (CapSense_JITTER_FILTER & \
2315:.\Generated_Source\PSoC4/CapSense_CSHL.c ****                                    *           CapSense_TOUCH_PADS_POS_FILTERS_MASK))
2316:.\Generated_Source\PSoC4/CapSense_CSHL.c ****                                    */
2317:.\Generated_Source\PSoC4/CapSense_CSHL.c ****                         }
2318:.\Generated_Source\PSoC4/CapSense_CSHL.c ****                     }
2319:.\Generated_Source\PSoC4/CapSense_CSHL.c ****                 #endif /* (0u != CapSense_TOUCH_PADS_POS_FILTERS_MASK) */
2320:.\Generated_Source\PSoC4/CapSense_CSHL.c **** 
2321:.\Generated_Source\PSoC4/CapSense_CSHL.c ****                 /* Save positions */
2322:.\Generated_Source\PSoC4/CapSense_CSHL.c ****                 pos[0u] = posX;
2323:.\Generated_Source\PSoC4/CapSense_CSHL.c ****                 pos[1u] = posY;
ARM GAS  C:\Users\mlgjmoor\AppData\Local\Temp\cccG5TSt.s 			page 58


2324:.\Generated_Source\PSoC4/CapSense_CSHL.c ****             }
2325:.\Generated_Source\PSoC4/CapSense_CSHL.c ****         }
2326:.\Generated_Source\PSoC4/CapSense_CSHL.c **** 
2327:.\Generated_Source\PSoC4/CapSense_CSHL.c ****         #if (0u != CapSense_TOUCH_PADS_POS_FILTERS_MASK)
2328:.\Generated_Source\PSoC4/CapSense_CSHL.c ****             if(touch == 0u)
2329:.\Generated_Source\PSoC4/CapSense_CSHL.c ****             {
2330:.\Generated_Source\PSoC4/CapSense_CSHL.c ****                 /* Reset filters */
2331:.\Generated_Source\PSoC4/CapSense_CSHL.c ****                 if ((posFiltersMask & CapSense_ANY_POS_FILTER) != 0u)
2332:.\Generated_Source\PSoC4/CapSense_CSHL.c ****                 {
2333:.\Generated_Source\PSoC4/CapSense_CSHL.c ****                     CapSense_posFiltersData[firstTimeIndex] = 0u;
2334:.\Generated_Source\PSoC4/CapSense_CSHL.c ****                 }
2335:.\Generated_Source\PSoC4/CapSense_CSHL.c ****             }
2336:.\Generated_Source\PSoC4/CapSense_CSHL.c ****         #endif /* (0u != CapSense_TOUCH_PADS_POS_FILTERS_MASK) */
2337:.\Generated_Source\PSoC4/CapSense_CSHL.c **** 
2338:.\Generated_Source\PSoC4/CapSense_CSHL.c ****         return (touch);
2339:.\Generated_Source\PSoC4/CapSense_CSHL.c ****     }
2340:.\Generated_Source\PSoC4/CapSense_CSHL.c **** #endif /* (CapSense_TOTAL_TOUCH_PADS_BASIC_COUNT > 0u) */
2341:.\Generated_Source\PSoC4/CapSense_CSHL.c **** 
2342:.\Generated_Source\PSoC4/CapSense_CSHL.c **** 
