ARM GAS  C:\Users\mlgjmoor\AppData\Local\Temp\cc3cJTlh.s 			page 1


   1              		.cpu cortex-m0
   2              		.fpu softvfp
   3              		.eabi_attribute 20, 1
   4              		.eabi_attribute 21, 1
   5              		.eabi_attribute 23, 3
   6              		.eabi_attribute 24, 1
   7              		.eabi_attribute 25, 1
   8              		.eabi_attribute 26, 1
   9              		.eabi_attribute 30, 1
  10              		.eabi_attribute 34, 0
  11              		.eabi_attribute 18, 4
  12              		.code	16
  13              		.file	"Comp_0.c"
  14              		.text
  15              	.Ltext0:
  16              		.cfi_sections	.debug_frame
  17              		.section	.text.Comp_0_Init,"ax",%progbits
  18              		.align	2
  19              		.global	Comp_0_Init
  20              		.code	16
  21              		.thumb_func
  22              		.type	Comp_0_Init, %function
  23              	Comp_0_Init:
  24              	.LFB4:
  25              		.file 1 ".\\Generated_Source\\PSoC4\\Comp_0.c"
   1:.\Generated_Source\PSoC4/Comp_0.c **** /*******************************************************************************
   2:.\Generated_Source\PSoC4/Comp_0.c **** * File Name: Comp_0.c
   3:.\Generated_Source\PSoC4/Comp_0.c **** * Version 2.20
   4:.\Generated_Source\PSoC4/Comp_0.c **** *
   5:.\Generated_Source\PSoC4/Comp_0.c **** * Description:
   6:.\Generated_Source\PSoC4/Comp_0.c **** *  This file provides the source code to the API for the Low Power Comparator
   7:.\Generated_Source\PSoC4/Comp_0.c **** *  component.
   8:.\Generated_Source\PSoC4/Comp_0.c **** *
   9:.\Generated_Source\PSoC4/Comp_0.c **** * Note:
  10:.\Generated_Source\PSoC4/Comp_0.c **** *  None
  11:.\Generated_Source\PSoC4/Comp_0.c **** *
  12:.\Generated_Source\PSoC4/Comp_0.c **** ********************************************************************************
  13:.\Generated_Source\PSoC4/Comp_0.c **** * Copyright 2013-2016, Cypress Semiconductor Corporation.  All rights reserved.
  14:.\Generated_Source\PSoC4/Comp_0.c **** * You may use this file only in accordance with the license, terms, conditions,
  15:.\Generated_Source\PSoC4/Comp_0.c **** * disclaimers, and limitations in the end user license agreement accompanying
  16:.\Generated_Source\PSoC4/Comp_0.c **** * the software package with which this file was provided.
  17:.\Generated_Source\PSoC4/Comp_0.c **** *******************************************************************************/
  18:.\Generated_Source\PSoC4/Comp_0.c **** 
  19:.\Generated_Source\PSoC4/Comp_0.c **** #include "Comp_0.h"
  20:.\Generated_Source\PSoC4/Comp_0.c **** #include "CyLib.h"
  21:.\Generated_Source\PSoC4/Comp_0.c **** #include "cyPm.h"
  22:.\Generated_Source\PSoC4/Comp_0.c **** 
  23:.\Generated_Source\PSoC4/Comp_0.c **** uint8 Comp_0_initVar = 0u;
  24:.\Generated_Source\PSoC4/Comp_0.c **** static uint32 Comp_0_internalIntr = 0u;
  25:.\Generated_Source\PSoC4/Comp_0.c **** #if(Comp_0_CY_LPCOMP_V2)
  26:.\Generated_Source\PSoC4/Comp_0.c ****     #if(CY_IP_SRSSV2)
  27:.\Generated_Source\PSoC4/Comp_0.c ****         /* This variable saves INTR_MASK register since it get reset after wakeup 
  28:.\Generated_Source\PSoC4/Comp_0.c ****         * from Hibernate. Attribute CY_NOINIT puts SRAM variable in memory section 
  29:.\Generated_Source\PSoC4/Comp_0.c ****         * which is retained in low power modes 
  30:.\Generated_Source\PSoC4/Comp_0.c ****         */
  31:.\Generated_Source\PSoC4/Comp_0.c ****         CY_NOINIT static uint32 Comp_0_intrMaskRegState;
  32:.\Generated_Source\PSoC4/Comp_0.c ****     #endif /* (CY_IP_SRSSV2) */
ARM GAS  C:\Users\mlgjmoor\AppData\Local\Temp\cc3cJTlh.s 			page 2


  33:.\Generated_Source\PSoC4/Comp_0.c **** #endif /* (Comp_0_CY_LPCOMP_V2) */
  34:.\Generated_Source\PSoC4/Comp_0.c **** 
  35:.\Generated_Source\PSoC4/Comp_0.c **** 
  36:.\Generated_Source\PSoC4/Comp_0.c **** /*******************************************************************************
  37:.\Generated_Source\PSoC4/Comp_0.c **** * Function Name: Comp_0_Start
  38:.\Generated_Source\PSoC4/Comp_0.c **** ********************************************************************************
  39:.\Generated_Source\PSoC4/Comp_0.c **** *
  40:.\Generated_Source\PSoC4/Comp_0.c **** * Summary:
  41:.\Generated_Source\PSoC4/Comp_0.c **** *  Performs all of the required initialization for the component and enables
  42:.\Generated_Source\PSoC4/Comp_0.c **** *  power to the block. The first time the routine is executed, the component is
  43:.\Generated_Source\PSoC4/Comp_0.c **** *  initialized to the configuration from the customizer. When called to restart
  44:.\Generated_Source\PSoC4/Comp_0.c **** *  the comparator following a Comp_0_Stop() call, the current
  45:.\Generated_Source\PSoC4/Comp_0.c **** *  component parameter settings are retained.
  46:.\Generated_Source\PSoC4/Comp_0.c **** *
  47:.\Generated_Source\PSoC4/Comp_0.c **** * Parameters:
  48:.\Generated_Source\PSoC4/Comp_0.c **** *   None
  49:.\Generated_Source\PSoC4/Comp_0.c **** *
  50:.\Generated_Source\PSoC4/Comp_0.c **** * Return:
  51:.\Generated_Source\PSoC4/Comp_0.c **** *  None
  52:.\Generated_Source\PSoC4/Comp_0.c **** *
  53:.\Generated_Source\PSoC4/Comp_0.c **** * Global variables:
  54:.\Generated_Source\PSoC4/Comp_0.c **** *  Comp_0_initVar: Is modified when this function is called for the
  55:.\Generated_Source\PSoC4/Comp_0.c **** *   first time. Is used to ensure that initialization happens only once.
  56:.\Generated_Source\PSoC4/Comp_0.c **** *
  57:.\Generated_Source\PSoC4/Comp_0.c **** *******************************************************************************/
  58:.\Generated_Source\PSoC4/Comp_0.c **** void Comp_0_Start(void)
  59:.\Generated_Source\PSoC4/Comp_0.c **** {
  60:.\Generated_Source\PSoC4/Comp_0.c ****     if(0u == Comp_0_initVar)
  61:.\Generated_Source\PSoC4/Comp_0.c ****     {
  62:.\Generated_Source\PSoC4/Comp_0.c ****         Comp_0_Init();
  63:.\Generated_Source\PSoC4/Comp_0.c ****         Comp_0_initVar = 1u;
  64:.\Generated_Source\PSoC4/Comp_0.c ****     }
  65:.\Generated_Source\PSoC4/Comp_0.c ****     Comp_0_Enable();
  66:.\Generated_Source\PSoC4/Comp_0.c **** }
  67:.\Generated_Source\PSoC4/Comp_0.c **** 
  68:.\Generated_Source\PSoC4/Comp_0.c **** 
  69:.\Generated_Source\PSoC4/Comp_0.c **** /*******************************************************************************
  70:.\Generated_Source\PSoC4/Comp_0.c **** * Function Name: Comp_0_Init
  71:.\Generated_Source\PSoC4/Comp_0.c **** ********************************************************************************
  72:.\Generated_Source\PSoC4/Comp_0.c **** *
  73:.\Generated_Source\PSoC4/Comp_0.c **** * Summary:
  74:.\Generated_Source\PSoC4/Comp_0.c **** *  Initializes or restores the component according to the customizer settings.
  75:.\Generated_Source\PSoC4/Comp_0.c **** *  It is not necessary to call Comp_0_Init() because the
  76:.\Generated_Source\PSoC4/Comp_0.c **** *  Comp_0_Start() API calls this function and is the preferred method
  77:.\Generated_Source\PSoC4/Comp_0.c **** *  to begin component operation.
  78:.\Generated_Source\PSoC4/Comp_0.c **** *
  79:.\Generated_Source\PSoC4/Comp_0.c **** * Parameters:
  80:.\Generated_Source\PSoC4/Comp_0.c **** *  None
  81:.\Generated_Source\PSoC4/Comp_0.c **** *
  82:.\Generated_Source\PSoC4/Comp_0.c **** * Return:
  83:.\Generated_Source\PSoC4/Comp_0.c **** *  None
  84:.\Generated_Source\PSoC4/Comp_0.c **** *
  85:.\Generated_Source\PSoC4/Comp_0.c **** *******************************************************************************/
  86:.\Generated_Source\PSoC4/Comp_0.c **** void Comp_0_Init(void)
  87:.\Generated_Source\PSoC4/Comp_0.c **** {
  26              		.loc 1 87 0
  27              		.cfi_startproc
ARM GAS  C:\Users\mlgjmoor\AppData\Local\Temp\cc3cJTlh.s 			page 3


  28 0000 10B5     		push	{r4, lr}
  29              		.cfi_def_cfa_offset 8
  30              		.cfi_offset 4, -8
  31              		.cfi_offset 14, -4
  88:.\Generated_Source\PSoC4/Comp_0.c ****     uint8 enableInterrupts;
  89:.\Generated_Source\PSoC4/Comp_0.c **** 
  90:.\Generated_Source\PSoC4/Comp_0.c ****     enableInterrupts = CyEnterCriticalSection();
  32              		.loc 1 90 0
  33 0002 FFF7FEFF 		bl	CyEnterCriticalSection
  34              	.LVL0:
  35 0006 041C     		mov	r4, r0
  36              	.LVL1:
  91:.\Generated_Source\PSoC4/Comp_0.c ****     Comp_0_CONFIG_REG |= Comp_0_CONFIG_REG_DEFAULT;
  37              		.loc 1 91 0
  38 0008 0E4A     		ldr	r2, .L4
  39 000a 1368     		ldr	r3, [r2]
  40 000c 0E49     		ldr	r1, .L4+4
  41 000e 0B43     		orr	r3, r1
  42 0010 1360     		str	r3, [r2]
  92:.\Generated_Source\PSoC4/Comp_0.c ****     Comp_0_internalIntr = Comp_0_GET_CONFIG_INTR(Comp_0_INTERRUPT);
  43              		.loc 1 92 0
  44 0012 C022     		mov	r2, #192
  45 0014 9201     		lsl	r2, r2, #6
  46 0016 0D4B     		ldr	r3, .L4+8
  47 0018 1A60     		str	r2, [r3]
  93:.\Generated_Source\PSoC4/Comp_0.c ****     
  94:.\Generated_Source\PSoC4/Comp_0.c ****     #if (Comp_0_CY_LPCOMP_V2)
  95:.\Generated_Source\PSoC4/Comp_0.c ****         #if(CY_IP_SRSSV2)
  96:.\Generated_Source\PSoC4/Comp_0.c ****             if (CySysPmGetResetReason() == CY_PM_RESET_REASON_WAKEUP_HIB)
  48              		.loc 1 96 0
  49 001a FFF7FEFF 		bl	CySysPmGetResetReason
  50              	.LVL2:
  51 001e 0228     		cmp	r0, #2
  52 0020 06D1     		bne	.L2
  97:.\Generated_Source\PSoC4/Comp_0.c ****             {
  98:.\Generated_Source\PSoC4/Comp_0.c ****                 /* Restore the INTR_MASK register state since it get reset after 
  99:.\Generated_Source\PSoC4/Comp_0.c ****                 * wakeup from Hibernate.  
 100:.\Generated_Source\PSoC4/Comp_0.c ****                 */
 101:.\Generated_Source\PSoC4/Comp_0.c ****                 Comp_0_INTR_MASK_REG |= Comp_0_intrMaskRegState;  
  53              		.loc 1 101 0
  54 0022 0B4A     		ldr	r2, .L4+12
  55 0024 1168     		ldr	r1, [r2]
  56 0026 0B4B     		ldr	r3, .L4+16
  57 0028 1B68     		ldr	r3, [r3]
  58 002a 0B43     		orr	r3, r1
  59 002c 1360     		str	r3, [r2]
  60 002e 05E0     		b	.L3
  61              	.L2:
 102:.\Generated_Source\PSoC4/Comp_0.c ****             }
 103:.\Generated_Source\PSoC4/Comp_0.c ****             else
 104:.\Generated_Source\PSoC4/Comp_0.c ****             {
 105:.\Generated_Source\PSoC4/Comp_0.c ****                 Comp_0_INTR_MASK_REG |= Comp_0_INTR_MASK_REG_DEFAULT;    
  62              		.loc 1 105 0
  63 0030 074B     		ldr	r3, .L4+12
  64 0032 1A68     		ldr	r2, [r3]
  65 0034 1A60     		str	r2, [r3]
 106:.\Generated_Source\PSoC4/Comp_0.c ****                 Comp_0_intrMaskRegState = Comp_0_INTR_MASK_REG;
ARM GAS  C:\Users\mlgjmoor\AppData\Local\Temp\cc3cJTlh.s 			page 4


  66              		.loc 1 106 0
  67 0036 1A68     		ldr	r2, [r3]
  68 0038 064B     		ldr	r3, .L4+16
  69 003a 1A60     		str	r2, [r3]
  70              	.L3:
 107:.\Generated_Source\PSoC4/Comp_0.c ****             }
 108:.\Generated_Source\PSoC4/Comp_0.c ****         #else
 109:.\Generated_Source\PSoC4/Comp_0.c ****             Comp_0_INTR_MASK_REG |= Comp_0_INTR_MASK_REG_DEFAULT;
 110:.\Generated_Source\PSoC4/Comp_0.c ****         #endif /* (Comp_0_CY_LPCOMP_V2) */
 111:.\Generated_Source\PSoC4/Comp_0.c ****     #endif /* (Comp_0_CY_LPCOMP_V2) */
 112:.\Generated_Source\PSoC4/Comp_0.c ****     
 113:.\Generated_Source\PSoC4/Comp_0.c ****     CyExitCriticalSection(enableInterrupts);
  71              		.loc 1 113 0
  72 003c 201C     		mov	r0, r4
  73 003e FFF7FEFF 		bl	CyExitCriticalSection
  74              	.LVL3:
 114:.\Generated_Source\PSoC4/Comp_0.c **** }
  75              		.loc 1 114 0
  76              		@ sp needed
  77              	.LVL4:
  78 0042 10BD     		pop	{r4, pc}
  79              	.L5:
  80              		.align	2
  81              	.L4:
  82 0044 04002B40 		.word	1076559876
  83 0048 00011000 		.word	1048832
  84 004c 00000000 		.word	.LANCHOR0
  85 0050 18002B40 		.word	1076559896
  86 0054 00000000 		.word	.LANCHOR1
  87              		.cfi_endproc
  88              	.LFE4:
  89              		.size	Comp_0_Init, .-Comp_0_Init
  90              		.section	.text.Comp_0_Enable,"ax",%progbits
  91              		.align	2
  92              		.global	Comp_0_Enable
  93              		.code	16
  94              		.thumb_func
  95              		.type	Comp_0_Enable, %function
  96              	Comp_0_Enable:
  97              	.LFB5:
 115:.\Generated_Source\PSoC4/Comp_0.c **** 
 116:.\Generated_Source\PSoC4/Comp_0.c **** 
 117:.\Generated_Source\PSoC4/Comp_0.c **** /*******************************************************************************
 118:.\Generated_Source\PSoC4/Comp_0.c **** * Function Name: Comp_0_Enable
 119:.\Generated_Source\PSoC4/Comp_0.c **** ********************************************************************************
 120:.\Generated_Source\PSoC4/Comp_0.c **** *
 121:.\Generated_Source\PSoC4/Comp_0.c **** * Summary:
 122:.\Generated_Source\PSoC4/Comp_0.c **** *  Activates the hardware and begins component operation. It is not necessary
 123:.\Generated_Source\PSoC4/Comp_0.c **** *  to call Comp_0_Enable() because the Comp_0_Start() API
 124:.\Generated_Source\PSoC4/Comp_0.c **** *  calls this function, which is the preferred method to begin component
 125:.\Generated_Source\PSoC4/Comp_0.c **** *  operation.
 126:.\Generated_Source\PSoC4/Comp_0.c **** *
 127:.\Generated_Source\PSoC4/Comp_0.c **** * Parameters:
 128:.\Generated_Source\PSoC4/Comp_0.c **** *  None
 129:.\Generated_Source\PSoC4/Comp_0.c **** *
 130:.\Generated_Source\PSoC4/Comp_0.c **** * Return:
 131:.\Generated_Source\PSoC4/Comp_0.c **** *  None
ARM GAS  C:\Users\mlgjmoor\AppData\Local\Temp\cc3cJTlh.s 			page 5


 132:.\Generated_Source\PSoC4/Comp_0.c **** *
 133:.\Generated_Source\PSoC4/Comp_0.c **** *******************************************************************************/
 134:.\Generated_Source\PSoC4/Comp_0.c **** void Comp_0_Enable(void)
 135:.\Generated_Source\PSoC4/Comp_0.c **** {
  98              		.loc 1 135 0
  99              		.cfi_startproc
 100 0000 08B5     		push	{r3, lr}
 101              		.cfi_def_cfa_offset 8
 102              		.cfi_offset 3, -8
 103              		.cfi_offset 14, -4
 136:.\Generated_Source\PSoC4/Comp_0.c ****     uint8 enableInterrupts;
 137:.\Generated_Source\PSoC4/Comp_0.c ****     
 138:.\Generated_Source\PSoC4/Comp_0.c ****     enableInterrupts = CyEnterCriticalSection();
 104              		.loc 1 138 0
 105 0002 FFF7FEFF 		bl	CyEnterCriticalSection
 106              	.LVL5:
 139:.\Generated_Source\PSoC4/Comp_0.c ****     Comp_0_CONFIG_REG |= Comp_0_CONFIG_EN;
 107              		.loc 1 139 0
 108 0006 074B     		ldr	r3, .L7
 109 0008 1A68     		ldr	r2, [r3]
 110 000a 8021     		mov	r1, #128
 111 000c 0902     		lsl	r1, r1, #8
 112 000e 0A43     		orr	r2, r1
 113 0010 1A60     		str	r2, [r3]
 140:.\Generated_Source\PSoC4/Comp_0.c ****     
 141:.\Generated_Source\PSoC4/Comp_0.c ****     /*******************************************************
 142:.\Generated_Source\PSoC4/Comp_0.c ****     * When the Enable() API is called the CONFIG_EN bit is set. 
 143:.\Generated_Source\PSoC4/Comp_0.c ****     * This can cause fake interrupt because of the output delay 
 144:.\Generated_Source\PSoC4/Comp_0.c ****     * of the analog. This requires setting the CONFIG_INTR bits 
 145:.\Generated_Source\PSoC4/Comp_0.c ****     * after the CONFIG_EN bit is set.
 146:.\Generated_Source\PSoC4/Comp_0.c ****     *******************************************************/
 147:.\Generated_Source\PSoC4/Comp_0.c ****     Comp_0_CONFIG_REG |= Comp_0_internalIntr;
 114              		.loc 1 147 0
 115 0012 1968     		ldr	r1, [r3]
 116 0014 044A     		ldr	r2, .L7+4
 117 0016 1268     		ldr	r2, [r2]
 118 0018 0A43     		orr	r2, r1
 119 001a 1A60     		str	r2, [r3]
 148:.\Generated_Source\PSoC4/Comp_0.c ****     CyExitCriticalSection(enableInterrupts);
 120              		.loc 1 148 0
 121 001c FFF7FEFF 		bl	CyExitCriticalSection
 122              	.LVL6:
 149:.\Generated_Source\PSoC4/Comp_0.c **** }
 123              		.loc 1 149 0
 124              		@ sp needed
 125 0020 08BD     		pop	{r3, pc}
 126              	.L8:
 127 0022 C046     		.align	2
 128              	.L7:
 129 0024 04002B40 		.word	1076559876
 130 0028 00000000 		.word	.LANCHOR0
 131              		.cfi_endproc
 132              	.LFE5:
 133              		.size	Comp_0_Enable, .-Comp_0_Enable
 134              		.section	.text.Comp_0_Start,"ax",%progbits
 135              		.align	2
 136              		.global	Comp_0_Start
ARM GAS  C:\Users\mlgjmoor\AppData\Local\Temp\cc3cJTlh.s 			page 6


 137              		.code	16
 138              		.thumb_func
 139              		.type	Comp_0_Start, %function
 140              	Comp_0_Start:
 141              	.LFB3:
  59:.\Generated_Source\PSoC4/Comp_0.c ****     if(0u == Comp_0_initVar)
 142              		.loc 1 59 0
 143              		.cfi_startproc
 144 0000 08B5     		push	{r3, lr}
 145              		.cfi_def_cfa_offset 8
 146              		.cfi_offset 3, -8
 147              		.cfi_offset 14, -4
  60:.\Generated_Source\PSoC4/Comp_0.c ****     {
 148              		.loc 1 60 0
 149 0002 064B     		ldr	r3, .L11
 150 0004 1B79     		ldrb	r3, [r3, #4]
 151 0006 002B     		cmp	r3, #0
 152 0008 04D1     		bne	.L10
  62:.\Generated_Source\PSoC4/Comp_0.c ****         Comp_0_initVar = 1u;
 153              		.loc 1 62 0
 154 000a FFF7FEFF 		bl	Comp_0_Init
 155              	.LVL7:
  63:.\Generated_Source\PSoC4/Comp_0.c ****     }
 156              		.loc 1 63 0
 157 000e 0122     		mov	r2, #1
 158 0010 024B     		ldr	r3, .L11
 159 0012 1A71     		strb	r2, [r3, #4]
 160              	.L10:
  65:.\Generated_Source\PSoC4/Comp_0.c **** }
 161              		.loc 1 65 0
 162 0014 FFF7FEFF 		bl	Comp_0_Enable
 163              	.LVL8:
  66:.\Generated_Source\PSoC4/Comp_0.c **** 
 164              		.loc 1 66 0
 165              		@ sp needed
 166 0018 08BD     		pop	{r3, pc}
 167              	.L12:
 168 001a C046     		.align	2
 169              	.L11:
 170 001c 00000000 		.word	.LANCHOR0
 171              		.cfi_endproc
 172              	.LFE3:
 173              		.size	Comp_0_Start, .-Comp_0_Start
 174              		.section	.text.Comp_0_Stop,"ax",%progbits
 175              		.align	2
 176              		.global	Comp_0_Stop
 177              		.code	16
 178              		.thumb_func
 179              		.type	Comp_0_Stop, %function
 180              	Comp_0_Stop:
 181              	.LFB6:
 150:.\Generated_Source\PSoC4/Comp_0.c **** 
 151:.\Generated_Source\PSoC4/Comp_0.c **** 
 152:.\Generated_Source\PSoC4/Comp_0.c **** /*******************************************************************************
 153:.\Generated_Source\PSoC4/Comp_0.c **** * Function Name: Comp_0_Stop
 154:.\Generated_Source\PSoC4/Comp_0.c **** ********************************************************************************
 155:.\Generated_Source\PSoC4/Comp_0.c **** *
ARM GAS  C:\Users\mlgjmoor\AppData\Local\Temp\cc3cJTlh.s 			page 7


 156:.\Generated_Source\PSoC4/Comp_0.c **** * Summary:
 157:.\Generated_Source\PSoC4/Comp_0.c **** *  Turns off the LP Comparator.
 158:.\Generated_Source\PSoC4/Comp_0.c **** *
 159:.\Generated_Source\PSoC4/Comp_0.c **** * Parameters:
 160:.\Generated_Source\PSoC4/Comp_0.c **** *  None
 161:.\Generated_Source\PSoC4/Comp_0.c **** *
 162:.\Generated_Source\PSoC4/Comp_0.c **** * Return:
 163:.\Generated_Source\PSoC4/Comp_0.c **** *  None
 164:.\Generated_Source\PSoC4/Comp_0.c **** *
 165:.\Generated_Source\PSoC4/Comp_0.c **** * Side Effects:
 166:.\Generated_Source\PSoC4/Comp_0.c **** *  The function doesn't change component Speed settings.
 167:.\Generated_Source\PSoC4/Comp_0.c **** *
 168:.\Generated_Source\PSoC4/Comp_0.c **** *******************************************************************************/
 169:.\Generated_Source\PSoC4/Comp_0.c **** void Comp_0_Stop(void)
 170:.\Generated_Source\PSoC4/Comp_0.c **** {
 182              		.loc 1 170 0
 183              		.cfi_startproc
 184 0000 08B5     		push	{r3, lr}
 185              		.cfi_def_cfa_offset 8
 186              		.cfi_offset 3, -8
 187              		.cfi_offset 14, -4
 171:.\Generated_Source\PSoC4/Comp_0.c ****     uint8 enableInterrupts;
 172:.\Generated_Source\PSoC4/Comp_0.c ****     
 173:.\Generated_Source\PSoC4/Comp_0.c ****     enableInterrupts = CyEnterCriticalSection();
 188              		.loc 1 173 0
 189 0002 FFF7FEFF 		bl	CyEnterCriticalSection
 190              	.LVL9:
 174:.\Generated_Source\PSoC4/Comp_0.c ****     #if (Comp_0_CY_LPCOMP_V0)
 175:.\Generated_Source\PSoC4/Comp_0.c ****         /*******************************************************
 176:.\Generated_Source\PSoC4/Comp_0.c ****         * When the Stop() API is called the CONFIG_EN bit is 
 177:.\Generated_Source\PSoC4/Comp_0.c ****         * cleared. This causes the output of the comparator to go 
 178:.\Generated_Source\PSoC4/Comp_0.c ****         * low. If the comparator output was high and the Interrupt 
 179:.\Generated_Source\PSoC4/Comp_0.c ****         * Configuration is set for Falling edge disabling the 
 180:.\Generated_Source\PSoC4/Comp_0.c ****         * comparator will cause an fake interrupt. This requires 
 181:.\Generated_Source\PSoC4/Comp_0.c ****         * to clear the CONFIG_INTR bits before the CONFIG_EN bit 
 182:.\Generated_Source\PSoC4/Comp_0.c ****         * is cleared.
 183:.\Generated_Source\PSoC4/Comp_0.c ****         *******************************************************/
 184:.\Generated_Source\PSoC4/Comp_0.c ****         Comp_0_CONFIG_REG &= (uint32)~Comp_0_CONFIG_INTR_MASK;
 185:.\Generated_Source\PSoC4/Comp_0.c ****     #endif /* (Comp_0_CY_LPCOMP_V0) */
 186:.\Generated_Source\PSoC4/Comp_0.c **** 
 187:.\Generated_Source\PSoC4/Comp_0.c ****     Comp_0_CONFIG_REG &= (uint32)~Comp_0_CONFIG_EN;
 191              		.loc 1 187 0
 192 0006 044A     		ldr	r2, .L14
 193 0008 1168     		ldr	r1, [r2]
 194 000a 044B     		ldr	r3, .L14+4
 195 000c 0B40     		and	r3, r1
 196 000e 1360     		str	r3, [r2]
 188:.\Generated_Source\PSoC4/Comp_0.c ****     CyExitCriticalSection(enableInterrupts);
 197              		.loc 1 188 0
 198 0010 FFF7FEFF 		bl	CyExitCriticalSection
 199              	.LVL10:
 189:.\Generated_Source\PSoC4/Comp_0.c **** }
 200              		.loc 1 189 0
 201              		@ sp needed
 202 0014 08BD     		pop	{r3, pc}
 203              	.L15:
 204 0016 C046     		.align	2
ARM GAS  C:\Users\mlgjmoor\AppData\Local\Temp\cc3cJTlh.s 			page 8


 205              	.L14:
 206 0018 04002B40 		.word	1076559876
 207 001c FF7FFFFF 		.word	-32769
 208              		.cfi_endproc
 209              	.LFE6:
 210              		.size	Comp_0_Stop, .-Comp_0_Stop
 211              		.section	.text.Comp_0_SetSpeed,"ax",%progbits
 212              		.align	2
 213              		.global	Comp_0_SetSpeed
 214              		.code	16
 215              		.thumb_func
 216              		.type	Comp_0_SetSpeed, %function
 217              	Comp_0_SetSpeed:
 218              	.LFB7:
 190:.\Generated_Source\PSoC4/Comp_0.c **** 
 191:.\Generated_Source\PSoC4/Comp_0.c **** 
 192:.\Generated_Source\PSoC4/Comp_0.c **** /*******************************************************************************
 193:.\Generated_Source\PSoC4/Comp_0.c **** * Function Name: Comp_0_SetSpeed
 194:.\Generated_Source\PSoC4/Comp_0.c **** *
 195:.\Generated_Source\PSoC4/Comp_0.c **** * Summary:
 196:.\Generated_Source\PSoC4/Comp_0.c **** *  Sets the drive power and speed to one of three settings.
 197:.\Generated_Source\PSoC4/Comp_0.c **** *
 198:.\Generated_Source\PSoC4/Comp_0.c **** * Parameters:
 199:.\Generated_Source\PSoC4/Comp_0.c **** *  uint32 speed: Sets operation mode of the component:
 200:.\Generated_Source\PSoC4/Comp_0.c **** *   Comp_0_LOW_SPEED  - Slow/ultra low 
 201:.\Generated_Source\PSoC4/Comp_0.c **** *   Comp_0_MED_SPEED  - Medium/low 
 202:.\Generated_Source\PSoC4/Comp_0.c **** *   Comp_0_HIGH_SPEED - Fast/normal 
 203:.\Generated_Source\PSoC4/Comp_0.c **** *
 204:.\Generated_Source\PSoC4/Comp_0.c **** * Return:
 205:.\Generated_Source\PSoC4/Comp_0.c **** *  None
 206:.\Generated_Source\PSoC4/Comp_0.c **** *
 207:.\Generated_Source\PSoC4/Comp_0.c **** *******************************************************************************/
 208:.\Generated_Source\PSoC4/Comp_0.c **** void Comp_0_SetSpeed(uint32 speed)
 209:.\Generated_Source\PSoC4/Comp_0.c **** {
 219              		.loc 1 209 0
 220              		.cfi_startproc
 221              	.LVL11:
 222 0000 38B5     		push	{r3, r4, r5, lr}
 223              		.cfi_def_cfa_offset 16
 224              		.cfi_offset 3, -16
 225              		.cfi_offset 4, -12
 226              		.cfi_offset 5, -8
 227              		.cfi_offset 14, -4
 228 0002 041C     		mov	r4, r0
 210:.\Generated_Source\PSoC4/Comp_0.c ****     uint32 config;
 211:.\Generated_Source\PSoC4/Comp_0.c ****     uint8 enableInterrupts;
 212:.\Generated_Source\PSoC4/Comp_0.c ****     
 213:.\Generated_Source\PSoC4/Comp_0.c ****     enableInterrupts = CyEnterCriticalSection();
 229              		.loc 1 213 0
 230 0004 FFF7FEFF 		bl	CyEnterCriticalSection
 231              	.LVL12:
 214:.\Generated_Source\PSoC4/Comp_0.c ****     config = Comp_0_CONFIG_REG & (uint32)~Comp_0_CONFIG_SPEED_MODE_MASK;
 232              		.loc 1 214 0
 233 0008 064D     		ldr	r5, .L17
 234 000a 2B68     		ldr	r3, [r5]
 235 000c 064A     		ldr	r2, .L17+4
 236 000e 1A40     		and	r2, r3
ARM GAS  C:\Users\mlgjmoor\AppData\Local\Temp\cc3cJTlh.s 			page 9


 237              	.LVL13:
 215:.\Generated_Source\PSoC4/Comp_0.c ****     Comp_0_CONFIG_REG = config | Comp_0_GET_CONFIG_SPEED_MODE(speed);
 238              		.loc 1 215 0
 239 0010 2302     		lsl	r3, r4, #8
 240 0012 C021     		mov	r1, #192
 241 0014 8900     		lsl	r1, r1, #2
 242 0016 0B40     		and	r3, r1
 243 0018 1343     		orr	r3, r2
 244 001a 2B60     		str	r3, [r5]
 216:.\Generated_Source\PSoC4/Comp_0.c ****     CyExitCriticalSection(enableInterrupts);
 245              		.loc 1 216 0
 246 001c FFF7FEFF 		bl	CyExitCriticalSection
 247              	.LVL14:
 217:.\Generated_Source\PSoC4/Comp_0.c **** }
 248              		.loc 1 217 0
 249              		@ sp needed
 250              	.LVL15:
 251 0020 38BD     		pop	{r3, r4, r5, pc}
 252              	.L18:
 253 0022 C046     		.align	2
 254              	.L17:
 255 0024 04002B40 		.word	1076559876
 256 0028 FFFCFFFF 		.word	-769
 257              		.cfi_endproc
 258              	.LFE7:
 259              		.size	Comp_0_SetSpeed, .-Comp_0_SetSpeed
 260              		.section	.text.Comp_0_SetInterruptMode,"ax",%progbits
 261              		.align	2
 262              		.global	Comp_0_SetInterruptMode
 263              		.code	16
 264              		.thumb_func
 265              		.type	Comp_0_SetInterruptMode, %function
 266              	Comp_0_SetInterruptMode:
 267              	.LFB8:
 218:.\Generated_Source\PSoC4/Comp_0.c **** 
 219:.\Generated_Source\PSoC4/Comp_0.c **** 
 220:.\Generated_Source\PSoC4/Comp_0.c **** /*******************************************************************************
 221:.\Generated_Source\PSoC4/Comp_0.c **** * Function Name: Comp_0_SetInterruptMode
 222:.\Generated_Source\PSoC4/Comp_0.c **** ********************************************************************************
 223:.\Generated_Source\PSoC4/Comp_0.c **** *
 224:.\Generated_Source\PSoC4/Comp_0.c **** * Summary:
 225:.\Generated_Source\PSoC4/Comp_0.c **** *  Sets the interrupt edge detect mode. This also controls the value provided
 226:.\Generated_Source\PSoC4/Comp_0.c **** *  on the output.
 227:.\Generated_Source\PSoC4/Comp_0.c **** *
 228:.\Generated_Source\PSoC4/Comp_0.c **** * Parameters:
 229:.\Generated_Source\PSoC4/Comp_0.c **** *  uint32 mode: Enumerated edge detect mode value:
 230:.\Generated_Source\PSoC4/Comp_0.c **** *  Comp_0_INTR_DISABLE - Disable
 231:.\Generated_Source\PSoC4/Comp_0.c **** *  Comp_0_INTR_RISING  - Rising edge detect
 232:.\Generated_Source\PSoC4/Comp_0.c **** *  Comp_0_INTR_FALLING - Falling edge detect
 233:.\Generated_Source\PSoC4/Comp_0.c **** *  Comp_0_INTR_BOTH    - Detect both edges
 234:.\Generated_Source\PSoC4/Comp_0.c **** *
 235:.\Generated_Source\PSoC4/Comp_0.c **** * Return:
 236:.\Generated_Source\PSoC4/Comp_0.c **** *  None
 237:.\Generated_Source\PSoC4/Comp_0.c **** *
 238:.\Generated_Source\PSoC4/Comp_0.c **** *******************************************************************************/
 239:.\Generated_Source\PSoC4/Comp_0.c **** void Comp_0_SetInterruptMode(uint32 mode)
 240:.\Generated_Source\PSoC4/Comp_0.c **** {
ARM GAS  C:\Users\mlgjmoor\AppData\Local\Temp\cc3cJTlh.s 			page 10


 268              		.loc 1 240 0
 269              		.cfi_startproc
 270              	.LVL16:
 271 0000 10B5     		push	{r4, lr}
 272              		.cfi_def_cfa_offset 8
 273              		.cfi_offset 4, -8
 274              		.cfi_offset 14, -4
 241:.\Generated_Source\PSoC4/Comp_0.c ****     uint32 config;
 242:.\Generated_Source\PSoC4/Comp_0.c ****     uint8 enableInterrupts;
 243:.\Generated_Source\PSoC4/Comp_0.c ****     
 244:.\Generated_Source\PSoC4/Comp_0.c ****     Comp_0_internalIntr = Comp_0_GET_CONFIG_INTR(mode);
 275              		.loc 1 244 0
 276 0002 0003     		lsl	r0, r0, #12
 277              	.LVL17:
 278 0004 C023     		mov	r3, #192
 279 0006 9B01     		lsl	r3, r3, #6
 280 0008 1840     		and	r0, r3
 281 000a 074C     		ldr	r4, .L20
 282 000c 2060     		str	r0, [r4]
 245:.\Generated_Source\PSoC4/Comp_0.c **** 
 246:.\Generated_Source\PSoC4/Comp_0.c ****     enableInterrupts = CyEnterCriticalSection();
 283              		.loc 1 246 0
 284 000e FFF7FEFF 		bl	CyEnterCriticalSection
 285              	.LVL18:
 247:.\Generated_Source\PSoC4/Comp_0.c ****     config = Comp_0_CONFIG_REG & (uint32)~Comp_0_CONFIG_INTR_MASK;
 286              		.loc 1 247 0
 287 0012 0649     		ldr	r1, .L20+4
 288 0014 0A68     		ldr	r2, [r1]
 289 0016 064B     		ldr	r3, .L20+8
 290 0018 1340     		and	r3, r2
 291              	.LVL19:
 248:.\Generated_Source\PSoC4/Comp_0.c ****     Comp_0_CONFIG_REG = config | Comp_0_internalIntr;
 292              		.loc 1 248 0
 293 001a 2268     		ldr	r2, [r4]
 294 001c 1343     		orr	r3, r2
 295              	.LVL20:
 296 001e 0B60     		str	r3, [r1]
 249:.\Generated_Source\PSoC4/Comp_0.c ****     CyExitCriticalSection(enableInterrupts);
 297              		.loc 1 249 0
 298 0020 FFF7FEFF 		bl	CyExitCriticalSection
 299              	.LVL21:
 250:.\Generated_Source\PSoC4/Comp_0.c **** }
 300              		.loc 1 250 0
 301              		@ sp needed
 302 0024 10BD     		pop	{r4, pc}
 303              	.L21:
 304 0026 C046     		.align	2
 305              	.L20:
 306 0028 00000000 		.word	.LANCHOR0
 307 002c 04002B40 		.word	1076559876
 308 0030 FFCFFFFF 		.word	-12289
 309              		.cfi_endproc
 310              	.LFE8:
 311              		.size	Comp_0_SetInterruptMode, .-Comp_0_SetInterruptMode
 312              		.section	.text.Comp_0_GetInterruptSource,"ax",%progbits
 313              		.align	2
 314              		.global	Comp_0_GetInterruptSource
ARM GAS  C:\Users\mlgjmoor\AppData\Local\Temp\cc3cJTlh.s 			page 11


 315              		.code	16
 316              		.thumb_func
 317              		.type	Comp_0_GetInterruptSource, %function
 318              	Comp_0_GetInterruptSource:
 319              	.LFB9:
 251:.\Generated_Source\PSoC4/Comp_0.c **** 
 252:.\Generated_Source\PSoC4/Comp_0.c **** 
 253:.\Generated_Source\PSoC4/Comp_0.c **** /*******************************************************************************
 254:.\Generated_Source\PSoC4/Comp_0.c **** * Function Name: Comp_0_GetInterruptSource
 255:.\Generated_Source\PSoC4/Comp_0.c **** ********************************************************************************
 256:.\Generated_Source\PSoC4/Comp_0.c **** *
 257:.\Generated_Source\PSoC4/Comp_0.c **** * Summary:
 258:.\Generated_Source\PSoC4/Comp_0.c **** *  Gets the interrupt requests. This function is for use when using the combined
 259:.\Generated_Source\PSoC4/Comp_0.c **** *  interrupt signal from the global signal reference. This function from either
 260:.\Generated_Source\PSoC4/Comp_0.c **** *  component instance can be used to determine the interrupt source for both the
 261:.\Generated_Source\PSoC4/Comp_0.c **** *  interrupts combined.
 262:.\Generated_Source\PSoC4/Comp_0.c **** *
 263:.\Generated_Source\PSoC4/Comp_0.c **** * Parameters:
 264:.\Generated_Source\PSoC4/Comp_0.c **** *  None
 265:.\Generated_Source\PSoC4/Comp_0.c **** *
 266:.\Generated_Source\PSoC4/Comp_0.c **** * Return:
 267:.\Generated_Source\PSoC4/Comp_0.c **** *  uint32: Interrupt source. Each component instance has a mask value:
 268:.\Generated_Source\PSoC4/Comp_0.c **** *  Comp_0_INTR.
 269:.\Generated_Source\PSoC4/Comp_0.c **** *
 270:.\Generated_Source\PSoC4/Comp_0.c **** *******************************************************************************/
 271:.\Generated_Source\PSoC4/Comp_0.c **** uint32 Comp_0_GetInterruptSource(void)
 272:.\Generated_Source\PSoC4/Comp_0.c **** {
 320              		.loc 1 272 0
 321              		.cfi_startproc
 273:.\Generated_Source\PSoC4/Comp_0.c ****     return (Comp_0_INTR_REG); 
 322              		.loc 1 273 0
 323 0000 014B     		ldr	r3, .L23
 324 0002 1868     		ldr	r0, [r3]
 274:.\Generated_Source\PSoC4/Comp_0.c **** }
 325              		.loc 1 274 0
 326              		@ sp needed
 327 0004 7047     		bx	lr
 328              	.L24:
 329 0006 C046     		.align	2
 330              	.L23:
 331 0008 10002B40 		.word	1076559888
 332              		.cfi_endproc
 333              	.LFE9:
 334              		.size	Comp_0_GetInterruptSource, .-Comp_0_GetInterruptSource
 335              		.section	.text.Comp_0_ClearInterrupt,"ax",%progbits
 336              		.align	2
 337              		.global	Comp_0_ClearInterrupt
 338              		.code	16
 339              		.thumb_func
 340              		.type	Comp_0_ClearInterrupt, %function
 341              	Comp_0_ClearInterrupt:
 342              	.LFB10:
 275:.\Generated_Source\PSoC4/Comp_0.c **** 
 276:.\Generated_Source\PSoC4/Comp_0.c **** 
 277:.\Generated_Source\PSoC4/Comp_0.c **** /*******************************************************************************
 278:.\Generated_Source\PSoC4/Comp_0.c **** * Function Name: Comp_0_ClearInterrupt
 279:.\Generated_Source\PSoC4/Comp_0.c **** ********************************************************************************
ARM GAS  C:\Users\mlgjmoor\AppData\Local\Temp\cc3cJTlh.s 			page 12


 280:.\Generated_Source\PSoC4/Comp_0.c **** *
 281:.\Generated_Source\PSoC4/Comp_0.c **** * Summary:
 282:.\Generated_Source\PSoC4/Comp_0.c **** *  Clears the interrupt request. This function is for use when using the
 283:.\Generated_Source\PSoC4/Comp_0.c **** *  combined interrupt signal from the global signal reference. This function
 284:.\Generated_Source\PSoC4/Comp_0.c **** *  from either component instance can be used to clear either or both
 285:.\Generated_Source\PSoC4/Comp_0.c **** *  interrupts.
 286:.\Generated_Source\PSoC4/Comp_0.c **** *
 287:.\Generated_Source\PSoC4/Comp_0.c **** * Parameters:
 288:.\Generated_Source\PSoC4/Comp_0.c **** *  uint32 interruptMask: Mask of interrupts to clear. Each component instance
 289:.\Generated_Source\PSoC4/Comp_0.c **** *  has a mask value: Comp_0_INTR.
 290:.\Generated_Source\PSoC4/Comp_0.c **** *
 291:.\Generated_Source\PSoC4/Comp_0.c **** * Return:
 292:.\Generated_Source\PSoC4/Comp_0.c **** *  None
 293:.\Generated_Source\PSoC4/Comp_0.c **** *
 294:.\Generated_Source\PSoC4/Comp_0.c **** *******************************************************************************/
 295:.\Generated_Source\PSoC4/Comp_0.c **** void Comp_0_ClearInterrupt(uint32 interruptMask)
 296:.\Generated_Source\PSoC4/Comp_0.c **** {   
 343              		.loc 1 296 0
 344              		.cfi_startproc
 345              	.LVL22:
 297:.\Generated_Source\PSoC4/Comp_0.c ****     Comp_0_INTR_REG = interruptMask;
 346              		.loc 1 297 0
 347 0000 014B     		ldr	r3, .L26
 348 0002 1860     		str	r0, [r3]
 298:.\Generated_Source\PSoC4/Comp_0.c **** }
 349              		.loc 1 298 0
 350              		@ sp needed
 351 0004 7047     		bx	lr
 352              	.L27:
 353 0006 C046     		.align	2
 354              	.L26:
 355 0008 10002B40 		.word	1076559888
 356              		.cfi_endproc
 357              	.LFE10:
 358              		.size	Comp_0_ClearInterrupt, .-Comp_0_ClearInterrupt
 359              		.section	.text.Comp_0_SetInterrupt,"ax",%progbits
 360              		.align	2
 361              		.global	Comp_0_SetInterrupt
 362              		.code	16
 363              		.thumb_func
 364              		.type	Comp_0_SetInterrupt, %function
 365              	Comp_0_SetInterrupt:
 366              	.LFB11:
 299:.\Generated_Source\PSoC4/Comp_0.c **** 
 300:.\Generated_Source\PSoC4/Comp_0.c **** 
 301:.\Generated_Source\PSoC4/Comp_0.c **** /*******************************************************************************
 302:.\Generated_Source\PSoC4/Comp_0.c **** * Function Name: Comp_0_SetInterrupt
 303:.\Generated_Source\PSoC4/Comp_0.c **** ********************************************************************************
 304:.\Generated_Source\PSoC4/Comp_0.c **** *
 305:.\Generated_Source\PSoC4/Comp_0.c **** * Summary:
 306:.\Generated_Source\PSoC4/Comp_0.c **** *  Sets a software interrupt request. This function is for use when using the
 307:.\Generated_Source\PSoC4/Comp_0.c **** *  combined interrupt signal from the global signal reference. This function
 308:.\Generated_Source\PSoC4/Comp_0.c **** *  from either component instance can be used to trigger either or both software
 309:.\Generated_Source\PSoC4/Comp_0.c **** *  interrupts.
 310:.\Generated_Source\PSoC4/Comp_0.c **** *
 311:.\Generated_Source\PSoC4/Comp_0.c **** * Parameters:
 312:.\Generated_Source\PSoC4/Comp_0.c **** *  uint32 interruptMask: Mask of interrupts to set. Each component instance has
ARM GAS  C:\Users\mlgjmoor\AppData\Local\Temp\cc3cJTlh.s 			page 13


 313:.\Generated_Source\PSoC4/Comp_0.c **** *  a mask value: Comp_0_INTR_SET.
 314:.\Generated_Source\PSoC4/Comp_0.c **** *
 315:.\Generated_Source\PSoC4/Comp_0.c **** * Return:
 316:.\Generated_Source\PSoC4/Comp_0.c **** *  None
 317:.\Generated_Source\PSoC4/Comp_0.c **** *
 318:.\Generated_Source\PSoC4/Comp_0.c **** *******************************************************************************/
 319:.\Generated_Source\PSoC4/Comp_0.c **** void Comp_0_SetInterrupt(uint32 interruptMask)
 320:.\Generated_Source\PSoC4/Comp_0.c **** {
 367              		.loc 1 320 0
 368              		.cfi_startproc
 369              	.LVL23:
 370 0000 10B5     		push	{r4, lr}
 371              		.cfi_def_cfa_offset 8
 372              		.cfi_offset 4, -8
 373              		.cfi_offset 14, -4
 374 0002 041C     		mov	r4, r0
 321:.\Generated_Source\PSoC4/Comp_0.c ****     uint8 enableInterrupts;
 322:.\Generated_Source\PSoC4/Comp_0.c ****     
 323:.\Generated_Source\PSoC4/Comp_0.c ****     enableInterrupts = CyEnterCriticalSection();
 375              		.loc 1 323 0
 376 0004 FFF7FEFF 		bl	CyEnterCriticalSection
 377              	.LVL24:
 324:.\Generated_Source\PSoC4/Comp_0.c ****     Comp_0_INTR_SET_REG |= interruptMask;
 378              		.loc 1 324 0
 379 0008 034B     		ldr	r3, .L29
 380 000a 1A68     		ldr	r2, [r3]
 381 000c 1443     		orr	r4, r2
 382              	.LVL25:
 383 000e 1C60     		str	r4, [r3]
 325:.\Generated_Source\PSoC4/Comp_0.c ****     CyExitCriticalSection(enableInterrupts);
 384              		.loc 1 325 0
 385 0010 FFF7FEFF 		bl	CyExitCriticalSection
 386              	.LVL26:
 326:.\Generated_Source\PSoC4/Comp_0.c **** }
 387              		.loc 1 326 0
 388              		@ sp needed
 389 0014 10BD     		pop	{r4, pc}
 390              	.L30:
 391 0016 C046     		.align	2
 392              	.L29:
 393 0018 14002B40 		.word	1076559892
 394              		.cfi_endproc
 395              	.LFE11:
 396              		.size	Comp_0_SetInterrupt, .-Comp_0_SetInterrupt
 397              		.section	.text.Comp_0_SetHysteresis,"ax",%progbits
 398              		.align	2
 399              		.global	Comp_0_SetHysteresis
 400              		.code	16
 401              		.thumb_func
 402              		.type	Comp_0_SetHysteresis, %function
 403              	Comp_0_SetHysteresis:
 404              	.LFB12:
 327:.\Generated_Source\PSoC4/Comp_0.c **** 
 328:.\Generated_Source\PSoC4/Comp_0.c **** 
 329:.\Generated_Source\PSoC4/Comp_0.c **** /*******************************************************************************
 330:.\Generated_Source\PSoC4/Comp_0.c **** * Function Name: Comp_0_SetHysteresis
 331:.\Generated_Source\PSoC4/Comp_0.c **** ********************************************************************************
ARM GAS  C:\Users\mlgjmoor\AppData\Local\Temp\cc3cJTlh.s 			page 14


 332:.\Generated_Source\PSoC4/Comp_0.c **** *
 333:.\Generated_Source\PSoC4/Comp_0.c **** * Summary:
 334:.\Generated_Source\PSoC4/Comp_0.c **** *  Enables or disables the hysteresis.
 335:.\Generated_Source\PSoC4/Comp_0.c **** *
 336:.\Generated_Source\PSoC4/Comp_0.c **** * Parameters:
 337:.\Generated_Source\PSoC4/Comp_0.c **** *  hysteresis: (uint32) Enables or disables the hysteresis setting.
 338:.\Generated_Source\PSoC4/Comp_0.c **** *  Comp_0_HYST_ENABLE     - Enable hysteresis
 339:.\Generated_Source\PSoC4/Comp_0.c **** *  Comp_0_HYST_DISABLE    - Disable hysteresis
 340:.\Generated_Source\PSoC4/Comp_0.c **** *
 341:.\Generated_Source\PSoC4/Comp_0.c **** * Return:
 342:.\Generated_Source\PSoC4/Comp_0.c **** *  None
 343:.\Generated_Source\PSoC4/Comp_0.c **** *
 344:.\Generated_Source\PSoC4/Comp_0.c **** *******************************************************************************/
 345:.\Generated_Source\PSoC4/Comp_0.c **** void Comp_0_SetHysteresis(uint32 hysteresis)
 346:.\Generated_Source\PSoC4/Comp_0.c **** {
 405              		.loc 1 346 0
 406              		.cfi_startproc
 407              	.LVL27:
 408 0000 10B5     		push	{r4, lr}
 409              		.cfi_def_cfa_offset 8
 410              		.cfi_offset 4, -8
 411              		.cfi_offset 14, -4
 412 0002 041C     		mov	r4, r0
 347:.\Generated_Source\PSoC4/Comp_0.c ****     uint8 enableInterrupts;
 348:.\Generated_Source\PSoC4/Comp_0.c ****     
 349:.\Generated_Source\PSoC4/Comp_0.c ****     enableInterrupts = CyEnterCriticalSection();
 413              		.loc 1 349 0
 414 0004 FFF7FEFF 		bl	CyEnterCriticalSection
 415              	.LVL28:
 350:.\Generated_Source\PSoC4/Comp_0.c ****     if(0u != hysteresis)
 416              		.loc 1 350 0
 417 0008 002C     		cmp	r4, #0
 418 000a 06D0     		beq	.L32
 351:.\Generated_Source\PSoC4/Comp_0.c ****     {
 352:.\Generated_Source\PSoC4/Comp_0.c ****         Comp_0_CONFIG_REG |= Comp_0_CONFIG_HYST;
 419              		.loc 1 352 0
 420 000c 074A     		ldr	r2, .L34
 421 000e 1368     		ldr	r3, [r2]
 422 0010 8021     		mov	r1, #128
 423 0012 C900     		lsl	r1, r1, #3
 424 0014 0B43     		orr	r3, r1
 425 0016 1360     		str	r3, [r2]
 426 0018 04E0     		b	.L33
 427              	.L32:
 353:.\Generated_Source\PSoC4/Comp_0.c ****     }
 354:.\Generated_Source\PSoC4/Comp_0.c ****     else
 355:.\Generated_Source\PSoC4/Comp_0.c ****     {
 356:.\Generated_Source\PSoC4/Comp_0.c ****         Comp_0_CONFIG_REG &= (uint32)~Comp_0_CONFIG_HYST;
 428              		.loc 1 356 0
 429 001a 044A     		ldr	r2, .L34
 430 001c 1168     		ldr	r1, [r2]
 431 001e 044B     		ldr	r3, .L34+4
 432 0020 0B40     		and	r3, r1
 433 0022 1360     		str	r3, [r2]
 434              	.L33:
 357:.\Generated_Source\PSoC4/Comp_0.c ****     }
 358:.\Generated_Source\PSoC4/Comp_0.c ****     CyExitCriticalSection(enableInterrupts);
ARM GAS  C:\Users\mlgjmoor\AppData\Local\Temp\cc3cJTlh.s 			page 15


 435              		.loc 1 358 0
 436 0024 FFF7FEFF 		bl	CyExitCriticalSection
 437              	.LVL29:
 359:.\Generated_Source\PSoC4/Comp_0.c **** }
 438              		.loc 1 359 0
 439              		@ sp needed
 440              	.LVL30:
 441 0028 10BD     		pop	{r4, pc}
 442              	.L35:
 443 002a C046     		.align	2
 444              	.L34:
 445 002c 04002B40 		.word	1076559876
 446 0030 FFFBFFFF 		.word	-1025
 447              		.cfi_endproc
 448              	.LFE12:
 449              		.size	Comp_0_SetHysteresis, .-Comp_0_SetHysteresis
 450              		.section	.text.Comp_0_SetFilter,"ax",%progbits
 451              		.align	2
 452              		.global	Comp_0_SetFilter
 453              		.code	16
 454              		.thumb_func
 455              		.type	Comp_0_SetFilter, %function
 456              	Comp_0_SetFilter:
 457              	.LFB13:
 360:.\Generated_Source\PSoC4/Comp_0.c **** 
 361:.\Generated_Source\PSoC4/Comp_0.c **** 
 362:.\Generated_Source\PSoC4/Comp_0.c **** /*******************************************************************************
 363:.\Generated_Source\PSoC4/Comp_0.c **** * Function Name: Comp_0_SetFilter
 364:.\Generated_Source\PSoC4/Comp_0.c **** ********************************************************************************
 365:.\Generated_Source\PSoC4/Comp_0.c **** *
 366:.\Generated_Source\PSoC4/Comp_0.c **** * Summary:
 367:.\Generated_Source\PSoC4/Comp_0.c **** *  Enables or disables the digital filter. This still exists for saving backward 
 368:.\Generated_Source\PSoC4/Comp_0.c **** *  compatibility, but not recommended for using.
 369:.\Generated_Source\PSoC4/Comp_0.c **** *  This API is DEPRECATED and should not be used in new projects.
 370:.\Generated_Source\PSoC4/Comp_0.c **** *
 371:.\Generated_Source\PSoC4/Comp_0.c **** * Parameters:
 372:.\Generated_Source\PSoC4/Comp_0.c **** *  uint32 filter: filter enable.
 373:.\Generated_Source\PSoC4/Comp_0.c **** *  Comp_0_FILT_ENABLE  - Enable filter
 374:.\Generated_Source\PSoC4/Comp_0.c **** *  Comp_0_FILT_DISABLE - Disable filter
 375:.\Generated_Source\PSoC4/Comp_0.c **** *
 376:.\Generated_Source\PSoC4/Comp_0.c **** * Return:
 377:.\Generated_Source\PSoC4/Comp_0.c **** *  None
 378:.\Generated_Source\PSoC4/Comp_0.c **** *
 379:.\Generated_Source\PSoC4/Comp_0.c **** *******************************************************************************/
 380:.\Generated_Source\PSoC4/Comp_0.c **** void Comp_0_SetFilter(uint32 filter)
 381:.\Generated_Source\PSoC4/Comp_0.c **** {
 458              		.loc 1 381 0
 459              		.cfi_startproc
 460              	.LVL31:
 461 0000 10B5     		push	{r4, lr}
 462              		.cfi_def_cfa_offset 8
 463              		.cfi_offset 4, -8
 464              		.cfi_offset 14, -4
 465 0002 041C     		mov	r4, r0
 382:.\Generated_Source\PSoC4/Comp_0.c ****     uint8 enableInterrupts;
 383:.\Generated_Source\PSoC4/Comp_0.c ****     
 384:.\Generated_Source\PSoC4/Comp_0.c ****     enableInterrupts = CyEnterCriticalSection();
ARM GAS  C:\Users\mlgjmoor\AppData\Local\Temp\cc3cJTlh.s 			page 16


 466              		.loc 1 384 0
 467 0004 FFF7FEFF 		bl	CyEnterCriticalSection
 468              	.LVL32:
 385:.\Generated_Source\PSoC4/Comp_0.c ****     if( 0u != filter)
 469              		.loc 1 385 0
 470 0008 002C     		cmp	r4, #0
 471 000a 06D0     		beq	.L37
 386:.\Generated_Source\PSoC4/Comp_0.c ****     {
 387:.\Generated_Source\PSoC4/Comp_0.c ****         Comp_0_CONFIG_REG |= Comp_0_CONFIG_FILT;
 472              		.loc 1 387 0
 473 000c 074A     		ldr	r2, .L39
 474 000e 1368     		ldr	r3, [r2]
 475 0010 8021     		mov	r1, #128
 476 0012 0901     		lsl	r1, r1, #4
 477 0014 0B43     		orr	r3, r1
 478 0016 1360     		str	r3, [r2]
 479 0018 04E0     		b	.L38
 480              	.L37:
 388:.\Generated_Source\PSoC4/Comp_0.c ****     }
 389:.\Generated_Source\PSoC4/Comp_0.c ****     else
 390:.\Generated_Source\PSoC4/Comp_0.c ****     {
 391:.\Generated_Source\PSoC4/Comp_0.c ****         Comp_0_CONFIG_REG &= (uint32)~Comp_0_CONFIG_FILT;
 481              		.loc 1 391 0
 482 001a 044A     		ldr	r2, .L39
 483 001c 1168     		ldr	r1, [r2]
 484 001e 044B     		ldr	r3, .L39+4
 485 0020 0B40     		and	r3, r1
 486 0022 1360     		str	r3, [r2]
 487              	.L38:
 392:.\Generated_Source\PSoC4/Comp_0.c ****     }
 393:.\Generated_Source\PSoC4/Comp_0.c ****     CyExitCriticalSection(enableInterrupts);
 488              		.loc 1 393 0
 489 0024 FFF7FEFF 		bl	CyExitCriticalSection
 490              	.LVL33:
 394:.\Generated_Source\PSoC4/Comp_0.c **** }
 491              		.loc 1 394 0
 492              		@ sp needed
 493              	.LVL34:
 494 0028 10BD     		pop	{r4, pc}
 495              	.L40:
 496 002a C046     		.align	2
 497              	.L39:
 498 002c 04002B40 		.word	1076559876
 499 0030 FFF7FFFF 		.word	-2049
 500              		.cfi_endproc
 501              	.LFE13:
 502              		.size	Comp_0_SetFilter, .-Comp_0_SetFilter
 503              		.section	.text.Comp_0_GetCompare,"ax",%progbits
 504              		.align	2
 505              		.global	Comp_0_GetCompare
 506              		.code	16
 507              		.thumb_func
 508              		.type	Comp_0_GetCompare, %function
 509              	Comp_0_GetCompare:
 510              	.LFB14:
 395:.\Generated_Source\PSoC4/Comp_0.c **** 
 396:.\Generated_Source\PSoC4/Comp_0.c **** 
ARM GAS  C:\Users\mlgjmoor\AppData\Local\Temp\cc3cJTlh.s 			page 17


 397:.\Generated_Source\PSoC4/Comp_0.c **** /*******************************************************************************
 398:.\Generated_Source\PSoC4/Comp_0.c **** * Function Name: Comp_0_GetCompare
 399:.\Generated_Source\PSoC4/Comp_0.c **** ********************************************************************************
 400:.\Generated_Source\PSoC4/Comp_0.c **** *
 401:.\Generated_Source\PSoC4/Comp_0.c **** * Summary:
 402:.\Generated_Source\PSoC4/Comp_0.c **** *  This function returns a nonzero value when the voltage connected to the
 403:.\Generated_Source\PSoC4/Comp_0.c **** *  positive input is greater than the negative input voltage.
 404:.\Generated_Source\PSoC4/Comp_0.c **** *  This function reads the direct (unflopped) comparator output which can also be 
 405:.\Generated_Source\PSoC4/Comp_0.c **** *  metastable (since it may result in incorrect data).
 406:.\Generated_Source\PSoC4/Comp_0.c **** *
 407:.\Generated_Source\PSoC4/Comp_0.c **** * Parameters:
 408:.\Generated_Source\PSoC4/Comp_0.c **** *  None
 409:.\Generated_Source\PSoC4/Comp_0.c **** *
 410:.\Generated_Source\PSoC4/Comp_0.c **** * Return:
 411:.\Generated_Source\PSoC4/Comp_0.c **** *  (uint32) Comparator output state. This value is not impacted by the interrupt
 412:.\Generated_Source\PSoC4/Comp_0.c **** *  edge detect setting:
 413:.\Generated_Source\PSoC4/Comp_0.c **** *   0 - if positive input is less than negative one.
 414:.\Generated_Source\PSoC4/Comp_0.c **** *   1 - if positive input greater than negative one.
 415:.\Generated_Source\PSoC4/Comp_0.c **** *
 416:.\Generated_Source\PSoC4/Comp_0.c **** *******************************************************************************/
 417:.\Generated_Source\PSoC4/Comp_0.c **** uint32 Comp_0_GetCompare(void)
 418:.\Generated_Source\PSoC4/Comp_0.c **** {
 511              		.loc 1 418 0
 512              		.cfi_startproc
 419:.\Generated_Source\PSoC4/Comp_0.c ****     return((uint32)((0u == (Comp_0_CONFIG_REG & Comp_0_CONFIG_OUT)) ? 0u : 1u));
 513              		.loc 1 419 0
 514 0000 024B     		ldr	r3, .L42
 515 0002 1868     		ldr	r0, [r3]
 516 0004 4004     		lsl	r0, r0, #17
 517 0006 C00F     		lsr	r0, r0, #31
 420:.\Generated_Source\PSoC4/Comp_0.c **** }
 518              		.loc 1 420 0
 519              		@ sp needed
 520 0008 7047     		bx	lr
 521              	.L43:
 522 000a C046     		.align	2
 523              	.L42:
 524 000c 04002B40 		.word	1076559876
 525              		.cfi_endproc
 526              	.LFE14:
 527              		.size	Comp_0_GetCompare, .-Comp_0_GetCompare
 528              		.section	.text.Comp_0_ZeroCal,"ax",%progbits
 529              		.align	2
 530              		.global	Comp_0_ZeroCal
 531              		.code	16
 532              		.thumb_func
 533              		.type	Comp_0_ZeroCal, %function
 534              	Comp_0_ZeroCal:
 535              	.LFB15:
 421:.\Generated_Source\PSoC4/Comp_0.c **** 
 422:.\Generated_Source\PSoC4/Comp_0.c **** 
 423:.\Generated_Source\PSoC4/Comp_0.c **** /*******************************************************************************
 424:.\Generated_Source\PSoC4/Comp_0.c **** * Function Name: Comp_0_ZeroCal
 425:.\Generated_Source\PSoC4/Comp_0.c **** ********************************************************************************
 426:.\Generated_Source\PSoC4/Comp_0.c **** *
 427:.\Generated_Source\PSoC4/Comp_0.c **** * Summary:
 428:.\Generated_Source\PSoC4/Comp_0.c **** *  Performs custom calibration of the input offset to minimize error for a
ARM GAS  C:\Users\mlgjmoor\AppData\Local\Temp\cc3cJTlh.s 			page 18


 429:.\Generated_Source\PSoC4/Comp_0.c **** *  specific set of conditions: comparator reference voltage, supply voltage,
 430:.\Generated_Source\PSoC4/Comp_0.c **** *  and operating temperature. A reference voltage in the range at which the
 431:.\Generated_Source\PSoC4/Comp_0.c **** *  comparator will be used must be applied to one of the inputs. The two inputs
 432:.\Generated_Source\PSoC4/Comp_0.c **** *  will be shorted internally to perform the offset calibration.
 433:.\Generated_Source\PSoC4/Comp_0.c **** *
 434:.\Generated_Source\PSoC4/Comp_0.c **** * Parameters:
 435:.\Generated_Source\PSoC4/Comp_0.c **** *  None
 436:.\Generated_Source\PSoC4/Comp_0.c **** *
 437:.\Generated_Source\PSoC4/Comp_0.c **** * Return:
 438:.\Generated_Source\PSoC4/Comp_0.c **** *  The value from the comparator trim register after the offset calibration is
 439:.\Generated_Source\PSoC4/Comp_0.c **** *  complete. This value has the same format as the input parameter for the
 440:.\Generated_Source\PSoC4/Comp_0.c **** *  Comp_0_LoadTrim() API routine.
 441:.\Generated_Source\PSoC4/Comp_0.c **** *
 442:.\Generated_Source\PSoC4/Comp_0.c **** *******************************************************************************/
 443:.\Generated_Source\PSoC4/Comp_0.c **** uint32 Comp_0_ZeroCal(void)
 444:.\Generated_Source\PSoC4/Comp_0.c **** {
 536              		.loc 1 444 0
 537              		.cfi_startproc
 538 0000 38B5     		push	{r3, r4, r5, lr}
 539              		.cfi_def_cfa_offset 16
 540              		.cfi_offset 3, -16
 541              		.cfi_offset 4, -12
 542              		.cfi_offset 5, -8
 543              		.cfi_offset 14, -4
 445:.\Generated_Source\PSoC4/Comp_0.c ****     uint32 cmpOut;
 446:.\Generated_Source\PSoC4/Comp_0.c ****     uint32 i;
 447:.\Generated_Source\PSoC4/Comp_0.c **** 
 448:.\Generated_Source\PSoC4/Comp_0.c ****     Comp_0_DFT_REG |= Comp_0_DFT_CAL_EN;
 544              		.loc 1 448 0
 545 0002 264A     		ldr	r2, .L53
 546 0004 1168     		ldr	r1, [r2]
 547 0006 0123     		mov	r3, #1
 548 0008 0B43     		orr	r3, r1
 549 000a 1360     		str	r3, [r2]
 449:.\Generated_Source\PSoC4/Comp_0.c ****     Comp_0_TRIMA_REG = 0u;
 550              		.loc 1 449 0
 551 000c 0023     		mov	r3, #0
 552 000e 244A     		ldr	r2, .L53+4
 553 0010 1360     		str	r3, [r2]
 450:.\Generated_Source\PSoC4/Comp_0.c ****     Comp_0_TRIMB_REG = 0u;
 554              		.loc 1 450 0
 555 0012 244A     		ldr	r2, .L53+8
 556 0014 1360     		str	r3, [r2]
 451:.\Generated_Source\PSoC4/Comp_0.c **** 
 452:.\Generated_Source\PSoC4/Comp_0.c ****     CyDelayUs(1u);
 557              		.loc 1 452 0
 558 0016 0120     		mov	r0, #1
 559 0018 FFF7FEFF 		bl	CyDelayUs
 560              	.LVL35:
 453:.\Generated_Source\PSoC4/Comp_0.c **** 
 454:.\Generated_Source\PSoC4/Comp_0.c ****     cmpOut = Comp_0_GetCompare();
 561              		.loc 1 454 0
 562 001c FFF7FEFF 		bl	Comp_0_GetCompare
 563              	.LVL36:
 564 0020 051E     		sub	r5, r0, #0
 565              	.LVL37:
 455:.\Generated_Source\PSoC4/Comp_0.c **** 
ARM GAS  C:\Users\mlgjmoor\AppData\Local\Temp\cc3cJTlh.s 			page 19


 456:.\Generated_Source\PSoC4/Comp_0.c ****     if(0u != cmpOut)
 566              		.loc 1 456 0
 567 0022 02D0     		beq	.L45
 457:.\Generated_Source\PSoC4/Comp_0.c ****     {
 458:.\Generated_Source\PSoC4/Comp_0.c ****         Comp_0_TRIMA_REG = ((uint32) 0x01u << Comp_0_TRIMA_SIGNBIT);
 568              		.loc 1 458 0
 569 0024 1022     		mov	r2, #16
 570 0026 1E4B     		ldr	r3, .L53+4
 571 0028 1A60     		str	r2, [r3]
 572              	.L45:
 444:.\Generated_Source\PSoC4/Comp_0.c ****     uint32 cmpOut;
 573              		.loc 1 444 0 discriminator 1
 574 002a 1024     		mov	r4, #16
 575 002c 0BE0     		b	.L46
 576              	.LVL38:
 577              	.L48:
 459:.\Generated_Source\PSoC4/Comp_0.c ****     }
 460:.\Generated_Source\PSoC4/Comp_0.c **** 
 461:.\Generated_Source\PSoC4/Comp_0.c ****     for(i = (Comp_0_TRIMA_MAX_VALUE +1u ); i != 0u; i--)
 462:.\Generated_Source\PSoC4/Comp_0.c ****     {
 463:.\Generated_Source\PSoC4/Comp_0.c ****         Comp_0_TRIMA_REG++;
 578              		.loc 1 463 0
 579 002e 1C4A     		ldr	r2, .L53+4
 580 0030 1368     		ldr	r3, [r2]
 581 0032 0133     		add	r3, r3, #1
 582 0034 1360     		str	r3, [r2]
 464:.\Generated_Source\PSoC4/Comp_0.c ****         CyDelayUs(1u);
 583              		.loc 1 464 0
 584 0036 0120     		mov	r0, #1
 585 0038 FFF7FEFF 		bl	CyDelayUs
 586              	.LVL39:
 465:.\Generated_Source\PSoC4/Comp_0.c ****         if(cmpOut != Comp_0_GetCompare())
 587              		.loc 1 465 0
 588 003c FFF7FEFF 		bl	Comp_0_GetCompare
 589              	.LVL40:
 590 0040 A842     		cmp	r0, r5
 591 0042 02D1     		bne	.L47
 461:.\Generated_Source\PSoC4/Comp_0.c ****     {
 592              		.loc 1 461 0 discriminator 2
 593 0044 013C     		sub	r4, r4, #1
 594              	.LVL41:
 595              	.L46:
 461:.\Generated_Source\PSoC4/Comp_0.c ****     {
 596              		.loc 1 461 0 is_stmt 0 discriminator 1
 597 0046 002C     		cmp	r4, #0
 598 0048 F1D1     		bne	.L48
 599              	.L47:
 466:.\Generated_Source\PSoC4/Comp_0.c ****         {
 467:.\Generated_Source\PSoC4/Comp_0.c ****             break;
 468:.\Generated_Source\PSoC4/Comp_0.c ****         }
 469:.\Generated_Source\PSoC4/Comp_0.c ****     }
 470:.\Generated_Source\PSoC4/Comp_0.c **** 
 471:.\Generated_Source\PSoC4/Comp_0.c ****     if(((uint32)(Comp_0_CONFIG_REG >> Comp_0_CONFIG_REG_SHIFT) &
 600              		.loc 1 471 0 is_stmt 1
 601 004a 174B     		ldr	r3, .L53+12
 602 004c 1B68     		ldr	r3, [r3]
 603 004e 9B05     		lsl	r3, r3, #22
ARM GAS  C:\Users\mlgjmoor\AppData\Local\Temp\cc3cJTlh.s 			page 20


 604 0050 9B0F     		lsr	r3, r3, #30
 605 0052 16D1     		bne	.L49
 472:.\Generated_Source\PSoC4/Comp_0.c ****         Comp_0_SPEED_PARAM_MASK) == Comp_0_MED_SPEED)
 473:.\Generated_Source\PSoC4/Comp_0.c ****     {
 474:.\Generated_Source\PSoC4/Comp_0.c ****         cmpOut = Comp_0_GetCompare();
 606              		.loc 1 474 0
 607 0054 FFF7FEFF 		bl	Comp_0_GetCompare
 608              	.LVL42:
 609 0058 051E     		sub	r5, r0, #0
 610              	.LVL43:
 475:.\Generated_Source\PSoC4/Comp_0.c **** 
 476:.\Generated_Source\PSoC4/Comp_0.c ****         if(0u == cmpOut)
 611              		.loc 1 476 0
 612 005a 02D1     		bne	.L50
 477:.\Generated_Source\PSoC4/Comp_0.c ****         {
 478:.\Generated_Source\PSoC4/Comp_0.c ****             Comp_0_TRIMB_REG = ((uint32)1u << Comp_0_TRIMB_SIGNBIT);
 613              		.loc 1 478 0
 614 005c 1022     		mov	r2, #16
 615 005e 114B     		ldr	r3, .L53+8
 616 0060 1A60     		str	r2, [r3]
 617              	.L50:
 444:.\Generated_Source\PSoC4/Comp_0.c ****     uint32 cmpOut;
 618              		.loc 1 444 0 discriminator 1
 619 0062 1024     		mov	r4, #16
 620              	.LVL44:
 621 0064 0BE0     		b	.L51
 622              	.LVL45:
 623              	.L52:
 479:.\Generated_Source\PSoC4/Comp_0.c ****         }
 480:.\Generated_Source\PSoC4/Comp_0.c **** 
 481:.\Generated_Source\PSoC4/Comp_0.c ****         for(i = (Comp_0_TRIMB_MAX_VALUE +1u ); i != 0u; i--)
 482:.\Generated_Source\PSoC4/Comp_0.c ****         {
 483:.\Generated_Source\PSoC4/Comp_0.c ****             Comp_0_TRIMB_REG++;
 624              		.loc 1 483 0
 625 0066 0F4A     		ldr	r2, .L53+8
 626 0068 1368     		ldr	r3, [r2]
 627 006a 0133     		add	r3, r3, #1
 628 006c 1360     		str	r3, [r2]
 484:.\Generated_Source\PSoC4/Comp_0.c ****             CyDelayUs(1u);
 629              		.loc 1 484 0
 630 006e 0120     		mov	r0, #1
 631 0070 FFF7FEFF 		bl	CyDelayUs
 632              	.LVL46:
 485:.\Generated_Source\PSoC4/Comp_0.c ****             if(cmpOut != Comp_0_GetCompare())
 633              		.loc 1 485 0
 634 0074 FFF7FEFF 		bl	Comp_0_GetCompare
 635              	.LVL47:
 636 0078 A842     		cmp	r0, r5
 637 007a 02D1     		bne	.L49
 481:.\Generated_Source\PSoC4/Comp_0.c ****         {
 638              		.loc 1 481 0 discriminator 2
 639 007c 013C     		sub	r4, r4, #1
 640              	.LVL48:
 641              	.L51:
 481:.\Generated_Source\PSoC4/Comp_0.c ****         {
 642              		.loc 1 481 0 is_stmt 0 discriminator 1
 643 007e 002C     		cmp	r4, #0
ARM GAS  C:\Users\mlgjmoor\AppData\Local\Temp\cc3cJTlh.s 			page 21


 644 0080 F1D1     		bne	.L52
 645              	.L49:
 486:.\Generated_Source\PSoC4/Comp_0.c ****             {
 487:.\Generated_Source\PSoC4/Comp_0.c ****                 break;
 488:.\Generated_Source\PSoC4/Comp_0.c ****             }
 489:.\Generated_Source\PSoC4/Comp_0.c ****         }
 490:.\Generated_Source\PSoC4/Comp_0.c ****     }
 491:.\Generated_Source\PSoC4/Comp_0.c **** 
 492:.\Generated_Source\PSoC4/Comp_0.c ****     Comp_0_DFT_REG &= ((uint32)~Comp_0_DFT_CAL_EN);
 646              		.loc 1 492 0 is_stmt 1
 647 0082 064A     		ldr	r2, .L53
 648 0084 1368     		ldr	r3, [r2]
 649 0086 0121     		mov	r1, #1
 650 0088 8B43     		bic	r3, r1
 651 008a 1360     		str	r3, [r2]
 493:.\Generated_Source\PSoC4/Comp_0.c **** 
 494:.\Generated_Source\PSoC4/Comp_0.c ****     return (Comp_0_TRIMA_REG | ((uint32)Comp_0_TRIMB_REG << Comp_0_TRIMB_SHIFT));
 652              		.loc 1 494 0
 653 008c 044B     		ldr	r3, .L53+4
 654 008e 1B68     		ldr	r3, [r3]
 655 0090 044A     		ldr	r2, .L53+8
 656 0092 1068     		ldr	r0, [r2]
 657 0094 0002     		lsl	r0, r0, #8
 658 0096 1843     		orr	r0, r3
 495:.\Generated_Source\PSoC4/Comp_0.c **** }
 659              		.loc 1 495 0
 660              		@ sp needed
 661              	.LVL49:
 662              	.LVL50:
 663 0098 38BD     		pop	{r3, r4, r5, pc}
 664              	.L54:
 665 009a C046     		.align	2
 666              	.L53:
 667 009c 08002B40 		.word	1076559880
 668 00a0 08FF2B40 		.word	1076625160
 669 00a4 0CFF2B40 		.word	1076625164
 670 00a8 04002B40 		.word	1076559876
 671              		.cfi_endproc
 672              	.LFE15:
 673              		.size	Comp_0_ZeroCal, .-Comp_0_ZeroCal
 674              		.section	.text.Comp_0_LoadTrim,"ax",%progbits
 675              		.align	2
 676              		.global	Comp_0_LoadTrim
 677              		.code	16
 678              		.thumb_func
 679              		.type	Comp_0_LoadTrim, %function
 680              	Comp_0_LoadTrim:
 681              	.LFB16:
 496:.\Generated_Source\PSoC4/Comp_0.c **** 
 497:.\Generated_Source\PSoC4/Comp_0.c **** 
 498:.\Generated_Source\PSoC4/Comp_0.c **** /*******************************************************************************
 499:.\Generated_Source\PSoC4/Comp_0.c **** * Function Name: Comp_0_LoadTrim
 500:.\Generated_Source\PSoC4/Comp_0.c **** ********************************************************************************
 501:.\Generated_Source\PSoC4/Comp_0.c **** *
 502:.\Generated_Source\PSoC4/Comp_0.c **** * Summary:
 503:.\Generated_Source\PSoC4/Comp_0.c **** *  This function writes a value into the comparator offset trim register.
 504:.\Generated_Source\PSoC4/Comp_0.c **** *
ARM GAS  C:\Users\mlgjmoor\AppData\Local\Temp\cc3cJTlh.s 			page 22


 505:.\Generated_Source\PSoC4/Comp_0.c **** * Parameters:
 506:.\Generated_Source\PSoC4/Comp_0.c **** *  trimVal: Value to be stored in the comparator offset trim register. This
 507:.\Generated_Source\PSoC4/Comp_0.c **** *  value has the same format as the parameter returned by the
 508:.\Generated_Source\PSoC4/Comp_0.c **** *  Comp_0_ZeroCal() API routine.
 509:.\Generated_Source\PSoC4/Comp_0.c **** *
 510:.\Generated_Source\PSoC4/Comp_0.c **** * Return:
 511:.\Generated_Source\PSoC4/Comp_0.c **** *  None
 512:.\Generated_Source\PSoC4/Comp_0.c **** *
 513:.\Generated_Source\PSoC4/Comp_0.c **** *******************************************************************************/
 514:.\Generated_Source\PSoC4/Comp_0.c **** void Comp_0_LoadTrim(uint32 trimVal)
 515:.\Generated_Source\PSoC4/Comp_0.c **** {
 682              		.loc 1 515 0
 683              		.cfi_startproc
 684              	.LVL51:
 516:.\Generated_Source\PSoC4/Comp_0.c ****     Comp_0_TRIMA_REG = (trimVal & Comp_0_TRIMA_MASK);
 685              		.loc 1 516 0
 686 0000 1F23     		mov	r3, #31
 687 0002 191C     		mov	r1, r3
 688 0004 0140     		and	r1, r0
 689 0006 034A     		ldr	r2, .L56
 690 0008 1160     		str	r1, [r2]
 517:.\Generated_Source\PSoC4/Comp_0.c ****     Comp_0_TRIMB_REG = ((trimVal >> Comp_0_TRIMB_SHIFT) & Comp_0_TRIMB_MASK);
 691              		.loc 1 517 0
 692 000a 000A     		lsr	r0, r0, #8
 693              	.LVL52:
 694 000c 1840     		and	r0, r3
 695 000e 024B     		ldr	r3, .L56+4
 696 0010 1860     		str	r0, [r3]
 518:.\Generated_Source\PSoC4/Comp_0.c **** }
 697              		.loc 1 518 0
 698              		@ sp needed
 699 0012 7047     		bx	lr
 700              	.L57:
 701              		.align	2
 702              	.L56:
 703 0014 08FF2B40 		.word	1076625160
 704 0018 0CFF2B40 		.word	1076625164
 705              		.cfi_endproc
 706              	.LFE16:
 707              		.size	Comp_0_LoadTrim, .-Comp_0_LoadTrim
 708              		.section	.text.Comp_0_SetOutputMode,"ax",%progbits
 709              		.align	2
 710              		.global	Comp_0_SetOutputMode
 711              		.code	16
 712              		.thumb_func
 713              		.type	Comp_0_SetOutputMode, %function
 714              	Comp_0_SetOutputMode:
 715              	.LFB17:
 519:.\Generated_Source\PSoC4/Comp_0.c **** 
 520:.\Generated_Source\PSoC4/Comp_0.c **** 
 521:.\Generated_Source\PSoC4/Comp_0.c **** #if (Comp_0_CY_LPCOMP_V2)
 522:.\Generated_Source\PSoC4/Comp_0.c ****     
 523:.\Generated_Source\PSoC4/Comp_0.c **** /*******************************************************************************
 524:.\Generated_Source\PSoC4/Comp_0.c **** * Function Name: Comp_0_SetOutputMode
 525:.\Generated_Source\PSoC4/Comp_0.c **** ********************************************************************************
 526:.\Generated_Source\PSoC4/Comp_0.c **** *
 527:.\Generated_Source\PSoC4/Comp_0.c **** * Summary:
ARM GAS  C:\Users\mlgjmoor\AppData\Local\Temp\cc3cJTlh.s 			page 23


 528:.\Generated_Source\PSoC4/Comp_0.c **** *  Set comparator output mode. 
 529:.\Generated_Source\PSoC4/Comp_0.c **** *
 530:.\Generated_Source\PSoC4/Comp_0.c **** * Parameters:
 531:.\Generated_Source\PSoC4/Comp_0.c **** *  uint32 mode: Comparator output mode value
 532:.\Generated_Source\PSoC4/Comp_0.c **** *  Comp_0_OUT_DIRECT - Direct output
 533:.\Generated_Source\PSoC4/Comp_0.c **** *  Comp_0_OUT_SYNC   - Synchronized output
 534:.\Generated_Source\PSoC4/Comp_0.c **** *  Comp_0_OUT_PULSE  - Pulse output
 535:.\Generated_Source\PSoC4/Comp_0.c **** *
 536:.\Generated_Source\PSoC4/Comp_0.c **** * Return:
 537:.\Generated_Source\PSoC4/Comp_0.c **** *  None
 538:.\Generated_Source\PSoC4/Comp_0.c **** *
 539:.\Generated_Source\PSoC4/Comp_0.c **** *******************************************************************************/
 540:.\Generated_Source\PSoC4/Comp_0.c **** void Comp_0_SetOutputMode(uint32 mode)
 541:.\Generated_Source\PSoC4/Comp_0.c **** {
 716              		.loc 1 541 0
 717              		.cfi_startproc
 718              	.LVL53:
 719 0000 10B5     		push	{r4, lr}
 720              		.cfi_def_cfa_offset 8
 721              		.cfi_offset 4, -8
 722              		.cfi_offset 14, -4
 723 0002 041C     		mov	r4, r0
 542:.\Generated_Source\PSoC4/Comp_0.c ****     uint32 config;
 543:.\Generated_Source\PSoC4/Comp_0.c ****     uint8 enableInterrupts;
 544:.\Generated_Source\PSoC4/Comp_0.c ****     
 545:.\Generated_Source\PSoC4/Comp_0.c ****     enableInterrupts = CyEnterCriticalSection();
 724              		.loc 1 545 0
 725 0004 FFF7FEFF 		bl	CyEnterCriticalSection
 726              	.LVL54:
 546:.\Generated_Source\PSoC4/Comp_0.c ****     config = Comp_0_CONFIG_REG & ((uint32)~(Comp_0_CONFIG_DSI_BYPASS | \
 727              		.loc 1 546 0
 728 0008 0B4B     		ldr	r3, .L61
 729 000a 1A68     		ldr	r2, [r3]
 730 000c 0B4B     		ldr	r3, .L61+4
 731 000e 1A40     		and	r2, r3
 732 0010 111C     		mov	r1, r2
 733              	.LVL55:
 547:.\Generated_Source\PSoC4/Comp_0.c ****                                                      Comp_0_CONFIG_DSI_LEVEL));
 548:.\Generated_Source\PSoC4/Comp_0.c ****     Comp_0_CONFIG_REG = config | Comp_0_GET_CONFIG_DSI_BYPASS(mode) | \
 734              		.loc 1 548 0
 735 0012 0223     		mov	r3, #2
 736 0014 2340     		and	r3, r4
 737 0016 01D0     		beq	.L59
 738 0018 8023     		mov	r3, #128
 739 001a 5B03     		lsl	r3, r3, #13
 740              	.L59:
 741              		.loc 1 548 0 is_stmt 0 discriminator 4
 742 001c 0B43     		orr	r3, r1
 743 001e 1A1C     		mov	r2, r3
 549:.\Generated_Source\PSoC4/Comp_0.c ****                                            Comp_0_GET_CONFIG_DSI_LEVEL(mode);
 744              		.loc 1 549 0 is_stmt 1 discriminator 4
 745 0020 0123     		mov	r3, #1
 746 0022 2340     		and	r3, r4
 747 0024 01D0     		beq	.L60
 748              		.loc 1 549 0 is_stmt 0
 749 0026 8023     		mov	r3, #128
 750 0028 9B03     		lsl	r3, r3, #14
ARM GAS  C:\Users\mlgjmoor\AppData\Local\Temp\cc3cJTlh.s 			page 24


 751              	.L60:
 548:.\Generated_Source\PSoC4/Comp_0.c ****                                            Comp_0_GET_CONFIG_DSI_LEVEL(mode);
 752              		.loc 1 548 0 is_stmt 1
 753 002a 1343     		orr	r3, r2
 754 002c 024A     		ldr	r2, .L61
 755 002e 1360     		str	r3, [r2]
 550:.\Generated_Source\PSoC4/Comp_0.c ****     CyExitCriticalSection(enableInterrupts);
 756              		.loc 1 550 0
 757 0030 FFF7FEFF 		bl	CyExitCriticalSection
 758              	.LVL56:
 551:.\Generated_Source\PSoC4/Comp_0.c **** }
 759              		.loc 1 551 0
 760              		@ sp needed
 761              	.LVL57:
 762 0034 10BD     		pop	{r4, pc}
 763              	.L62:
 764 0036 C046     		.align	2
 765              	.L61:
 766 0038 04002B40 		.word	1076559876
 767 003c FFFFCFFF 		.word	-3145729
 768              		.cfi_endproc
 769              	.LFE17:
 770              		.size	Comp_0_SetOutputMode, .-Comp_0_SetOutputMode
 771              		.section	.text.Comp_0_SetInterruptMask,"ax",%progbits
 772              		.align	2
 773              		.global	Comp_0_SetInterruptMask
 774              		.code	16
 775              		.thumb_func
 776              		.type	Comp_0_SetInterruptMask, %function
 777              	Comp_0_SetInterruptMask:
 778              	.LFB18:
 552:.\Generated_Source\PSoC4/Comp_0.c **** 
 553:.\Generated_Source\PSoC4/Comp_0.c **** 
 554:.\Generated_Source\PSoC4/Comp_0.c **** /*******************************************************************************
 555:.\Generated_Source\PSoC4/Comp_0.c **** * Function Name: Comp_0_SetInterruptMask
 556:.\Generated_Source\PSoC4/Comp_0.c **** ********************************************************************************
 557:.\Generated_Source\PSoC4/Comp_0.c **** *
 558:.\Generated_Source\PSoC4/Comp_0.c **** * Summary:
 559:.\Generated_Source\PSoC4/Comp_0.c **** *  Configures which bits of interrupt request register will trigger an interrupt 
 560:.\Generated_Source\PSoC4/Comp_0.c **** *  event.
 561:.\Generated_Source\PSoC4/Comp_0.c **** *
 562:.\Generated_Source\PSoC4/Comp_0.c **** * Parameters:
 563:.\Generated_Source\PSoC4/Comp_0.c **** *  uint32 interruptMask: Mask of interrupts to set. Each component instance has
 564:.\Generated_Source\PSoC4/Comp_0.c **** *  a mask value: Comp_0_INTR_MASK.
 565:.\Generated_Source\PSoC4/Comp_0.c **** *
 566:.\Generated_Source\PSoC4/Comp_0.c **** * Return:
 567:.\Generated_Source\PSoC4/Comp_0.c **** *  None
 568:.\Generated_Source\PSoC4/Comp_0.c **** *
 569:.\Generated_Source\PSoC4/Comp_0.c **** *******************************************************************************/
 570:.\Generated_Source\PSoC4/Comp_0.c **** void Comp_0_SetInterruptMask(uint32 interruptMask)
 571:.\Generated_Source\PSoC4/Comp_0.c **** {
 779              		.loc 1 571 0
 780              		.cfi_startproc
 781              	.LVL58:
 572:.\Generated_Source\PSoC4/Comp_0.c ****     #if(CY_IP_SRSSV2)
 573:.\Generated_Source\PSoC4/Comp_0.c ****         Comp_0_intrMaskRegState = interruptMask;
 782              		.loc 1 573 0
ARM GAS  C:\Users\mlgjmoor\AppData\Local\Temp\cc3cJTlh.s 			page 25


 783 0000 024B     		ldr	r3, .L64
 784 0002 1860     		str	r0, [r3]
 574:.\Generated_Source\PSoC4/Comp_0.c ****     #endif /* (CY_IP_SRSSV2) */
 575:.\Generated_Source\PSoC4/Comp_0.c ****     
 576:.\Generated_Source\PSoC4/Comp_0.c ****     Comp_0_INTR_MASK_REG = interruptMask;
 785              		.loc 1 576 0
 786 0004 024B     		ldr	r3, .L64+4
 787 0006 1860     		str	r0, [r3]
 577:.\Generated_Source\PSoC4/Comp_0.c **** }
 788              		.loc 1 577 0
 789              		@ sp needed
 790 0008 7047     		bx	lr
 791              	.L65:
 792 000a C046     		.align	2
 793              	.L64:
 794 000c 00000000 		.word	.LANCHOR1
 795 0010 18002B40 		.word	1076559896
 796              		.cfi_endproc
 797              	.LFE18:
 798              		.size	Comp_0_SetInterruptMask, .-Comp_0_SetInterruptMask
 799              		.section	.text.Comp_0_GetInterruptMask,"ax",%progbits
 800              		.align	2
 801              		.global	Comp_0_GetInterruptMask
 802              		.code	16
 803              		.thumb_func
 804              		.type	Comp_0_GetInterruptMask, %function
 805              	Comp_0_GetInterruptMask:
 806              	.LFB19:
 578:.\Generated_Source\PSoC4/Comp_0.c **** 
 579:.\Generated_Source\PSoC4/Comp_0.c **** 
 580:.\Generated_Source\PSoC4/Comp_0.c **** /*******************************************************************************
 581:.\Generated_Source\PSoC4/Comp_0.c **** * Function Name: Comp_0_GetInterruptMask
 582:.\Generated_Source\PSoC4/Comp_0.c **** ********************************************************************************
 583:.\Generated_Source\PSoC4/Comp_0.c **** *
 584:.\Generated_Source\PSoC4/Comp_0.c **** * Summary:
 585:.\Generated_Source\PSoC4/Comp_0.c **** *  Returns interrupt mask.
 586:.\Generated_Source\PSoC4/Comp_0.c **** *
 587:.\Generated_Source\PSoC4/Comp_0.c **** * Parameters:
 588:.\Generated_Source\PSoC4/Comp_0.c **** *  None
 589:.\Generated_Source\PSoC4/Comp_0.c **** *
 590:.\Generated_Source\PSoC4/Comp_0.c **** * Return:
 591:.\Generated_Source\PSoC4/Comp_0.c **** *  uint32:  Mask of enabled interrupt source. Each component instance 
 592:.\Generated_Source\PSoC4/Comp_0.c **** *  has a mask value: Comp_0_INTR_MASK.
 593:.\Generated_Source\PSoC4/Comp_0.c **** *
 594:.\Generated_Source\PSoC4/Comp_0.c **** *******************************************************************************/
 595:.\Generated_Source\PSoC4/Comp_0.c **** uint32 Comp_0_GetInterruptMask(void)
 596:.\Generated_Source\PSoC4/Comp_0.c **** {
 807              		.loc 1 596 0
 808              		.cfi_startproc
 597:.\Generated_Source\PSoC4/Comp_0.c ****     return (Comp_0_INTR_MASK_REG);
 809              		.loc 1 597 0
 810 0000 014B     		ldr	r3, .L67
 811 0002 1868     		ldr	r0, [r3]
 598:.\Generated_Source\PSoC4/Comp_0.c **** }
 812              		.loc 1 598 0
 813              		@ sp needed
 814 0004 7047     		bx	lr
ARM GAS  C:\Users\mlgjmoor\AppData\Local\Temp\cc3cJTlh.s 			page 26


 815              	.L68:
 816 0006 C046     		.align	2
 817              	.L67:
 818 0008 18002B40 		.word	1076559896
 819              		.cfi_endproc
 820              	.LFE19:
 821              		.size	Comp_0_GetInterruptMask, .-Comp_0_GetInterruptMask
 822              		.section	.text.Comp_0_GetInterruptSourceMasked,"ax",%progbits
 823              		.align	2
 824              		.global	Comp_0_GetInterruptSourceMasked
 825              		.code	16
 826              		.thumb_func
 827              		.type	Comp_0_GetInterruptSourceMasked, %function
 828              	Comp_0_GetInterruptSourceMasked:
 829              	.LFB20:
 599:.\Generated_Source\PSoC4/Comp_0.c **** 
 600:.\Generated_Source\PSoC4/Comp_0.c **** 
 601:.\Generated_Source\PSoC4/Comp_0.c **** /*******************************************************************************
 602:.\Generated_Source\PSoC4/Comp_0.c **** * Function Name: Comp_0_GetInterruptSourceMasked
 603:.\Generated_Source\PSoC4/Comp_0.c **** ********************************************************************************
 604:.\Generated_Source\PSoC4/Comp_0.c **** *
 605:.\Generated_Source\PSoC4/Comp_0.c **** * Summary:
 606:.\Generated_Source\PSoC4/Comp_0.c **** *  Returns interrupt request register masked by interrupt mask. Returns the result 
 607:.\Generated_Source\PSoC4/Comp_0.c **** *  of bitwise AND operation between corresponding interrupt request and mask bits.
 608:.\Generated_Source\PSoC4/Comp_0.c **** *
 609:.\Generated_Source\PSoC4/Comp_0.c **** * Parameters:
 610:.\Generated_Source\PSoC4/Comp_0.c **** *  None
 611:.\Generated_Source\PSoC4/Comp_0.c **** *
 612:.\Generated_Source\PSoC4/Comp_0.c **** * Return:
 613:.\Generated_Source\PSoC4/Comp_0.c **** *  uint32: Status of enabled interrupt source. Each component instance 
 614:.\Generated_Source\PSoC4/Comp_0.c **** *  has a mask value: Comp_0_INTR_MASKED.
 615:.\Generated_Source\PSoC4/Comp_0.c **** *
 616:.\Generated_Source\PSoC4/Comp_0.c **** *******************************************************************************/
 617:.\Generated_Source\PSoC4/Comp_0.c **** uint32 Comp_0_GetInterruptSourceMasked(void)
 618:.\Generated_Source\PSoC4/Comp_0.c **** {
 830              		.loc 1 618 0
 831              		.cfi_startproc
 619:.\Generated_Source\PSoC4/Comp_0.c ****     return (Comp_0_INTR_MASKED_REG);
 832              		.loc 1 619 0
 833 0000 014B     		ldr	r3, .L70
 834 0002 1868     		ldr	r0, [r3]
 620:.\Generated_Source\PSoC4/Comp_0.c **** }
 835              		.loc 1 620 0
 836              		@ sp needed
 837 0004 7047     		bx	lr
 838              	.L71:
 839 0006 C046     		.align	2
 840              	.L70:
 841 0008 1C002B40 		.word	1076559900
 842              		.cfi_endproc
 843              	.LFE20:
 844              		.size	Comp_0_GetInterruptSourceMasked, .-Comp_0_GetInterruptSourceMasked
 845              		.global	Comp_0_initVar
 846              		.section	.noinit,"aw",%progbits
 847              		.align	2
 848              		.set	.LANCHOR1,. + 0
 849              		.type	Comp_0_intrMaskRegState, %object
ARM GAS  C:\Users\mlgjmoor\AppData\Local\Temp\cc3cJTlh.s 			page 27


 850              		.size	Comp_0_intrMaskRegState, 4
 851              	Comp_0_intrMaskRegState:
 852 0000 00000000 		.space	4
 853              		.bss
 854              		.align	2
 855              		.set	.LANCHOR0,. + 0
 856              		.type	Comp_0_internalIntr, %object
 857              		.size	Comp_0_internalIntr, 4
 858              	Comp_0_internalIntr:
 859 0000 00000000 		.space	4
 860              		.type	Comp_0_initVar, %object
 861              		.size	Comp_0_initVar, 1
 862              	Comp_0_initVar:
 863 0004 00       		.space	1
 864 0005 000000   		.text
 865              	.Letext0:
 866              		.file 2 ".\\Generated_Source\\PSoC4\\cytypes.h"
 867              		.file 3 ".\\Generated_Source\\PSoC4\\CyLib.h"
 868              		.file 4 ".\\Generated_Source\\PSoC4\\cyPm.h"