ARM GAS  C:\Users\mlgjmoor\AppData\Local\Temp\ccymZVrS.s 			page 1


   1              		.cpu cortex-m0
   2              		.fpu softvfp
   3              		.eabi_attribute 20, 1
   4              		.eabi_attribute 21, 1
   5              		.eabi_attribute 23, 3
   6              		.eabi_attribute 24, 1
   7              		.eabi_attribute 25, 1
   8              		.eabi_attribute 26, 1
   9              		.eabi_attribute 30, 1
  10              		.eabi_attribute 34, 0
  11              		.eabi_attribute 18, 4
  12              		.code	16
  13              		.file	"Comp_1.c"
  14              		.text
  15              	.Ltext0:
  16              		.cfi_sections	.debug_frame
  17              		.section	.text.Comp_1_Init,"ax",%progbits
  18              		.align	2
  19              		.global	Comp_1_Init
  20              		.code	16
  21              		.thumb_func
  22              		.type	Comp_1_Init, %function
  23              	Comp_1_Init:
  24              	.LFB4:
  25              		.file 1 ".\\Generated_Source\\PSoC4\\Comp_1.c"
   1:.\Generated_Source\PSoC4/Comp_1.c **** /*******************************************************************************
   2:.\Generated_Source\PSoC4/Comp_1.c **** * File Name: Comp_1.c
   3:.\Generated_Source\PSoC4/Comp_1.c **** * Version 2.20
   4:.\Generated_Source\PSoC4/Comp_1.c **** *
   5:.\Generated_Source\PSoC4/Comp_1.c **** * Description:
   6:.\Generated_Source\PSoC4/Comp_1.c **** *  This file provides the source code to the API for the Low Power Comparator
   7:.\Generated_Source\PSoC4/Comp_1.c **** *  component.
   8:.\Generated_Source\PSoC4/Comp_1.c **** *
   9:.\Generated_Source\PSoC4/Comp_1.c **** * Note:
  10:.\Generated_Source\PSoC4/Comp_1.c **** *  None
  11:.\Generated_Source\PSoC4/Comp_1.c **** *
  12:.\Generated_Source\PSoC4/Comp_1.c **** ********************************************************************************
  13:.\Generated_Source\PSoC4/Comp_1.c **** * Copyright 2013-2016, Cypress Semiconductor Corporation.  All rights reserved.
  14:.\Generated_Source\PSoC4/Comp_1.c **** * You may use this file only in accordance with the license, terms, conditions,
  15:.\Generated_Source\PSoC4/Comp_1.c **** * disclaimers, and limitations in the end user license agreement accompanying
  16:.\Generated_Source\PSoC4/Comp_1.c **** * the software package with which this file was provided.
  17:.\Generated_Source\PSoC4/Comp_1.c **** *******************************************************************************/
  18:.\Generated_Source\PSoC4/Comp_1.c **** 
  19:.\Generated_Source\PSoC4/Comp_1.c **** #include "Comp_1.h"
  20:.\Generated_Source\PSoC4/Comp_1.c **** #include "CyLib.h"
  21:.\Generated_Source\PSoC4/Comp_1.c **** #include "cyPm.h"
  22:.\Generated_Source\PSoC4/Comp_1.c **** 
  23:.\Generated_Source\PSoC4/Comp_1.c **** uint8 Comp_1_initVar = 0u;
  24:.\Generated_Source\PSoC4/Comp_1.c **** static uint32 Comp_1_internalIntr = 0u;
  25:.\Generated_Source\PSoC4/Comp_1.c **** #if(Comp_1_CY_LPCOMP_V2)
  26:.\Generated_Source\PSoC4/Comp_1.c ****     #if(CY_IP_SRSSV2)
  27:.\Generated_Source\PSoC4/Comp_1.c ****         /* This variable saves INTR_MASK register since it get reset after wakeup 
  28:.\Generated_Source\PSoC4/Comp_1.c ****         * from Hibernate. Attribute CY_NOINIT puts SRAM variable in memory section 
  29:.\Generated_Source\PSoC4/Comp_1.c ****         * which is retained in low power modes 
  30:.\Generated_Source\PSoC4/Comp_1.c ****         */
  31:.\Generated_Source\PSoC4/Comp_1.c ****         CY_NOINIT static uint32 Comp_1_intrMaskRegState;
  32:.\Generated_Source\PSoC4/Comp_1.c ****     #endif /* (CY_IP_SRSSV2) */
ARM GAS  C:\Users\mlgjmoor\AppData\Local\Temp\ccymZVrS.s 			page 2


  33:.\Generated_Source\PSoC4/Comp_1.c **** #endif /* (Comp_1_CY_LPCOMP_V2) */
  34:.\Generated_Source\PSoC4/Comp_1.c **** 
  35:.\Generated_Source\PSoC4/Comp_1.c **** 
  36:.\Generated_Source\PSoC4/Comp_1.c **** /*******************************************************************************
  37:.\Generated_Source\PSoC4/Comp_1.c **** * Function Name: Comp_1_Start
  38:.\Generated_Source\PSoC4/Comp_1.c **** ********************************************************************************
  39:.\Generated_Source\PSoC4/Comp_1.c **** *
  40:.\Generated_Source\PSoC4/Comp_1.c **** * Summary:
  41:.\Generated_Source\PSoC4/Comp_1.c **** *  Performs all of the required initialization for the component and enables
  42:.\Generated_Source\PSoC4/Comp_1.c **** *  power to the block. The first time the routine is executed, the component is
  43:.\Generated_Source\PSoC4/Comp_1.c **** *  initialized to the configuration from the customizer. When called to restart
  44:.\Generated_Source\PSoC4/Comp_1.c **** *  the comparator following a Comp_1_Stop() call, the current
  45:.\Generated_Source\PSoC4/Comp_1.c **** *  component parameter settings are retained.
  46:.\Generated_Source\PSoC4/Comp_1.c **** *
  47:.\Generated_Source\PSoC4/Comp_1.c **** * Parameters:
  48:.\Generated_Source\PSoC4/Comp_1.c **** *   None
  49:.\Generated_Source\PSoC4/Comp_1.c **** *
  50:.\Generated_Source\PSoC4/Comp_1.c **** * Return:
  51:.\Generated_Source\PSoC4/Comp_1.c **** *  None
  52:.\Generated_Source\PSoC4/Comp_1.c **** *
  53:.\Generated_Source\PSoC4/Comp_1.c **** * Global variables:
  54:.\Generated_Source\PSoC4/Comp_1.c **** *  Comp_1_initVar: Is modified when this function is called for the
  55:.\Generated_Source\PSoC4/Comp_1.c **** *   first time. Is used to ensure that initialization happens only once.
  56:.\Generated_Source\PSoC4/Comp_1.c **** *
  57:.\Generated_Source\PSoC4/Comp_1.c **** *******************************************************************************/
  58:.\Generated_Source\PSoC4/Comp_1.c **** void Comp_1_Start(void)
  59:.\Generated_Source\PSoC4/Comp_1.c **** {
  60:.\Generated_Source\PSoC4/Comp_1.c ****     if(0u == Comp_1_initVar)
  61:.\Generated_Source\PSoC4/Comp_1.c ****     {
  62:.\Generated_Source\PSoC4/Comp_1.c ****         Comp_1_Init();
  63:.\Generated_Source\PSoC4/Comp_1.c ****         Comp_1_initVar = 1u;
  64:.\Generated_Source\PSoC4/Comp_1.c ****     }
  65:.\Generated_Source\PSoC4/Comp_1.c ****     Comp_1_Enable();
  66:.\Generated_Source\PSoC4/Comp_1.c **** }
  67:.\Generated_Source\PSoC4/Comp_1.c **** 
  68:.\Generated_Source\PSoC4/Comp_1.c **** 
  69:.\Generated_Source\PSoC4/Comp_1.c **** /*******************************************************************************
  70:.\Generated_Source\PSoC4/Comp_1.c **** * Function Name: Comp_1_Init
  71:.\Generated_Source\PSoC4/Comp_1.c **** ********************************************************************************
  72:.\Generated_Source\PSoC4/Comp_1.c **** *
  73:.\Generated_Source\PSoC4/Comp_1.c **** * Summary:
  74:.\Generated_Source\PSoC4/Comp_1.c **** *  Initializes or restores the component according to the customizer settings.
  75:.\Generated_Source\PSoC4/Comp_1.c **** *  It is not necessary to call Comp_1_Init() because the
  76:.\Generated_Source\PSoC4/Comp_1.c **** *  Comp_1_Start() API calls this function and is the preferred method
  77:.\Generated_Source\PSoC4/Comp_1.c **** *  to begin component operation.
  78:.\Generated_Source\PSoC4/Comp_1.c **** *
  79:.\Generated_Source\PSoC4/Comp_1.c **** * Parameters:
  80:.\Generated_Source\PSoC4/Comp_1.c **** *  None
  81:.\Generated_Source\PSoC4/Comp_1.c **** *
  82:.\Generated_Source\PSoC4/Comp_1.c **** * Return:
  83:.\Generated_Source\PSoC4/Comp_1.c **** *  None
  84:.\Generated_Source\PSoC4/Comp_1.c **** *
  85:.\Generated_Source\PSoC4/Comp_1.c **** *******************************************************************************/
  86:.\Generated_Source\PSoC4/Comp_1.c **** void Comp_1_Init(void)
  87:.\Generated_Source\PSoC4/Comp_1.c **** {
  26              		.loc 1 87 0
  27              		.cfi_startproc
ARM GAS  C:\Users\mlgjmoor\AppData\Local\Temp\ccymZVrS.s 			page 3


  28 0000 10B5     		push	{r4, lr}
  29              		.cfi_def_cfa_offset 8
  30              		.cfi_offset 4, -8
  31              		.cfi_offset 14, -4
  88:.\Generated_Source\PSoC4/Comp_1.c ****     uint8 enableInterrupts;
  89:.\Generated_Source\PSoC4/Comp_1.c **** 
  90:.\Generated_Source\PSoC4/Comp_1.c ****     enableInterrupts = CyEnterCriticalSection();
  32              		.loc 1 90 0
  33 0002 FFF7FEFF 		bl	CyEnterCriticalSection
  34              	.LVL0:
  35 0006 041C     		mov	r4, r0
  36              	.LVL1:
  91:.\Generated_Source\PSoC4/Comp_1.c ****     Comp_1_CONFIG_REG |= Comp_1_CONFIG_REG_DEFAULT;
  37              		.loc 1 91 0
  38 0008 0E4A     		ldr	r2, .L4
  39 000a 1368     		ldr	r3, [r2]
  40 000c 0E49     		ldr	r1, .L4+4
  41 000e 0B43     		orr	r3, r1
  42 0010 1360     		str	r3, [r2]
  92:.\Generated_Source\PSoC4/Comp_1.c ****     Comp_1_internalIntr = Comp_1_GET_CONFIG_INTR(Comp_1_INTERRUPT);
  43              		.loc 1 92 0
  44 0012 3022     		mov	r2, #48
  45 0014 0D4B     		ldr	r3, .L4+8
  46 0016 1A60     		str	r2, [r3]
  93:.\Generated_Source\PSoC4/Comp_1.c ****     
  94:.\Generated_Source\PSoC4/Comp_1.c ****     #if (Comp_1_CY_LPCOMP_V2)
  95:.\Generated_Source\PSoC4/Comp_1.c ****         #if(CY_IP_SRSSV2)
  96:.\Generated_Source\PSoC4/Comp_1.c ****             if (CySysPmGetResetReason() == CY_PM_RESET_REASON_WAKEUP_HIB)
  47              		.loc 1 96 0
  48 0018 FFF7FEFF 		bl	CySysPmGetResetReason
  49              	.LVL2:
  50 001c 0228     		cmp	r0, #2
  51 001e 06D1     		bne	.L2
  97:.\Generated_Source\PSoC4/Comp_1.c ****             {
  98:.\Generated_Source\PSoC4/Comp_1.c ****                 /* Restore the INTR_MASK register state since it get reset after 
  99:.\Generated_Source\PSoC4/Comp_1.c ****                 * wakeup from Hibernate.  
 100:.\Generated_Source\PSoC4/Comp_1.c ****                 */
 101:.\Generated_Source\PSoC4/Comp_1.c ****                 Comp_1_INTR_MASK_REG |= Comp_1_intrMaskRegState;  
  52              		.loc 1 101 0
  53 0020 0B4A     		ldr	r2, .L4+12
  54 0022 1168     		ldr	r1, [r2]
  55 0024 0B4B     		ldr	r3, .L4+16
  56 0026 1B68     		ldr	r3, [r3]
  57 0028 0B43     		orr	r3, r1
  58 002a 1360     		str	r3, [r2]
  59 002c 05E0     		b	.L3
  60              	.L2:
 102:.\Generated_Source\PSoC4/Comp_1.c ****             }
 103:.\Generated_Source\PSoC4/Comp_1.c ****             else
 104:.\Generated_Source\PSoC4/Comp_1.c ****             {
 105:.\Generated_Source\PSoC4/Comp_1.c ****                 Comp_1_INTR_MASK_REG |= Comp_1_INTR_MASK_REG_DEFAULT;    
  61              		.loc 1 105 0
  62 002e 084B     		ldr	r3, .L4+12
  63 0030 1A68     		ldr	r2, [r3]
  64 0032 1A60     		str	r2, [r3]
 106:.\Generated_Source\PSoC4/Comp_1.c ****                 Comp_1_intrMaskRegState = Comp_1_INTR_MASK_REG;
  65              		.loc 1 106 0
ARM GAS  C:\Users\mlgjmoor\AppData\Local\Temp\ccymZVrS.s 			page 4


  66 0034 1A68     		ldr	r2, [r3]
  67 0036 074B     		ldr	r3, .L4+16
  68 0038 1A60     		str	r2, [r3]
  69              	.L3:
 107:.\Generated_Source\PSoC4/Comp_1.c ****             }
 108:.\Generated_Source\PSoC4/Comp_1.c ****         #else
 109:.\Generated_Source\PSoC4/Comp_1.c ****             Comp_1_INTR_MASK_REG |= Comp_1_INTR_MASK_REG_DEFAULT;
 110:.\Generated_Source\PSoC4/Comp_1.c ****         #endif /* (Comp_1_CY_LPCOMP_V2) */
 111:.\Generated_Source\PSoC4/Comp_1.c ****     #endif /* (Comp_1_CY_LPCOMP_V2) */
 112:.\Generated_Source\PSoC4/Comp_1.c ****     
 113:.\Generated_Source\PSoC4/Comp_1.c ****     CyExitCriticalSection(enableInterrupts);
  70              		.loc 1 113 0
  71 003a 201C     		mov	r0, r4
  72 003c FFF7FEFF 		bl	CyExitCriticalSection
  73              	.LVL3:
 114:.\Generated_Source\PSoC4/Comp_1.c **** }
  74              		.loc 1 114 0
  75              		@ sp needed
  76              	.LVL4:
  77 0040 10BD     		pop	{r4, pc}
  78              	.L5:
  79 0042 C046     		.align	2
  80              	.L4:
  81 0044 04002B40 		.word	1076559876
  82 0048 05000100 		.word	65541
  83 004c 00000000 		.word	.LANCHOR0
  84 0050 18002B40 		.word	1076559896
  85 0054 00000000 		.word	.LANCHOR1
  86              		.cfi_endproc
  87              	.LFE4:
  88              		.size	Comp_1_Init, .-Comp_1_Init
  89              		.section	.text.Comp_1_Enable,"ax",%progbits
  90              		.align	2
  91              		.global	Comp_1_Enable
  92              		.code	16
  93              		.thumb_func
  94              		.type	Comp_1_Enable, %function
  95              	Comp_1_Enable:
  96              	.LFB5:
 115:.\Generated_Source\PSoC4/Comp_1.c **** 
 116:.\Generated_Source\PSoC4/Comp_1.c **** 
 117:.\Generated_Source\PSoC4/Comp_1.c **** /*******************************************************************************
 118:.\Generated_Source\PSoC4/Comp_1.c **** * Function Name: Comp_1_Enable
 119:.\Generated_Source\PSoC4/Comp_1.c **** ********************************************************************************
 120:.\Generated_Source\PSoC4/Comp_1.c **** *
 121:.\Generated_Source\PSoC4/Comp_1.c **** * Summary:
 122:.\Generated_Source\PSoC4/Comp_1.c **** *  Activates the hardware and begins component operation. It is not necessary
 123:.\Generated_Source\PSoC4/Comp_1.c **** *  to call Comp_1_Enable() because the Comp_1_Start() API
 124:.\Generated_Source\PSoC4/Comp_1.c **** *  calls this function, which is the preferred method to begin component
 125:.\Generated_Source\PSoC4/Comp_1.c **** *  operation.
 126:.\Generated_Source\PSoC4/Comp_1.c **** *
 127:.\Generated_Source\PSoC4/Comp_1.c **** * Parameters:
 128:.\Generated_Source\PSoC4/Comp_1.c **** *  None
 129:.\Generated_Source\PSoC4/Comp_1.c **** *
 130:.\Generated_Source\PSoC4/Comp_1.c **** * Return:
 131:.\Generated_Source\PSoC4/Comp_1.c **** *  None
 132:.\Generated_Source\PSoC4/Comp_1.c **** *
ARM GAS  C:\Users\mlgjmoor\AppData\Local\Temp\ccymZVrS.s 			page 5


 133:.\Generated_Source\PSoC4/Comp_1.c **** *******************************************************************************/
 134:.\Generated_Source\PSoC4/Comp_1.c **** void Comp_1_Enable(void)
 135:.\Generated_Source\PSoC4/Comp_1.c **** {
  97              		.loc 1 135 0
  98              		.cfi_startproc
  99 0000 08B5     		push	{r3, lr}
 100              		.cfi_def_cfa_offset 8
 101              		.cfi_offset 3, -8
 102              		.cfi_offset 14, -4
 136:.\Generated_Source\PSoC4/Comp_1.c ****     uint8 enableInterrupts;
 137:.\Generated_Source\PSoC4/Comp_1.c ****     
 138:.\Generated_Source\PSoC4/Comp_1.c ****     enableInterrupts = CyEnterCriticalSection();
 103              		.loc 1 138 0
 104 0002 FFF7FEFF 		bl	CyEnterCriticalSection
 105              	.LVL5:
 139:.\Generated_Source\PSoC4/Comp_1.c ****     Comp_1_CONFIG_REG |= Comp_1_CONFIG_EN;
 106              		.loc 1 139 0
 107 0006 064B     		ldr	r3, .L7
 108 0008 1968     		ldr	r1, [r3]
 109 000a 8022     		mov	r2, #128
 110 000c 0A43     		orr	r2, r1
 111 000e 1A60     		str	r2, [r3]
 140:.\Generated_Source\PSoC4/Comp_1.c ****     
 141:.\Generated_Source\PSoC4/Comp_1.c ****     /*******************************************************
 142:.\Generated_Source\PSoC4/Comp_1.c ****     * When the Enable() API is called the CONFIG_EN bit is set. 
 143:.\Generated_Source\PSoC4/Comp_1.c ****     * This can cause fake interrupt because of the output delay 
 144:.\Generated_Source\PSoC4/Comp_1.c ****     * of the analog. This requires setting the CONFIG_INTR bits 
 145:.\Generated_Source\PSoC4/Comp_1.c ****     * after the CONFIG_EN bit is set.
 146:.\Generated_Source\PSoC4/Comp_1.c ****     *******************************************************/
 147:.\Generated_Source\PSoC4/Comp_1.c ****     Comp_1_CONFIG_REG |= Comp_1_internalIntr;
 112              		.loc 1 147 0
 113 0010 1968     		ldr	r1, [r3]
 114 0012 044A     		ldr	r2, .L7+4
 115 0014 1268     		ldr	r2, [r2]
 116 0016 0A43     		orr	r2, r1
 117 0018 1A60     		str	r2, [r3]
 148:.\Generated_Source\PSoC4/Comp_1.c ****     CyExitCriticalSection(enableInterrupts);
 118              		.loc 1 148 0
 119 001a FFF7FEFF 		bl	CyExitCriticalSection
 120              	.LVL6:
 149:.\Generated_Source\PSoC4/Comp_1.c **** }
 121              		.loc 1 149 0
 122              		@ sp needed
 123 001e 08BD     		pop	{r3, pc}
 124              	.L8:
 125              		.align	2
 126              	.L7:
 127 0020 04002B40 		.word	1076559876
 128 0024 00000000 		.word	.LANCHOR0
 129              		.cfi_endproc
 130              	.LFE5:
 131              		.size	Comp_1_Enable, .-Comp_1_Enable
 132              		.section	.text.Comp_1_Start,"ax",%progbits
 133              		.align	2
 134              		.global	Comp_1_Start
 135              		.code	16
 136              		.thumb_func
ARM GAS  C:\Users\mlgjmoor\AppData\Local\Temp\ccymZVrS.s 			page 6


 137              		.type	Comp_1_Start, %function
 138              	Comp_1_Start:
 139              	.LFB3:
  59:.\Generated_Source\PSoC4/Comp_1.c ****     if(0u == Comp_1_initVar)
 140              		.loc 1 59 0
 141              		.cfi_startproc
 142 0000 08B5     		push	{r3, lr}
 143              		.cfi_def_cfa_offset 8
 144              		.cfi_offset 3, -8
 145              		.cfi_offset 14, -4
  60:.\Generated_Source\PSoC4/Comp_1.c ****     {
 146              		.loc 1 60 0
 147 0002 064B     		ldr	r3, .L11
 148 0004 1B79     		ldrb	r3, [r3, #4]
 149 0006 002B     		cmp	r3, #0
 150 0008 04D1     		bne	.L10
  62:.\Generated_Source\PSoC4/Comp_1.c ****         Comp_1_initVar = 1u;
 151              		.loc 1 62 0
 152 000a FFF7FEFF 		bl	Comp_1_Init
 153              	.LVL7:
  63:.\Generated_Source\PSoC4/Comp_1.c ****     }
 154              		.loc 1 63 0
 155 000e 0122     		mov	r2, #1
 156 0010 024B     		ldr	r3, .L11
 157 0012 1A71     		strb	r2, [r3, #4]
 158              	.L10:
  65:.\Generated_Source\PSoC4/Comp_1.c **** }
 159              		.loc 1 65 0
 160 0014 FFF7FEFF 		bl	Comp_1_Enable
 161              	.LVL8:
  66:.\Generated_Source\PSoC4/Comp_1.c **** 
 162              		.loc 1 66 0
 163              		@ sp needed
 164 0018 08BD     		pop	{r3, pc}
 165              	.L12:
 166 001a C046     		.align	2
 167              	.L11:
 168 001c 00000000 		.word	.LANCHOR0
 169              		.cfi_endproc
 170              	.LFE3:
 171              		.size	Comp_1_Start, .-Comp_1_Start
 172              		.section	.text.Comp_1_Stop,"ax",%progbits
 173              		.align	2
 174              		.global	Comp_1_Stop
 175              		.code	16
 176              		.thumb_func
 177              		.type	Comp_1_Stop, %function
 178              	Comp_1_Stop:
 179              	.LFB6:
 150:.\Generated_Source\PSoC4/Comp_1.c **** 
 151:.\Generated_Source\PSoC4/Comp_1.c **** 
 152:.\Generated_Source\PSoC4/Comp_1.c **** /*******************************************************************************
 153:.\Generated_Source\PSoC4/Comp_1.c **** * Function Name: Comp_1_Stop
 154:.\Generated_Source\PSoC4/Comp_1.c **** ********************************************************************************
 155:.\Generated_Source\PSoC4/Comp_1.c **** *
 156:.\Generated_Source\PSoC4/Comp_1.c **** * Summary:
 157:.\Generated_Source\PSoC4/Comp_1.c **** *  Turns off the LP Comparator.
ARM GAS  C:\Users\mlgjmoor\AppData\Local\Temp\ccymZVrS.s 			page 7


 158:.\Generated_Source\PSoC4/Comp_1.c **** *
 159:.\Generated_Source\PSoC4/Comp_1.c **** * Parameters:
 160:.\Generated_Source\PSoC4/Comp_1.c **** *  None
 161:.\Generated_Source\PSoC4/Comp_1.c **** *
 162:.\Generated_Source\PSoC4/Comp_1.c **** * Return:
 163:.\Generated_Source\PSoC4/Comp_1.c **** *  None
 164:.\Generated_Source\PSoC4/Comp_1.c **** *
 165:.\Generated_Source\PSoC4/Comp_1.c **** * Side Effects:
 166:.\Generated_Source\PSoC4/Comp_1.c **** *  The function doesn't change component Speed settings.
 167:.\Generated_Source\PSoC4/Comp_1.c **** *
 168:.\Generated_Source\PSoC4/Comp_1.c **** *******************************************************************************/
 169:.\Generated_Source\PSoC4/Comp_1.c **** void Comp_1_Stop(void)
 170:.\Generated_Source\PSoC4/Comp_1.c **** {
 180              		.loc 1 170 0
 181              		.cfi_startproc
 182 0000 08B5     		push	{r3, lr}
 183              		.cfi_def_cfa_offset 8
 184              		.cfi_offset 3, -8
 185              		.cfi_offset 14, -4
 171:.\Generated_Source\PSoC4/Comp_1.c ****     uint8 enableInterrupts;
 172:.\Generated_Source\PSoC4/Comp_1.c ****     
 173:.\Generated_Source\PSoC4/Comp_1.c ****     enableInterrupts = CyEnterCriticalSection();
 186              		.loc 1 173 0
 187 0002 FFF7FEFF 		bl	CyEnterCriticalSection
 188              	.LVL9:
 174:.\Generated_Source\PSoC4/Comp_1.c ****     #if (Comp_1_CY_LPCOMP_V0)
 175:.\Generated_Source\PSoC4/Comp_1.c ****         /*******************************************************
 176:.\Generated_Source\PSoC4/Comp_1.c ****         * When the Stop() API is called the CONFIG_EN bit is 
 177:.\Generated_Source\PSoC4/Comp_1.c ****         * cleared. This causes the output of the comparator to go 
 178:.\Generated_Source\PSoC4/Comp_1.c ****         * low. If the comparator output was high and the Interrupt 
 179:.\Generated_Source\PSoC4/Comp_1.c ****         * Configuration is set for Falling edge disabling the 
 180:.\Generated_Source\PSoC4/Comp_1.c ****         * comparator will cause an fake interrupt. This requires 
 181:.\Generated_Source\PSoC4/Comp_1.c ****         * to clear the CONFIG_INTR bits before the CONFIG_EN bit 
 182:.\Generated_Source\PSoC4/Comp_1.c ****         * is cleared.
 183:.\Generated_Source\PSoC4/Comp_1.c ****         *******************************************************/
 184:.\Generated_Source\PSoC4/Comp_1.c ****         Comp_1_CONFIG_REG &= (uint32)~Comp_1_CONFIG_INTR_MASK;
 185:.\Generated_Source\PSoC4/Comp_1.c ****     #endif /* (Comp_1_CY_LPCOMP_V0) */
 186:.\Generated_Source\PSoC4/Comp_1.c **** 
 187:.\Generated_Source\PSoC4/Comp_1.c ****     Comp_1_CONFIG_REG &= (uint32)~Comp_1_CONFIG_EN;
 189              		.loc 1 187 0
 190 0006 044A     		ldr	r2, .L14
 191 0008 1368     		ldr	r3, [r2]
 192 000a 8021     		mov	r1, #128
 193 000c 8B43     		bic	r3, r1
 194 000e 1360     		str	r3, [r2]
 188:.\Generated_Source\PSoC4/Comp_1.c ****     CyExitCriticalSection(enableInterrupts);
 195              		.loc 1 188 0
 196 0010 FFF7FEFF 		bl	CyExitCriticalSection
 197              	.LVL10:
 189:.\Generated_Source\PSoC4/Comp_1.c **** }
 198              		.loc 1 189 0
 199              		@ sp needed
 200 0014 08BD     		pop	{r3, pc}
 201              	.L15:
 202 0016 C046     		.align	2
 203              	.L14:
 204 0018 04002B40 		.word	1076559876
ARM GAS  C:\Users\mlgjmoor\AppData\Local\Temp\ccymZVrS.s 			page 8


 205              		.cfi_endproc
 206              	.LFE6:
 207              		.size	Comp_1_Stop, .-Comp_1_Stop
 208              		.section	.text.Comp_1_SetSpeed,"ax",%progbits
 209              		.align	2
 210              		.global	Comp_1_SetSpeed
 211              		.code	16
 212              		.thumb_func
 213              		.type	Comp_1_SetSpeed, %function
 214              	Comp_1_SetSpeed:
 215              	.LFB7:
 190:.\Generated_Source\PSoC4/Comp_1.c **** 
 191:.\Generated_Source\PSoC4/Comp_1.c **** 
 192:.\Generated_Source\PSoC4/Comp_1.c **** /*******************************************************************************
 193:.\Generated_Source\PSoC4/Comp_1.c **** * Function Name: Comp_1_SetSpeed
 194:.\Generated_Source\PSoC4/Comp_1.c **** *
 195:.\Generated_Source\PSoC4/Comp_1.c **** * Summary:
 196:.\Generated_Source\PSoC4/Comp_1.c **** *  Sets the drive power and speed to one of three settings.
 197:.\Generated_Source\PSoC4/Comp_1.c **** *
 198:.\Generated_Source\PSoC4/Comp_1.c **** * Parameters:
 199:.\Generated_Source\PSoC4/Comp_1.c **** *  uint32 speed: Sets operation mode of the component:
 200:.\Generated_Source\PSoC4/Comp_1.c **** *   Comp_1_LOW_SPEED  - Slow/ultra low 
 201:.\Generated_Source\PSoC4/Comp_1.c **** *   Comp_1_MED_SPEED  - Medium/low 
 202:.\Generated_Source\PSoC4/Comp_1.c **** *   Comp_1_HIGH_SPEED - Fast/normal 
 203:.\Generated_Source\PSoC4/Comp_1.c **** *
 204:.\Generated_Source\PSoC4/Comp_1.c **** * Return:
 205:.\Generated_Source\PSoC4/Comp_1.c **** *  None
 206:.\Generated_Source\PSoC4/Comp_1.c **** *
 207:.\Generated_Source\PSoC4/Comp_1.c **** *******************************************************************************/
 208:.\Generated_Source\PSoC4/Comp_1.c **** void Comp_1_SetSpeed(uint32 speed)
 209:.\Generated_Source\PSoC4/Comp_1.c **** {
 216              		.loc 1 209 0
 217              		.cfi_startproc
 218              	.LVL11:
 219 0000 10B5     		push	{r4, lr}
 220              		.cfi_def_cfa_offset 8
 221              		.cfi_offset 4, -8
 222              		.cfi_offset 14, -4
 223 0002 041C     		mov	r4, r0
 210:.\Generated_Source\PSoC4/Comp_1.c ****     uint32 config;
 211:.\Generated_Source\PSoC4/Comp_1.c ****     uint8 enableInterrupts;
 212:.\Generated_Source\PSoC4/Comp_1.c ****     
 213:.\Generated_Source\PSoC4/Comp_1.c ****     enableInterrupts = CyEnterCriticalSection();
 224              		.loc 1 213 0
 225 0004 FFF7FEFF 		bl	CyEnterCriticalSection
 226              	.LVL12:
 214:.\Generated_Source\PSoC4/Comp_1.c ****     config = Comp_1_CONFIG_REG & (uint32)~Comp_1_CONFIG_SPEED_MODE_MASK;
 227              		.loc 1 214 0
 228 0008 0449     		ldr	r1, .L17
 229 000a 0A68     		ldr	r2, [r1]
 230 000c 0323     		mov	r3, #3
 231 000e 9A43     		bic	r2, r3
 232              	.LVL13:
 215:.\Generated_Source\PSoC4/Comp_1.c ****     Comp_1_CONFIG_REG = config | Comp_1_GET_CONFIG_SPEED_MODE(speed);
 233              		.loc 1 215 0
 234 0010 2340     		and	r3, r4
 235 0012 1343     		orr	r3, r2
ARM GAS  C:\Users\mlgjmoor\AppData\Local\Temp\ccymZVrS.s 			page 9


 236 0014 0B60     		str	r3, [r1]
 216:.\Generated_Source\PSoC4/Comp_1.c ****     CyExitCriticalSection(enableInterrupts);
 237              		.loc 1 216 0
 238 0016 FFF7FEFF 		bl	CyExitCriticalSection
 239              	.LVL14:
 217:.\Generated_Source\PSoC4/Comp_1.c **** }
 240              		.loc 1 217 0
 241              		@ sp needed
 242              	.LVL15:
 243 001a 10BD     		pop	{r4, pc}
 244              	.L18:
 245              		.align	2
 246              	.L17:
 247 001c 04002B40 		.word	1076559876
 248              		.cfi_endproc
 249              	.LFE7:
 250              		.size	Comp_1_SetSpeed, .-Comp_1_SetSpeed
 251              		.section	.text.Comp_1_SetInterruptMode,"ax",%progbits
 252              		.align	2
 253              		.global	Comp_1_SetInterruptMode
 254              		.code	16
 255              		.thumb_func
 256              		.type	Comp_1_SetInterruptMode, %function
 257              	Comp_1_SetInterruptMode:
 258              	.LFB8:
 218:.\Generated_Source\PSoC4/Comp_1.c **** 
 219:.\Generated_Source\PSoC4/Comp_1.c **** 
 220:.\Generated_Source\PSoC4/Comp_1.c **** /*******************************************************************************
 221:.\Generated_Source\PSoC4/Comp_1.c **** * Function Name: Comp_1_SetInterruptMode
 222:.\Generated_Source\PSoC4/Comp_1.c **** ********************************************************************************
 223:.\Generated_Source\PSoC4/Comp_1.c **** *
 224:.\Generated_Source\PSoC4/Comp_1.c **** * Summary:
 225:.\Generated_Source\PSoC4/Comp_1.c **** *  Sets the interrupt edge detect mode. This also controls the value provided
 226:.\Generated_Source\PSoC4/Comp_1.c **** *  on the output.
 227:.\Generated_Source\PSoC4/Comp_1.c **** *
 228:.\Generated_Source\PSoC4/Comp_1.c **** * Parameters:
 229:.\Generated_Source\PSoC4/Comp_1.c **** *  uint32 mode: Enumerated edge detect mode value:
 230:.\Generated_Source\PSoC4/Comp_1.c **** *  Comp_1_INTR_DISABLE - Disable
 231:.\Generated_Source\PSoC4/Comp_1.c **** *  Comp_1_INTR_RISING  - Rising edge detect
 232:.\Generated_Source\PSoC4/Comp_1.c **** *  Comp_1_INTR_FALLING - Falling edge detect
 233:.\Generated_Source\PSoC4/Comp_1.c **** *  Comp_1_INTR_BOTH    - Detect both edges
 234:.\Generated_Source\PSoC4/Comp_1.c **** *
 235:.\Generated_Source\PSoC4/Comp_1.c **** * Return:
 236:.\Generated_Source\PSoC4/Comp_1.c **** *  None
 237:.\Generated_Source\PSoC4/Comp_1.c **** *
 238:.\Generated_Source\PSoC4/Comp_1.c **** *******************************************************************************/
 239:.\Generated_Source\PSoC4/Comp_1.c **** void Comp_1_SetInterruptMode(uint32 mode)
 240:.\Generated_Source\PSoC4/Comp_1.c **** {
 259              		.loc 1 240 0
 260              		.cfi_startproc
 261              	.LVL16:
 262 0000 38B5     		push	{r3, r4, r5, lr}
 263              		.cfi_def_cfa_offset 16
 264              		.cfi_offset 3, -16
 265              		.cfi_offset 4, -12
 266              		.cfi_offset 5, -8
 267              		.cfi_offset 14, -4
ARM GAS  C:\Users\mlgjmoor\AppData\Local\Temp\ccymZVrS.s 			page 10


 241:.\Generated_Source\PSoC4/Comp_1.c ****     uint32 config;
 242:.\Generated_Source\PSoC4/Comp_1.c ****     uint8 enableInterrupts;
 243:.\Generated_Source\PSoC4/Comp_1.c ****     
 244:.\Generated_Source\PSoC4/Comp_1.c ****     Comp_1_internalIntr = Comp_1_GET_CONFIG_INTR(mode);
 268              		.loc 1 244 0
 269 0002 0001     		lsl	r0, r0, #4
 270              	.LVL17:
 271 0004 3025     		mov	r5, #48
 272 0006 2840     		and	r0, r5
 273 0008 064C     		ldr	r4, .L20
 274 000a 2060     		str	r0, [r4]
 245:.\Generated_Source\PSoC4/Comp_1.c **** 
 246:.\Generated_Source\PSoC4/Comp_1.c ****     enableInterrupts = CyEnterCriticalSection();
 275              		.loc 1 246 0
 276 000c FFF7FEFF 		bl	CyEnterCriticalSection
 277              	.LVL18:
 247:.\Generated_Source\PSoC4/Comp_1.c ****     config = Comp_1_CONFIG_REG & (uint32)~Comp_1_CONFIG_INTR_MASK;
 278              		.loc 1 247 0
 279 0010 0549     		ldr	r1, .L20+4
 280 0012 0B68     		ldr	r3, [r1]
 281 0014 AB43     		bic	r3, r5
 282              	.LVL19:
 248:.\Generated_Source\PSoC4/Comp_1.c ****     Comp_1_CONFIG_REG = config | Comp_1_internalIntr;
 283              		.loc 1 248 0
 284 0016 2268     		ldr	r2, [r4]
 285 0018 1343     		orr	r3, r2
 286              	.LVL20:
 287 001a 0B60     		str	r3, [r1]
 249:.\Generated_Source\PSoC4/Comp_1.c ****     CyExitCriticalSection(enableInterrupts);
 288              		.loc 1 249 0
 289 001c FFF7FEFF 		bl	CyExitCriticalSection
 290              	.LVL21:
 250:.\Generated_Source\PSoC4/Comp_1.c **** }
 291              		.loc 1 250 0
 292              		@ sp needed
 293 0020 38BD     		pop	{r3, r4, r5, pc}
 294              	.L21:
 295 0022 C046     		.align	2
 296              	.L20:
 297 0024 00000000 		.word	.LANCHOR0
 298 0028 04002B40 		.word	1076559876
 299              		.cfi_endproc
 300              	.LFE8:
 301              		.size	Comp_1_SetInterruptMode, .-Comp_1_SetInterruptMode
 302              		.section	.text.Comp_1_GetInterruptSource,"ax",%progbits
 303              		.align	2
 304              		.global	Comp_1_GetInterruptSource
 305              		.code	16
 306              		.thumb_func
 307              		.type	Comp_1_GetInterruptSource, %function
 308              	Comp_1_GetInterruptSource:
 309              	.LFB9:
 251:.\Generated_Source\PSoC4/Comp_1.c **** 
 252:.\Generated_Source\PSoC4/Comp_1.c **** 
 253:.\Generated_Source\PSoC4/Comp_1.c **** /*******************************************************************************
 254:.\Generated_Source\PSoC4/Comp_1.c **** * Function Name: Comp_1_GetInterruptSource
 255:.\Generated_Source\PSoC4/Comp_1.c **** ********************************************************************************
ARM GAS  C:\Users\mlgjmoor\AppData\Local\Temp\ccymZVrS.s 			page 11


 256:.\Generated_Source\PSoC4/Comp_1.c **** *
 257:.\Generated_Source\PSoC4/Comp_1.c **** * Summary:
 258:.\Generated_Source\PSoC4/Comp_1.c **** *  Gets the interrupt requests. This function is for use when using the combined
 259:.\Generated_Source\PSoC4/Comp_1.c **** *  interrupt signal from the global signal reference. This function from either
 260:.\Generated_Source\PSoC4/Comp_1.c **** *  component instance can be used to determine the interrupt source for both the
 261:.\Generated_Source\PSoC4/Comp_1.c **** *  interrupts combined.
 262:.\Generated_Source\PSoC4/Comp_1.c **** *
 263:.\Generated_Source\PSoC4/Comp_1.c **** * Parameters:
 264:.\Generated_Source\PSoC4/Comp_1.c **** *  None
 265:.\Generated_Source\PSoC4/Comp_1.c **** *
 266:.\Generated_Source\PSoC4/Comp_1.c **** * Return:
 267:.\Generated_Source\PSoC4/Comp_1.c **** *  uint32: Interrupt source. Each component instance has a mask value:
 268:.\Generated_Source\PSoC4/Comp_1.c **** *  Comp_1_INTR.
 269:.\Generated_Source\PSoC4/Comp_1.c **** *
 270:.\Generated_Source\PSoC4/Comp_1.c **** *******************************************************************************/
 271:.\Generated_Source\PSoC4/Comp_1.c **** uint32 Comp_1_GetInterruptSource(void)
 272:.\Generated_Source\PSoC4/Comp_1.c **** {
 310              		.loc 1 272 0
 311              		.cfi_startproc
 273:.\Generated_Source\PSoC4/Comp_1.c ****     return (Comp_1_INTR_REG); 
 312              		.loc 1 273 0
 313 0000 014B     		ldr	r3, .L23
 314 0002 1868     		ldr	r0, [r3]
 274:.\Generated_Source\PSoC4/Comp_1.c **** }
 315              		.loc 1 274 0
 316              		@ sp needed
 317 0004 7047     		bx	lr
 318              	.L24:
 319 0006 C046     		.align	2
 320              	.L23:
 321 0008 10002B40 		.word	1076559888
 322              		.cfi_endproc
 323              	.LFE9:
 324              		.size	Comp_1_GetInterruptSource, .-Comp_1_GetInterruptSource
 325              		.section	.text.Comp_1_ClearInterrupt,"ax",%progbits
 326              		.align	2
 327              		.global	Comp_1_ClearInterrupt
 328              		.code	16
 329              		.thumb_func
 330              		.type	Comp_1_ClearInterrupt, %function
 331              	Comp_1_ClearInterrupt:
 332              	.LFB10:
 275:.\Generated_Source\PSoC4/Comp_1.c **** 
 276:.\Generated_Source\PSoC4/Comp_1.c **** 
 277:.\Generated_Source\PSoC4/Comp_1.c **** /*******************************************************************************
 278:.\Generated_Source\PSoC4/Comp_1.c **** * Function Name: Comp_1_ClearInterrupt
 279:.\Generated_Source\PSoC4/Comp_1.c **** ********************************************************************************
 280:.\Generated_Source\PSoC4/Comp_1.c **** *
 281:.\Generated_Source\PSoC4/Comp_1.c **** * Summary:
 282:.\Generated_Source\PSoC4/Comp_1.c **** *  Clears the interrupt request. This function is for use when using the
 283:.\Generated_Source\PSoC4/Comp_1.c **** *  combined interrupt signal from the global signal reference. This function
 284:.\Generated_Source\PSoC4/Comp_1.c **** *  from either component instance can be used to clear either or both
 285:.\Generated_Source\PSoC4/Comp_1.c **** *  interrupts.
 286:.\Generated_Source\PSoC4/Comp_1.c **** *
 287:.\Generated_Source\PSoC4/Comp_1.c **** * Parameters:
 288:.\Generated_Source\PSoC4/Comp_1.c **** *  uint32 interruptMask: Mask of interrupts to clear. Each component instance
 289:.\Generated_Source\PSoC4/Comp_1.c **** *  has a mask value: Comp_1_INTR.
ARM GAS  C:\Users\mlgjmoor\AppData\Local\Temp\ccymZVrS.s 			page 12


 290:.\Generated_Source\PSoC4/Comp_1.c **** *
 291:.\Generated_Source\PSoC4/Comp_1.c **** * Return:
 292:.\Generated_Source\PSoC4/Comp_1.c **** *  None
 293:.\Generated_Source\PSoC4/Comp_1.c **** *
 294:.\Generated_Source\PSoC4/Comp_1.c **** *******************************************************************************/
 295:.\Generated_Source\PSoC4/Comp_1.c **** void Comp_1_ClearInterrupt(uint32 interruptMask)
 296:.\Generated_Source\PSoC4/Comp_1.c **** {   
 333              		.loc 1 296 0
 334              		.cfi_startproc
 335              	.LVL22:
 297:.\Generated_Source\PSoC4/Comp_1.c ****     Comp_1_INTR_REG = interruptMask;
 336              		.loc 1 297 0
 337 0000 014B     		ldr	r3, .L26
 338 0002 1860     		str	r0, [r3]
 298:.\Generated_Source\PSoC4/Comp_1.c **** }
 339              		.loc 1 298 0
 340              		@ sp needed
 341 0004 7047     		bx	lr
 342              	.L27:
 343 0006 C046     		.align	2
 344              	.L26:
 345 0008 10002B40 		.word	1076559888
 346              		.cfi_endproc
 347              	.LFE10:
 348              		.size	Comp_1_ClearInterrupt, .-Comp_1_ClearInterrupt
 349              		.section	.text.Comp_1_SetInterrupt,"ax",%progbits
 350              		.align	2
 351              		.global	Comp_1_SetInterrupt
 352              		.code	16
 353              		.thumb_func
 354              		.type	Comp_1_SetInterrupt, %function
 355              	Comp_1_SetInterrupt:
 356              	.LFB11:
 299:.\Generated_Source\PSoC4/Comp_1.c **** 
 300:.\Generated_Source\PSoC4/Comp_1.c **** 
 301:.\Generated_Source\PSoC4/Comp_1.c **** /*******************************************************************************
 302:.\Generated_Source\PSoC4/Comp_1.c **** * Function Name: Comp_1_SetInterrupt
 303:.\Generated_Source\PSoC4/Comp_1.c **** ********************************************************************************
 304:.\Generated_Source\PSoC4/Comp_1.c **** *
 305:.\Generated_Source\PSoC4/Comp_1.c **** * Summary:
 306:.\Generated_Source\PSoC4/Comp_1.c **** *  Sets a software interrupt request. This function is for use when using the
 307:.\Generated_Source\PSoC4/Comp_1.c **** *  combined interrupt signal from the global signal reference. This function
 308:.\Generated_Source\PSoC4/Comp_1.c **** *  from either component instance can be used to trigger either or both software
 309:.\Generated_Source\PSoC4/Comp_1.c **** *  interrupts.
 310:.\Generated_Source\PSoC4/Comp_1.c **** *
 311:.\Generated_Source\PSoC4/Comp_1.c **** * Parameters:
 312:.\Generated_Source\PSoC4/Comp_1.c **** *  uint32 interruptMask: Mask of interrupts to set. Each component instance has
 313:.\Generated_Source\PSoC4/Comp_1.c **** *  a mask value: Comp_1_INTR_SET.
 314:.\Generated_Source\PSoC4/Comp_1.c **** *
 315:.\Generated_Source\PSoC4/Comp_1.c **** * Return:
 316:.\Generated_Source\PSoC4/Comp_1.c **** *  None
 317:.\Generated_Source\PSoC4/Comp_1.c **** *
 318:.\Generated_Source\PSoC4/Comp_1.c **** *******************************************************************************/
 319:.\Generated_Source\PSoC4/Comp_1.c **** void Comp_1_SetInterrupt(uint32 interruptMask)
 320:.\Generated_Source\PSoC4/Comp_1.c **** {
 357              		.loc 1 320 0
 358              		.cfi_startproc
ARM GAS  C:\Users\mlgjmoor\AppData\Local\Temp\ccymZVrS.s 			page 13


 359              	.LVL23:
 360 0000 10B5     		push	{r4, lr}
 361              		.cfi_def_cfa_offset 8
 362              		.cfi_offset 4, -8
 363              		.cfi_offset 14, -4
 364 0002 041C     		mov	r4, r0
 321:.\Generated_Source\PSoC4/Comp_1.c ****     uint8 enableInterrupts;
 322:.\Generated_Source\PSoC4/Comp_1.c ****     
 323:.\Generated_Source\PSoC4/Comp_1.c ****     enableInterrupts = CyEnterCriticalSection();
 365              		.loc 1 323 0
 366 0004 FFF7FEFF 		bl	CyEnterCriticalSection
 367              	.LVL24:
 324:.\Generated_Source\PSoC4/Comp_1.c ****     Comp_1_INTR_SET_REG |= interruptMask;
 368              		.loc 1 324 0
 369 0008 034B     		ldr	r3, .L29
 370 000a 1A68     		ldr	r2, [r3]
 371 000c 1443     		orr	r4, r2
 372              	.LVL25:
 373 000e 1C60     		str	r4, [r3]
 325:.\Generated_Source\PSoC4/Comp_1.c ****     CyExitCriticalSection(enableInterrupts);
 374              		.loc 1 325 0
 375 0010 FFF7FEFF 		bl	CyExitCriticalSection
 376              	.LVL26:
 326:.\Generated_Source\PSoC4/Comp_1.c **** }
 377              		.loc 1 326 0
 378              		@ sp needed
 379 0014 10BD     		pop	{r4, pc}
 380              	.L30:
 381 0016 C046     		.align	2
 382              	.L29:
 383 0018 14002B40 		.word	1076559892
 384              		.cfi_endproc
 385              	.LFE11:
 386              		.size	Comp_1_SetInterrupt, .-Comp_1_SetInterrupt
 387              		.section	.text.Comp_1_SetHysteresis,"ax",%progbits
 388              		.align	2
 389              		.global	Comp_1_SetHysteresis
 390              		.code	16
 391              		.thumb_func
 392              		.type	Comp_1_SetHysteresis, %function
 393              	Comp_1_SetHysteresis:
 394              	.LFB12:
 327:.\Generated_Source\PSoC4/Comp_1.c **** 
 328:.\Generated_Source\PSoC4/Comp_1.c **** 
 329:.\Generated_Source\PSoC4/Comp_1.c **** /*******************************************************************************
 330:.\Generated_Source\PSoC4/Comp_1.c **** * Function Name: Comp_1_SetHysteresis
 331:.\Generated_Source\PSoC4/Comp_1.c **** ********************************************************************************
 332:.\Generated_Source\PSoC4/Comp_1.c **** *
 333:.\Generated_Source\PSoC4/Comp_1.c **** * Summary:
 334:.\Generated_Source\PSoC4/Comp_1.c **** *  Enables or disables the hysteresis.
 335:.\Generated_Source\PSoC4/Comp_1.c **** *
 336:.\Generated_Source\PSoC4/Comp_1.c **** * Parameters:
 337:.\Generated_Source\PSoC4/Comp_1.c **** *  hysteresis: (uint32) Enables or disables the hysteresis setting.
 338:.\Generated_Source\PSoC4/Comp_1.c **** *  Comp_1_HYST_ENABLE     - Enable hysteresis
 339:.\Generated_Source\PSoC4/Comp_1.c **** *  Comp_1_HYST_DISABLE    - Disable hysteresis
 340:.\Generated_Source\PSoC4/Comp_1.c **** *
 341:.\Generated_Source\PSoC4/Comp_1.c **** * Return:
ARM GAS  C:\Users\mlgjmoor\AppData\Local\Temp\ccymZVrS.s 			page 14


 342:.\Generated_Source\PSoC4/Comp_1.c **** *  None
 343:.\Generated_Source\PSoC4/Comp_1.c **** *
 344:.\Generated_Source\PSoC4/Comp_1.c **** *******************************************************************************/
 345:.\Generated_Source\PSoC4/Comp_1.c **** void Comp_1_SetHysteresis(uint32 hysteresis)
 346:.\Generated_Source\PSoC4/Comp_1.c **** {
 395              		.loc 1 346 0
 396              		.cfi_startproc
 397              	.LVL27:
 398 0000 10B5     		push	{r4, lr}
 399              		.cfi_def_cfa_offset 8
 400              		.cfi_offset 4, -8
 401              		.cfi_offset 14, -4
 402 0002 041C     		mov	r4, r0
 347:.\Generated_Source\PSoC4/Comp_1.c ****     uint8 enableInterrupts;
 348:.\Generated_Source\PSoC4/Comp_1.c ****     
 349:.\Generated_Source\PSoC4/Comp_1.c ****     enableInterrupts = CyEnterCriticalSection();
 403              		.loc 1 349 0
 404 0004 FFF7FEFF 		bl	CyEnterCriticalSection
 405              	.LVL28:
 350:.\Generated_Source\PSoC4/Comp_1.c ****     if(0u != hysteresis)
 406              		.loc 1 350 0
 407 0008 002C     		cmp	r4, #0
 408 000a 05D0     		beq	.L32
 351:.\Generated_Source\PSoC4/Comp_1.c ****     {
 352:.\Generated_Source\PSoC4/Comp_1.c ****         Comp_1_CONFIG_REG |= Comp_1_CONFIG_HYST;
 409              		.loc 1 352 0
 410 000c 064A     		ldr	r2, .L34
 411 000e 1168     		ldr	r1, [r2]
 412 0010 0423     		mov	r3, #4
 413 0012 0B43     		orr	r3, r1
 414 0014 1360     		str	r3, [r2]
 415 0016 04E0     		b	.L33
 416              	.L32:
 353:.\Generated_Source\PSoC4/Comp_1.c ****     }
 354:.\Generated_Source\PSoC4/Comp_1.c ****     else
 355:.\Generated_Source\PSoC4/Comp_1.c ****     {
 356:.\Generated_Source\PSoC4/Comp_1.c ****         Comp_1_CONFIG_REG &= (uint32)~Comp_1_CONFIG_HYST;
 417              		.loc 1 356 0
 418 0018 034A     		ldr	r2, .L34
 419 001a 1368     		ldr	r3, [r2]
 420 001c 0421     		mov	r1, #4
 421 001e 8B43     		bic	r3, r1
 422 0020 1360     		str	r3, [r2]
 423              	.L33:
 357:.\Generated_Source\PSoC4/Comp_1.c ****     }
 358:.\Generated_Source\PSoC4/Comp_1.c ****     CyExitCriticalSection(enableInterrupts);
 424              		.loc 1 358 0
 425 0022 FFF7FEFF 		bl	CyExitCriticalSection
 426              	.LVL29:
 359:.\Generated_Source\PSoC4/Comp_1.c **** }
 427              		.loc 1 359 0
 428              		@ sp needed
 429              	.LVL30:
 430 0026 10BD     		pop	{r4, pc}
 431              	.L35:
 432              		.align	2
 433              	.L34:
ARM GAS  C:\Users\mlgjmoor\AppData\Local\Temp\ccymZVrS.s 			page 15


 434 0028 04002B40 		.word	1076559876
 435              		.cfi_endproc
 436              	.LFE12:
 437              		.size	Comp_1_SetHysteresis, .-Comp_1_SetHysteresis
 438              		.section	.text.Comp_1_SetFilter,"ax",%progbits
 439              		.align	2
 440              		.global	Comp_1_SetFilter
 441              		.code	16
 442              		.thumb_func
 443              		.type	Comp_1_SetFilter, %function
 444              	Comp_1_SetFilter:
 445              	.LFB13:
 360:.\Generated_Source\PSoC4/Comp_1.c **** 
 361:.\Generated_Source\PSoC4/Comp_1.c **** 
 362:.\Generated_Source\PSoC4/Comp_1.c **** /*******************************************************************************
 363:.\Generated_Source\PSoC4/Comp_1.c **** * Function Name: Comp_1_SetFilter
 364:.\Generated_Source\PSoC4/Comp_1.c **** ********************************************************************************
 365:.\Generated_Source\PSoC4/Comp_1.c **** *
 366:.\Generated_Source\PSoC4/Comp_1.c **** * Summary:
 367:.\Generated_Source\PSoC4/Comp_1.c **** *  Enables or disables the digital filter. This still exists for saving backward 
 368:.\Generated_Source\PSoC4/Comp_1.c **** *  compatibility, but not recommended for using.
 369:.\Generated_Source\PSoC4/Comp_1.c **** *  This API is DEPRECATED and should not be used in new projects.
 370:.\Generated_Source\PSoC4/Comp_1.c **** *
 371:.\Generated_Source\PSoC4/Comp_1.c **** * Parameters:
 372:.\Generated_Source\PSoC4/Comp_1.c **** *  uint32 filter: filter enable.
 373:.\Generated_Source\PSoC4/Comp_1.c **** *  Comp_1_FILT_ENABLE  - Enable filter
 374:.\Generated_Source\PSoC4/Comp_1.c **** *  Comp_1_FILT_DISABLE - Disable filter
 375:.\Generated_Source\PSoC4/Comp_1.c **** *
 376:.\Generated_Source\PSoC4/Comp_1.c **** * Return:
 377:.\Generated_Source\PSoC4/Comp_1.c **** *  None
 378:.\Generated_Source\PSoC4/Comp_1.c **** *
 379:.\Generated_Source\PSoC4/Comp_1.c **** *******************************************************************************/
 380:.\Generated_Source\PSoC4/Comp_1.c **** void Comp_1_SetFilter(uint32 filter)
 381:.\Generated_Source\PSoC4/Comp_1.c **** {
 446              		.loc 1 381 0
 447              		.cfi_startproc
 448              	.LVL31:
 449 0000 10B5     		push	{r4, lr}
 450              		.cfi_def_cfa_offset 8
 451              		.cfi_offset 4, -8
 452              		.cfi_offset 14, -4
 453 0002 041C     		mov	r4, r0
 382:.\Generated_Source\PSoC4/Comp_1.c ****     uint8 enableInterrupts;
 383:.\Generated_Source\PSoC4/Comp_1.c ****     
 384:.\Generated_Source\PSoC4/Comp_1.c ****     enableInterrupts = CyEnterCriticalSection();
 454              		.loc 1 384 0
 455 0004 FFF7FEFF 		bl	CyEnterCriticalSection
 456              	.LVL32:
 385:.\Generated_Source\PSoC4/Comp_1.c ****     if( 0u != filter)
 457              		.loc 1 385 0
 458 0008 002C     		cmp	r4, #0
 459 000a 05D0     		beq	.L37
 386:.\Generated_Source\PSoC4/Comp_1.c ****     {
 387:.\Generated_Source\PSoC4/Comp_1.c ****         Comp_1_CONFIG_REG |= Comp_1_CONFIG_FILT;
 460              		.loc 1 387 0
 461 000c 064A     		ldr	r2, .L39
 462 000e 1168     		ldr	r1, [r2]
ARM GAS  C:\Users\mlgjmoor\AppData\Local\Temp\ccymZVrS.s 			page 16


 463 0010 0823     		mov	r3, #8
 464 0012 0B43     		orr	r3, r1
 465 0014 1360     		str	r3, [r2]
 466 0016 04E0     		b	.L38
 467              	.L37:
 388:.\Generated_Source\PSoC4/Comp_1.c ****     }
 389:.\Generated_Source\PSoC4/Comp_1.c ****     else
 390:.\Generated_Source\PSoC4/Comp_1.c ****     {
 391:.\Generated_Source\PSoC4/Comp_1.c ****         Comp_1_CONFIG_REG &= (uint32)~Comp_1_CONFIG_FILT;
 468              		.loc 1 391 0
 469 0018 034A     		ldr	r2, .L39
 470 001a 1368     		ldr	r3, [r2]
 471 001c 0821     		mov	r1, #8
 472 001e 8B43     		bic	r3, r1
 473 0020 1360     		str	r3, [r2]
 474              	.L38:
 392:.\Generated_Source\PSoC4/Comp_1.c ****     }
 393:.\Generated_Source\PSoC4/Comp_1.c ****     CyExitCriticalSection(enableInterrupts);
 475              		.loc 1 393 0
 476 0022 FFF7FEFF 		bl	CyExitCriticalSection
 477              	.LVL33:
 394:.\Generated_Source\PSoC4/Comp_1.c **** }
 478              		.loc 1 394 0
 479              		@ sp needed
 480              	.LVL34:
 481 0026 10BD     		pop	{r4, pc}
 482              	.L40:
 483              		.align	2
 484              	.L39:
 485 0028 04002B40 		.word	1076559876
 486              		.cfi_endproc
 487              	.LFE13:
 488              		.size	Comp_1_SetFilter, .-Comp_1_SetFilter
 489              		.section	.text.Comp_1_GetCompare,"ax",%progbits
 490              		.align	2
 491              		.global	Comp_1_GetCompare
 492              		.code	16
 493              		.thumb_func
 494              		.type	Comp_1_GetCompare, %function
 495              	Comp_1_GetCompare:
 496              	.LFB14:
 395:.\Generated_Source\PSoC4/Comp_1.c **** 
 396:.\Generated_Source\PSoC4/Comp_1.c **** 
 397:.\Generated_Source\PSoC4/Comp_1.c **** /*******************************************************************************
 398:.\Generated_Source\PSoC4/Comp_1.c **** * Function Name: Comp_1_GetCompare
 399:.\Generated_Source\PSoC4/Comp_1.c **** ********************************************************************************
 400:.\Generated_Source\PSoC4/Comp_1.c **** *
 401:.\Generated_Source\PSoC4/Comp_1.c **** * Summary:
 402:.\Generated_Source\PSoC4/Comp_1.c **** *  This function returns a nonzero value when the voltage connected to the
 403:.\Generated_Source\PSoC4/Comp_1.c **** *  positive input is greater than the negative input voltage.
 404:.\Generated_Source\PSoC4/Comp_1.c **** *  This function reads the direct (unflopped) comparator output which can also be 
 405:.\Generated_Source\PSoC4/Comp_1.c **** *  metastable (since it may result in incorrect data).
 406:.\Generated_Source\PSoC4/Comp_1.c **** *
 407:.\Generated_Source\PSoC4/Comp_1.c **** * Parameters:
 408:.\Generated_Source\PSoC4/Comp_1.c **** *  None
 409:.\Generated_Source\PSoC4/Comp_1.c **** *
 410:.\Generated_Source\PSoC4/Comp_1.c **** * Return:
ARM GAS  C:\Users\mlgjmoor\AppData\Local\Temp\ccymZVrS.s 			page 17


 411:.\Generated_Source\PSoC4/Comp_1.c **** *  (uint32) Comparator output state. This value is not impacted by the interrupt
 412:.\Generated_Source\PSoC4/Comp_1.c **** *  edge detect setting:
 413:.\Generated_Source\PSoC4/Comp_1.c **** *   0 - if positive input is less than negative one.
 414:.\Generated_Source\PSoC4/Comp_1.c **** *   1 - if positive input greater than negative one.
 415:.\Generated_Source\PSoC4/Comp_1.c **** *
 416:.\Generated_Source\PSoC4/Comp_1.c **** *******************************************************************************/
 417:.\Generated_Source\PSoC4/Comp_1.c **** uint32 Comp_1_GetCompare(void)
 418:.\Generated_Source\PSoC4/Comp_1.c **** {
 497              		.loc 1 418 0
 498              		.cfi_startproc
 419:.\Generated_Source\PSoC4/Comp_1.c ****     return((uint32)((0u == (Comp_1_CONFIG_REG & Comp_1_CONFIG_OUT)) ? 0u : 1u));
 499              		.loc 1 419 0
 500 0000 024B     		ldr	r3, .L42
 501 0002 1868     		ldr	r0, [r3]
 502 0004 4006     		lsl	r0, r0, #25
 503 0006 C00F     		lsr	r0, r0, #31
 420:.\Generated_Source\PSoC4/Comp_1.c **** }
 504              		.loc 1 420 0
 505              		@ sp needed
 506 0008 7047     		bx	lr
 507              	.L43:
 508 000a C046     		.align	2
 509              	.L42:
 510 000c 04002B40 		.word	1076559876
 511              		.cfi_endproc
 512              	.LFE14:
 513              		.size	Comp_1_GetCompare, .-Comp_1_GetCompare
 514              		.section	.text.Comp_1_ZeroCal,"ax",%progbits
 515              		.align	2
 516              		.global	Comp_1_ZeroCal
 517              		.code	16
 518              		.thumb_func
 519              		.type	Comp_1_ZeroCal, %function
 520              	Comp_1_ZeroCal:
 521              	.LFB15:
 421:.\Generated_Source\PSoC4/Comp_1.c **** 
 422:.\Generated_Source\PSoC4/Comp_1.c **** 
 423:.\Generated_Source\PSoC4/Comp_1.c **** /*******************************************************************************
 424:.\Generated_Source\PSoC4/Comp_1.c **** * Function Name: Comp_1_ZeroCal
 425:.\Generated_Source\PSoC4/Comp_1.c **** ********************************************************************************
 426:.\Generated_Source\PSoC4/Comp_1.c **** *
 427:.\Generated_Source\PSoC4/Comp_1.c **** * Summary:
 428:.\Generated_Source\PSoC4/Comp_1.c **** *  Performs custom calibration of the input offset to minimize error for a
 429:.\Generated_Source\PSoC4/Comp_1.c **** *  specific set of conditions: comparator reference voltage, supply voltage,
 430:.\Generated_Source\PSoC4/Comp_1.c **** *  and operating temperature. A reference voltage in the range at which the
 431:.\Generated_Source\PSoC4/Comp_1.c **** *  comparator will be used must be applied to one of the inputs. The two inputs
 432:.\Generated_Source\PSoC4/Comp_1.c **** *  will be shorted internally to perform the offset calibration.
 433:.\Generated_Source\PSoC4/Comp_1.c **** *
 434:.\Generated_Source\PSoC4/Comp_1.c **** * Parameters:
 435:.\Generated_Source\PSoC4/Comp_1.c **** *  None
 436:.\Generated_Source\PSoC4/Comp_1.c **** *
 437:.\Generated_Source\PSoC4/Comp_1.c **** * Return:
 438:.\Generated_Source\PSoC4/Comp_1.c **** *  The value from the comparator trim register after the offset calibration is
 439:.\Generated_Source\PSoC4/Comp_1.c **** *  complete. This value has the same format as the input parameter for the
 440:.\Generated_Source\PSoC4/Comp_1.c **** *  Comp_1_LoadTrim() API routine.
 441:.\Generated_Source\PSoC4/Comp_1.c **** *
 442:.\Generated_Source\PSoC4/Comp_1.c **** *******************************************************************************/
ARM GAS  C:\Users\mlgjmoor\AppData\Local\Temp\ccymZVrS.s 			page 18


 443:.\Generated_Source\PSoC4/Comp_1.c **** uint32 Comp_1_ZeroCal(void)
 444:.\Generated_Source\PSoC4/Comp_1.c **** {
 522              		.loc 1 444 0
 523              		.cfi_startproc
 524 0000 38B5     		push	{r3, r4, r5, lr}
 525              		.cfi_def_cfa_offset 16
 526              		.cfi_offset 3, -16
 527              		.cfi_offset 4, -12
 528              		.cfi_offset 5, -8
 529              		.cfi_offset 14, -4
 445:.\Generated_Source\PSoC4/Comp_1.c ****     uint32 cmpOut;
 446:.\Generated_Source\PSoC4/Comp_1.c ****     uint32 i;
 447:.\Generated_Source\PSoC4/Comp_1.c **** 
 448:.\Generated_Source\PSoC4/Comp_1.c ****     Comp_1_DFT_REG |= Comp_1_DFT_CAL_EN;
 530              		.loc 1 448 0
 531 0002 254A     		ldr	r2, .L53
 532 0004 1168     		ldr	r1, [r2]
 533 0006 0123     		mov	r3, #1
 534 0008 0B43     		orr	r3, r1
 535 000a 1360     		str	r3, [r2]
 449:.\Generated_Source\PSoC4/Comp_1.c ****     Comp_1_TRIMA_REG = 0u;
 536              		.loc 1 449 0
 537 000c 0023     		mov	r3, #0
 538 000e 234A     		ldr	r2, .L53+4
 539 0010 1360     		str	r3, [r2]
 450:.\Generated_Source\PSoC4/Comp_1.c ****     Comp_1_TRIMB_REG = 0u;
 540              		.loc 1 450 0
 541 0012 234A     		ldr	r2, .L53+8
 542 0014 1360     		str	r3, [r2]
 451:.\Generated_Source\PSoC4/Comp_1.c **** 
 452:.\Generated_Source\PSoC4/Comp_1.c ****     CyDelayUs(1u);
 543              		.loc 1 452 0
 544 0016 0120     		mov	r0, #1
 545 0018 FFF7FEFF 		bl	CyDelayUs
 546              	.LVL35:
 453:.\Generated_Source\PSoC4/Comp_1.c **** 
 454:.\Generated_Source\PSoC4/Comp_1.c ****     cmpOut = Comp_1_GetCompare();
 547              		.loc 1 454 0
 548 001c FFF7FEFF 		bl	Comp_1_GetCompare
 549              	.LVL36:
 550 0020 051E     		sub	r5, r0, #0
 551              	.LVL37:
 455:.\Generated_Source\PSoC4/Comp_1.c **** 
 456:.\Generated_Source\PSoC4/Comp_1.c ****     if(0u != cmpOut)
 552              		.loc 1 456 0
 553 0022 02D0     		beq	.L45
 457:.\Generated_Source\PSoC4/Comp_1.c ****     {
 458:.\Generated_Source\PSoC4/Comp_1.c ****         Comp_1_TRIMA_REG = ((uint32) 0x01u << Comp_1_TRIMA_SIGNBIT);
 554              		.loc 1 458 0
 555 0024 1022     		mov	r2, #16
 556 0026 1D4B     		ldr	r3, .L53+4
 557 0028 1A60     		str	r2, [r3]
 558              	.L45:
 444:.\Generated_Source\PSoC4/Comp_1.c ****     uint32 cmpOut;
 559              		.loc 1 444 0 discriminator 1
 560 002a 1024     		mov	r4, #16
 561 002c 0BE0     		b	.L46
ARM GAS  C:\Users\mlgjmoor\AppData\Local\Temp\ccymZVrS.s 			page 19


 562              	.LVL38:
 563              	.L48:
 459:.\Generated_Source\PSoC4/Comp_1.c ****     }
 460:.\Generated_Source\PSoC4/Comp_1.c **** 
 461:.\Generated_Source\PSoC4/Comp_1.c ****     for(i = (Comp_1_TRIMA_MAX_VALUE +1u ); i != 0u; i--)
 462:.\Generated_Source\PSoC4/Comp_1.c ****     {
 463:.\Generated_Source\PSoC4/Comp_1.c ****         Comp_1_TRIMA_REG++;
 564              		.loc 1 463 0
 565 002e 1B4A     		ldr	r2, .L53+4
 566 0030 1368     		ldr	r3, [r2]
 567 0032 0133     		add	r3, r3, #1
 568 0034 1360     		str	r3, [r2]
 464:.\Generated_Source\PSoC4/Comp_1.c ****         CyDelayUs(1u);
 569              		.loc 1 464 0
 570 0036 0120     		mov	r0, #1
 571 0038 FFF7FEFF 		bl	CyDelayUs
 572              	.LVL39:
 465:.\Generated_Source\PSoC4/Comp_1.c ****         if(cmpOut != Comp_1_GetCompare())
 573              		.loc 1 465 0
 574 003c FFF7FEFF 		bl	Comp_1_GetCompare
 575              	.LVL40:
 576 0040 A842     		cmp	r0, r5
 577 0042 02D1     		bne	.L47
 461:.\Generated_Source\PSoC4/Comp_1.c ****     {
 578              		.loc 1 461 0 discriminator 2
 579 0044 013C     		sub	r4, r4, #1
 580              	.LVL41:
 581              	.L46:
 461:.\Generated_Source\PSoC4/Comp_1.c ****     {
 582              		.loc 1 461 0 is_stmt 0 discriminator 1
 583 0046 002C     		cmp	r4, #0
 584 0048 F1D1     		bne	.L48
 585              	.L47:
 466:.\Generated_Source\PSoC4/Comp_1.c ****         {
 467:.\Generated_Source\PSoC4/Comp_1.c ****             break;
 468:.\Generated_Source\PSoC4/Comp_1.c ****         }
 469:.\Generated_Source\PSoC4/Comp_1.c ****     }
 470:.\Generated_Source\PSoC4/Comp_1.c **** 
 471:.\Generated_Source\PSoC4/Comp_1.c ****     if(((uint32)(Comp_1_CONFIG_REG >> Comp_1_CONFIG_REG_SHIFT) &
 586              		.loc 1 471 0 is_stmt 1
 587 004a 164B     		ldr	r3, .L53+12
 588 004c 1B68     		ldr	r3, [r3]
 589 004e 9B07     		lsl	r3, r3, #30
 590 0050 16D1     		bne	.L49
 472:.\Generated_Source\PSoC4/Comp_1.c ****         Comp_1_SPEED_PARAM_MASK) == Comp_1_MED_SPEED)
 473:.\Generated_Source\PSoC4/Comp_1.c ****     {
 474:.\Generated_Source\PSoC4/Comp_1.c ****         cmpOut = Comp_1_GetCompare();
 591              		.loc 1 474 0
 592 0052 FFF7FEFF 		bl	Comp_1_GetCompare
 593              	.LVL42:
 594 0056 051E     		sub	r5, r0, #0
 595              	.LVL43:
 475:.\Generated_Source\PSoC4/Comp_1.c **** 
 476:.\Generated_Source\PSoC4/Comp_1.c ****         if(0u == cmpOut)
 596              		.loc 1 476 0
 597 0058 02D1     		bne	.L50
 477:.\Generated_Source\PSoC4/Comp_1.c ****         {
ARM GAS  C:\Users\mlgjmoor\AppData\Local\Temp\ccymZVrS.s 			page 20


 478:.\Generated_Source\PSoC4/Comp_1.c ****             Comp_1_TRIMB_REG = ((uint32)1u << Comp_1_TRIMB_SIGNBIT);
 598              		.loc 1 478 0
 599 005a 1022     		mov	r2, #16
 600 005c 104B     		ldr	r3, .L53+8
 601 005e 1A60     		str	r2, [r3]
 602              	.L50:
 444:.\Generated_Source\PSoC4/Comp_1.c ****     uint32 cmpOut;
 603              		.loc 1 444 0 discriminator 1
 604 0060 1024     		mov	r4, #16
 605              	.LVL44:
 606 0062 0BE0     		b	.L51
 607              	.LVL45:
 608              	.L52:
 479:.\Generated_Source\PSoC4/Comp_1.c ****         }
 480:.\Generated_Source\PSoC4/Comp_1.c **** 
 481:.\Generated_Source\PSoC4/Comp_1.c ****         for(i = (Comp_1_TRIMB_MAX_VALUE +1u ); i != 0u; i--)
 482:.\Generated_Source\PSoC4/Comp_1.c ****         {
 483:.\Generated_Source\PSoC4/Comp_1.c ****             Comp_1_TRIMB_REG++;
 609              		.loc 1 483 0
 610 0064 0E4A     		ldr	r2, .L53+8
 611 0066 1368     		ldr	r3, [r2]
 612 0068 0133     		add	r3, r3, #1
 613 006a 1360     		str	r3, [r2]
 484:.\Generated_Source\PSoC4/Comp_1.c ****             CyDelayUs(1u);
 614              		.loc 1 484 0
 615 006c 0120     		mov	r0, #1
 616 006e FFF7FEFF 		bl	CyDelayUs
 617              	.LVL46:
 485:.\Generated_Source\PSoC4/Comp_1.c ****             if(cmpOut != Comp_1_GetCompare())
 618              		.loc 1 485 0
 619 0072 FFF7FEFF 		bl	Comp_1_GetCompare
 620              	.LVL47:
 621 0076 A842     		cmp	r0, r5
 622 0078 02D1     		bne	.L49
 481:.\Generated_Source\PSoC4/Comp_1.c ****         {
 623              		.loc 1 481 0 discriminator 2
 624 007a 013C     		sub	r4, r4, #1
 625              	.LVL48:
 626              	.L51:
 481:.\Generated_Source\PSoC4/Comp_1.c ****         {
 627              		.loc 1 481 0 is_stmt 0 discriminator 1
 628 007c 002C     		cmp	r4, #0
 629 007e F1D1     		bne	.L52
 630              	.L49:
 486:.\Generated_Source\PSoC4/Comp_1.c ****             {
 487:.\Generated_Source\PSoC4/Comp_1.c ****                 break;
 488:.\Generated_Source\PSoC4/Comp_1.c ****             }
 489:.\Generated_Source\PSoC4/Comp_1.c ****         }
 490:.\Generated_Source\PSoC4/Comp_1.c ****     }
 491:.\Generated_Source\PSoC4/Comp_1.c **** 
 492:.\Generated_Source\PSoC4/Comp_1.c ****     Comp_1_DFT_REG &= ((uint32)~Comp_1_DFT_CAL_EN);
 631              		.loc 1 492 0 is_stmt 1
 632 0080 054A     		ldr	r2, .L53
 633 0082 1368     		ldr	r3, [r2]
 634 0084 0121     		mov	r1, #1
 635 0086 8B43     		bic	r3, r1
 636 0088 1360     		str	r3, [r2]
ARM GAS  C:\Users\mlgjmoor\AppData\Local\Temp\ccymZVrS.s 			page 21


 493:.\Generated_Source\PSoC4/Comp_1.c **** 
 494:.\Generated_Source\PSoC4/Comp_1.c ****     return (Comp_1_TRIMA_REG | ((uint32)Comp_1_TRIMB_REG << Comp_1_TRIMB_SHIFT));
 637              		.loc 1 494 0
 638 008a 044B     		ldr	r3, .L53+4
 639 008c 1B68     		ldr	r3, [r3]
 640 008e 044A     		ldr	r2, .L53+8
 641 0090 1068     		ldr	r0, [r2]
 642 0092 0002     		lsl	r0, r0, #8
 643 0094 1843     		orr	r0, r3
 495:.\Generated_Source\PSoC4/Comp_1.c **** }
 644              		.loc 1 495 0
 645              		@ sp needed
 646              	.LVL49:
 647              	.LVL50:
 648 0096 38BD     		pop	{r3, r4, r5, pc}
 649              	.L54:
 650              		.align	2
 651              	.L53:
 652 0098 08002B40 		.word	1076559880
 653 009c 00FF2B40 		.word	1076625152
 654 00a0 04FF2B40 		.word	1076625156
 655 00a4 04002B40 		.word	1076559876
 656              		.cfi_endproc
 657              	.LFE15:
 658              		.size	Comp_1_ZeroCal, .-Comp_1_ZeroCal
 659              		.section	.text.Comp_1_LoadTrim,"ax",%progbits
 660              		.align	2
 661              		.global	Comp_1_LoadTrim
 662              		.code	16
 663              		.thumb_func
 664              		.type	Comp_1_LoadTrim, %function
 665              	Comp_1_LoadTrim:
 666              	.LFB16:
 496:.\Generated_Source\PSoC4/Comp_1.c **** 
 497:.\Generated_Source\PSoC4/Comp_1.c **** 
 498:.\Generated_Source\PSoC4/Comp_1.c **** /*******************************************************************************
 499:.\Generated_Source\PSoC4/Comp_1.c **** * Function Name: Comp_1_LoadTrim
 500:.\Generated_Source\PSoC4/Comp_1.c **** ********************************************************************************
 501:.\Generated_Source\PSoC4/Comp_1.c **** *
 502:.\Generated_Source\PSoC4/Comp_1.c **** * Summary:
 503:.\Generated_Source\PSoC4/Comp_1.c **** *  This function writes a value into the comparator offset trim register.
 504:.\Generated_Source\PSoC4/Comp_1.c **** *
 505:.\Generated_Source\PSoC4/Comp_1.c **** * Parameters:
 506:.\Generated_Source\PSoC4/Comp_1.c **** *  trimVal: Value to be stored in the comparator offset trim register. This
 507:.\Generated_Source\PSoC4/Comp_1.c **** *  value has the same format as the parameter returned by the
 508:.\Generated_Source\PSoC4/Comp_1.c **** *  Comp_1_ZeroCal() API routine.
 509:.\Generated_Source\PSoC4/Comp_1.c **** *
 510:.\Generated_Source\PSoC4/Comp_1.c **** * Return:
 511:.\Generated_Source\PSoC4/Comp_1.c **** *  None
 512:.\Generated_Source\PSoC4/Comp_1.c **** *
 513:.\Generated_Source\PSoC4/Comp_1.c **** *******************************************************************************/
 514:.\Generated_Source\PSoC4/Comp_1.c **** void Comp_1_LoadTrim(uint32 trimVal)
 515:.\Generated_Source\PSoC4/Comp_1.c **** {
 667              		.loc 1 515 0
 668              		.cfi_startproc
 669              	.LVL51:
 516:.\Generated_Source\PSoC4/Comp_1.c ****     Comp_1_TRIMA_REG = (trimVal & Comp_1_TRIMA_MASK);
ARM GAS  C:\Users\mlgjmoor\AppData\Local\Temp\ccymZVrS.s 			page 22


 670              		.loc 1 516 0
 671 0000 1F23     		mov	r3, #31
 672 0002 191C     		mov	r1, r3
 673 0004 0140     		and	r1, r0
 674 0006 034A     		ldr	r2, .L56
 675 0008 1160     		str	r1, [r2]
 517:.\Generated_Source\PSoC4/Comp_1.c ****     Comp_1_TRIMB_REG = ((trimVal >> Comp_1_TRIMB_SHIFT) & Comp_1_TRIMB_MASK);
 676              		.loc 1 517 0
 677 000a 000A     		lsr	r0, r0, #8
 678              	.LVL52:
 679 000c 1840     		and	r0, r3
 680 000e 024B     		ldr	r3, .L56+4
 681 0010 1860     		str	r0, [r3]
 518:.\Generated_Source\PSoC4/Comp_1.c **** }
 682              		.loc 1 518 0
 683              		@ sp needed
 684 0012 7047     		bx	lr
 685              	.L57:
 686              		.align	2
 687              	.L56:
 688 0014 00FF2B40 		.word	1076625152
 689 0018 04FF2B40 		.word	1076625156
 690              		.cfi_endproc
 691              	.LFE16:
 692              		.size	Comp_1_LoadTrim, .-Comp_1_LoadTrim
 693              		.section	.text.Comp_1_SetOutputMode,"ax",%progbits
 694              		.align	2
 695              		.global	Comp_1_SetOutputMode
 696              		.code	16
 697              		.thumb_func
 698              		.type	Comp_1_SetOutputMode, %function
 699              	Comp_1_SetOutputMode:
 700              	.LFB17:
 519:.\Generated_Source\PSoC4/Comp_1.c **** 
 520:.\Generated_Source\PSoC4/Comp_1.c **** 
 521:.\Generated_Source\PSoC4/Comp_1.c **** #if (Comp_1_CY_LPCOMP_V2)
 522:.\Generated_Source\PSoC4/Comp_1.c ****     
 523:.\Generated_Source\PSoC4/Comp_1.c **** /*******************************************************************************
 524:.\Generated_Source\PSoC4/Comp_1.c **** * Function Name: Comp_1_SetOutputMode
 525:.\Generated_Source\PSoC4/Comp_1.c **** ********************************************************************************
 526:.\Generated_Source\PSoC4/Comp_1.c **** *
 527:.\Generated_Source\PSoC4/Comp_1.c **** * Summary:
 528:.\Generated_Source\PSoC4/Comp_1.c **** *  Set comparator output mode. 
 529:.\Generated_Source\PSoC4/Comp_1.c **** *
 530:.\Generated_Source\PSoC4/Comp_1.c **** * Parameters:
 531:.\Generated_Source\PSoC4/Comp_1.c **** *  uint32 mode: Comparator output mode value
 532:.\Generated_Source\PSoC4/Comp_1.c **** *  Comp_1_OUT_DIRECT - Direct output
 533:.\Generated_Source\PSoC4/Comp_1.c **** *  Comp_1_OUT_SYNC   - Synchronized output
 534:.\Generated_Source\PSoC4/Comp_1.c **** *  Comp_1_OUT_PULSE  - Pulse output
 535:.\Generated_Source\PSoC4/Comp_1.c **** *
 536:.\Generated_Source\PSoC4/Comp_1.c **** * Return:
 537:.\Generated_Source\PSoC4/Comp_1.c **** *  None
 538:.\Generated_Source\PSoC4/Comp_1.c **** *
 539:.\Generated_Source\PSoC4/Comp_1.c **** *******************************************************************************/
 540:.\Generated_Source\PSoC4/Comp_1.c **** void Comp_1_SetOutputMode(uint32 mode)
 541:.\Generated_Source\PSoC4/Comp_1.c **** {
 701              		.loc 1 541 0
ARM GAS  C:\Users\mlgjmoor\AppData\Local\Temp\ccymZVrS.s 			page 23


 702              		.cfi_startproc
 703              	.LVL53:
 704 0000 10B5     		push	{r4, lr}
 705              		.cfi_def_cfa_offset 8
 706              		.cfi_offset 4, -8
 707              		.cfi_offset 14, -4
 708 0002 041C     		mov	r4, r0
 542:.\Generated_Source\PSoC4/Comp_1.c ****     uint32 config;
 543:.\Generated_Source\PSoC4/Comp_1.c ****     uint8 enableInterrupts;
 544:.\Generated_Source\PSoC4/Comp_1.c ****     
 545:.\Generated_Source\PSoC4/Comp_1.c ****     enableInterrupts = CyEnterCriticalSection();
 709              		.loc 1 545 0
 710 0004 FFF7FEFF 		bl	CyEnterCriticalSection
 711              	.LVL54:
 546:.\Generated_Source\PSoC4/Comp_1.c ****     config = Comp_1_CONFIG_REG & ((uint32)~(Comp_1_CONFIG_DSI_BYPASS | \
 712              		.loc 1 546 0
 713 0008 0B4B     		ldr	r3, .L61
 714 000a 1A68     		ldr	r2, [r3]
 715 000c 0B4B     		ldr	r3, .L61+4
 716 000e 1A40     		and	r2, r3
 717 0010 111C     		mov	r1, r2
 718              	.LVL55:
 547:.\Generated_Source\PSoC4/Comp_1.c ****                                                      Comp_1_CONFIG_DSI_LEVEL));
 548:.\Generated_Source\PSoC4/Comp_1.c ****     Comp_1_CONFIG_REG = config | Comp_1_GET_CONFIG_DSI_BYPASS(mode) | \
 719              		.loc 1 548 0
 720 0012 0223     		mov	r3, #2
 721 0014 2340     		and	r3, r4
 722 0016 01D0     		beq	.L59
 723 0018 8023     		mov	r3, #128
 724 001a 5B02     		lsl	r3, r3, #9
 725              	.L59:
 726              		.loc 1 548 0 is_stmt 0 discriminator 4
 727 001c 0B43     		orr	r3, r1
 728 001e 1A1C     		mov	r2, r3
 549:.\Generated_Source\PSoC4/Comp_1.c ****                                            Comp_1_GET_CONFIG_DSI_LEVEL(mode);
 729              		.loc 1 549 0 is_stmt 1 discriminator 4
 730 0020 0123     		mov	r3, #1
 731 0022 2340     		and	r3, r4
 732 0024 01D0     		beq	.L60
 733              		.loc 1 549 0 is_stmt 0
 734 0026 8023     		mov	r3, #128
 735 0028 9B02     		lsl	r3, r3, #10
 736              	.L60:
 548:.\Generated_Source\PSoC4/Comp_1.c ****                                            Comp_1_GET_CONFIG_DSI_LEVEL(mode);
 737              		.loc 1 548 0 is_stmt 1
 738 002a 1343     		orr	r3, r2
 739 002c 024A     		ldr	r2, .L61
 740 002e 1360     		str	r3, [r2]
 550:.\Generated_Source\PSoC4/Comp_1.c ****     CyExitCriticalSection(enableInterrupts);
 741              		.loc 1 550 0
 742 0030 FFF7FEFF 		bl	CyExitCriticalSection
 743              	.LVL56:
 551:.\Generated_Source\PSoC4/Comp_1.c **** }
 744              		.loc 1 551 0
 745              		@ sp needed
 746              	.LVL57:
 747 0034 10BD     		pop	{r4, pc}
ARM GAS  C:\Users\mlgjmoor\AppData\Local\Temp\ccymZVrS.s 			page 24


 748              	.L62:
 749 0036 C046     		.align	2
 750              	.L61:
 751 0038 04002B40 		.word	1076559876
 752 003c FFFFFCFF 		.word	-196609
 753              		.cfi_endproc
 754              	.LFE17:
 755              		.size	Comp_1_SetOutputMode, .-Comp_1_SetOutputMode
 756              		.section	.text.Comp_1_SetInterruptMask,"ax",%progbits
 757              		.align	2
 758              		.global	Comp_1_SetInterruptMask
 759              		.code	16
 760              		.thumb_func
 761              		.type	Comp_1_SetInterruptMask, %function
 762              	Comp_1_SetInterruptMask:
 763              	.LFB18:
 552:.\Generated_Source\PSoC4/Comp_1.c **** 
 553:.\Generated_Source\PSoC4/Comp_1.c **** 
 554:.\Generated_Source\PSoC4/Comp_1.c **** /*******************************************************************************
 555:.\Generated_Source\PSoC4/Comp_1.c **** * Function Name: Comp_1_SetInterruptMask
 556:.\Generated_Source\PSoC4/Comp_1.c **** ********************************************************************************
 557:.\Generated_Source\PSoC4/Comp_1.c **** *
 558:.\Generated_Source\PSoC4/Comp_1.c **** * Summary:
 559:.\Generated_Source\PSoC4/Comp_1.c **** *  Configures which bits of interrupt request register will trigger an interrupt 
 560:.\Generated_Source\PSoC4/Comp_1.c **** *  event.
 561:.\Generated_Source\PSoC4/Comp_1.c **** *
 562:.\Generated_Source\PSoC4/Comp_1.c **** * Parameters:
 563:.\Generated_Source\PSoC4/Comp_1.c **** *  uint32 interruptMask: Mask of interrupts to set. Each component instance has
 564:.\Generated_Source\PSoC4/Comp_1.c **** *  a mask value: Comp_1_INTR_MASK.
 565:.\Generated_Source\PSoC4/Comp_1.c **** *
 566:.\Generated_Source\PSoC4/Comp_1.c **** * Return:
 567:.\Generated_Source\PSoC4/Comp_1.c **** *  None
 568:.\Generated_Source\PSoC4/Comp_1.c **** *
 569:.\Generated_Source\PSoC4/Comp_1.c **** *******************************************************************************/
 570:.\Generated_Source\PSoC4/Comp_1.c **** void Comp_1_SetInterruptMask(uint32 interruptMask)
 571:.\Generated_Source\PSoC4/Comp_1.c **** {
 764              		.loc 1 571 0
 765              		.cfi_startproc
 766              	.LVL58:
 572:.\Generated_Source\PSoC4/Comp_1.c ****     #if(CY_IP_SRSSV2)
 573:.\Generated_Source\PSoC4/Comp_1.c ****         Comp_1_intrMaskRegState = interruptMask;
 767              		.loc 1 573 0
 768 0000 024B     		ldr	r3, .L64
 769 0002 1860     		str	r0, [r3]
 574:.\Generated_Source\PSoC4/Comp_1.c ****     #endif /* (CY_IP_SRSSV2) */
 575:.\Generated_Source\PSoC4/Comp_1.c ****     
 576:.\Generated_Source\PSoC4/Comp_1.c ****     Comp_1_INTR_MASK_REG = interruptMask;
 770              		.loc 1 576 0
 771 0004 024B     		ldr	r3, .L64+4
 772 0006 1860     		str	r0, [r3]
 577:.\Generated_Source\PSoC4/Comp_1.c **** }
 773              		.loc 1 577 0
 774              		@ sp needed
 775 0008 7047     		bx	lr
 776              	.L65:
 777 000a C046     		.align	2
 778              	.L64:
ARM GAS  C:\Users\mlgjmoor\AppData\Local\Temp\ccymZVrS.s 			page 25


 779 000c 00000000 		.word	.LANCHOR1
 780 0010 18002B40 		.word	1076559896
 781              		.cfi_endproc
 782              	.LFE18:
 783              		.size	Comp_1_SetInterruptMask, .-Comp_1_SetInterruptMask
 784              		.section	.text.Comp_1_GetInterruptMask,"ax",%progbits
 785              		.align	2
 786              		.global	Comp_1_GetInterruptMask
 787              		.code	16
 788              		.thumb_func
 789              		.type	Comp_1_GetInterruptMask, %function
 790              	Comp_1_GetInterruptMask:
 791              	.LFB19:
 578:.\Generated_Source\PSoC4/Comp_1.c **** 
 579:.\Generated_Source\PSoC4/Comp_1.c **** 
 580:.\Generated_Source\PSoC4/Comp_1.c **** /*******************************************************************************
 581:.\Generated_Source\PSoC4/Comp_1.c **** * Function Name: Comp_1_GetInterruptMask
 582:.\Generated_Source\PSoC4/Comp_1.c **** ********************************************************************************
 583:.\Generated_Source\PSoC4/Comp_1.c **** *
 584:.\Generated_Source\PSoC4/Comp_1.c **** * Summary:
 585:.\Generated_Source\PSoC4/Comp_1.c **** *  Returns interrupt mask.
 586:.\Generated_Source\PSoC4/Comp_1.c **** *
 587:.\Generated_Source\PSoC4/Comp_1.c **** * Parameters:
 588:.\Generated_Source\PSoC4/Comp_1.c **** *  None
 589:.\Generated_Source\PSoC4/Comp_1.c **** *
 590:.\Generated_Source\PSoC4/Comp_1.c **** * Return:
 591:.\Generated_Source\PSoC4/Comp_1.c **** *  uint32:  Mask of enabled interrupt source. Each component instance 
 592:.\Generated_Source\PSoC4/Comp_1.c **** *  has a mask value: Comp_1_INTR_MASK.
 593:.\Generated_Source\PSoC4/Comp_1.c **** *
 594:.\Generated_Source\PSoC4/Comp_1.c **** *******************************************************************************/
 595:.\Generated_Source\PSoC4/Comp_1.c **** uint32 Comp_1_GetInterruptMask(void)
 596:.\Generated_Source\PSoC4/Comp_1.c **** {
 792              		.loc 1 596 0
 793              		.cfi_startproc
 597:.\Generated_Source\PSoC4/Comp_1.c ****     return (Comp_1_INTR_MASK_REG);
 794              		.loc 1 597 0
 795 0000 014B     		ldr	r3, .L67
 796 0002 1868     		ldr	r0, [r3]
 598:.\Generated_Source\PSoC4/Comp_1.c **** }
 797              		.loc 1 598 0
 798              		@ sp needed
 799 0004 7047     		bx	lr
 800              	.L68:
 801 0006 C046     		.align	2
 802              	.L67:
 803 0008 18002B40 		.word	1076559896
 804              		.cfi_endproc
 805              	.LFE19:
 806              		.size	Comp_1_GetInterruptMask, .-Comp_1_GetInterruptMask
 807              		.section	.text.Comp_1_GetInterruptSourceMasked,"ax",%progbits
 808              		.align	2
 809              		.global	Comp_1_GetInterruptSourceMasked
 810              		.code	16
 811              		.thumb_func
 812              		.type	Comp_1_GetInterruptSourceMasked, %function
 813              	Comp_1_GetInterruptSourceMasked:
 814              	.LFB20:
ARM GAS  C:\Users\mlgjmoor\AppData\Local\Temp\ccymZVrS.s 			page 26


 599:.\Generated_Source\PSoC4/Comp_1.c **** 
 600:.\Generated_Source\PSoC4/Comp_1.c **** 
 601:.\Generated_Source\PSoC4/Comp_1.c **** /*******************************************************************************
 602:.\Generated_Source\PSoC4/Comp_1.c **** * Function Name: Comp_1_GetInterruptSourceMasked
 603:.\Generated_Source\PSoC4/Comp_1.c **** ********************************************************************************
 604:.\Generated_Source\PSoC4/Comp_1.c **** *
 605:.\Generated_Source\PSoC4/Comp_1.c **** * Summary:
 606:.\Generated_Source\PSoC4/Comp_1.c **** *  Returns interrupt request register masked by interrupt mask. Returns the result 
 607:.\Generated_Source\PSoC4/Comp_1.c **** *  of bitwise AND operation between corresponding interrupt request and mask bits.
 608:.\Generated_Source\PSoC4/Comp_1.c **** *
 609:.\Generated_Source\PSoC4/Comp_1.c **** * Parameters:
 610:.\Generated_Source\PSoC4/Comp_1.c **** *  None
 611:.\Generated_Source\PSoC4/Comp_1.c **** *
 612:.\Generated_Source\PSoC4/Comp_1.c **** * Return:
 613:.\Generated_Source\PSoC4/Comp_1.c **** *  uint32: Status of enabled interrupt source. Each component instance 
 614:.\Generated_Source\PSoC4/Comp_1.c **** *  has a mask value: Comp_1_INTR_MASKED.
 615:.\Generated_Source\PSoC4/Comp_1.c **** *
 616:.\Generated_Source\PSoC4/Comp_1.c **** *******************************************************************************/
 617:.\Generated_Source\PSoC4/Comp_1.c **** uint32 Comp_1_GetInterruptSourceMasked(void)
 618:.\Generated_Source\PSoC4/Comp_1.c **** {
 815              		.loc 1 618 0
 816              		.cfi_startproc
 619:.\Generated_Source\PSoC4/Comp_1.c ****     return (Comp_1_INTR_MASKED_REG);
 817              		.loc 1 619 0
 818 0000 014B     		ldr	r3, .L70
 819 0002 1868     		ldr	r0, [r3]
 620:.\Generated_Source\PSoC4/Comp_1.c **** }
 820              		.loc 1 620 0
 821              		@ sp needed
 822 0004 7047     		bx	lr
 823              	.L71:
 824 0006 C046     		.align	2
 825              	.L70:
 826 0008 1C002B40 		.word	1076559900
 827              		.cfi_endproc
 828              	.LFE20:
 829              		.size	Comp_1_GetInterruptSourceMasked, .-Comp_1_GetInterruptSourceMasked
 830              		.global	Comp_1_initVar
 831              		.section	.noinit,"aw",%progbits
 832              		.align	2
 833              		.set	.LANCHOR1,. + 0
 834              		.type	Comp_1_intrMaskRegState, %object
 835              		.size	Comp_1_intrMaskRegState, 4
 836              	Comp_1_intrMaskRegState:
 837 0000 00000000 		.space	4
 838              		.bss
 839              		.align	2
 840              		.set	.LANCHOR0,. + 0
 841              		.type	Comp_1_internalIntr, %object
 842              		.size	Comp_1_internalIntr, 4
 843              	Comp_1_internalIntr:
 844 0000 00000000 		.space	4
 845              		.type	Comp_1_initVar, %object
 846              		.size	Comp_1_initVar, 1
 847              	Comp_1_initVar:
 848 0004 00       		.space	1
 849 0005 000000   		.text
ARM GAS  C:\Users\mlgjmoor\AppData\Local\Temp\ccymZVrS.s 			page 27


 850              	.Letext0:
 851              		.file 2 ".\\Generated_Source\\PSoC4\\cytypes.h"
 852              		.file 3 ".\\Generated_Source\\PSoC4\\CyLib.h"
 853              		.file 4 ".\\Generated_Source\\PSoC4\\cyPm.h"