ARM GAS  C:\Users\mlgjmoor\AppData\Local\Temp\ccwL0k1p.s 			page 1


   1              		.cpu cortex-m0
   2              		.fpu softvfp
   3              		.eabi_attribute 20, 1
   4              		.eabi_attribute 21, 1
   5              		.eabi_attribute 23, 3
   6              		.eabi_attribute 24, 1
   7              		.eabi_attribute 25, 1
   8              		.eabi_attribute 26, 1
   9              		.eabi_attribute 30, 1
  10              		.eabi_attribute 34, 0
  11              		.eabi_attribute 18, 4
  12              		.code	16
  13              		.file	"main.c"
  14              		.text
  15              	.Ltext0:
  16              		.cfi_sections	.debug_frame
  17              		.section	.text.timer_isr,"ax",%progbits
  18              		.align	2
  19              		.global	timer_isr
  20              		.code	16
  21              		.thumb_func
  22              		.type	timer_isr, %function
  23              	timer_isr:
  24              	.LFB52:
  25              		.file 1 ".\\main.c"
   1:.\main.c      **** /* ========================================
   2:.\main.c      ****  *
   3:.\main.c      ****  * Copyright Flex, 2016
   4:.\main.c      ****  * All Rights Reserved
   5:.\main.c      ****  * UNPUBLISHED, LICENSED SOFTWARE.
   6:.\main.c      ****  *
   7:.\main.c      ****  * CONFIDENTIAL AND PROPRIETARY INFORMATION
   8:.\main.c      ****  * WHICH IS THE PROPERTY OF your company.
   9:.\main.c      ****  *
  10:.\main.c      ****  * ========================================
  11:.\main.c      **** */
  12:.\main.c      **** #define INPUT_BUFFER_MAX            100
  13:.\main.c      **** #define ADC_BUFFER_SIZE             64
  14:.\main.c      **** #define SCHEDULER_NUM_OF_TASKS      3
  15:.\main.c      **** #define CAL_TABLE_NUM_OF_POINTS     5
  16:.\main.c      **** #define ADC_CYCLES_PER_SECOND       8
  17:.\main.c      **** //#define ADC_SENSORS                 1 //WILL BE 16 IN FINAL
  18:.\main.c      **** #define ADC_TEMPERATURE_CHANNEL     1
  19:.\main.c      **** #define IIR_WEIGHT                  8 // Should be power of 2 y = ((IIR_weight - 1)y + x) / IIR_WEI
  20:.\main.c      **** 
  21:.\main.c      **** #define NUMBER_OF_SENSORS           4
  22:.\main.c      **** 
  23:.\main.c      **** #define LOW                         0
  24:.\main.c      **** #define HIGH_Z                      1
  25:.\main.c      **** 
  26:.\main.c      **** #include <project.h>
  27:.\main.c      **** #include <stdbool.h>
  28:.\main.c      **** #include <stdio.h>
  29:.\main.c      **** #include <string.h>
  30:.\main.c      **** #include <queue.h>
  31:.\main.c      **** #include <nodus_api.h>
  32:.\main.c      **** 
ARM GAS  C:\Users\mlgjmoor\AppData\Local\Temp\ccwL0k1p.s 			page 2


  33:.\main.c      **** // Function declarations
  34:.\main.c      **** void StackEventHandler( uint32 eventCode, void *eventParam );
  35:.\main.c      **** 
  36:.\main.c      **** // Type definitions
  37:.\main.c      **** 
  38:.\main.c      **** typedef struct fsr_params
  39:.\main.c      **** {
  40:.\main.c      ****     uint8 numberOfSensors;
  41:.\main.c      ****     uint8 samplesToAvg; // For most efficient result this aught to be a power of 2
  42:.\main.c      ****     
  43:.\main.c      **** } fsr_params;
  44:.\main.c      **** 
  45:.\main.c      **** typedef struct cal_point
  46:.\main.c      **** {
  47:.\main.c      ****     float force;
  48:.\main.c      ****     uint16 adc_val;
  49:.\main.c      **** }cal_point;
  50:.\main.c      **** 
  51:.\main.c      **** typedef struct task
  52:.\main.c      **** {
  53:.\main.c      ****     void  (*task_cb)(struct task*, queue*);
  54:.\main.c      ****     bool  is_active;
  55:.\main.c      **** }task;
  56:.\main.c      **** 
  57:.\main.c      **** typedef struct scheduler
  58:.\main.c      **** {
  59:.\main.c      ****     task tasks[SCHEDULER_NUM_OF_TASKS];
  60:.\main.c      **** }scheduler;
  61:.\main.c      **** 
  62:.\main.c      **** typedef enum scheduler_task
  63:.\main.c      **** {
  64:.\main.c      ****     TASK_CALIBRATE,
  65:.\main.c      ****     TASK_WRITE_UART,
  66:.\main.c      ****     TASK_READ_ADC,
  67:.\main.c      ****     MAX_SCHEDULER_TASK
  68:.\main.c      **** } scheduler_task;
  69:.\main.c      **** 
  70:.\main.c      **** typedef struct pin
  71:.\main.c      **** {
  72:.\main.c      ****     int id;
  73:.\main.c      ****     void (*pin_write)(uint8 value);
  74:.\main.c      **** } pin;
  75:.\main.c      **** 
  76:.\main.c      **** // Global declarations
  77:.\main.c      **** static cal_point cal_table[CAL_TABLE_NUM_OF_POINTS];
  78:.\main.c      **** static uint16 filtered_adc[NUMBER_OF_SENSORS];
  79:.\main.c      **** static pin pins[NUMBER_OF_SENSORS + 1]; // the +1 is for the resistor
  80:.\main.c      **** 
  81:.\main.c      **** static volatile uint32 temperature = 0;
  82:.\main.c      **** static volatile bool temperature_convert = false;
  83:.\main.c      **** 
  84:.\main.c      **** static volatile bool timer_flag = false;
  85:.\main.c      **** static bool input_ready = false;
  86:.\main.c      **** static bool calibrated = false;
  87:.\main.c      **** 
  88:.\main.c      **** 
  89:.\main.c      **** // converts a string into a float
ARM GAS  C:\Users\mlgjmoor\AppData\Local\Temp\ccwL0k1p.s 			page 3


  90:.\main.c      **** float str2float(char* str)
  91:.\main.c      **** {
  92:.\main.c      ****     int whole = 0;
  93:.\main.c      ****     int dec = 0;
  94:.\main.c      ****     int dec_len = 0;
  95:.\main.c      ****     float result = 0.0;
  96:.\main.c      ****     char* str_cpy = str;
  97:.\main.c      ****     char cur_c;
  98:.\main.c      ****     bool in_dec = false;
  99:.\main.c      ****     
 100:.\main.c      ****     cur_c = *str_cpy;
 101:.\main.c      ****     while (cur_c != '\0')
 102:.\main.c      ****     {
 103:.\main.c      ****         // if char is a letter
 104:.\main.c      ****         if (cur_c >= '0' && cur_c <= '9')
 105:.\main.c      ****         {
 106:.\main.c      ****             if (in_dec == false)
 107:.\main.c      ****             {
 108:.\main.c      ****                 whole *= 10;
 109:.\main.c      ****                 whole += (cur_c - '0');
 110:.\main.c      ****             }
 111:.\main.c      ****             else
 112:.\main.c      ****             {
 113:.\main.c      ****                 dec *= 10;
 114:.\main.c      ****                 dec += (cur_c - '0');
 115:.\main.c      ****                 dec_len++;
 116:.\main.c      ****             }
 117:.\main.c      ****         }
 118:.\main.c      ****         else if (cur_c == '.')
 119:.\main.c      ****         {
 120:.\main.c      ****             in_dec = true;
 121:.\main.c      ****         }
 122:.\main.c      ****         else if ( !(cur_c == '\n' || cur_c == '\r') )
 123:.\main.c      ****         {
 124:.\main.c      ****             UART_UartPutString("WARNING: Unrecognized char\r\n");
 125:.\main.c      ****         }
 126:.\main.c      ****         
 127:.\main.c      ****         cur_c = *(++str_cpy);
 128:.\main.c      ****     }
 129:.\main.c      ****     result = (float)dec;
 130:.\main.c      ****     while (dec_len != 0)
 131:.\main.c      ****     {
 132:.\main.c      ****         result /= 10.0;
 133:.\main.c      ****         dec_len--;
 134:.\main.c      ****     }
 135:.\main.c      ****     result += (float)whole;
 136:.\main.c      ****     UART_UartPutString("DEBUG: float conversion complete\r\n");                                    
 137:.\main.c      ****     return result;
 138:.\main.c      **** }
 139:.\main.c      **** 
 140:.\main.c      **** 
 141:.\main.c      **** // raise a base to a power
 142:.\main.c      **** // fun with recursion, can prove it terminates
 143:.\main.c      **** int powr(int b, int p)
 144:.\main.c      **** {
 145:.\main.c      ****     int r;
 146:.\main.c      ****     int exp_h;
ARM GAS  C:\Users\mlgjmoor\AppData\Local\Temp\ccwL0k1p.s 			page 4


 147:.\main.c      ****     
 148:.\main.c      ****     if (p == 0)
 149:.\main.c      ****     {
 150:.\main.c      ****         return 1;
 151:.\main.c      ****     }
 152:.\main.c      ****     else 
 153:.\main.c      ****     {
 154:.\main.c      ****         exp_h = powr(b, p >> 1); // p >> 1 === p / 2
 155:.\main.c      ****         if (p%2 == 0)
 156:.\main.c      ****         {
 157:.\main.c      ****             return exp_h * exp_h;
 158:.\main.c      ****         }
 159:.\main.c      ****         else
 160:.\main.c      ****         {
 161:.\main.c      ****             return b * exp_h * exp_h;
 162:.\main.c      ****         }
 163:.\main.c      ****     }
 164:.\main.c      **** }
 165:.\main.c      **** 
 166:.\main.c      **** 
 167:.\main.c      **** // converts an integer to a string
 168:.\main.c      **** void int2string(uint16 n, char str[6])
 169:.\main.c      **** {
 170:.\main.c      ****     if (n < 10)
 171:.\main.c      ****     {
 172:.\main.c      ****         str[0] = (char)('0' + n);
 173:.\main.c      ****         str[1] = '\0';
 174:.\main.c      ****     }
 175:.\main.c      ****     else if (n < 100)
 176:.\main.c      ****     {
 177:.\main.c      ****         str[1] = (char)('0' + (n % 10));
 178:.\main.c      ****         str[0] = (char)('0' + ((n / 10) % 10));
 179:.\main.c      ****         str[2] = '\0';
 180:.\main.c      ****     }
 181:.\main.c      ****     else if (n < 1000)
 182:.\main.c      ****     {
 183:.\main.c      ****         str[2] = (char)('0' + (n % 10));
 184:.\main.c      ****         str[1] = (char)('0' + ((n / 10) % 10));
 185:.\main.c      ****         str[0] = (char)('0' + ((n / 100) % 10));
 186:.\main.c      ****         str[3] = '\0';
 187:.\main.c      ****     }
 188:.\main.c      ****     else if (n < 10000)
 189:.\main.c      ****     {
 190:.\main.c      ****         str[4] = '\0';
 191:.\main.c      ****         str[3] = (char)('0' + (n % 10));
 192:.\main.c      ****         str[2] = (char)('0' + ((n / 10) % 10));
 193:.\main.c      ****         str[1] = (char)('0' + ((n / 100) % 10));
 194:.\main.c      ****         str[0] = (char)('0' + ((n / 1000) % 10));
 195:.\main.c      ****     }
 196:.\main.c      ****     else
 197:.\main.c      ****     {
 198:.\main.c      ****         str[5] = '\0';
 199:.\main.c      ****         str[4] = (char)('0' + (n % 10));
 200:.\main.c      ****         str[3] = (char)('0' + ((n / 10) % 10));
 201:.\main.c      ****         str[2] = (char)('0' + ((n / 100) % 10));
 202:.\main.c      ****         str[1] = (char)('0' + ((n / 1000) % 10));
 203:.\main.c      ****         str[0] = (char)('0' + ((n / 10000) % 10));
ARM GAS  C:\Users\mlgjmoor\AppData\Local\Temp\ccwL0k1p.s 			page 5


 204:.\main.c      ****     }
 205:.\main.c      **** }
 206:.\main.c      **** 
 207:.\main.c      **** 
 208:.\main.c      **** // Float -> String
 209:.\main.c      **** void float2str(float f, char str[64])
 210:.\main.c      **** {
 211:.\main.c      ****     int whole_part;
 212:.\main.c      ****     int fraction;
 213:.\main.c      ****     float temp;
 214:.\main.c      ****     int i = 0;
 215:.\main.c      ****     int dec_places = 2;  // Change this if you want more decimal places.
 216:.\main.c      ****     char c;
 217:.\main.c      ****     
 218:.\main.c      ****     whole_part = (int) f;
 219:.\main.c      ****     temp = f - whole_part;
 220:.\main.c      ****     fraction = (int)(powr(10, dec_places) * temp);
 221:.\main.c      ****     
 222:.\main.c      ****     int2string(whole_part, str);
 223:.\main.c      ****     for(i=0; i<64; i++)
 224:.\main.c      ****     {
 225:.\main.c      ****         c = str[i];
 226:.\main.c      ****         if (c == '\0')
 227:.\main.c      ****         {
 228:.\main.c      ****             str[i] = '.';
 229:.\main.c      ****             int2string(fraction, &str[i+1]);
 230:.\main.c      ****             break;
 231:.\main.c      ****         }
 232:.\main.c      ****     }
 233:.\main.c      **** }
 234:.\main.c      **** 
 235:.\main.c      **** // linear interpolation of adc_result
 236:.\main.c      **** float linterp(uint16 adc_reading)
 237:.\main.c      **** {
 238:.\main.c      ****     // The whole configuration creates a strictly decreasing function of resistance / force
 239:.\main.c      ****     
 240:.\main.c      ****     float result = 0.0;
 241:.\main.c      ****     bool lower = false;
 242:.\main.c      ****     bool upper = false;
 243:.\main.c      ****     bool exact = false;
 244:.\main.c      ****     
 245:.\main.c      ****     // Find the index, assume the calibration point table is in ascending order
 246:.\main.c      ****     // ^^^ bad assumption
 247:.\main.c      ****     // the data isn't in an easy format in the table
 248:.\main.c      ****     // if a point is <adc_val, force>, then the adc_val goes from high to low as
 249:.\main.c      ****     // points are iterated across the table.
 250:.\main.c      ****     
 251:.\main.c      ****     int i;
 252:.\main.c      ****     i=0;
 253:.\main.c      ****     
 254:.\main.c      ****     if (adc_reading >= cal_table[0].adc_val)
 255:.\main.c      ****     {
 256:.\main.c      ****         lower = true;
 257:.\main.c      ****     }
 258:.\main.c      ****     else
 259:.\main.c      ****     {
 260:.\main.c      ****         for (i=1; i<CAL_TABLE_NUM_OF_POINTS; i++)
ARM GAS  C:\Users\mlgjmoor\AppData\Local\Temp\ccwL0k1p.s 			page 6


 261:.\main.c      ****         {
 262:.\main.c      ****             if (adc_reading > cal_table[i].adc_val) break;
 263:.\main.c      ****             else if (adc_reading == cal_table[i].adc_val)
 264:.\main.c      ****             {
 265:.\main.c      ****                 exact = true;
 266:.\main.c      ****                 break;
 267:.\main.c      ****             }
 268:.\main.c      ****         }
 269:.\main.c      ****         
 270:.\main.c      ****         if (adc_reading < cal_table[CAL_TABLE_NUM_OF_POINTS-1].adc_val) upper = true;
 271:.\main.c      ****     }
 272:.\main.c      ****     
 273:.\main.c      ****     if (lower)
 274:.\main.c      ****     {
 275:.\main.c      ****         result = 0.0;
 276:.\main.c      ****     }
 277:.\main.c      ****     else if (upper)
 278:.\main.c      ****     {
 279:.\main.c      ****         // We can extrapolate linearly from the last two points
 280:.\main.c      ****         int x1, x2;
 281:.\main.c      ****         float fx1, fx2;
 282:.\main.c      ****         
 283:.\main.c      ****         x1 = cal_table[CAL_TABLE_NUM_OF_POINTS-2].adc_val;
 284:.\main.c      ****         fx1 = cal_table[CAL_TABLE_NUM_OF_POINTS-2].force;
 285:.\main.c      ****         
 286:.\main.c      ****         x2 = cal_table[CAL_TABLE_NUM_OF_POINTS-1].adc_val;
 287:.\main.c      ****         fx2 = cal_table[CAL_TABLE_NUM_OF_POINTS-1].force;
 288:.\main.c      ****         
 289:.\main.c      ****         
 290:.\main.c      ****         result = ( (x2 - adc_reading)* fx1 + (adc_reading - x1) * fx2 ) / ((float)(x2 - x1)) ;
 291:.\main.c      ****     }
 292:.\main.c      ****     else if (exact)
 293:.\main.c      ****     {
 294:.\main.c      ****         result = cal_table[i].force;
 295:.\main.c      ****     }
 296:.\main.c      ****     else // do a linear interpolation
 297:.\main.c      ****     {
 298:.\main.c      ****         // Basic of linear interpolation: f(x) = (x2 - x)/lin_range * f(x1) + (x - x1)/lin_range * 
 299:.\main.c      ****         int x1, x2;
 300:.\main.c      ****         float fx1, fx2;
 301:.\main.c      ****         
 302:.\main.c      ****         x1 = cal_table[i - 1].adc_val;
 303:.\main.c      ****         fx1 = cal_table[i - 1].force;
 304:.\main.c      ****         
 305:.\main.c      ****         x2 = cal_table[i].adc_val;
 306:.\main.c      ****         fx2 = cal_table[i].force;
 307:.\main.c      ****         
 308:.\main.c      ****         result = ( (x2 - adc_reading)* fx1 + (adc_reading - x1) * fx2 ) / ((float)(x2 - x1)) ;
 309:.\main.c      ****     }
 310:.\main.c      ****     
 311:.\main.c      ****     return result;
 312:.\main.c      **** }
 313:.\main.c      **** 
 314:.\main.c      **** uint16 read_adc( volatile int index )
 315:.\main.c      **** {
 316:.\main.c      ****     uint16 result;
 317:.\main.c      ****     
ARM GAS  C:\Users\mlgjmoor\AppData\Local\Temp\ccwL0k1p.s 			page 7


 318:.\main.c      ****     pins[0].pin_write(LOW);
 319:.\main.c      ****     pins[index].pin_write(LOW);
 320:.\main.c      ****     
 321:.\main.c      ****     // Wait for transient response
 322:.\main.c      ****     CyDelay(5u);
 323:.\main.c      ****     
 324:.\main.c      ****     ADC_StartConvert();
 325:.\main.c      ****     ADC_IsEndConversion(ADC_WAIT_FOR_RESULT);
 326:.\main.c      ****     result = ADC_GetResult16(0);
 327:.\main.c      ****     
 328:.\main.c      ****     pins[0].pin_write(HIGH_Z);
 329:.\main.c      ****     pins[index].pin_write(HIGH_Z);
 330:.\main.c      ****     
 331:.\main.c      ****     return result;
 332:.\main.c      **** }
 333:.\main.c      **** 
 334:.\main.c      **** void read_fsr(int avg)
 335:.\main.c      **** {
 336:.\main.c      ****     uint32 buf[NUMBER_OF_SENSORS];
 337:.\main.c      ****     int loop;
 338:.\main.c      ****     int sensor;
 339:.\main.c      ****     
 340:.\main.c      ****     for (loop=0; loop < avg; loop++)
 341:.\main.c      ****     {
 342:.\main.c      ****         for (sensor=0; sensor < NUMBER_OF_SENSORS; sensor++)
 343:.\main.c      ****         {
 344:.\main.c      ****             buf[sensor] += read_adc(sensor+1);
 345:.\main.c      ****         }
 346:.\main.c      ****     }
 347:.\main.c      ****     
 348:.\main.c      ****     int i;
 349:.\main.c      ****     for (i=0; i<NUMBER_OF_SENSORS; i++)
 350:.\main.c      ****     {
 351:.\main.c      ****         filtered_adc[i] = (uint16) (buf[i] / avg);
 352:.\main.c      ****         buf[i] = 0;
 353:.\main.c      ****     }
 354:.\main.c      ****     
 355:.\main.c      **** }
 356:.\main.c      **** 
 357:.\main.c      **** // This method has a few "waits" in here, that concerns me
 358:.\main.c      **** void readADC_routine(task* self, queue* ipc_queue)
 359:.\main.c      **** {    
 360:.\main.c      ****     read_fsr(4);
 361:.\main.c      **** }
 362:.\main.c      **** 
 363:.\main.c      **** // Reads the ADC every second
 364:.\main.c      **** void writeUART_routine(task* self, queue* ipc_queue)
 365:.\main.c      **** {    
 366:.\main.c      ****     char numAsStr[6];
 367:.\main.c      ****     char tempAsStr[6];
 368:.\main.c      ****     char floatAsStr[64];
 369:.\main.c      ****     uint8 InterruptState;
 370:.\main.c      ****     // This function uses the global cooked_adc
 371:.\main.c      ****     uint32 adc_accumulator = filtered_adc[0];
 372:.\main.c      ****     
 373:.\main.c      ****     
 374:.\main.c      ****     if (timer_flag)
ARM GAS  C:\Users\mlgjmoor\AppData\Local\Temp\ccwL0k1p.s 			page 8


 375:.\main.c      ****     {
 376:.\main.c      ****         if (calibrated)
 377:.\main.c      ****         {
 378:.\main.c      ****             float force = 0.0;
 379:.\main.c      ****             
 380:.\main.c      ****             force = linterp((uint16)adc_accumulator);
 381:.\main.c      ****             
 382:.\main.c      ****             int2string((uint16)adc_accumulator, numAsStr);
 383:.\main.c      ****             UART_UartPutString("ADC Value: ");
 384:.\main.c      ****             UART_UartPutString(numAsStr);
 385:.\main.c      ****             UART_UartPutString("\tCalculated Force: ");
 386:.\main.c      ****             
 387:.\main.c      ****             float2str(force, floatAsStr);
 388:.\main.c      ****             
 389:.\main.c      ****             UART_UartPutString(floatAsStr);
 390:.\main.c      ****             UART_UartPutString("\r\n");
 391:.\main.c      ****         }
 392:.\main.c      ****         
 393:.\main.c      ****         else
 394:.\main.c      ****         {
 395:.\main.c      ****             uint32 cels;
 396:.\main.c      ****             cels = DieTemp_CountsTo_Celsius(temperature);
 397:.\main.c      ****             int2string((uint16)cels, tempAsStr);
 398:.\main.c      ****             int2string((uint16)adc_accumulator, numAsStr);
 399:.\main.c      ****             UART_UartPutString("ADC Value: ");
 400:.\main.c      ****             int i;
 401:.\main.c      ****             for (i=0; i<NUMBER_OF_SENSORS; i++)
 402:.\main.c      ****             {
 403:.\main.c      ****                 UART_UartPutString("\t");
 404:.\main.c      ****                 adc_accumulator = filtered_adc[i];
 405:.\main.c      ****                 int2string((uint16)adc_accumulator, numAsStr);
 406:.\main.c      ****                 UART_UartPutString(numAsStr);
 407:.\main.c      ****             }
 408:.\main.c      ****             UART_UartPutString("\tTemperature: ");
 409:.\main.c      ****             UART_UartPutString(tempAsStr);
 410:.\main.c      ****             UART_UartPutString("\r\n");
 411:.\main.c      ****         }
 412:.\main.c      ****         
 413:.\main.c      ****         timer_flag = false;
 414:.\main.c      ****     }
 415:.\main.c      **** }
 416:.\main.c      **** 
 417:.\main.c      **** // Print an initial message on UART
 418:.\main.c      **** void print_user_message()
 419:.\main.c      **** {
 420:.\main.c      ****     UART_UartPutString("\r\n***********************************************************************
 421:.\main.c      ****     UART_UartPutString("---Force Sensor Test---\r\n");
 422:.\main.c      ****     UART_UartPutString("Press 'c' to calibrate\r\n");
 423:.\main.c      ****     UART_UartPutString("Press 'r' to toggle continuous read\r\n");
 424:.\main.c      ****     UART_UartPutString("\r\n***********************************************************************
 425:.\main.c      ****     UART_UartPutString("\r\n");
 426:.\main.c      **** }
 427:.\main.c      **** 
 428:.\main.c      **** // string -> string
 429:.\main.c      **** // Changes all characters in an ASCII string to lower case equivalent
 430:.\main.c      **** char* lower(char* str)
 431:.\main.c      **** {
ARM GAS  C:\Users\mlgjmoor\AppData\Local\Temp\ccwL0k1p.s 			page 9


 432:.\main.c      ****     char* str_cpy = str;
 433:.\main.c      ****     while (*str != '\0')
 434:.\main.c      ****     {
 435:.\main.c      ****         if (*str >= 'A' && *str <= 'Z')
 436:.\main.c      ****         {
 437:.\main.c      ****             *str += 'a' - 'A';
 438:.\main.c      ****         }
 439:.\main.c      ****         str++;
 440:.\main.c      ****     }
 441:.\main.c      ****     return str_cpy;
 442:.\main.c      **** }
 443:.\main.c      **** 
 444:.\main.c      **** // Returns true if both strings contain the same characters up til the null terminator
 445:.\main.c      **** bool str_eq(char* s1, char* s2)
 446:.\main.c      **** {
 447:.\main.c      ****     bool ret = true;
 448:.\main.c      ****     int i = 0;
 449:.\main.c      ****     while ((s1[i] != '\0' || s2[i] != '\0') && ret == true)
 450:.\main.c      ****     {
 451:.\main.c      ****         if (s1[i] != s2[i])
 452:.\main.c      ****         {
 453:.\main.c      ****             ret = false;
 454:.\main.c      ****         }
 455:.\main.c      **** 
 456:.\main.c      ****         i++;
 457:.\main.c      ****     }
 458:.\main.c      ****     
 459:.\main.c      ****     return ret;
 460:.\main.c      **** }
 461:.\main.c      **** 
 462:.\main.c      **** // Very basic input handler
 463:.\main.c      **** //  Called 64 times per second (I think, adc may mess with it)
 464:.\main.c      **** // Grabs a character from the UART, if \0 it ignores it, if a newline
 465:.\main.c      **** //  the input_ready flag is set to true
 466:.\main.c      **** void get_user_input(char buffer[INPUT_BUFFER_MAX])
 467:.\main.c      **** {
 468:.\main.c      ****     static int index = 0;
 469:.\main.c      ****     char in_char;
 470:.\main.c      ****     
 471:.\main.c      ****     
 472:.\main.c      ****     in_char = (char)UART_UartGetChar();
 473:.\main.c      ****     
 474:.\main.c      ****     if ( index < (INPUT_BUFFER_MAX -1) )
 475:.\main.c      ****     {
 476:.\main.c      ****         // local echo
 477:.\main.c      ****         if (0u != in_char)
 478:.\main.c      ****         {            
 479:.\main.c      ****             UART_UartPutChar(in_char);
 480:.\main.c      ****             buffer[index] = in_char;
 481:.\main.c      ****             index++;
 482:.\main.c      ****             
 483:.\main.c      ****             // A newline char indicates a command is entered
 484:.\main.c      ****             if (in_char == '\n' || in_char == '\r')
 485:.\main.c      ****             {
 486:.\main.c      ****                 UART_UartPutString("DEBUG: Input Accepted\r\n");
 487:.\main.c      ****                 // index was already incremented, so this terminates the string
 488:.\main.c      ****                 buffer[index] = '\0';
ARM GAS  C:\Users\mlgjmoor\AppData\Local\Temp\ccwL0k1p.s 			page 10


 489:.\main.c      ****                 UART_UartPutString(buffer);
 490:.\main.c      ****                 UART_UartPutString("\r\n");
 491:.\main.c      ****                 input_ready = true;
 492:.\main.c      ****                 index = 0;
 493:.\main.c      ****             }
 494:.\main.c      ****         }
 495:.\main.c      ****     }
 496:.\main.c      **** }
 497:.\main.c      **** 
 498:.\main.c      **** // Main scheduler task
 499:.\main.c      **** // It runs all the tasks flagged as active each clock tick (64 Hz)
 500:.\main.c      **** // (I think, adc may mess with it)
 501:.\main.c      **** void run_scheduler(scheduler* sched, queue* ipc_queue)
 502:.\main.c      **** {
 503:.\main.c      ****     int i;
 504:.\main.c      ****     // Iterate through all the tasks
 505:.\main.c      ****     for (i = 0; i < SCHEDULER_NUM_OF_TASKS; i++)
 506:.\main.c      ****     {
 507:.\main.c      ****         task* cur_task = &(sched->tasks)[i];
 508:.\main.c      ****         
 509:.\main.c      ****         if (cur_task->is_active)
 510:.\main.c      ****         {
 511:.\main.c      ****             // if the task is active, call the task
 512:.\main.c      ****             (cur_task->task_cb)(cur_task, ipc_queue);
 513:.\main.c      ****         }
 514:.\main.c      ****         
 515:.\main.c      ****     }
 516:.\main.c      **** }
 517:.\main.c      **** 
 518:.\main.c      **** // The function for the task of Calibrating the sensor
 519:.\main.c      **** void calibrate_sensor(task* self, queue* ipc_queue)
 520:.\main.c      **** {
 521:.\main.c      ****     uint32 adc_accumulator = filtered_adc[0]; // KLUDGE: make this better for multisensor support
 522:.\main.c      ****     // Static variable declarations
 523:.\main.c      ****     static int cal_point_ind = 0;
 524:.\main.c      ****     
 525:.\main.c      ****     // Non-static (ephemeral?) variable declarations
 526:.\main.c      ****     char numAsStr[6];
 527:.\main.c      ****     
 528:.\main.c      ****     // basically do one loop of a for loop on the points in cal_table
 529:.\main.c      ****     if (cal_point_ind < CAL_TABLE_NUM_OF_POINTS)
 530:.\main.c      ****     {
 531:.\main.c      ****         // Wait for a message in the IPC queue
 532:.\main.c      ****         if (is_empty(ipc_queue) == false)
 533:.\main.c      ****         {
 534:.\main.c      ****             UART_UartPutString("DEBUG: Message Received\r\n");
 535:.\main.c      ****             ipc_message* m = peek(ipc_queue);
 536:.\main.c      ****             // Just making sure the message is the one we want
 537:.\main.c      ****             if (m->address == TASK_CALIBRATE)
 538:.\main.c      ****             {
 539:.\main.c      ****                 UART_UartPutString("DEBUG: Dequeing Message\r\n");
 540:.\main.c      ****                 m = dequeue(ipc_queue);
 541:.\main.c      ****                 
 542:.\main.c      ****                 UART_UartPutString("DEBUG: Message Reads: ");
 543:.\main.c      ****                 UART_UartPutString(m->data);
 544:.\main.c      ****                 UART_UartPutString("\r\n");
 545:.\main.c      ****                 
ARM GAS  C:\Users\mlgjmoor\AppData\Local\Temp\ccwL0k1p.s 			page 11


 546:.\main.c      ****                 cal_table[cal_point_ind].force = str2float(m->data);
 547:.\main.c      ****                 cal_table[cal_point_ind].adc_val = (uint16)(adc_accumulator);
 548:.\main.c      ****                 
 549:.\main.c      ****                 int2string((uint16)(adc_accumulator), numAsStr);
 550:.\main.c      ****                 UART_UartPutString("INFO: Message Reads: ");
 551:.\main.c      ****                 UART_UartPutString(numAsStr);
 552:.\main.c      ****                 UART_UartPutString("\r\n");
 553:.\main.c      ****                 
 554:.\main.c      ****                 
 555:.\main.c      ****                 // Update/reset static variables at end of "loop"
 556:.\main.c      ****                 cal_point_ind++;
 557:.\main.c      ****             }
 558:.\main.c      ****         }
 559:.\main.c      ****     }
 560:.\main.c      ****     else
 561:.\main.c      ****     {
 562:.\main.c      ****         UART_UartPutString("DEBUG: Exiting calibration task\r\n");
 563:.\main.c      ****         // Turn self off
 564:.\main.c      ****         self->is_active = false;
 565:.\main.c      ****         // Reset static vars for any future call
 566:.\main.c      ****         cal_point_ind = 0;
 567:.\main.c      ****         // Set global static vars
 568:.\main.c      ****         calibrated = true;
 569:.\main.c      ****     }
 570:.\main.c      **** }
 571:.\main.c      **** 
 572:.\main.c      **** // ISR for Interrupt triggered by timer (64 HZ)
 573:.\main.c      **** CY_ISR(timer_isr)
 574:.\main.c      **** {
  26              		.loc 1 574 0
  27              		.cfi_startproc
  28 0000 08B5     		push	{r3, lr}
  29              		.cfi_def_cfa_offset 8
  30              		.cfi_offset 3, -8
  31              		.cfi_offset 14, -4
 575:.\main.c      ****     static int count64 = 0;
 576:.\main.c      ****     // Increment counter, it will set timer_flag once per second
 577:.\main.c      ****     count64++;
  32              		.loc 1 577 0
  33 0002 094A     		ldr	r2, .L3
  34 0004 1368     		ldr	r3, [r2]
  35 0006 0133     		add	r3, r3, #1
  36 0008 1360     		str	r3, [r2]
 578:.\main.c      ****     if (count64 == 64) {
  37              		.loc 1 578 0
  38 000a 402B     		cmp	r3, #64
  39 000c 04D1     		bne	.L2
 579:.\main.c      ****         timer_flag = true;
  40              		.loc 1 579 0
  41 000e 131C     		mov	r3, r2
  42 0010 0122     		mov	r2, #1
  43 0012 1A71     		strb	r2, [r3, #4]
 580:.\main.c      ****         count64 = 0;
  44              		.loc 1 580 0
  45 0014 0022     		mov	r2, #0
  46 0016 1A60     		str	r2, [r3]
  47              	.L2:
ARM GAS  C:\Users\mlgjmoor\AppData\Local\Temp\ccwL0k1p.s 			page 12


 581:.\main.c      ****         //temperature_convert = true;
 582:.\main.c      ****     }
 583:.\main.c      ****     
 584:.\main.c      ****     Timer_ClearInterrupt( Timer_INTR_MASK_CC_MATCH );
  48              		.loc 1 584 0
  49 0018 0220     		mov	r0, #2
  50 001a FFF7FEFF 		bl	Timer_ClearInterrupt
  51              	.LVL0:
 585:.\main.c      ****     Timer_ClearInterrupt(Timer_INTR_MASK_TC);
  52              		.loc 1 585 0
  53 001e 0120     		mov	r0, #1
  54 0020 FFF7FEFF 		bl	Timer_ClearInterrupt
  55              	.LVL1:
 586:.\main.c      **** }
  56              		.loc 1 586 0
  57              		@ sp needed
  58 0024 08BD     		pop	{r3, pc}
  59              	.L4:
  60 0026 C046     		.align	2
  61              	.L3:
  62 0028 00000000 		.word	.LANCHOR0
  63              		.cfi_endproc
  64              	.LFE52:
  65              		.size	timer_isr, .-timer_isr
  66              		.global	__aeabi_i2f
  67              		.global	__aeabi_fdiv
  68              		.global	__aeabi_fadd
  69              		.section	.text.str2float,"ax",%progbits
  70              		.align	2
  71              		.global	str2float
  72              		.code	16
  73              		.thumb_func
  74              		.type	str2float, %function
  75              	str2float:
  76              	.LFB37:
  91:.\main.c      ****     int whole = 0;
  77              		.loc 1 91 0
  78              		.cfi_startproc
  79              	.LVL2:
  80 0000 F0B5     		push	{r4, r5, r6, r7, lr}
  81              		.cfi_def_cfa_offset 20
  82              		.cfi_offset 4, -20
  83              		.cfi_offset 5, -16
  84              		.cfi_offset 6, -12
  85              		.cfi_offset 7, -8
  86              		.cfi_offset 14, -4
  87 0002 4746     		mov	r7, r8
  88 0004 80B4     		push	{r7}
  89              		.cfi_def_cfa_offset 24
  90              		.cfi_offset 8, -24
  91 0006 051C     		mov	r5, r0
  92              	.LVL3:
 100:.\main.c      ****     while (cur_c != '\0')
  93              		.loc 1 100 0
  94 0008 0378     		ldrb	r3, [r0]
  95              	.LVL4:
  98:.\main.c      ****     
ARM GAS  C:\Users\mlgjmoor\AppData\Local\Temp\ccwL0k1p.s 			page 13


  96              		.loc 1 98 0
  97 000a 0027     		mov	r7, #0
  94:.\main.c      ****     float result = 0.0;
  98              		.loc 1 94 0
  99 000c 0024     		mov	r4, #0
  93:.\main.c      ****     int dec_len = 0;
 100              		.loc 1 93 0
 101 000e 0022     		mov	r2, #0
 102 0010 9046     		mov	r8, r2
  92:.\main.c      ****     int dec = 0;
 103              		.loc 1 92 0
 104 0012 0026     		mov	r6, #0
 101:.\main.c      ****     {
 105              		.loc 1 101 0
 106 0014 21E0     		b	.L6
 107              	.LVL5:
 108              	.L10:
 104:.\main.c      ****         {
 109              		.loc 1 104 0
 110 0016 1A1C     		mov	r2, r3
 111 0018 303A     		sub	r2, r2, #48
 112 001a 092A     		cmp	r2, #9
 113 001c 10D8     		bhi	.L7
 106:.\main.c      ****             {
 114              		.loc 1 106 0
 115 001e 002F     		cmp	r7, #0
 116 0020 05D1     		bne	.L8
 108:.\main.c      ****                 whole += (cur_c - '0');
 117              		.loc 1 108 0
 118 0022 B200     		lsl	r2, r6, #2
 119 0024 9619     		add	r6, r2, r6
 120              	.LVL6:
 121 0026 7600     		lsl	r6, r6, #1
 122              	.LVL7:
 109:.\main.c      ****             }
 123              		.loc 1 109 0
 124 0028 303B     		sub	r3, r3, #48
 125              	.LVL8:
 126 002a 9E19     		add	r6, r3, r6
 127              	.LVL9:
 128 002c 13E0     		b	.L9
 129              	.LVL10:
 130              	.L8:
 113:.\main.c      ****                 dec += (cur_c - '0');
 131              		.loc 1 113 0
 132 002e 4246     		mov	r2, r8
 133 0030 9000     		lsl	r0, r2, #2
 134 0032 4044     		add	r0, r0, r8
 135 0034 4000     		lsl	r0, r0, #1
 136              	.LVL11:
 114:.\main.c      ****                 dec_len++;
 137              		.loc 1 114 0
 138 0036 303B     		sub	r3, r3, #48
 139              	.LVL12:
 140 0038 9846     		mov	r8, r3
 141 003a 8044     		add	r8, r8, r0
 142              	.LVL13:
ARM GAS  C:\Users\mlgjmoor\AppData\Local\Temp\ccwL0k1p.s 			page 14


 115:.\main.c      ****             }
 143              		.loc 1 115 0
 144 003c 0134     		add	r4, r4, #1
 145              	.LVL14:
 146 003e 0AE0     		b	.L9
 147              	.LVL15:
 148              	.L7:
 118:.\main.c      ****         {
 149              		.loc 1 118 0
 150 0040 2E2B     		cmp	r3, #46
 151 0042 07D0     		beq	.L13
 122:.\main.c      ****         {
 152              		.loc 1 122 0
 153 0044 0A2B     		cmp	r3, #10
 154 0046 06D0     		beq	.L9
 122:.\main.c      ****         {
 155              		.loc 1 122 0 is_stmt 0 discriminator 1
 156 0048 0D2B     		cmp	r3, #13
 157 004a 04D0     		beq	.L9
 124:.\main.c      ****         }
 158              		.loc 1 124 0 is_stmt 1
 159 004c 1148     		ldr	r0, .L14
 160 004e FFF7FEFF 		bl	UART_UartPutString
 161              	.LVL16:
 162 0052 00E0     		b	.L9
 163              	.LVL17:
 164              	.L13:
 120:.\main.c      ****         }
 165              		.loc 1 120 0
 166 0054 0127     		mov	r7, #1
 167              	.LVL18:
 168              	.L9:
 127:.\main.c      ****     }
 169              		.loc 1 127 0
 170 0056 0135     		add	r5, r5, #1
 171              	.LVL19:
 172 0058 2B78     		ldrb	r3, [r5]
 173              	.LVL20:
 174              	.L6:
 101:.\main.c      ****     {
 175              		.loc 1 101 0
 176 005a 002B     		cmp	r3, #0
 177 005c DBD1     		bne	.L10
 129:.\main.c      ****     while (dec_len != 0)
 178              		.loc 1 129 0
 179 005e 4046     		mov	r0, r8
 180 0060 FFF7FEFF 		bl	__aeabi_i2f
 181              	.LVL21:
 182 0064 051C     		add	r5, r0, #0
 183              	.LVL22:
 130:.\main.c      ****     {
 184              		.loc 1 130 0
 185 0066 05E0     		b	.L11
 186              	.L12:
 132:.\main.c      ****         dec_len--;
 187              		.loc 1 132 0
 188 0068 281C     		add	r0, r5, #0
ARM GAS  C:\Users\mlgjmoor\AppData\Local\Temp\ccwL0k1p.s 			page 15


 189              	.LVL23:
 190 006a 0B49     		ldr	r1, .L14+4
 191 006c FFF7FEFF 		bl	__aeabi_fdiv
 192              	.LVL24:
 193 0070 051C     		add	r5, r0, #0
 194              	.LVL25:
 133:.\main.c      ****     }
 195              		.loc 1 133 0
 196 0072 013C     		sub	r4, r4, #1
 197              	.LVL26:
 198              	.L11:
 130:.\main.c      ****     {
 199              		.loc 1 130 0
 200 0074 002C     		cmp	r4, #0
 201 0076 F7D1     		bne	.L12
 135:.\main.c      ****     UART_UartPutString("DEBUG: float conversion complete\r\n");                                    
 202              		.loc 1 135 0
 203 0078 301C     		mov	r0, r6
 204              	.LVL27:
 205 007a FFF7FEFF 		bl	__aeabi_i2f
 206              	.LVL28:
 207 007e 291C     		add	r1, r5, #0
 208 0080 FFF7FEFF 		bl	__aeabi_fadd
 209              	.LVL29:
 210 0084 041C     		add	r4, r0, #0
 211              	.LVL30:
 136:.\main.c      ****     return result;
 212              		.loc 1 136 0
 213 0086 0548     		ldr	r0, .L14+8
 214              	.LVL31:
 215 0088 FFF7FEFF 		bl	UART_UartPutString
 216              	.LVL32:
 138:.\main.c      **** 
 217              		.loc 1 138 0
 218 008c 201C     		add	r0, r4, #0
 219              		@ sp needed
 220              	.LVL33:
 221              	.LVL34:
 222              	.LVL35:
 223              	.LVL36:
 224 008e 04BC     		pop	{r2}
 225 0090 9046     		mov	r8, r2
 226 0092 F0BD     		pop	{r4, r5, r6, r7, pc}
 227              	.L15:
 228              		.align	2
 229              	.L14:
 230 0094 00000000 		.word	.LC1
 231 0098 00002041 		.word	1092616192
 232 009c 20000000 		.word	.LC3
 233              		.cfi_endproc
 234              	.LFE37:
 235              		.size	str2float, .-str2float
 236              		.section	.text.powr,"ax",%progbits
 237              		.align	2
 238              		.global	powr
 239              		.code	16
 240              		.thumb_func
ARM GAS  C:\Users\mlgjmoor\AppData\Local\Temp\ccwL0k1p.s 			page 16


 241              		.type	powr, %function
 242              	powr:
 243              	.LFB38:
 144:.\main.c      ****     int r;
 244              		.loc 1 144 0
 245              		.cfi_startproc
 246              	.LVL37:
 247 0000 38B5     		push	{r3, r4, r5, lr}
 248              		.cfi_def_cfa_offset 16
 249              		.cfi_offset 3, -16
 250              		.cfi_offset 4, -12
 251              		.cfi_offset 5, -8
 252              		.cfi_offset 14, -4
 148:.\main.c      ****     {
 253              		.loc 1 148 0
 254 0002 0029     		cmp	r1, #0
 255 0004 0BD0     		beq	.L19
 256 0006 0C1C     		mov	r4, r1
 257 0008 051C     		mov	r5, r0
 154:.\main.c      ****         if (p%2 == 0)
 258              		.loc 1 154 0
 259 000a 4910     		asr	r1, r1, #1
 260              	.LVL38:
 261 000c FFF7FEFF 		bl	powr
 262              	.LVL39:
 155:.\main.c      ****         {
 263              		.loc 1 155 0
 264 0010 E307     		lsl	r3, r4, #31
 265 0012 01D4     		bmi	.L18
 157:.\main.c      ****         }
 266              		.loc 1 157 0
 267 0014 4043     		mul	r0, r0
 268              	.LVL40:
 269 0016 03E0     		b	.L17
 270              	.LVL41:
 271              	.L18:
 161:.\main.c      ****         }
 272              		.loc 1 161 0
 273 0018 4543     		mul	r5, r0
 274              	.LVL42:
 275 001a 6843     		mul	r0, r5
 276              	.LVL43:
 277 001c 00E0     		b	.L17
 278              	.LVL44:
 279              	.L19:
 150:.\main.c      ****     }
 280              		.loc 1 150 0
 281 001e 0120     		mov	r0, #1
 282              	.LVL45:
 283              	.L17:
 164:.\main.c      **** 
 284              		.loc 1 164 0
 285              		@ sp needed
 286 0020 38BD     		pop	{r3, r4, r5, pc}
 287              		.cfi_endproc
 288              	.LFE38:
 289              		.size	powr, .-powr
ARM GAS  C:\Users\mlgjmoor\AppData\Local\Temp\ccwL0k1p.s 			page 17


 290              		.global	__aeabi_uidivmod
 291              		.global	__aeabi_uidiv
 292 0022 C046     		.section	.text.int2string,"ax",%progbits
 293              		.align	2
 294              		.global	int2string
 295              		.code	16
 296              		.thumb_func
 297              		.type	int2string, %function
 298              	int2string:
 299              	.LFB39:
 169:.\main.c      ****     if (n < 10)
 300              		.loc 1 169 0
 301              		.cfi_startproc
 302              	.LVL46:
 303 0000 38B5     		push	{r3, r4, r5, lr}
 304              		.cfi_def_cfa_offset 16
 305              		.cfi_offset 3, -16
 306              		.cfi_offset 4, -12
 307              		.cfi_offset 5, -8
 308              		.cfi_offset 14, -4
 170:.\main.c      ****     {
 309              		.loc 1 170 0
 310 0002 0928     		cmp	r0, #9
 311 0004 04D8     		bhi	.L21
 172:.\main.c      ****         str[1] = '\0';
 312              		.loc 1 172 0
 313 0006 3030     		add	r0, r0, #48
 314              	.LVL47:
 315 0008 0870     		strb	r0, [r1]
 173:.\main.c      ****     }
 316              		.loc 1 173 0
 317 000a 0023     		mov	r3, #0
 318 000c 4B70     		strb	r3, [r1, #1]
 319 000e 8EE0     		b	.L20
 320              	.LVL48:
 321              	.L21:
 322 0010 0D1C     		mov	r5, r1
 323 0012 041E     		sub	r4, r0, #0
 175:.\main.c      ****     {
 324              		.loc 1 175 0
 325 0014 632C     		cmp	r4, #99
 326 0016 11D8     		bhi	.L23
 177:.\main.c      ****         str[0] = (char)('0' + ((n / 10) % 10));
 327              		.loc 1 177 0
 328 0018 0A21     		mov	r1, #10
 329              	.LVL49:
 330 001a FFF7FEFF 		bl	__aeabi_uidivmod
 331              	.LVL50:
 332 001e 3031     		add	r1, r1, #48
 333 0020 6970     		strb	r1, [r5, #1]
 178:.\main.c      ****         str[2] = '\0';
 334              		.loc 1 178 0
 335 0022 201C     		mov	r0, r4
 336 0024 0A21     		mov	r1, #10
 337 0026 FFF7FEFF 		bl	__aeabi_uidiv
 338              	.LVL51:
 339 002a 80B2     		uxth	r0, r0
ARM GAS  C:\Users\mlgjmoor\AppData\Local\Temp\ccwL0k1p.s 			page 18


 340 002c 0A21     		mov	r1, #10
 341 002e FFF7FEFF 		bl	__aeabi_uidivmod
 342              	.LVL52:
 343 0032 3031     		add	r1, r1, #48
 344 0034 2970     		strb	r1, [r5]
 179:.\main.c      ****     }
 345              		.loc 1 179 0
 346 0036 0023     		mov	r3, #0
 347 0038 AB70     		strb	r3, [r5, #2]
 348 003a 78E0     		b	.L20
 349              	.LVL53:
 350              	.L23:
 181:.\main.c      ****     {
 351              		.loc 1 181 0
 352 003c 3C4B     		ldr	r3, .L26
 353 003e 9842     		cmp	r0, r3
 354 0040 1BD8     		bhi	.L24
 183:.\main.c      ****         str[1] = (char)('0' + ((n / 10) % 10));
 355              		.loc 1 183 0
 356 0042 0A21     		mov	r1, #10
 357              	.LVL54:
 358 0044 FFF7FEFF 		bl	__aeabi_uidivmod
 359              	.LVL55:
 360 0048 3031     		add	r1, r1, #48
 361 004a A970     		strb	r1, [r5, #2]
 184:.\main.c      ****         str[0] = (char)('0' + ((n / 100) % 10));
 362              		.loc 1 184 0
 363 004c 201C     		mov	r0, r4
 364 004e 0A21     		mov	r1, #10
 365 0050 FFF7FEFF 		bl	__aeabi_uidiv
 366              	.LVL56:
 367 0054 80B2     		uxth	r0, r0
 368 0056 0A21     		mov	r1, #10
 369 0058 FFF7FEFF 		bl	__aeabi_uidivmod
 370              	.LVL57:
 371 005c 3031     		add	r1, r1, #48
 372 005e 6970     		strb	r1, [r5, #1]
 185:.\main.c      ****         str[3] = '\0';
 373              		.loc 1 185 0
 374 0060 201C     		mov	r0, r4
 375 0062 6421     		mov	r1, #100
 376 0064 FFF7FEFF 		bl	__aeabi_uidiv
 377              	.LVL58:
 378 0068 80B2     		uxth	r0, r0
 379 006a 0A21     		mov	r1, #10
 380 006c FFF7FEFF 		bl	__aeabi_uidivmod
 381              	.LVL59:
 382 0070 3031     		add	r1, r1, #48
 383 0072 2970     		strb	r1, [r5]
 186:.\main.c      ****     }
 384              		.loc 1 186 0
 385 0074 0023     		mov	r3, #0
 386 0076 EB70     		strb	r3, [r5, #3]
 387 0078 59E0     		b	.L20
 388              	.LVL60:
 389              	.L24:
 188:.\main.c      ****     {
ARM GAS  C:\Users\mlgjmoor\AppData\Local\Temp\ccwL0k1p.s 			page 19


 390              		.loc 1 188 0
 391 007a 2E4B     		ldr	r3, .L26+4
 392 007c 9842     		cmp	r0, r3
 393 007e 26D8     		bhi	.L25
 190:.\main.c      ****         str[3] = (char)('0' + (n % 10));
 394              		.loc 1 190 0
 395 0080 0023     		mov	r3, #0
 396 0082 0B71     		strb	r3, [r1, #4]
 191:.\main.c      ****         str[2] = (char)('0' + ((n / 10) % 10));
 397              		.loc 1 191 0
 398 0084 0A21     		mov	r1, #10
 399              	.LVL61:
 400 0086 FFF7FEFF 		bl	__aeabi_uidivmod
 401              	.LVL62:
 402 008a 3031     		add	r1, r1, #48
 403 008c E970     		strb	r1, [r5, #3]
 192:.\main.c      ****         str[1] = (char)('0' + ((n / 100) % 10));
 404              		.loc 1 192 0
 405 008e 201C     		mov	r0, r4
 406 0090 0A21     		mov	r1, #10
 407 0092 FFF7FEFF 		bl	__aeabi_uidiv
 408              	.LVL63:
 409 0096 80B2     		uxth	r0, r0
 410 0098 0A21     		mov	r1, #10
 411 009a FFF7FEFF 		bl	__aeabi_uidivmod
 412              	.LVL64:
 413 009e 3031     		add	r1, r1, #48
 414 00a0 A970     		strb	r1, [r5, #2]
 193:.\main.c      ****         str[0] = (char)('0' + ((n / 1000) % 10));
 415              		.loc 1 193 0
 416 00a2 201C     		mov	r0, r4
 417 00a4 6421     		mov	r1, #100
 418 00a6 FFF7FEFF 		bl	__aeabi_uidiv
 419              	.LVL65:
 420 00aa 80B2     		uxth	r0, r0
 421 00ac 0A21     		mov	r1, #10
 422 00ae FFF7FEFF 		bl	__aeabi_uidivmod
 423              	.LVL66:
 424 00b2 3031     		add	r1, r1, #48
 425 00b4 6970     		strb	r1, [r5, #1]
 194:.\main.c      ****     }
 426              		.loc 1 194 0
 427 00b6 201C     		mov	r0, r4
 428 00b8 FA21     		mov	r1, #250
 429 00ba 8900     		lsl	r1, r1, #2
 430 00bc FFF7FEFF 		bl	__aeabi_uidiv
 431              	.LVL67:
 432 00c0 80B2     		uxth	r0, r0
 433 00c2 0A21     		mov	r1, #10
 434 00c4 FFF7FEFF 		bl	__aeabi_uidivmod
 435              	.LVL68:
 436 00c8 3031     		add	r1, r1, #48
 437 00ca 2970     		strb	r1, [r5]
 438 00cc 2FE0     		b	.L20
 439              	.LVL69:
 440              	.L25:
 198:.\main.c      ****         str[4] = (char)('0' + (n % 10));
ARM GAS  C:\Users\mlgjmoor\AppData\Local\Temp\ccwL0k1p.s 			page 20


 441              		.loc 1 198 0
 442 00ce 0023     		mov	r3, #0
 443 00d0 4B71     		strb	r3, [r1, #5]
 199:.\main.c      ****         str[3] = (char)('0' + ((n / 10) % 10));
 444              		.loc 1 199 0
 445 00d2 0A21     		mov	r1, #10
 446              	.LVL70:
 447 00d4 FFF7FEFF 		bl	__aeabi_uidivmod
 448              	.LVL71:
 449 00d8 3031     		add	r1, r1, #48
 450 00da 2971     		strb	r1, [r5, #4]
 200:.\main.c      ****         str[2] = (char)('0' + ((n / 100) % 10));
 451              		.loc 1 200 0
 452 00dc 201C     		mov	r0, r4
 453 00de 0A21     		mov	r1, #10
 454 00e0 FFF7FEFF 		bl	__aeabi_uidiv
 455              	.LVL72:
 456 00e4 80B2     		uxth	r0, r0
 457 00e6 0A21     		mov	r1, #10
 458 00e8 FFF7FEFF 		bl	__aeabi_uidivmod
 459              	.LVL73:
 460 00ec 3031     		add	r1, r1, #48
 461 00ee E970     		strb	r1, [r5, #3]
 201:.\main.c      ****         str[1] = (char)('0' + ((n / 1000) % 10));
 462              		.loc 1 201 0
 463 00f0 201C     		mov	r0, r4
 464 00f2 6421     		mov	r1, #100
 465 00f4 FFF7FEFF 		bl	__aeabi_uidiv
 466              	.LVL74:
 467 00f8 80B2     		uxth	r0, r0
 468 00fa 0A21     		mov	r1, #10
 469 00fc FFF7FEFF 		bl	__aeabi_uidivmod
 470              	.LVL75:
 471 0100 3031     		add	r1, r1, #48
 472 0102 A970     		strb	r1, [r5, #2]
 202:.\main.c      ****         str[0] = (char)('0' + ((n / 10000) % 10));
 473              		.loc 1 202 0
 474 0104 201C     		mov	r0, r4
 475 0106 FA21     		mov	r1, #250
 476 0108 8900     		lsl	r1, r1, #2
 477 010a FFF7FEFF 		bl	__aeabi_uidiv
 478              	.LVL76:
 479 010e 80B2     		uxth	r0, r0
 480 0110 0A21     		mov	r1, #10
 481 0112 FFF7FEFF 		bl	__aeabi_uidivmod
 482              	.LVL77:
 483 0116 3031     		add	r1, r1, #48
 484 0118 6970     		strb	r1, [r5, #1]
 203:.\main.c      ****     }
 485              		.loc 1 203 0
 486 011a 201C     		mov	r0, r4
 487 011c 0649     		ldr	r1, .L26+8
 488 011e FFF7FEFF 		bl	__aeabi_uidiv
 489              	.LVL78:
 490 0122 80B2     		uxth	r0, r0
 491 0124 0A21     		mov	r1, #10
 492 0126 FFF7FEFF 		bl	__aeabi_uidivmod
ARM GAS  C:\Users\mlgjmoor\AppData\Local\Temp\ccwL0k1p.s 			page 21


 493              	.LVL79:
 494 012a 3031     		add	r1, r1, #48
 495 012c 2970     		strb	r1, [r5]
 496              	.LVL80:
 497              	.L20:
 205:.\main.c      **** 
 498              		.loc 1 205 0
 499              		@ sp needed
 500 012e 38BD     		pop	{r3, r4, r5, pc}
 501              	.L27:
 502              		.align	2
 503              	.L26:
 504 0130 E7030000 		.word	999
 505 0134 0F270000 		.word	9999
 506 0138 10270000 		.word	10000
 507              		.cfi_endproc
 508              	.LFE39:
 509              		.size	int2string, .-int2string
 510              		.section	.text.calibrate_sensor,"ax",%progbits
 511              		.align	2
 512              		.global	calibrate_sensor
 513              		.code	16
 514              		.thumb_func
 515              		.type	calibrate_sensor, %function
 516              	calibrate_sensor:
 517              	.LFB51:
 520:.\main.c      ****     uint32 adc_accumulator = filtered_adc[0]; // KLUDGE: make this better for multisensor support
 518              		.loc 1 520 0
 519              		.cfi_startproc
 520              	.LVL81:
 521 0000 F0B5     		push	{r4, r5, r6, r7, lr}
 522              		.cfi_def_cfa_offset 20
 523              		.cfi_offset 4, -20
 524              		.cfi_offset 5, -16
 525              		.cfi_offset 6, -12
 526              		.cfi_offset 7, -8
 527              		.cfi_offset 14, -4
 528 0002 83B0     		sub	sp, sp, #12
 529              		.cfi_def_cfa_offset 32
 530 0004 051C     		mov	r5, r0
 531 0006 0C1C     		mov	r4, r1
 521:.\main.c      ****     // Static variable declarations
 532              		.loc 1 521 0
 533 0008 254B     		ldr	r3, .L31
 534 000a 1E89     		ldrh	r6, [r3, #8]
 535              	.LVL82:
 529:.\main.c      ****     {
 536              		.loc 1 529 0
 537 000c 1B69     		ldr	r3, [r3, #16]
 538 000e 042B     		cmp	r3, #4
 539 0010 3ADC     		bgt	.L29
 532:.\main.c      ****         {
 540              		.loc 1 532 0
 541 0012 081C     		mov	r0, r1
 542              	.LVL83:
 543 0014 FFF7FEFF 		bl	is_empty
 544              	.LVL84:
ARM GAS  C:\Users\mlgjmoor\AppData\Local\Temp\ccwL0k1p.s 			page 22


 545 0018 0028     		cmp	r0, #0
 546 001a 3FD1     		bne	.L28
 547              	.LBB2:
 534:.\main.c      ****             ipc_message* m = peek(ipc_queue);
 548              		.loc 1 534 0
 549 001c 2148     		ldr	r0, .L31+4
 550 001e FFF7FEFF 		bl	UART_UartPutString
 551              	.LVL85:
 535:.\main.c      ****             // Just making sure the message is the one we want
 552              		.loc 1 535 0
 553 0022 201C     		mov	r0, r4
 554 0024 FFF7FEFF 		bl	peek
 555              	.LVL86:
 537:.\main.c      ****             {
 556              		.loc 1 537 0
 557 0028 0378     		ldrb	r3, [r0]
 558 002a 002B     		cmp	r3, #0
 559 002c 36D1     		bne	.L28
 539:.\main.c      ****                 m = dequeue(ipc_queue);
 560              		.loc 1 539 0
 561 002e 1E48     		ldr	r0, .L31+8
 562              	.LVL87:
 563 0030 FFF7FEFF 		bl	UART_UartPutString
 564              	.LVL88:
 540:.\main.c      ****                 
 565              		.loc 1 540 0
 566 0034 201C     		mov	r0, r4
 567 0036 FFF7FEFF 		bl	dequeue
 568              	.LVL89:
 569 003a 051C     		mov	r5, r0
 570              	.LVL90:
 542:.\main.c      ****                 UART_UartPutString(m->data);
 571              		.loc 1 542 0
 572 003c 1B48     		ldr	r0, .L31+12
 573              	.LVL91:
 574 003e FFF7FEFF 		bl	UART_UartPutString
 575              	.LVL92:
 543:.\main.c      ****                 UART_UartPutString("\r\n");
 576              		.loc 1 543 0
 577 0042 6868     		ldr	r0, [r5, #4]
 578 0044 FFF7FEFF 		bl	UART_UartPutString
 579              	.LVL93:
 544:.\main.c      ****                 
 580              		.loc 1 544 0
 581 0048 1948     		ldr	r0, .L31+16
 582 004a FFF7FEFF 		bl	UART_UartPutString
 583              	.LVL94:
 546:.\main.c      ****                 cal_table[cal_point_ind].adc_val = (uint16)(adc_accumulator);
 584              		.loc 1 546 0
 585 004e 144C     		ldr	r4, .L31
 586              	.LVL95:
 587 0050 2769     		ldr	r7, [r4, #16]
 588 0052 6868     		ldr	r0, [r5, #4]
 589 0054 FFF7FEFF 		bl	str2float
 590              	.LVL96:
 591 0058 FF00     		lsl	r7, r7, #3
 592 005a E719     		add	r7, r4, r7
ARM GAS  C:\Users\mlgjmoor\AppData\Local\Temp\ccwL0k1p.s 			page 23


 593 005c 7861     		str	r0, [r7, #20]
 547:.\main.c      ****                 
 594              		.loc 1 547 0
 595 005e 2369     		ldr	r3, [r4, #16]
 596 0060 DB00     		lsl	r3, r3, #3
 597 0062 E318     		add	r3, r4, r3
 598 0064 1E83     		strh	r6, [r3, #24]
 549:.\main.c      ****                 UART_UartPutString("INFO: Message Reads: ");
 599              		.loc 1 549 0
 600 0066 301C     		mov	r0, r6
 601 0068 6946     		mov	r1, sp
 602 006a FFF7FEFF 		bl	int2string
 603              	.LVL97:
 550:.\main.c      ****                 UART_UartPutString(numAsStr);
 604              		.loc 1 550 0
 605 006e 1148     		ldr	r0, .L31+20
 606 0070 FFF7FEFF 		bl	UART_UartPutString
 607              	.LVL98:
 551:.\main.c      ****                 UART_UartPutString("\r\n");
 608              		.loc 1 551 0
 609 0074 6846     		mov	r0, sp
 610 0076 FFF7FEFF 		bl	UART_UartPutString
 611              	.LVL99:
 552:.\main.c      ****                 
 612              		.loc 1 552 0
 613 007a 0D48     		ldr	r0, .L31+16
 614 007c FFF7FEFF 		bl	UART_UartPutString
 615              	.LVL100:
 556:.\main.c      ****             }
 616              		.loc 1 556 0
 617 0080 2369     		ldr	r3, [r4, #16]
 618 0082 0133     		add	r3, r3, #1
 619 0084 2361     		str	r3, [r4, #16]
 620 0086 09E0     		b	.L28
 621              	.LVL101:
 622              	.L29:
 623              	.LBE2:
 562:.\main.c      ****         // Turn self off
 624              		.loc 1 562 0
 625 0088 0B48     		ldr	r0, .L31+24
 626              	.LVL102:
 627 008a FFF7FEFF 		bl	UART_UartPutString
 628              	.LVL103:
 564:.\main.c      ****         // Reset static vars for any future call
 629              		.loc 1 564 0
 630 008e 0022     		mov	r2, #0
 631 0090 2A71     		strb	r2, [r5, #4]
 566:.\main.c      ****         // Set global static vars
 632              		.loc 1 566 0
 633 0092 034B     		ldr	r3, .L31
 634 0094 1A61     		str	r2, [r3, #16]
 568:.\main.c      ****     }
 635              		.loc 1 568 0
 636 0096 0121     		mov	r1, #1
 637 0098 3C32     		add	r2, r2, #60
 638 009a 9954     		strb	r1, [r3, r2]
 639              	.LVL104:
ARM GAS  C:\Users\mlgjmoor\AppData\Local\Temp\ccwL0k1p.s 			page 24


 640              	.L28:
 570:.\main.c      **** 
 641              		.loc 1 570 0
 642 009c 03B0     		add	sp, sp, #12
 643              		@ sp needed
 644              	.LVL105:
 645 009e F0BD     		pop	{r4, r5, r6, r7, pc}
 646              	.L32:
 647              		.align	2
 648              	.L31:
 649 00a0 00000000 		.word	.LANCHOR0
 650 00a4 44000000 		.word	.LC6
 651 00a8 60000000 		.word	.LC8
 652 00ac 7C000000 		.word	.LC10
 653 00b0 94000000 		.word	.LC12
 654 00b4 98000000 		.word	.LC14
 655 00b8 B0000000 		.word	.LC16
 656              		.cfi_endproc
 657              	.LFE51:
 658              		.size	calibrate_sensor, .-calibrate_sensor
 659              		.global	__aeabi_f2iz
 660              		.global	__aeabi_fsub
 661              		.global	__aeabi_fmul
 662              		.section	.text.float2str,"ax",%progbits
 663              		.align	2
 664              		.global	float2str
 665              		.code	16
 666              		.thumb_func
 667              		.type	float2str, %function
 668              	float2str:
 669              	.LFB40:
 210:.\main.c      ****     int whole_part;
 670              		.loc 1 210 0
 671              		.cfi_startproc
 672              	.LVL106:
 673 0000 70B5     		push	{r4, r5, r6, lr}
 674              		.cfi_def_cfa_offset 16
 675              		.cfi_offset 4, -16
 676              		.cfi_offset 5, -12
 677              		.cfi_offset 6, -8
 678              		.cfi_offset 14, -4
 679 0002 051C     		add	r5, r0, #0
 680 0004 0E1C     		mov	r6, r1
 681              	.LVL107:
 218:.\main.c      ****     temp = f - whole_part;
 682              		.loc 1 218 0
 683 0006 FFF7FEFF 		bl	__aeabi_f2iz
 684              	.LVL108:
 685 000a 041C     		mov	r4, r0
 686              	.LVL109:
 219:.\main.c      ****     fraction = (int)(powr(10, dec_places) * temp);
 687              		.loc 1 219 0
 688 000c FFF7FEFF 		bl	__aeabi_i2f
 689              	.LVL110:
 690 0010 011C     		add	r1, r0, #0
 691 0012 281C     		add	r0, r5, #0
 692 0014 FFF7FEFF 		bl	__aeabi_fsub
ARM GAS  C:\Users\mlgjmoor\AppData\Local\Temp\ccwL0k1p.s 			page 25


 693              	.LVL111:
 694 0018 051C     		add	r5, r0, #0
 695              	.LVL112:
 220:.\main.c      ****     
 696              		.loc 1 220 0
 697 001a 0A20     		mov	r0, #10
 698              	.LVL113:
 699 001c 0221     		mov	r1, #2
 700 001e FFF7FEFF 		bl	powr
 701              	.LVL114:
 702 0022 FFF7FEFF 		bl	__aeabi_i2f
 703              	.LVL115:
 704 0026 291C     		add	r1, r5, #0
 705 0028 FFF7FEFF 		bl	__aeabi_fmul
 706              	.LVL116:
 707 002c FFF7FEFF 		bl	__aeabi_f2iz
 708              	.LVL117:
 709 0030 051C     		mov	r5, r0
 710              	.LVL118:
 222:.\main.c      ****     for(i=0; i<64; i++)
 711              		.loc 1 222 0
 712 0032 A0B2     		uxth	r0, r4
 713              	.LVL119:
 714 0034 311C     		mov	r1, r6
 715 0036 FFF7FEFF 		bl	int2string
 716              	.LVL120:
 223:.\main.c      ****     {
 717              		.loc 1 223 0
 718 003a 0023     		mov	r3, #0
 719 003c 0DE0     		b	.L34
 720              	.LVL121:
 721              	.L37:
 225:.\main.c      ****         if (c == '\0')
 722              		.loc 1 225 0
 723 003e 191C     		mov	r1, r3
 724 0040 F218     		add	r2, r6, r3
 725 0042 1478     		ldrb	r4, [r2]
 726              	.LVL122:
 226:.\main.c      ****         {
 727              		.loc 1 226 0
 728 0044 002C     		cmp	r4, #0
 729 0046 07D1     		bne	.L35
 730              	.LVL123:
 228:.\main.c      ****             int2string(fraction, &str[i+1]);
 731              		.loc 1 228 0
 732 0048 2E23     		mov	r3, #46
 733 004a 1370     		strb	r3, [r2]
 229:.\main.c      ****             break;
 734              		.loc 1 229 0
 735 004c 0131     		add	r1, r1, #1
 736              	.LVL124:
 737 004e A8B2     		uxth	r0, r5
 738 0050 7118     		add	r1, r6, r1
 739              	.LVL125:
 740 0052 FFF7FEFF 		bl	int2string
 741              	.LVL126:
 230:.\main.c      ****         }
ARM GAS  C:\Users\mlgjmoor\AppData\Local\Temp\ccwL0k1p.s 			page 26


 742              		.loc 1 230 0
 743 0056 02E0     		b	.L33
 744              	.LVL127:
 745              	.L35:
 223:.\main.c      ****     {
 746              		.loc 1 223 0 discriminator 2
 747 0058 0133     		add	r3, r3, #1
 748              	.LVL128:
 749              	.L34:
 223:.\main.c      ****     {
 750              		.loc 1 223 0 is_stmt 0 discriminator 1
 751 005a 3F2B     		cmp	r3, #63
 752 005c EFDD     		ble	.L37
 753              	.LVL129:
 754              	.L33:
 233:.\main.c      **** 
 755              		.loc 1 233 0 is_stmt 1
 756              		@ sp needed
 757              	.LVL130:
 758              	.LVL131:
 759 005e 70BD     		pop	{r4, r5, r6, pc}
 760              		.cfi_endproc
 761              	.LFE40:
 762              		.size	float2str, .-float2str
 763              		.section	.text.linterp,"ax",%progbits
 764              		.align	2
 765              		.global	linterp
 766              		.code	16
 767              		.thumb_func
 768              		.type	linterp, %function
 769              	linterp:
 770              	.LFB41:
 237:.\main.c      ****     // The whole configuration creates a strictly decreasing function of resistance / force
 771              		.loc 1 237 0
 772              		.cfi_startproc
 773              	.LVL132:
 774 0000 F0B5     		push	{r4, r5, r6, r7, lr}
 775              		.cfi_def_cfa_offset 20
 776              		.cfi_offset 4, -20
 777              		.cfi_offset 5, -16
 778              		.cfi_offset 6, -12
 779              		.cfi_offset 7, -8
 780              		.cfi_offset 14, -4
 781 0002 4746     		mov	r7, r8
 782 0004 80B4     		push	{r7}
 783              		.cfi_def_cfa_offset 24
 784              		.cfi_offset 8, -24
 785              	.LVL133:
 254:.\main.c      ****     {
 786              		.loc 1 254 0
 787 0006 3C4B     		ldr	r3, .L51
 788 0008 1B8B     		ldrh	r3, [r3, #24]
 789 000a 8342     		cmp	r3, r0
 790 000c 18D9     		bls	.L46
 791 000e 0123     		mov	r3, #1
 792 0010 08E0     		b	.L40
 793              	.LVL134:
ARM GAS  C:\Users\mlgjmoor\AppData\Local\Temp\ccwL0k1p.s 			page 27


 794              	.L42:
 262:.\main.c      ****             else if (adc_reading == cal_table[i].adc_val)
 795              		.loc 1 262 0
 796 0012 DA00     		lsl	r2, r3, #3
 797 0014 3849     		ldr	r1, .L51
 798 0016 8A18     		add	r2, r1, r2
 799 0018 128B     		ldrh	r2, [r2, #24]
 800 001a 8242     		cmp	r2, r0
 801 001c 06D3     		bcc	.L47
 263:.\main.c      ****             {
 802              		.loc 1 263 0
 803 001e 9042     		cmp	r0, r2
 804 0020 06D0     		beq	.L48
 260:.\main.c      ****         {
 805              		.loc 1 260 0 discriminator 2
 806 0022 0133     		add	r3, r3, #1
 807              	.LVL135:
 808              	.L40:
 260:.\main.c      ****         {
 809              		.loc 1 260 0 is_stmt 0 discriminator 1
 810 0024 042B     		cmp	r3, #4
 811 0026 F4DD     		ble	.L42
 243:.\main.c      ****     
 812              		.loc 1 243 0 is_stmt 1
 813 0028 0025     		mov	r5, #0
 814 002a 02E0     		b	.L41
 815              	.L47:
 816 002c 0025     		mov	r5, #0
 817 002e 00E0     		b	.L41
 818              	.L48:
 265:.\main.c      ****                 break;
 819              		.loc 1 265 0
 820 0030 0125     		mov	r5, #1
 821              	.L41:
 822              	.LVL136:
 270:.\main.c      ****     }
 823              		.loc 1 270 0
 824 0032 314A     		ldr	r2, .L51
 825 0034 128F     		ldrh	r2, [r2, #56]
 826 0036 8242     		cmp	r2, r0
 827 0038 07D8     		bhi	.L49
 242:.\main.c      ****     bool exact = false;
 828              		.loc 1 242 0
 829 003a 0021     		mov	r1, #0
 241:.\main.c      ****     bool upper = false;
 830              		.loc 1 241 0
 831 003c 0022     		mov	r2, #0
 832 003e 06E0     		b	.L39
 833              	.LVL137:
 834              	.L46:
 252:.\main.c      ****     
 835              		.loc 1 252 0
 836 0040 0023     		mov	r3, #0
 243:.\main.c      ****     
 837              		.loc 1 243 0
 838 0042 0025     		mov	r5, #0
 242:.\main.c      ****     bool exact = false;
ARM GAS  C:\Users\mlgjmoor\AppData\Local\Temp\ccwL0k1p.s 			page 28


 839              		.loc 1 242 0
 840 0044 0021     		mov	r1, #0
 256:.\main.c      ****     }
 841              		.loc 1 256 0
 842 0046 0122     		mov	r2, #1
 843 0048 01E0     		b	.L39
 844              	.LVL138:
 845              	.L49:
 270:.\main.c      ****     }
 846              		.loc 1 270 0
 847 004a 0121     		mov	r1, #1
 241:.\main.c      ****     bool upper = false;
 848              		.loc 1 241 0
 849 004c 0022     		mov	r2, #0
 850              	.LVL139:
 851              	.L39:
 273:.\main.c      ****     {
 852              		.loc 1 273 0
 853 004e 002A     		cmp	r2, #0
 854 0050 4ED1     		bne	.L50
 855 0052 041C     		mov	r4, r0
 277:.\main.c      ****     {
 856              		.loc 1 277 0
 857 0054 0029     		cmp	r1, #0
 858 0056 1FD0     		beq	.L44
 859              	.LBB3:
 283:.\main.c      ****         fx1 = cal_table[CAL_TABLE_NUM_OF_POINTS-2].force;
 860              		.loc 1 283 0
 861 0058 274B     		ldr	r3, .L51
 862              	.LVL140:
 863 005a 1E8E     		ldrh	r6, [r3, #48]
 864              	.LVL141:
 284:.\main.c      ****         
 865              		.loc 1 284 0
 866 005c DF6A     		ldr	r7, [r3, #44]
 867              	.LVL142:
 286:.\main.c      ****         fx2 = cal_table[CAL_TABLE_NUM_OF_POINTS-1].force;
 868              		.loc 1 286 0
 869 005e 1D8F     		ldrh	r5, [r3, #56]
 870              	.LVL143:
 287:.\main.c      ****         
 871              		.loc 1 287 0
 872 0060 5B6B     		ldr	r3, [r3, #52]
 873 0062 9846     		mov	r8, r3
 874              	.LVL144:
 290:.\main.c      ****     }
 875              		.loc 1 290 0
 876 0064 281A     		sub	r0, r5, r0
 877              	.LVL145:
 878 0066 FFF7FEFF 		bl	__aeabi_i2f
 879              	.LVL146:
 880 006a 391C     		add	r1, r7, #0
 881 006c FFF7FEFF 		bl	__aeabi_fmul
 882              	.LVL147:
 883 0070 071C     		add	r7, r0, #0
 884              	.LVL148:
 885 0072 A01B     		sub	r0, r4, r6
ARM GAS  C:\Users\mlgjmoor\AppData\Local\Temp\ccwL0k1p.s 			page 29


 886 0074 FFF7FEFF 		bl	__aeabi_i2f
 887              	.LVL149:
 888 0078 4146     		mov	r1, r8
 889 007a FFF7FEFF 		bl	__aeabi_fmul
 890              	.LVL150:
 891 007e 011C     		add	r1, r0, #0
 892 0080 381C     		add	r0, r7, #0
 893 0082 FFF7FEFF 		bl	__aeabi_fadd
 894              	.LVL151:
 895 0086 041C     		add	r4, r0, #0
 896 0088 A81B     		sub	r0, r5, r6
 897 008a FFF7FEFF 		bl	__aeabi_i2f
 898              	.LVL152:
 899 008e 011C     		add	r1, r0, #0
 900 0090 201C     		add	r0, r4, #0
 901 0092 FFF7FEFF 		bl	__aeabi_fdiv
 902              	.LVL153:
 903              	.LBE3:
 904 0096 2CE0     		b	.L43
 905              	.LVL154:
 906              	.L44:
 292:.\main.c      ****     {
 907              		.loc 1 292 0
 908 0098 002D     		cmp	r5, #0
 909 009a 04D0     		beq	.L45
 294:.\main.c      ****     }
 910              		.loc 1 294 0
 911 009c DB00     		lsl	r3, r3, #3
 912              	.LVL155:
 913 009e 164A     		ldr	r2, .L51
 914              	.LVL156:
 915 00a0 D318     		add	r3, r2, r3
 916 00a2 5869     		ldr	r0, [r3, #20]
 917              	.LVL157:
 918 00a4 25E0     		b	.L43
 919              	.LVL158:
 920              	.L45:
 921              	.LBB4:
 302:.\main.c      ****         fx1 = cal_table[i - 1].force;
 922              		.loc 1 302 0
 923 00a6 5A1E     		sub	r2, r3, #1
 924              	.LVL159:
 925 00a8 1349     		ldr	r1, .L51
 926              	.LVL160:
 927 00aa D200     		lsl	r2, r2, #3
 928 00ac 8A18     		add	r2, r1, r2
 929 00ae 158B     		ldrh	r5, [r2, #24]
 930              	.LVL161:
 303:.\main.c      ****         
 931              		.loc 1 303 0
 932 00b0 5669     		ldr	r6, [r2, #20]
 933              	.LVL162:
 305:.\main.c      ****         fx2 = cal_table[i].force;
 934              		.loc 1 305 0
 935 00b2 DB00     		lsl	r3, r3, #3
 936              	.LVL163:
 937 00b4 CB18     		add	r3, r1, r3
ARM GAS  C:\Users\mlgjmoor\AppData\Local\Temp\ccwL0k1p.s 			page 30


 938 00b6 1F8B     		ldrh	r7, [r3, #24]
 939              	.LVL164:
 306:.\main.c      ****         
 940              		.loc 1 306 0
 941 00b8 5B69     		ldr	r3, [r3, #20]
 942 00ba 9846     		mov	r8, r3
 943              	.LVL165:
 308:.\main.c      ****     }
 944              		.loc 1 308 0
 945 00bc 381A     		sub	r0, r7, r0
 946              	.LVL166:
 947 00be FFF7FEFF 		bl	__aeabi_i2f
 948              	.LVL167:
 949 00c2 311C     		add	r1, r6, #0
 950 00c4 FFF7FEFF 		bl	__aeabi_fmul
 951              	.LVL168:
 952 00c8 061C     		add	r6, r0, #0
 953              	.LVL169:
 954 00ca 601B     		sub	r0, r4, r5
 955 00cc FFF7FEFF 		bl	__aeabi_i2f
 956              	.LVL170:
 957 00d0 4146     		mov	r1, r8
 958 00d2 FFF7FEFF 		bl	__aeabi_fmul
 959              	.LVL171:
 960 00d6 011C     		add	r1, r0, #0
 961 00d8 301C     		add	r0, r6, #0
 962 00da FFF7FEFF 		bl	__aeabi_fadd
 963              	.LVL172:
 964 00de 041C     		add	r4, r0, #0
 965 00e0 781B     		sub	r0, r7, r5
 966 00e2 FFF7FEFF 		bl	__aeabi_i2f
 967              	.LVL173:
 968 00e6 011C     		add	r1, r0, #0
 969 00e8 201C     		add	r0, r4, #0
 970 00ea FFF7FEFF 		bl	__aeabi_fdiv
 971              	.LVL174:
 972 00ee 00E0     		b	.L43
 973              	.LVL175:
 974              	.L50:
 975              	.LBE4:
 275:.\main.c      ****     }
 976              		.loc 1 275 0
 977 00f0 0020     		mov	r0, #0
 978              	.LVL176:
 979              	.L43:
 312:.\main.c      **** 
 980              		.loc 1 312 0
 981              		@ sp needed
 982 00f2 04BC     		pop	{r2}
 983 00f4 9046     		mov	r8, r2
 984 00f6 F0BD     		pop	{r4, r5, r6, r7, pc}
 985              	.L52:
 986              		.align	2
 987              	.L51:
 988 00f8 00000000 		.word	.LANCHOR0
 989              		.cfi_endproc
 990              	.LFE41:
ARM GAS  C:\Users\mlgjmoor\AppData\Local\Temp\ccwL0k1p.s 			page 31


 991              		.size	linterp, .-linterp
 992              		.section	.text.writeUART_routine,"ax",%progbits
 993              		.align	2
 994              		.global	writeUART_routine
 995              		.code	16
 996              		.thumb_func
 997              		.type	writeUART_routine, %function
 998              	writeUART_routine:
 999              	.LFB45:
 365:.\main.c      ****     char numAsStr[6];
 1000              		.loc 1 365 0
 1001              		.cfi_startproc
 1002              	.LVL177:
 1003 0000 30B5     		push	{r4, r5, lr}
 1004              		.cfi_def_cfa_offset 12
 1005              		.cfi_offset 4, -12
 1006              		.cfi_offset 5, -8
 1007              		.cfi_offset 14, -4
 1008 0002 95B0     		sub	sp, sp, #84
 1009              		.cfi_def_cfa_offset 96
 371:.\main.c      ****     
 1010              		.loc 1 371 0
 1011 0004 2A4B     		ldr	r3, .L59
 1012 0006 1C89     		ldrh	r4, [r3, #8]
 1013              	.LVL178:
 374:.\main.c      ****     {
 1014              		.loc 1 374 0
 1015 0008 1B79     		ldrb	r3, [r3, #4]
 1016 000a 002B     		cmp	r3, #0
 1017 000c 4DD0     		beq	.L53
 376:.\main.c      ****         {
 1018              		.loc 1 376 0
 1019 000e 3C23     		mov	r3, #60
 1020 0010 274A     		ldr	r2, .L59
 1021 0012 D35C     		ldrb	r3, [r2, r3]
 1022 0014 002B     		cmp	r3, #0
 1023 0016 1BD0     		beq	.L55
 1024              	.LVL179:
 1025              	.LBB5:
 380:.\main.c      ****             
 1026              		.loc 1 380 0
 1027 0018 201C     		mov	r0, r4
 1028              	.LVL180:
 1029 001a FFF7FEFF 		bl	linterp
 1030              	.LVL181:
 1031 001e 051C     		add	r5, r0, #0
 1032              	.LVL182:
 382:.\main.c      ****             UART_UartPutString("ADC Value: ");
 1033              		.loc 1 382 0
 1034 0020 201C     		mov	r0, r4
 1035              	.LVL183:
 1036 0022 12A9     		add	r1, sp, #72
 1037 0024 FFF7FEFF 		bl	int2string
 1038              	.LVL184:
 383:.\main.c      ****             UART_UartPutString(numAsStr);
 1039              		.loc 1 383 0
 1040 0028 2248     		ldr	r0, .L59+4
ARM GAS  C:\Users\mlgjmoor\AppData\Local\Temp\ccwL0k1p.s 			page 32


 1041 002a FFF7FEFF 		bl	UART_UartPutString
 1042              	.LVL185:
 384:.\main.c      ****             UART_UartPutString("\tCalculated Force: ");
 1043              		.loc 1 384 0
 1044 002e 12A8     		add	r0, sp, #72
 1045 0030 FFF7FEFF 		bl	UART_UartPutString
 1046              	.LVL186:
 385:.\main.c      ****             
 1047              		.loc 1 385 0
 1048 0034 2048     		ldr	r0, .L59+8
 1049 0036 FFF7FEFF 		bl	UART_UartPutString
 1050              	.LVL187:
 387:.\main.c      ****             
 1051              		.loc 1 387 0
 1052 003a 281C     		add	r0, r5, #0
 1053 003c 6946     		mov	r1, sp
 1054 003e FFF7FEFF 		bl	float2str
 1055              	.LVL188:
 389:.\main.c      ****             UART_UartPutString("\r\n");
 1056              		.loc 1 389 0
 1057 0042 6846     		mov	r0, sp
 1058 0044 FFF7FEFF 		bl	UART_UartPutString
 1059              	.LVL189:
 390:.\main.c      ****         }
 1060              		.loc 1 390 0
 1061 0048 1C48     		ldr	r0, .L59+12
 1062 004a FFF7FEFF 		bl	UART_UartPutString
 1063              	.LVL190:
 1064              	.LBE5:
 1065 004e 29E0     		b	.L56
 1066              	.LVL191:
 1067              	.L55:
 1068              	.LBB6:
 396:.\main.c      ****             int2string((uint16)cels, tempAsStr);
 1069              		.loc 1 396 0
 1070 0050 174B     		ldr	r3, .L59
 1071 0052 186C     		ldr	r0, [r3, #64]
 1072              	.LVL192:
 1073 0054 FFF7FEFF 		bl	DieTemp_CountsTo_Celsius
 1074              	.LVL193:
 397:.\main.c      ****             int2string((uint16)adc_accumulator, numAsStr);
 1075              		.loc 1 397 0
 1076 0058 80B2     		uxth	r0, r0
 1077              	.LVL194:
 1078 005a 10A9     		add	r1, sp, #64
 1079 005c FFF7FEFF 		bl	int2string
 1080              	.LVL195:
 398:.\main.c      ****             UART_UartPutString("ADC Value: ");
 1081              		.loc 1 398 0
 1082 0060 201C     		mov	r0, r4
 1083 0062 12A9     		add	r1, sp, #72
 1084 0064 FFF7FEFF 		bl	int2string
 1085              	.LVL196:
 399:.\main.c      ****             int i;
 1086              		.loc 1 399 0
 1087 0068 1248     		ldr	r0, .L59+4
 1088 006a FFF7FEFF 		bl	UART_UartPutString
ARM GAS  C:\Users\mlgjmoor\AppData\Local\Temp\ccwL0k1p.s 			page 33


 1089              	.LVL197:
 401:.\main.c      ****             {
 1090              		.loc 1 401 0
 1091 006e 0024     		mov	r4, #0
 1092              	.LVL198:
 1093 0070 0DE0     		b	.L57
 1094              	.LVL199:
 1095              	.L58:
 403:.\main.c      ****                 adc_accumulator = filtered_adc[i];
 1096              		.loc 1 403 0 discriminator 3
 1097 0072 1348     		ldr	r0, .L59+16
 1098 0074 FFF7FEFF 		bl	UART_UartPutString
 1099              	.LVL200:
 404:.\main.c      ****                 int2string((uint16)adc_accumulator, numAsStr);
 1100              		.loc 1 404 0 discriminator 3
 1101 0078 6300     		lsl	r3, r4, #1
 1102 007a 0D4A     		ldr	r2, .L59
 1103 007c D318     		add	r3, r2, r3
 1104 007e 1889     		ldrh	r0, [r3, #8]
 1105              	.LVL201:
 405:.\main.c      ****                 UART_UartPutString(numAsStr);
 1106              		.loc 1 405 0 discriminator 3
 1107 0080 12A9     		add	r1, sp, #72
 1108 0082 FFF7FEFF 		bl	int2string
 1109              	.LVL202:
 406:.\main.c      ****             }
 1110              		.loc 1 406 0 discriminator 3
 1111 0086 12A8     		add	r0, sp, #72
 1112 0088 FFF7FEFF 		bl	UART_UartPutString
 1113              	.LVL203:
 401:.\main.c      ****             {
 1114              		.loc 1 401 0 discriminator 3
 1115 008c 0134     		add	r4, r4, #1
 1116              	.LVL204:
 1117              	.L57:
 401:.\main.c      ****             {
 1118              		.loc 1 401 0 is_stmt 0 discriminator 1
 1119 008e 032C     		cmp	r4, #3
 1120 0090 EFDD     		ble	.L58
 408:.\main.c      ****             UART_UartPutString(tempAsStr);
 1121              		.loc 1 408 0 is_stmt 1
 1122 0092 0C48     		ldr	r0, .L59+20
 1123 0094 FFF7FEFF 		bl	UART_UartPutString
 1124              	.LVL205:
 409:.\main.c      ****             UART_UartPutString("\r\n");
 1125              		.loc 1 409 0
 1126 0098 10A8     		add	r0, sp, #64
 1127 009a FFF7FEFF 		bl	UART_UartPutString
 1128              	.LVL206:
 410:.\main.c      ****         }
 1129              		.loc 1 410 0
 1130 009e 0748     		ldr	r0, .L59+12
 1131 00a0 FFF7FEFF 		bl	UART_UartPutString
 1132              	.LVL207:
 1133              	.L56:
 1134              	.LBE6:
 413:.\main.c      ****     }
ARM GAS  C:\Users\mlgjmoor\AppData\Local\Temp\ccwL0k1p.s 			page 34


 1135              		.loc 1 413 0
 1136 00a4 0022     		mov	r2, #0
 1137 00a6 024B     		ldr	r3, .L59
 1138 00a8 1A71     		strb	r2, [r3, #4]
 1139              	.L53:
 415:.\main.c      **** 
 1140              		.loc 1 415 0
 1141 00aa 15B0     		add	sp, sp, #84
 1142              		@ sp needed
 1143 00ac 30BD     		pop	{r4, r5, pc}
 1144              	.L60:
 1145 00ae C046     		.align	2
 1146              	.L59:
 1147 00b0 00000000 		.word	.LANCHOR0
 1148 00b4 D4000000 		.word	.LC20
 1149 00b8 E0000000 		.word	.LC22
 1150 00bc 94000000 		.word	.LC12
 1151 00c0 F4000000 		.word	.LC25
 1152 00c4 F8000000 		.word	.LC27
 1153              		.cfi_endproc
 1154              	.LFE45:
 1155              		.size	writeUART_routine, .-writeUART_routine
 1156              		.section	.text.read_adc,"ax",%progbits
 1157              		.align	2
 1158              		.global	read_adc
 1159              		.code	16
 1160              		.thumb_func
 1161              		.type	read_adc, %function
 1162              	read_adc:
 1163              	.LFB42:
 315:.\main.c      ****     uint16 result;
 1164              		.loc 1 315 0
 1165              		.cfi_startproc
 1166              	.LVL208:
 1167 0000 30B5     		push	{r4, r5, lr}
 1168              		.cfi_def_cfa_offset 12
 1169              		.cfi_offset 4, -12
 1170              		.cfi_offset 5, -8
 1171              		.cfi_offset 14, -4
 1172 0002 83B0     		sub	sp, sp, #12
 1173              		.cfi_def_cfa_offset 24
 1174 0004 0190     		str	r0, [sp, #4]
 318:.\main.c      ****     pins[index].pin_write(LOW);
 1175              		.loc 1 318 0
 1176 0006 114C     		ldr	r4, .L62
 1177 0008 0020     		mov	r0, #0
 1178              	.LVL209:
 1179 000a A36C     		ldr	r3, [r4, #72]
 1180 000c 9847     		blx	r3
 1181              	.LVL210:
 319:.\main.c      ****     
 1182              		.loc 1 319 0
 1183 000e 019B     		ldr	r3, [sp, #4]
 1184 0010 DB00     		lsl	r3, r3, #3
 1185 0012 E318     		add	r3, r4, r3
 1186 0014 9B6C     		ldr	r3, [r3, #72]
 1187 0016 0020     		mov	r0, #0
ARM GAS  C:\Users\mlgjmoor\AppData\Local\Temp\ccwL0k1p.s 			page 35


 1188 0018 9847     		blx	r3
 1189              	.LVL211:
 322:.\main.c      ****     
 1190              		.loc 1 322 0
 1191 001a 0520     		mov	r0, #5
 1192 001c FFF7FEFF 		bl	CyDelay
 1193              	.LVL212:
 324:.\main.c      ****     ADC_IsEndConversion(ADC_WAIT_FOR_RESULT);
 1194              		.loc 1 324 0
 1195 0020 FFF7FEFF 		bl	ADC_StartConvert
 1196              	.LVL213:
 325:.\main.c      ****     result = ADC_GetResult16(0);
 1197              		.loc 1 325 0
 1198 0024 0220     		mov	r0, #2
 1199 0026 FFF7FEFF 		bl	ADC_IsEndConversion
 1200              	.LVL214:
 326:.\main.c      ****     
 1201              		.loc 1 326 0
 1202 002a 0020     		mov	r0, #0
 1203 002c FFF7FEFF 		bl	ADC_GetResult16
 1204              	.LVL215:
 1205 0030 85B2     		uxth	r5, r0
 1206              	.LVL216:
 328:.\main.c      ****     pins[index].pin_write(HIGH_Z);
 1207              		.loc 1 328 0
 1208 0032 0120     		mov	r0, #1
 1209 0034 A36C     		ldr	r3, [r4, #72]
 1210 0036 9847     		blx	r3
 1211              	.LVL217:
 329:.\main.c      ****     
 1212              		.loc 1 329 0
 1213 0038 019B     		ldr	r3, [sp, #4]
 1214 003a DB00     		lsl	r3, r3, #3
 1215 003c E318     		add	r3, r4, r3
 1216 003e 9B6C     		ldr	r3, [r3, #72]
 1217 0040 0120     		mov	r0, #1
 1218 0042 9847     		blx	r3
 1219              	.LVL218:
 332:.\main.c      **** 
 1220              		.loc 1 332 0
 1221 0044 281C     		mov	r0, r5
 1222 0046 03B0     		add	sp, sp, #12
 1223              		@ sp needed
 1224              	.LVL219:
 1225 0048 30BD     		pop	{r4, r5, pc}
 1226              	.L63:
 1227 004a C046     		.align	2
 1228              	.L62:
 1229 004c 00000000 		.word	.LANCHOR0
 1230              		.cfi_endproc
 1231              	.LFE42:
 1232              		.size	read_adc, .-read_adc
 1233              		.section	.text.read_fsr,"ax",%progbits
 1234              		.align	2
 1235              		.global	read_fsr
 1236              		.code	16
 1237              		.thumb_func
ARM GAS  C:\Users\mlgjmoor\AppData\Local\Temp\ccwL0k1p.s 			page 36


 1238              		.type	read_fsr, %function
 1239              	read_fsr:
 1240              	.LFB43:
 335:.\main.c      ****     uint32 buf[NUMBER_OF_SENSORS];
 1241              		.loc 1 335 0
 1242              		.cfi_startproc
 1243              	.LVL220:
 1244 0000 F0B5     		push	{r4, r5, r6, r7, lr}
 1245              		.cfi_def_cfa_offset 20
 1246              		.cfi_offset 4, -20
 1247              		.cfi_offset 5, -16
 1248              		.cfi_offset 6, -12
 1249              		.cfi_offset 7, -8
 1250              		.cfi_offset 14, -4
 1251 0002 87B0     		sub	sp, sp, #28
 1252              		.cfi_def_cfa_offset 48
 1253 0004 071C     		mov	r7, r0
 1254              	.LVL221:
 340:.\main.c      ****     {
 1255              		.loc 1 340 0
 1256 0006 0026     		mov	r6, #0
 1257 0008 11E0     		b	.L65
 1258              	.LVL222:
 1259              	.L66:
 344:.\main.c      ****         }
 1260              		.loc 1 344 0 discriminator 3
 1261 000a 651C     		add	r5, r4, #1
 1262 000c 281C     		mov	r0, r5
 1263 000e FFF7FEFF 		bl	read_adc
 1264              	.LVL223:
 1265 0012 A400     		lsl	r4, r4, #2
 1266              	.LVL224:
 1267 0014 02AB     		add	r3, sp, #8
 1268 0016 E358     		ldr	r3, [r4, r3]
 1269 0018 0193     		str	r3, [sp, #4]
 1270 001a 9C46     		mov	ip, r3
 1271 001c 6044     		add	r0, r0, ip
 1272 001e 02AB     		add	r3, sp, #8
 1273 0020 E050     		str	r0, [r4, r3]
 1274              	.LVL225:
 342:.\main.c      ****         {
 1275              		.loc 1 342 0 discriminator 3
 1276 0022 2C1C     		mov	r4, r5
 1277 0024 00E0     		b	.L67
 1278              	.LVL226:
 1279              	.L70:
 1280 0026 0024     		mov	r4, #0
 1281              	.L67:
 1282              	.LVL227:
 342:.\main.c      ****         {
 1283              		.loc 1 342 0 is_stmt 0 discriminator 1
 1284 0028 032C     		cmp	r4, #3
 1285 002a EEDD     		ble	.L66
 340:.\main.c      ****     {
 1286              		.loc 1 340 0 is_stmt 1 discriminator 2
 1287 002c 0136     		add	r6, r6, #1
 1288              	.LVL228:
ARM GAS  C:\Users\mlgjmoor\AppData\Local\Temp\ccwL0k1p.s 			page 37


 1289              	.L65:
 340:.\main.c      ****     {
 1290              		.loc 1 340 0 is_stmt 0 discriminator 1
 1291 002e BE42     		cmp	r6, r7
 1292 0030 F9DB     		blt	.L70
 1293 0032 0024     		mov	r4, #0
 1294 0034 0FE0     		b	.L68
 1295              	.LVL229:
 1296              	.L69:
 351:.\main.c      ****         buf[i] = 0;
 1297              		.loc 1 351 0 is_stmt 1 discriminator 3
 1298 0036 A500     		lsl	r5, r4, #2
 1299 0038 02AB     		add	r3, sp, #8
 1300 003a EB58     		ldr	r3, [r5, r3]
 1301 003c 0193     		str	r3, [sp, #4]
 1302 003e 181C     		mov	r0, r3
 1303 0040 391C     		mov	r1, r7
 1304 0042 FFF7FEFF 		bl	__aeabi_uidiv
 1305              	.LVL230:
 1306 0046 6300     		lsl	r3, r4, #1
 1307 0048 054A     		ldr	r2, .L71
 1308 004a D318     		add	r3, r2, r3
 1309 004c 1881     		strh	r0, [r3, #8]
 352:.\main.c      ****     }
 1310              		.loc 1 352 0 discriminator 3
 1311 004e 0023     		mov	r3, #0
 1312 0050 02AA     		add	r2, sp, #8
 1313 0052 AB50     		str	r3, [r5, r2]
 349:.\main.c      ****     {
 1314              		.loc 1 349 0 discriminator 3
 1315 0054 0134     		add	r4, r4, #1
 1316              	.LVL231:
 1317              	.L68:
 349:.\main.c      ****     {
 1318              		.loc 1 349 0 is_stmt 0 discriminator 1
 1319 0056 032C     		cmp	r4, #3
 1320 0058 EDDD     		ble	.L69
 355:.\main.c      **** 
 1321              		.loc 1 355 0 is_stmt 1
 1322 005a 07B0     		add	sp, sp, #28
 1323              		@ sp needed
 1324              	.LVL232:
 1325              	.LVL233:
 1326              	.LVL234:
 1327 005c F0BD     		pop	{r4, r5, r6, r7, pc}
 1328              	.L72:
 1329 005e C046     		.align	2
 1330              	.L71:
 1331 0060 00000000 		.word	.LANCHOR0
 1332              		.cfi_endproc
 1333              	.LFE43:
 1334              		.size	read_fsr, .-read_fsr
 1335              		.section	.text.readADC_routine,"ax",%progbits
 1336              		.align	2
 1337              		.global	readADC_routine
 1338              		.code	16
 1339              		.thumb_func
ARM GAS  C:\Users\mlgjmoor\AppData\Local\Temp\ccwL0k1p.s 			page 38


 1340              		.type	readADC_routine, %function
 1341              	readADC_routine:
 1342              	.LFB44:
 359:.\main.c      ****     read_fsr(4);
 1343              		.loc 1 359 0
 1344              		.cfi_startproc
 1345              	.LVL235:
 1346 0000 08B5     		push	{r3, lr}
 1347              		.cfi_def_cfa_offset 8
 1348              		.cfi_offset 3, -8
 1349              		.cfi_offset 14, -4
 360:.\main.c      **** }
 1350              		.loc 1 360 0
 1351 0002 0420     		mov	r0, #4
 1352              	.LVL236:
 1353 0004 FFF7FEFF 		bl	read_fsr
 1354              	.LVL237:
 361:.\main.c      **** 
 1355              		.loc 1 361 0
 1356              		@ sp needed
 1357 0008 08BD     		pop	{r3, pc}
 1358              		.cfi_endproc
 1359              	.LFE44:
 1360              		.size	readADC_routine, .-readADC_routine
 1361 000a C046     		.section	.text.print_user_message,"ax",%progbits
 1362              		.align	2
 1363              		.global	print_user_message
 1364              		.code	16
 1365              		.thumb_func
 1366              		.type	print_user_message, %function
 1367              	print_user_message:
 1368              	.LFB46:
 419:.\main.c      ****     UART_UartPutString("\r\n***********************************************************************
 1369              		.loc 1 419 0
 1370              		.cfi_startproc
 1371 0000 10B5     		push	{r4, lr}
 1372              		.cfi_def_cfa_offset 8
 1373              		.cfi_offset 4, -8
 1374              		.cfi_offset 14, -4
 420:.\main.c      ****     UART_UartPutString("---Force Sensor Test---\r\n");
 1375              		.loc 1 420 0
 1376 0002 0A4C     		ldr	r4, .L75
 1377 0004 201C     		mov	r0, r4
 1378 0006 FFF7FEFF 		bl	UART_UartPutString
 1379              	.LVL238:
 421:.\main.c      ****     UART_UartPutString("Press 'c' to calibrate\r\n");
 1380              		.loc 1 421 0
 1381 000a 0948     		ldr	r0, .L75+4
 1382 000c FFF7FEFF 		bl	UART_UartPutString
 1383              	.LVL239:
 422:.\main.c      ****     UART_UartPutString("Press 'r' to toggle continuous read\r\n");
 1384              		.loc 1 422 0
 1385 0010 0848     		ldr	r0, .L75+8
 1386 0012 FFF7FEFF 		bl	UART_UartPutString
 1387              	.LVL240:
 423:.\main.c      ****     UART_UartPutString("\r\n***********************************************************************
 1388              		.loc 1 423 0
ARM GAS  C:\Users\mlgjmoor\AppData\Local\Temp\ccwL0k1p.s 			page 39


 1389 0016 0848     		ldr	r0, .L75+12
 1390 0018 FFF7FEFF 		bl	UART_UartPutString
 1391              	.LVL241:
 424:.\main.c      ****     UART_UartPutString("\r\n");
 1392              		.loc 1 424 0
 1393 001c 201C     		mov	r0, r4
 1394 001e FFF7FEFF 		bl	UART_UartPutString
 1395              	.LVL242:
 425:.\main.c      **** }
 1396              		.loc 1 425 0
 1397 0022 0648     		ldr	r0, .L75+16
 1398 0024 FFF7FEFF 		bl	UART_UartPutString
 1399              	.LVL243:
 426:.\main.c      **** 
 1400              		.loc 1 426 0
 1401              		@ sp needed
 1402 0028 10BD     		pop	{r4, pc}
 1403              	.L76:
 1404 002a C046     		.align	2
 1405              	.L75:
 1406 002c 08010000 		.word	.LC31
 1407 0030 60010000 		.word	.LC33
 1408 0034 7C010000 		.word	.LC35
 1409 0038 98010000 		.word	.LC37
 1410 003c 94000000 		.word	.LC12
 1411              		.cfi_endproc
 1412              	.LFE46:
 1413              		.size	print_user_message, .-print_user_message
 1414              		.section	.text.lower,"ax",%progbits
 1415              		.align	2
 1416              		.global	lower
 1417              		.code	16
 1418              		.thumb_func
 1419              		.type	lower, %function
 1420              	lower:
 1421              	.LFB47:
 431:.\main.c      ****     char* str_cpy = str;
 1422              		.loc 1 431 0
 1423              		.cfi_startproc
 1424              	.LVL244:
 433:.\main.c      ****     {
 1425              		.loc 1 433 0
 1426 0000 021C     		mov	r2, r0
 1427 0002 06E0     		b	.L78
 1428              	.LVL245:
 1429              	.L80:
 435:.\main.c      ****         {
 1430              		.loc 1 435 0
 1431 0004 191C     		mov	r1, r3
 1432 0006 4139     		sub	r1, r1, #65
 1433 0008 1929     		cmp	r1, #25
 1434 000a 01D8     		bhi	.L79
 437:.\main.c      ****         }
 1435              		.loc 1 437 0
 1436 000c 2033     		add	r3, r3, #32
 1437 000e 1370     		strb	r3, [r2]
 1438              	.L79:
ARM GAS  C:\Users\mlgjmoor\AppData\Local\Temp\ccwL0k1p.s 			page 40


 439:.\main.c      ****     }
 1439              		.loc 1 439 0
 1440 0010 0132     		add	r2, r2, #1
 1441              	.LVL246:
 1442              	.L78:
 433:.\main.c      ****     {
 1443              		.loc 1 433 0
 1444 0012 1378     		ldrb	r3, [r2]
 1445 0014 002B     		cmp	r3, #0
 1446 0016 F5D1     		bne	.L80
 442:.\main.c      **** 
 1447              		.loc 1 442 0
 1448              		@ sp needed
 1449 0018 7047     		bx	lr
 1450              		.cfi_endproc
 1451              	.LFE47:
 1452              		.size	lower, .-lower
 1453 001a C046     		.section	.text.str_eq,"ax",%progbits
 1454              		.align	2
 1455              		.global	str_eq
 1456              		.code	16
 1457              		.thumb_func
 1458              		.type	str_eq, %function
 1459              	str_eq:
 1460              	.LFB48:
 446:.\main.c      ****     bool ret = true;
 1461              		.loc 1 446 0
 1462              		.cfi_startproc
 1463              	.LVL247:
 1464 0000 70B5     		push	{r4, r5, r6, lr}
 1465              		.cfi_def_cfa_offset 16
 1466              		.cfi_offset 4, -16
 1467              		.cfi_offset 5, -12
 1468              		.cfi_offset 6, -8
 1469              		.cfi_offset 14, -4
 1470 0002 051C     		mov	r5, r0
 1471              	.LVL248:
 448:.\main.c      ****     while ((s1[i] != '\0' || s2[i] != '\0') && ret == true)
 1472              		.loc 1 448 0
 1473 0004 0023     		mov	r3, #0
 447:.\main.c      ****     int i = 0;
 1474              		.loc 1 447 0
 1475 0006 0120     		mov	r0, #1
 1476              	.LVL249:
 449:.\main.c      ****     {
 1477              		.loc 1 449 0
 1478 0008 04E0     		b	.L82
 1479              	.LVL250:
 1480              	.L86:
 451:.\main.c      ****         {
 1481              		.loc 1 451 0
 1482 000a 0C5D     		ldrb	r4, [r1, r4]
 1483 000c A242     		cmp	r2, r4
 1484 000e 00D0     		beq	.L83
 453:.\main.c      ****         }
 1485              		.loc 1 453 0
 1486 0010 0020     		mov	r0, #0
ARM GAS  C:\Users\mlgjmoor\AppData\Local\Temp\ccwL0k1p.s 			page 41


 1487              	.LVL251:
 1488              	.L83:
 456:.\main.c      ****     }
 1489              		.loc 1 456 0
 1490 0012 0133     		add	r3, r3, #1
 1491              	.LVL252:
 1492              	.L82:
 449:.\main.c      ****     {
 1493              		.loc 1 449 0
 1494 0014 1C1C     		mov	r4, r3
 1495 0016 EA5C     		ldrb	r2, [r5, r3]
 1496 0018 002A     		cmp	r2, #0
 1497 001a 02D1     		bne	.L84
 449:.\main.c      ****     {
 1498              		.loc 1 449 0 is_stmt 0 discriminator 2
 1499 001c CE5C     		ldrb	r6, [r1, r3]
 1500 001e 002E     		cmp	r6, #0
 1501 0020 01D0     		beq	.L85
 1502              	.L84:
 449:.\main.c      ****     {
 1503              		.loc 1 449 0 discriminator 3
 1504 0022 0028     		cmp	r0, #0
 1505 0024 F1D1     		bne	.L86
 1506              	.L85:
 460:.\main.c      **** 
 1507              		.loc 1 460 0 is_stmt 1
 1508              		@ sp needed
 1509              	.LVL253:
 1510 0026 70BD     		pop	{r4, r5, r6, pc}
 1511              		.cfi_endproc
 1512              	.LFE48:
 1513              		.size	str_eq, .-str_eq
 1514              		.section	.text.get_user_input,"ax",%progbits
 1515              		.align	2
 1516              		.global	get_user_input
 1517              		.code	16
 1518              		.thumb_func
 1519              		.type	get_user_input, %function
 1520              	get_user_input:
 1521              	.LFB49:
 467:.\main.c      ****     static int index = 0;
 1522              		.loc 1 467 0
 1523              		.cfi_startproc
 1524              	.LVL254:
 1525 0000 70B5     		push	{r4, r5, r6, lr}
 1526              		.cfi_def_cfa_offset 16
 1527              		.cfi_offset 4, -16
 1528              		.cfi_offset 5, -12
 1529              		.cfi_offset 6, -8
 1530              		.cfi_offset 14, -4
 1531 0002 051C     		mov	r5, r0
 472:.\main.c      ****     
 1532              		.loc 1 472 0
 1533 0004 FFF7FEFF 		bl	UART_UartGetChar
 1534              	.LVL255:
 1535 0008 C4B2     		uxtb	r4, r0
 1536              	.LVL256:
ARM GAS  C:\Users\mlgjmoor\AppData\Local\Temp\ccwL0k1p.s 			page 42


 474:.\main.c      ****     {
 1537              		.loc 1 474 0
 1538 000a 134B     		ldr	r3, .L91
 1539 000c DB6E     		ldr	r3, [r3, #108]
 1540 000e 622B     		cmp	r3, #98
 1541 0010 20DC     		bgt	.L88
 477:.\main.c      ****         {            
 1542              		.loc 1 477 0
 1543 0012 002C     		cmp	r4, #0
 1544 0014 1ED0     		beq	.L88
 479:.\main.c      ****             buffer[index] = in_char;
 1545              		.loc 1 479 0
 1546 0016 FF23     		mov	r3, #255
 1547 0018 1840     		and	r0, r3
 1548 001a FFF7FEFF 		bl	UART_SpiUartWriteTxData
 1549              	.LVL257:
 480:.\main.c      ****             index++;
 1550              		.loc 1 480 0
 1551 001e 0E4A     		ldr	r2, .L91
 1552 0020 D36E     		ldr	r3, [r2, #108]
 1553 0022 EC54     		strb	r4, [r5, r3]
 481:.\main.c      ****             
 1554              		.loc 1 481 0
 1555 0024 0133     		add	r3, r3, #1
 1556 0026 D366     		str	r3, [r2, #108]
 484:.\main.c      ****             {
 1557              		.loc 1 484 0
 1558 0028 0A2C     		cmp	r4, #10
 1559 002a 01D0     		beq	.L90
 484:.\main.c      ****             {
 1560              		.loc 1 484 0 is_stmt 0 discriminator 1
 1561 002c 0D2C     		cmp	r4, #13
 1562 002e 11D1     		bne	.L88
 1563              	.L90:
 486:.\main.c      ****                 // index was already incremented, so this terminates the string
 1564              		.loc 1 486 0 is_stmt 1
 1565 0030 0A48     		ldr	r0, .L91+4
 1566 0032 FFF7FEFF 		bl	UART_UartPutString
 1567              	.LVL258:
 488:.\main.c      ****                 UART_UartPutString(buffer);
 1568              		.loc 1 488 0
 1569 0036 084C     		ldr	r4, .L91
 1570              	.LVL259:
 1571 0038 E36E     		ldr	r3, [r4, #108]
 1572 003a EB18     		add	r3, r5, r3
 1573 003c 0026     		mov	r6, #0
 1574 003e 1E70     		strb	r6, [r3]
 489:.\main.c      ****                 UART_UartPutString("\r\n");
 1575              		.loc 1 489 0
 1576 0040 281C     		mov	r0, r5
 1577 0042 FFF7FEFF 		bl	UART_UartPutString
 1578              	.LVL260:
 490:.\main.c      ****                 input_ready = true;
 1579              		.loc 1 490 0
 1580 0046 0648     		ldr	r0, .L91+8
 1581 0048 FFF7FEFF 		bl	UART_UartPutString
 1582              	.LVL261:
ARM GAS  C:\Users\mlgjmoor\AppData\Local\Temp\ccwL0k1p.s 			page 43


 491:.\main.c      ****                 index = 0;
 1583              		.loc 1 491 0
 1584 004c 0122     		mov	r2, #1
 1585 004e 7023     		mov	r3, #112
 1586 0050 E254     		strb	r2, [r4, r3]
 492:.\main.c      ****             }
 1587              		.loc 1 492 0
 1588 0052 E666     		str	r6, [r4, #108]
 1589              	.L88:
 496:.\main.c      **** 
 1590              		.loc 1 496 0
 1591              		@ sp needed
 1592              	.LVL262:
 1593 0054 70BD     		pop	{r4, r5, r6, pc}
 1594              	.L92:
 1595 0056 C046     		.align	2
 1596              	.L91:
 1597 0058 00000000 		.word	.LANCHOR0
 1598 005c C0010000 		.word	.LC41
 1599 0060 94000000 		.word	.LC12
 1600              		.cfi_endproc
 1601              	.LFE49:
 1602              		.size	get_user_input, .-get_user_input
 1603              		.section	.text.run_scheduler,"ax",%progbits
 1604              		.align	2
 1605              		.global	run_scheduler
 1606              		.code	16
 1607              		.thumb_func
 1608              		.type	run_scheduler, %function
 1609              	run_scheduler:
 1610              	.LFB50:
 502:.\main.c      ****     int i;
 1611              		.loc 1 502 0
 1612              		.cfi_startproc
 1613              	.LVL263:
 1614 0000 70B5     		push	{r4, r5, r6, lr}
 1615              		.cfi_def_cfa_offset 16
 1616              		.cfi_offset 4, -16
 1617              		.cfi_offset 5, -12
 1618              		.cfi_offset 6, -8
 1619              		.cfi_offset 14, -4
 1620 0002 061C     		mov	r6, r0
 1621 0004 0D1C     		mov	r5, r1
 1622              	.LVL264:
 505:.\main.c      ****     {
 1623              		.loc 1 505 0
 1624 0006 0024     		mov	r4, #0
 1625 0008 09E0     		b	.L94
 1626              	.LVL265:
 1627              	.L96:
 1628              	.LBB7:
 507:.\main.c      ****         
 1629              		.loc 1 507 0
 1630 000a E000     		lsl	r0, r4, #3
 1631 000c 3018     		add	r0, r6, r0
 1632              	.LVL266:
 509:.\main.c      ****         {
ARM GAS  C:\Users\mlgjmoor\AppData\Local\Temp\ccwL0k1p.s 			page 44


 1633              		.loc 1 509 0
 1634 000e 0379     		ldrb	r3, [r0, #4]
 1635 0010 002B     		cmp	r3, #0
 1636 0012 03D0     		beq	.L95
 512:.\main.c      ****         }
 1637              		.loc 1 512 0
 1638 0014 E300     		lsl	r3, r4, #3
 1639 0016 9B59     		ldr	r3, [r3, r6]
 1640 0018 291C     		mov	r1, r5
 1641 001a 9847     		blx	r3
 1642              	.LVL267:
 1643              	.L95:
 1644              	.LBE7:
 505:.\main.c      ****     {
 1645              		.loc 1 505 0 discriminator 2
 1646 001c 0134     		add	r4, r4, #1
 1647              	.LVL268:
 1648              	.L94:
 505:.\main.c      ****     {
 1649              		.loc 1 505 0 is_stmt 0 discriminator 1
 1650 001e 022C     		cmp	r4, #2
 1651 0020 F3DD     		ble	.L96
 516:.\main.c      **** 
 1652              		.loc 1 516 0 is_stmt 1
 1653              		@ sp needed
 1654              	.LVL269:
 1655              	.LVL270:
 1656              	.LVL271:
 1657 0022 70BD     		pop	{r4, r5, r6, pc}
 1658              		.cfi_endproc
 1659              	.LFE50:
 1660              		.size	run_scheduler, .-run_scheduler
 1661              		.section	.text.main,"ax",%progbits
 1662              		.align	2
 1663              		.global	main
 1664              		.code	16
 1665              		.thumb_func
 1666              		.type	main, %function
 1667              	main:
 1668              	.LFB53:
 587:.\main.c      **** 
 588:.\main.c      **** /*
 589:.\main.c      **** // ISR triggered when ADC finished conversion
 590:.\main.c      **** CY_ISR(adc_isr)
 591:.\main.c      **** {
 592:.\main.c      ****     uint16 adc_result;
 593:.\main.c      ****     static uint8 sensor_index = 0;
 594:.\main.c      ****     if (temperature_convert)
 595:.\main.c      ****     {
 596:.\main.c      ****         adc_result = ADC_GetResult16(ADC_TEMPERATURE_CHANNEL);
 597:.\main.c      ****         temperature = ((IIR_WEIGHT - 1) * temperature + adc_result) / IIR_WEIGHT;
 598:.\main.c      ****         temperature_convert = false;
 599:.\main.c      ****     }
 600:.\main.c      ****     else
 601:.\main.c      ****     {
 602:.\main.c      ****         adc_result = ADC_GetResult16(sensor_index);
 603:.\main.c      ****         // Simple IIR Filter with a weighing of .875
ARM GAS  C:\Users\mlgjmoor\AppData\Local\Temp\ccwL0k1p.s 			page 45


 604:.\main.c      ****         adc_fsr_sensors[sensor_index] = ((IIR_WEIGHT - 1) * adc_fsr_sensors[sensor_index] + adc_res
 605:.\main.c      ****     }
 606:.\main.c      **** }
 607:.\main.c      **** */
 608:.\main.c      **** 
 609:.\main.c      **** int main()
 610:.\main.c      **** {
 1669              		.loc 1 610 0
 1670              		.cfi_startproc
 1671 0000 70B5     		push	{r4, r5, r6, lr}
 1672              		.cfi_def_cfa_offset 16
 1673              		.cfi_offset 4, -16
 1674              		.cfi_offset 5, -12
 1675              		.cfi_offset 6, -8
 1676              		.cfi_offset 14, -4
 1677 0002 5A4C     		ldr	r4, .L103
 1678 0004 A544     		add	sp, sp, r4
 1679              		.cfi_def_cfa_offset 2232
 611:.\main.c      ****     /* Enable interrupt component connected to interrupt */
 612:.\main.c      ****     //TC_CC_ISR_StartEx(InterruptHandler);
 613:.\main.c      ****     Timer_Int_StartEx(timer_isr);
 1680              		.loc 1 613 0
 1681 0006 5A48     		ldr	r0, .L103+4
 1682 0008 FFF7FEFF 		bl	Timer_Int_StartEx
 1683              	.LVL272:
 614:.\main.c      **** 
 615:.\main.c      ****     /* Start components */
 616:.\main.c      ****     // Timer
 617:.\main.c      ****     Timer_Start();
 1684              		.loc 1 617 0
 1685 000c FFF7FEFF 		bl	Timer_Start
 1686              	.LVL273:
 618:.\main.c      ****     
 619:.\main.c      ****     /* Start SCB (UART mode) operation */
 620:.\main.c      ****     UART_Start();
 1687              		.loc 1 620 0
 1688 0010 FFF7FEFF 		bl	UART_Start
 1689              	.LVL274:
 621:.\main.c      ****     
 622:.\main.c      ****     // ADC
 623:.\main.c      ****     //ADC_IRQ_StartEx(adc_isr);
 624:.\main.c      ****     
 625:.\main.c      ****     ADC_Start();
 1690              		.loc 1 625 0
 1691 0014 FFF7FEFF 		bl	ADC_Start
 1692              	.LVL275:
 626:.\main.c      ****     
 627:.\main.c      ****     // Delay 25us as per the specification
 628:.\main.c      ****     CyDelay(25u);   
 1693              		.loc 1 628 0
 1694 0018 1920     		mov	r0, #25
 1695 001a FFF7FEFF 		bl	CyDelay
 1696              	.LVL276:
 629:.\main.c      ****     
 630:.\main.c      ****     // Get an initial reading for the temperature
 631:.\main.c      ****     // this may have to move at some point outside init
 632:.\main.c      ****     ADC_EnableInjection();
ARM GAS  C:\Users\mlgjmoor\AppData\Local\Temp\ccwL0k1p.s 			page 46


 1697              		.loc 1 632 0
 1698 001e FFF7FEFF 		bl	ADC_EnableInjection
 1699              	.LVL277:
 633:.\main.c      **** 	ADC_StartConvert();
 1700              		.loc 1 633 0
 1701 0022 FFF7FEFF 		bl	ADC_StartConvert
 1702              	.LVL278:
 634:.\main.c      **** 	ADC_IsEndConversion(ADC_WAIT_FOR_RESULT_INJ);
 1703              		.loc 1 634 0
 1704 0026 0820     		mov	r0, #8
 1705 0028 FFF7FEFF 		bl	ADC_IsEndConversion
 1706              	.LVL279:
 635:.\main.c      ****     temperature = ADC_GetResult16(ADC_TEMPERATURE_CHANNEL);
 1707              		.loc 1 635 0
 1708 002c 0120     		mov	r0, #1
 1709 002e FFF7FEFF 		bl	ADC_GetResult16
 1710              	.LVL280:
 1711 0032 504C     		ldr	r4, .L103+8
 1712 0034 2064     		str	r0, [r4, #64]
 636:.\main.c      ****     //ADC_EnableInjection();
 637:.\main.c      ****     //ADC_StartConvert();
 638:.\main.c      ****     //ADC_EOC_Int_StartEx(adc_isr);
 639:.\main.c      ****         
 640:.\main.c      ****     //ADC_IRQ_Enable();
 641:.\main.c      ****     
 642:.\main.c      ****     
 643:.\main.c      ****     CyGlobalIntEnable;   /* Enable global interrupts */
 1713              		.loc 1 643 0
 1714              	@ 643 ".\main.c" 1
 1715 0036 62B6     		CPSIE   i
 1716              	@ 0 "" 2
 644:.\main.c      ****     
 645:.\main.c      ****     /* Place your initialization/startup code here (e.g. MyInst_Start()) */
 646:.\main.c      **** 
 647:.\main.c      ****     char user_input_buf[INPUT_BUFFER_MAX];
 648:.\main.c      ****     scheduler myScheduler;
 649:.\main.c      ****     
 650:.\main.c      ****     // Initialize ipc fifo
 651:.\main.c      ****     queue ipc_fifo;
 652:.\main.c      ****     init_queue(&ipc_fifo);
 1717              		.loc 1 652 0
 1718              		.code	16
 1719 0038 09A8     		add	r0, sp, #36
 1720 003a FFF7FEFF 		bl	init_queue
 1721              	.LVL281:
 653:.\main.c      ****     
 654:.\main.c      ****     // Initialize 'calibrate'
 655:.\main.c      ****     task calibrate;
 656:.\main.c      ****     calibrate.is_active = false;
 1722              		.loc 1 656 0
 1723 003e 07AB     		add	r3, sp, #28
 1724 0040 0020     		mov	r0, #0
 1725 0042 1871     		strb	r0, [r3, #4]
 657:.\main.c      ****     calibrate.task_cb = calibrate_sensor;
 1726              		.loc 1 657 0
 1727 0044 4C4A     		ldr	r2, .L103+12
 1728 0046 0792     		str	r2, [sp, #28]
ARM GAS  C:\Users\mlgjmoor\AppData\Local\Temp\ccwL0k1p.s 			page 47


 658:.\main.c      ****     // Add Task to Scheduler
 659:.\main.c      ****     myScheduler.tasks[TASK_CALIBRATE] = calibrate;
 1729              		.loc 1 659 0
 1730 0048 4C49     		ldr	r1, .L103+16
 1731 004a 6944     		add	r1, r1, sp
 1732 004c 0A1C     		mov	r2, r1
 1733 004e 22CB     		ldmia	r3!, {r1, r5}
 1734 0050 22C2     		stmia	r2!, {r1, r5}
 660:.\main.c      ****     
 661:.\main.c      ****     task writeUART;
 662:.\main.c      ****     writeUART.is_active = false;
 1735              		.loc 1 662 0
 1736 0052 05AB     		add	r3, sp, #20
 1737 0054 1871     		strb	r0, [r3, #4]
 663:.\main.c      ****     writeUART.task_cb = writeUART_routine;
 1738              		.loc 1 663 0
 1739 0056 4A49     		ldr	r1, .L103+20
 1740 0058 0591     		str	r1, [sp, #20]
 664:.\main.c      ****     // Add Task to Scheduler
 665:.\main.c      ****     myScheduler.tasks[TASK_WRITE_UART] = writeUART;
 1741              		.loc 1 665 0
 1742 005a 22CB     		ldmia	r3!, {r1, r5}
 1743 005c 22C2     		stmia	r2!, {r1, r5}
 666:.\main.c      ****     
 667:.\main.c      ****     task readADC;
 668:.\main.c      ****     readADC.is_active = true;
 1744              		.loc 1 668 0
 1745 005e 03AB     		add	r3, sp, #12
 1746 0060 0121     		mov	r1, #1
 1747 0062 1971     		strb	r1, [r3, #4]
 669:.\main.c      ****     readADC.task_cb = readADC_routine;
 1748              		.loc 1 669 0
 1749 0064 474A     		ldr	r2, .L103+24
 1750 0066 0392     		str	r2, [sp, #12]
 670:.\main.c      ****     // Add Task to Scheduler
 671:.\main.c      ****     myScheduler.tasks[TASK_READ_ADC] = readADC;
 1751              		.loc 1 671 0
 1752 0068 474A     		ldr	r2, .L103+28
 1753 006a 6A44     		add	r2, r2, sp
 1754 006c 60CB     		ldmia	r3!, {r5, r6}
 1755 006e 60C2     		stmia	r2!, {r5, r6}
 672:.\main.c      ****     
 673:.\main.c      ****     
 674:.\main.c      ****     // initialize pins
 675:.\main.c      ****     pins[0].id = 0;
 1756              		.loc 1 675 0
 1757 0070 6064     		str	r0, [r4, #68]
 676:.\main.c      ****     pins[0].pin_write = PIN_RESISTOR_Write;
 1758              		.loc 1 676 0
 1759 0072 464B     		ldr	r3, .L103+32
 1760 0074 A364     		str	r3, [r4, #72]
 677:.\main.c      ****     pins[1].id = 1;
 1761              		.loc 1 677 0
 1762 0076 E164     		str	r1, [r4, #76]
 678:.\main.c      ****     pins[1].pin_write = PIN_SENSOR_1_Write;
 1763              		.loc 1 678 0
 1764 0078 454B     		ldr	r3, .L103+36
ARM GAS  C:\Users\mlgjmoor\AppData\Local\Temp\ccwL0k1p.s 			page 48


 1765 007a 2365     		str	r3, [r4, #80]
 679:.\main.c      ****     pins[2].id = 2;
 1766              		.loc 1 679 0
 1767 007c 0223     		mov	r3, #2
 1768 007e 6365     		str	r3, [r4, #84]
 680:.\main.c      ****     pins[2].pin_write = PIN_SENSOR_2_Write;
 1769              		.loc 1 680 0
 1770 0080 444B     		ldr	r3, .L103+40
 1771 0082 A365     		str	r3, [r4, #88]
 681:.\main.c      ****     pins[3].id = 3;
 1772              		.loc 1 681 0
 1773 0084 0323     		mov	r3, #3
 1774 0086 E365     		str	r3, [r4, #92]
 682:.\main.c      ****     pins[3].pin_write = PIN_SENSOR_3_Write;
 1775              		.loc 1 682 0
 1776 0088 434B     		ldr	r3, .L103+44
 1777 008a 2366     		str	r3, [r4, #96]
 683:.\main.c      ****     pins[4].id = 4;
 1778              		.loc 1 683 0
 1779 008c 0423     		mov	r3, #4
 1780 008e 6366     		str	r3, [r4, #100]
 684:.\main.c      ****     pins[4].pin_write = PIN_SENSOR_4_Write;
 1781              		.loc 1 684 0
 1782 0090 424B     		ldr	r3, .L103+48
 1783 0092 A366     		str	r3, [r4, #104]
 685:.\main.c      ****     
 686:.\main.c      ****     PIN_RESISTOR_Write(HIGH_Z);
 1784              		.loc 1 686 0
 1785 0094 0130     		add	r0, r0, #1
 1786 0096 FFF7FEFF 		bl	PIN_RESISTOR_Write
 1787              	.LVL282:
 687:.\main.c      ****     PIN_SENSOR_1_Write(HIGH_Z);
 1788              		.loc 1 687 0
 1789 009a 0120     		mov	r0, #1
 1790 009c FFF7FEFF 		bl	PIN_SENSOR_1_Write
 1791              	.LVL283:
 688:.\main.c      ****     PIN_SENSOR_2_Write(HIGH_Z);
 1792              		.loc 1 688 0
 1793 00a0 0120     		mov	r0, #1
 1794 00a2 FFF7FEFF 		bl	PIN_SENSOR_2_Write
 1795              	.LVL284:
 689:.\main.c      ****     
 690:.\main.c      ****     print_user_message();
 1796              		.loc 1 690 0
 1797 00a6 FFF7FEFF 		bl	print_user_message
 1798              	.LVL285:
 1799              	.L102:
 691:.\main.c      ****     for(;;)
 692:.\main.c      ****     {
 693:.\main.c      **** 
 694:.\main.c      ****         get_user_input(user_input_buf);
 1800              		.loc 1 694 0
 1801 00aa 3D48     		ldr	r0, .L103+52
 1802 00ac 6844     		add	r0, r0, sp
 1803 00ae FFF7FEFF 		bl	get_user_input
 1804              	.LVL286:
 695:.\main.c      ****         
ARM GAS  C:\Users\mlgjmoor\AppData\Local\Temp\ccwL0k1p.s 			page 49


 696:.\main.c      ****         if (input_ready)
 1805              		.loc 1 696 0
 1806 00b2 7023     		mov	r3, #112
 1807 00b4 2F4A     		ldr	r2, .L103+8
 1808 00b6 D35C     		ldrb	r3, [r2, r3]
 1809 00b8 002B     		cmp	r3, #0
 1810 00ba 4ED0     		beq	.L98
 697:.\main.c      ****         {
 698:.\main.c      ****             UART_UartPutString("Input Ready\r\n");
 1811              		.loc 1 698 0
 1812 00bc 3948     		ldr	r0, .L103+56
 1813 00be FFF7FEFF 		bl	UART_UartPutString
 1814              	.LVL287:
 699:.\main.c      ****             UART_UartPutString("Input is: ");
 1815              		.loc 1 699 0
 1816 00c2 3948     		ldr	r0, .L103+60
 1817 00c4 FFF7FEFF 		bl	UART_UartPutString
 1818              	.LVL288:
 700:.\main.c      ****             UART_UartPutString(user_input_buf);
 1819              		.loc 1 700 0
 1820 00c8 354B     		ldr	r3, .L103+52
 1821 00ca 6B44     		add	r3, r3, sp
 1822 00cc 181C     		mov	r0, r3
 1823 00ce FFF7FEFF 		bl	UART_UartPutString
 1824              	.LVL289:
 701:.\main.c      ****             UART_UartPutString("\r\n");
 1825              		.loc 1 701 0
 1826 00d2 3648     		ldr	r0, .L103+64
 1827 00d4 FFF7FEFF 		bl	UART_UartPutString
 1828              	.LVL290:
 702:.\main.c      ****             
 703:.\main.c      ****             if (str_eq(user_input_buf, "c\r") && !myScheduler.tasks[TASK_CALIBRATE].is_active)
 1829              		.loc 1 703 0
 1830 00d8 314B     		ldr	r3, .L103+52
 1831 00da 6B44     		add	r3, r3, sp
 1832 00dc 181C     		mov	r0, r3
 1833 00de 3449     		ldr	r1, .L103+68
 1834 00e0 FFF7FEFF 		bl	str_eq
 1835              	.LVL291:
 1836 00e4 0028     		cmp	r0, #0
 1837 00e6 10D0     		beq	.L99
 1838              		.loc 1 703 0 is_stmt 0 discriminator 1
 1839 00e8 244B     		ldr	r3, .L103+16
 1840 00ea 6B44     		add	r3, r3, sp
 1841 00ec 1B79     		ldrb	r3, [r3, #4]
 1842 00ee 002B     		cmp	r3, #0
 1843 00f0 0BD1     		bne	.L99
 704:.\main.c      ****             {
 705:.\main.c      ****                 UART_UartPutString("Activating Calibration task\r\n");
 1844              		.loc 1 705 0 is_stmt 1
 1845 00f2 3048     		ldr	r0, .L103+72
 1846 00f4 FFF7FEFF 		bl	UART_UartPutString
 1847              	.LVL292:
 706:.\main.c      ****                 myScheduler.tasks[TASK_CALIBRATE].is_active = true;
 1848              		.loc 1 706 0
 1849 00f8 0122     		mov	r2, #1
 1850 00fa 204B     		ldr	r3, .L103+16
ARM GAS  C:\Users\mlgjmoor\AppData\Local\Temp\ccwL0k1p.s 			page 50


 1851 00fc 6B44     		add	r3, r3, sp
 1852 00fe 1A71     		strb	r2, [r3, #4]
 707:.\main.c      ****                 calibrated = false;
 1853              		.loc 1 707 0
 1854 0100 0021     		mov	r1, #0
 1855 0102 3C23     		mov	r3, #60
 1856 0104 1B4A     		ldr	r2, .L103+8
 1857 0106 D154     		strb	r1, [r2, r3]
 1858 0108 23E0     		b	.L100
 1859              	.L99:
 708:.\main.c      ****             } 
 709:.\main.c      ****             
 710:.\main.c      ****             // toggle read
 711:.\main.c      ****             else if (str_eq(user_input_buf, "r\r"))
 1860              		.loc 1 711 0
 1861 010a 2548     		ldr	r0, .L103+52
 1862 010c 6844     		add	r0, r0, sp
 1863 010e 2A49     		ldr	r1, .L103+76
 1864 0110 FFF7FEFF 		bl	str_eq
 1865              	.LVL293:
 1866 0114 0028     		cmp	r0, #0
 1867 0116 09D0     		beq	.L101
 712:.\main.c      ****             {
 713:.\main.c      ****                 UART_UartPutString("Toggling Read ADC task\r\n");
 1868              		.loc 1 713 0
 1869 0118 2848     		ldr	r0, .L103+80
 1870 011a FFF7FEFF 		bl	UART_UartPutString
 1871              	.LVL294:
 714:.\main.c      ****                 myScheduler.tasks[TASK_WRITE_UART].is_active = !myScheduler.tasks[TASK_WRITE_UART].
 1872              		.loc 1 714 0
 1873 011e 174A     		ldr	r2, .L103+16
 1874 0120 6A44     		add	r2, r2, sp
 1875 0122 117B     		ldrb	r1, [r2, #12]
 1876 0124 0123     		mov	r3, #1
 1877 0126 4B40     		eor	r3, r1
 1878 0128 1373     		strb	r3, [r2, #12]
 1879 012a 12E0     		b	.L100
 1880              	.L101:
 715:.\main.c      ****             }
 716:.\main.c      ****             
 717:.\main.c      ****             else if (myScheduler.tasks[TASK_CALIBRATE].is_active)
 1881              		.loc 1 717 0
 1882 012c 134B     		ldr	r3, .L103+16
 1883 012e 6B44     		add	r3, r3, sp
 1884 0130 1B79     		ldrb	r3, [r3, #4]
 1885 0132 002B     		cmp	r3, #0
 1886 0134 0DD0     		beq	.L100
 1887              	.LBB8:
 718:.\main.c      ****             {
 719:.\main.c      ****                 ipc_message m;
 720:.\main.c      ****                 m.address = TASK_CALIBRATE;
 1888              		.loc 1 720 0
 1889 0136 01AC     		add	r4, sp, #4
 1890 0138 0023     		mov	r3, #0
 1891 013a 2370     		strb	r3, [r4]
 721:.\main.c      ****                 m.data = user_input_buf;
 1892              		.loc 1 721 0
ARM GAS  C:\Users\mlgjmoor\AppData\Local\Temp\ccwL0k1p.s 			page 51


 1893 013c 184B     		ldr	r3, .L103+52
 1894 013e 6B44     		add	r3, r3, sp
 1895 0140 0293     		str	r3, [sp, #8]
 722:.\main.c      ****                 UART_UartPutString("DEBUG: Enqueing message\r\n");
 1896              		.loc 1 722 0
 1897 0142 1F48     		ldr	r0, .L103+84
 1898 0144 FFF7FEFF 		bl	UART_UartPutString
 1899              	.LVL295:
 723:.\main.c      ****                 enqueue(&ipc_fifo, m);
 1900              		.loc 1 723 0
 1901 0148 09A8     		add	r0, sp, #36
 1902 014a 0199     		ldr	r1, [sp, #4]
 1903 014c 6268     		ldr	r2, [r4, #4]
 1904 014e FFF7FEFF 		bl	enqueue
 1905              	.LVL296:
 1906              	.L100:
 1907              	.LBE8:
 724:.\main.c      ****             }
 725:.\main.c      ****             
 726:.\main.c      ****             input_ready = false;
 1908              		.loc 1 726 0
 1909 0152 0021     		mov	r1, #0
 1910 0154 7023     		mov	r3, #112
 1911 0156 074A     		ldr	r2, .L103+8
 1912 0158 D154     		strb	r1, [r2, r3]
 1913              	.L98:
 727:.\main.c      ****         }
 728:.\main.c      ****         
 729:.\main.c      ****         run_scheduler(&myScheduler, &ipc_fifo);
 1914              		.loc 1 729 0
 1915 015a 0848     		ldr	r0, .L103+16
 1916 015c 6844     		add	r0, r0, sp
 1917 015e 09A9     		add	r1, sp, #36
 1918 0160 FFF7FEFF 		bl	run_scheduler
 1919              	.LVL297:
 730:.\main.c      ****         CySysPmSleep();
 1920              		.loc 1 730 0
 1921 0164 FFF7FEFF 		bl	CySysPmSleep
 1922              	.LVL298:
 731:.\main.c      ****     }
 1923              		.loc 1 731 0
 1924 0168 9FE7     		b	.L102
 1925              	.L104:
 1926 016a C046     		.align	2
 1927              	.L103:
 1928 016c 58F7FFFF 		.word	-2216
 1929 0170 00000000 		.word	timer_isr
 1930 0174 00000000 		.word	.LANCHOR0
 1931 0178 00000000 		.word	calibrate_sensor
 1932 017c 2C080000 		.word	2092
 1933 0180 00000000 		.word	writeUART_routine
 1934 0184 00000000 		.word	readADC_routine
 1935 0188 3C080000 		.word	2108
 1936 018c 00000000 		.word	PIN_RESISTOR_Write
 1937 0190 00000000 		.word	PIN_SENSOR_1_Write
 1938 0194 00000000 		.word	PIN_SENSOR_2_Write
 1939 0198 00000000 		.word	PIN_SENSOR_3_Write
ARM GAS  C:\Users\mlgjmoor\AppData\Local\Temp\ccwL0k1p.s 			page 52


 1940 019c 00000000 		.word	PIN_SENSOR_4_Write
 1941 01a0 44080000 		.word	2116
 1942 01a4 D8010000 		.word	.LC54
 1943 01a8 E8010000 		.word	.LC56
 1944 01ac 94000000 		.word	.LC12
 1945 01b0 F4010000 		.word	.LC59
 1946 01b4 F8010000 		.word	.LC61
 1947 01b8 18020000 		.word	.LC63
 1948 01bc 1C020000 		.word	.LC65
 1949 01c0 38020000 		.word	.LC67
 1950              		.cfi_endproc
 1951              	.LFE53:
 1952              		.size	main, .-main
 1953              		.section	.text.StackEventHandler,"ax",%progbits
 1954              		.align	2
 1955              		.global	StackEventHandler
 1956              		.code	16
 1957              		.thumb_func
 1958              		.type	StackEventHandler, %function
 1959              	StackEventHandler:
 1960              	.LFB54:
 732:.\main.c      **** }
 733:.\main.c      **** 
 734:.\main.c      **** void StackEventHandler( uint32 eventCode, void *eventParam )
 735:.\main.c      **** {
 1961              		.loc 1 735 0
 1962              		.cfi_startproc
 1963              	.LVL299:
 736:.\main.c      ****     switch( eventCode )
 737:.\main.c      ****     {
 738:.\main.c      ****         /* Generic events */
 739:.\main.c      **** 
 740:.\main.c      ****         case CYBLE_EVT_HOST_INVALID:
 741:.\main.c      ****         break;
 742:.\main.c      **** 
 743:.\main.c      ****         case CYBLE_EVT_STACK_ON:
 744:.\main.c      ****             /* CyBle_GappStartAdvertisement( CYBLE_ADVERTISING_FAST ); */
 745:.\main.c      ****         break;
 746:.\main.c      **** 
 747:.\main.c      ****         case CYBLE_EVT_TIMEOUT:
 748:.\main.c      ****         break;
 749:.\main.c      **** 
 750:.\main.c      ****         case CYBLE_EVT_HARDWARE_ERROR:
 751:.\main.c      ****         break;
 752:.\main.c      **** 
 753:.\main.c      ****         case CYBLE_EVT_HCI_STATUS:
 754:.\main.c      ****         break;
 755:.\main.c      **** 
 756:.\main.c      ****         case CYBLE_EVT_STACK_BUSY_STATUS:
 757:.\main.c      ****         break;
 758:.\main.c      **** 
 759:.\main.c      ****         case CYBLE_EVT_PENDING_FLASH_WRITE:
 760:.\main.c      ****         break;
 761:.\main.c      **** 
 762:.\main.c      **** 
 763:.\main.c      ****         /* GAP events */
 764:.\main.c      **** 
ARM GAS  C:\Users\mlgjmoor\AppData\Local\Temp\ccwL0k1p.s 			page 53


 765:.\main.c      ****         case CYBLE_EVT_GAP_AUTH_REQ:
 766:.\main.c      ****         break;
 767:.\main.c      **** 
 768:.\main.c      ****         case CYBLE_EVT_GAP_PASSKEY_ENTRY_REQUEST:
 769:.\main.c      ****         break;
 770:.\main.c      **** 
 771:.\main.c      ****         case CYBLE_EVT_GAP_PASSKEY_DISPLAY_REQUEST:
 772:.\main.c      ****         break;
 773:.\main.c      **** 
 774:.\main.c      ****         case CYBLE_EVT_GAP_AUTH_COMPLETE:
 775:.\main.c      ****         break;
 776:.\main.c      **** 
 777:.\main.c      ****         case CYBLE_EVT_GAP_AUTH_FAILED:
 778:.\main.c      ****         break;
 779:.\main.c      **** 
 780:.\main.c      ****         case CYBLE_EVT_GAP_DEVICE_CONNECTED:
 781:.\main.c      ****         break;
 782:.\main.c      **** 
 783:.\main.c      ****         case CYBLE_EVT_GAP_DEVICE_DISCONNECTED:
 784:.\main.c      ****             /* CyBle_GappStartAdvertisement(CYBLE_ADVERTISING_FAST); */
 785:.\main.c      ****         break;
 786:.\main.c      **** 
 787:.\main.c      ****         case CYBLE_EVT_GAP_ENCRYPT_CHANGE:
 788:.\main.c      ****         break;
 789:.\main.c      **** 
 790:.\main.c      ****         case CYBLE_EVT_GAP_CONNECTION_UPDATE_COMPLETE:
 791:.\main.c      ****         break;
 792:.\main.c      **** 
 793:.\main.c      ****         case CYBLE_EVT_GAP_KEYINFO_EXCHNGE_CMPLT:
 794:.\main.c      ****         break;
 795:.\main.c      **** 
 796:.\main.c      **** 
 797:.\main.c      ****         /* GAP Peripheral events */
 798:.\main.c      **** 
 799:.\main.c      ****         case CYBLE_EVT_GAPP_ADVERTISEMENT_START_STOP:
 800:.\main.c      ****         break;
 801:.\main.c      **** 
 802:.\main.c      **** 
 803:.\main.c      ****         /* GAP Central events */
 804:.\main.c      **** 
 805:.\main.c      ****         case CYBLE_EVT_GAPC_SCAN_PROGRESS_RESULT:
 806:.\main.c      ****         break;
 807:.\main.c      **** 
 808:.\main.c      ****         case CYBLE_EVT_GAPC_SCAN_START_STOP:
 809:.\main.c      ****         break;
 810:.\main.c      **** 
 811:.\main.c      **** 
 812:.\main.c      ****         /* GATT events */
 813:.\main.c      **** 
 814:.\main.c      ****         case CYBLE_EVT_GATT_CONNECT_IND:
 815:.\main.c      ****         break;
 816:.\main.c      **** 
 817:.\main.c      ****         case CYBLE_EVT_GATT_DISCONNECT_IND:
 818:.\main.c      ****         break;
 819:.\main.c      **** 
 820:.\main.c      **** 
 821:.\main.c      ****         /* GATT Client events (CYBLE_EVENT_T) */
ARM GAS  C:\Users\mlgjmoor\AppData\Local\Temp\ccwL0k1p.s 			page 54


 822:.\main.c      **** 
 823:.\main.c      ****         case CYBLE_EVT_GATTC_ERROR_RSP:
 824:.\main.c      ****         break;
 825:.\main.c      **** 
 826:.\main.c      ****         case CYBLE_EVT_GATTC_XCHNG_MTU_RSP:
 827:.\main.c      ****         break;
 828:.\main.c      **** 
 829:.\main.c      ****         case CYBLE_EVT_GATTC_READ_BY_GROUP_TYPE_RSP:
 830:.\main.c      ****         break;
 831:.\main.c      **** 
 832:.\main.c      ****         case CYBLE_EVT_GATTC_READ_BY_TYPE_RSP:
 833:.\main.c      ****         break;
 834:.\main.c      **** 
 835:.\main.c      ****         case CYBLE_EVT_GATTC_FIND_INFO_RSP:
 836:.\main.c      ****         break;
 837:.\main.c      **** 
 838:.\main.c      ****         case CYBLE_EVT_GATTC_FIND_BY_TYPE_VALUE_RSP:
 839:.\main.c      ****         break;
 840:.\main.c      **** 
 841:.\main.c      ****         case CYBLE_EVT_GATTC_READ_RSP:
 842:.\main.c      ****         break;
 843:.\main.c      **** 
 844:.\main.c      ****         case CYBLE_EVT_GATTC_READ_BLOB_RSP:
 845:.\main.c      ****         break;
 846:.\main.c      **** 
 847:.\main.c      ****         case CYBLE_EVT_GATTC_READ_MULTI_RSP:
 848:.\main.c      ****         break;
 849:.\main.c      **** 
 850:.\main.c      ****         case CYBLE_EVT_GATTC_WRITE_RSP:
 851:.\main.c      ****         break;
 852:.\main.c      **** 
 853:.\main.c      ****         case CYBLE_EVT_GATTC_EXEC_WRITE_RSP:
 854:.\main.c      ****         break;
 855:.\main.c      **** 
 856:.\main.c      ****         case CYBLE_EVT_GATTC_HANDLE_VALUE_NTF:
 857:.\main.c      ****         break;
 858:.\main.c      **** 
 859:.\main.c      ****         case CYBLE_EVT_GATTC_HANDLE_VALUE_IND:
 860:.\main.c      ****         break;
 861:.\main.c      **** 
 862:.\main.c      **** 
 863:.\main.c      ****         /* GATT Client events (CYBLE_EVT_T) */
 864:.\main.c      **** 
 865:.\main.c      ****         case CYBLE_EVT_GATTC_INDICATION:
 866:.\main.c      ****         break;
 867:.\main.c      **** 
 868:.\main.c      ****         case CYBLE_EVT_GATTC_SRVC_DISCOVERY_FAILED:
 869:.\main.c      ****         break;
 870:.\main.c      **** 
 871:.\main.c      ****         case CYBLE_EVT_GATTC_INCL_DISCOVERY_FAILED:
 872:.\main.c      ****         break;
 873:.\main.c      **** 
 874:.\main.c      ****         case CYBLE_EVT_GATTC_CHAR_DISCOVERY_FAILED:
 875:.\main.c      ****         break;
 876:.\main.c      **** 
 877:.\main.c      ****         case CYBLE_EVT_GATTC_DESCR_DISCOVERY_FAILED:
 878:.\main.c      ****         break;
ARM GAS  C:\Users\mlgjmoor\AppData\Local\Temp\ccwL0k1p.s 			page 55


 879:.\main.c      **** 
 880:.\main.c      ****         case CYBLE_EVT_GATTC_SRVC_DUPLICATION:
 881:.\main.c      ****         break;
 882:.\main.c      **** 
 883:.\main.c      ****         case CYBLE_EVT_GATTC_CHAR_DUPLICATION:
 884:.\main.c      ****         break;
 885:.\main.c      **** 
 886:.\main.c      ****         case CYBLE_EVT_GATTC_DESCR_DUPLICATION:
 887:.\main.c      ****         break;
 888:.\main.c      **** 
 889:.\main.c      ****         case CYBLE_EVT_GATTC_SRVC_DISCOVERY_COMPLETE:
 890:.\main.c      ****         break;
 891:.\main.c      **** 
 892:.\main.c      ****         case CYBLE_EVT_GATTC_INCL_DISCOVERY_COMPLETE:
 893:.\main.c      ****         break;
 894:.\main.c      **** 
 895:.\main.c      ****         case CYBLE_EVT_GATTC_CHAR_DISCOVERY_COMPLETE:
 896:.\main.c      ****         break;
 897:.\main.c      **** 
 898:.\main.c      ****         case CYBLE_EVT_GATTC_DISCOVERY_COMPLETE:
 899:.\main.c      ****         break;
 900:.\main.c      **** 
 901:.\main.c      **** 
 902:.\main.c      ****         /* GATT Server events (CYBLE_EVENT_T) */
 903:.\main.c      **** 
 904:.\main.c      ****         case CYBLE_EVT_GATTS_XCNHG_MTU_REQ:
 905:.\main.c      ****         break;
 906:.\main.c      **** 
 907:.\main.c      ****         case CYBLE_EVT_GATTS_WRITE_REQ:
 908:.\main.c      ****         break;
 909:.\main.c      **** 
 910:.\main.c      ****         case CYBLE_EVT_GATTS_WRITE_CMD_REQ:
 911:.\main.c      ****         break;
 912:.\main.c      **** 
 913:.\main.c      ****         case CYBLE_EVT_GATTS_PREP_WRITE_REQ:
 914:.\main.c      ****         break;
 915:.\main.c      **** 
 916:.\main.c      ****         case CYBLE_EVT_GATTS_EXEC_WRITE_REQ:
 917:.\main.c      ****         break;
 918:.\main.c      **** 
 919:.\main.c      ****         case CYBLE_EVT_GATTS_HANDLE_VALUE_CNF:
 920:.\main.c      ****         break;
 921:.\main.c      **** 
 922:.\main.c      ****         case CYBLE_EVT_GATTS_DATA_SIGNED_CMD_REQ:
 923:.\main.c      ****         break;
 924:.\main.c      **** 
 925:.\main.c      **** 
 926:.\main.c      ****         /* GATT Server events (CYBLE_EVT_T) */
 927:.\main.c      **** 
 928:.\main.c      ****         case CYBLE_EVT_GATTS_INDICATION_ENABLED:
 929:.\main.c      ****         break;
 930:.\main.c      **** 
 931:.\main.c      ****         case CYBLE_EVT_GATTS_INDICATION_DISABLED:
 932:.\main.c      ****         break;
 933:.\main.c      **** 
 934:.\main.c      **** 
 935:.\main.c      ****         /* L2CAP events */
ARM GAS  C:\Users\mlgjmoor\AppData\Local\Temp\ccwL0k1p.s 			page 56


 936:.\main.c      **** 
 937:.\main.c      ****         case CYBLE_EVT_L2CAP_CONN_PARAM_UPDATE_REQ:
 938:.\main.c      ****         break;
 939:.\main.c      **** 
 940:.\main.c      ****         case CYBLE_EVT_L2CAP_CONN_PARAM_UPDATE_RSP:
 941:.\main.c      ****         break;
 942:.\main.c      **** 
 943:.\main.c      ****         case CYBLE_EVT_L2CAP_COMMAND_REJ:
 944:.\main.c      ****         break;
 945:.\main.c      **** 
 946:.\main.c      ****         case CYBLE_EVT_L2CAP_CBFC_CONN_IND:
 947:.\main.c      ****         break;
 948:.\main.c      **** 
 949:.\main.c      ****         case CYBLE_EVT_L2CAP_CBFC_CONN_CNF:
 950:.\main.c      ****         break;
 951:.\main.c      **** 
 952:.\main.c      ****         case CYBLE_EVT_L2CAP_CBFC_DISCONN_IND:
 953:.\main.c      ****         break;
 954:.\main.c      **** 
 955:.\main.c      ****         case CYBLE_EVT_L2CAP_CBFC_DISCONN_CNF:
 956:.\main.c      ****         break;
 957:.\main.c      **** 
 958:.\main.c      ****         case CYBLE_EVT_L2CAP_CBFC_DATA_READ:
 959:.\main.c      ****         break;
 960:.\main.c      **** 
 961:.\main.c      ****         case CYBLE_EVT_L2CAP_CBFC_RX_CREDIT_IND:
 962:.\main.c      ****         break;
 963:.\main.c      **** 
 964:.\main.c      ****         case CYBLE_EVT_L2CAP_CBFC_TX_CREDIT_IND:
 965:.\main.c      ****         break;
 966:.\main.c      **** 
 967:.\main.c      ****         case CYBLE_EVT_L2CAP_CBFC_DATA_WRITE_IND:
 968:.\main.c      ****         break;
 969:.\main.c      **** 
 970:.\main.c      **** 
 971:.\main.c      ****         /* default catch-all case */
 972:.\main.c      **** 
 973:.\main.c      ****         default:
 974:.\main.c      ****         break;
 975:.\main.c      ****     }
 976:.\main.c      **** }...
 1964              		.loc 1 976 0
 1965              		@ sp needed
 1966 0000 7047     		bx	lr
 1967              		.cfi_endproc
 1968              	.LFE54:
 1969              		.size	StackEventHandler, .-StackEventHandler
 1970 0002 C046     		.section	.rodata.str1.4,"aMS",%progbits,1
 1971              		.align	2
 1972              	.LC1:
 1973 0000 5741524E 		.ascii	"WARNING: Unrecognized char\015\012\000"
 1973      494E473A 
 1973      20556E72 
 1973      65636F67 
 1973      6E697A65 
 1974 001d 000000   		.space	3
 1975              	.LC3:
ARM GAS  C:\Users\mlgjmoor\AppData\Local\Temp\ccwL0k1p.s 			page 57


 1976 0020 44454255 		.ascii	"DEBUG: float conversion complete\015\012\000"
 1976      473A2066 
 1976      6C6F6174 
 1976      20636F6E 
 1976      76657273 
 1977 0043 00       		.space	1
 1978              	.LC6:
 1979 0044 44454255 		.ascii	"DEBUG: Message Received\015\012\000"
 1979      473A204D 
 1979      65737361 
 1979      67652052 
 1979      65636569 
 1980 005e 0000     		.space	2
 1981              	.LC8:
 1982 0060 44454255 		.ascii	"DEBUG: Dequeing Message\015\012\000"
 1982      473A2044 
 1982      65717565 
 1982      696E6720 
 1982      4D657373 
 1983 007a 0000     		.space	2
 1984              	.LC10:
 1985 007c 44454255 		.ascii	"DEBUG: Message Reads: \000"
 1985      473A204D 
 1985      65737361 
 1985      67652052 
 1985      65616473 
 1986 0093 00       		.space	1
 1987              	.LC12:
 1988 0094 0D0A00   		.ascii	"\015\012\000"
 1989 0097 00       		.space	1
 1990              	.LC14:
 1991 0098 494E464F 		.ascii	"INFO: Message Reads: \000"
 1991      3A204D65 
 1991      73736167 
 1991      65205265 
 1991      6164733A 
 1992 00ae 0000     		.space	2
 1993              	.LC16:
 1994 00b0 44454255 		.ascii	"DEBUG: Exiting calibration task\015\012\000"
 1994      473A2045 
 1994      78697469 
 1994      6E672063 
 1994      616C6962 
 1995 00d2 0000     		.space	2
 1996              	.LC20:
 1997 00d4 41444320 		.ascii	"ADC Value: \000"
 1997      56616C75 
 1997      653A2000 
 1998              	.LC22:
 1999 00e0 0943616C 		.ascii	"\011Calculated Force: \000"
 1999      63756C61 
 1999      74656420 
 1999      466F7263 
 1999      653A2000 
 2000              	.LC25:
 2001 00f4 0900     		.ascii	"\011\000"
 2002 00f6 0000     		.space	2
ARM GAS  C:\Users\mlgjmoor\AppData\Local\Temp\ccwL0k1p.s 			page 58


 2003              	.LC27:
 2004 00f8 0954656D 		.ascii	"\011Temperature: \000"
 2004      70657261 
 2004      74757265 
 2004      3A2000
 2005 0107 00       		.space	1
 2006              	.LC31:
 2007 0108 0D0A2A2A 		.ascii	"\015\012*******************************************"
 2007      2A2A2A2A 
 2007      2A2A2A2A 
 2007      2A2A2A2A 
 2007      2A2A2A2A 
 2008 0135 2A2A2A2A 		.ascii	"****************************************\015\012\000"
 2008      2A2A2A2A 
 2008      2A2A2A2A 
 2008      2A2A2A2A 
 2008      2A2A2A2A 
 2009              	.LC33:
 2010 0160 2D2D2D46 		.ascii	"---Force Sensor Test---\015\012\000"
 2010      6F726365 
 2010      2053656E 
 2010      736F7220 
 2010      54657374 
 2011 017a 0000     		.space	2
 2012              	.LC35:
 2013 017c 50726573 		.ascii	"Press 'c' to calibrate\015\012\000"
 2013      73202763 
 2013      2720746F 
 2013      2063616C 
 2013      69627261 
 2014 0195 000000   		.space	3
 2015              	.LC37:
 2016 0198 50726573 		.ascii	"Press 'r' to toggle continuous read\015\012\000"
 2016      73202772 
 2016      2720746F 
 2016      20746F67 
 2016      676C6520 
 2017 01be 0000     		.space	2
 2018              	.LC41:
 2019 01c0 44454255 		.ascii	"DEBUG: Input Accepted\015\012\000"
 2019      473A2049 
 2019      6E707574 
 2019      20416363 
 2019      65707465 
 2020              	.LC54:
 2021 01d8 496E7075 		.ascii	"Input Ready\015\012\000"
 2021      74205265 
 2021      6164790D 
 2021      0A00
 2022 01e6 0000     		.space	2
 2023              	.LC56:
 2024 01e8 496E7075 		.ascii	"Input is: \000"
 2024      74206973 
 2024      3A2000
 2025 01f3 00       		.space	1
 2026              	.LC59:
 2027 01f4 630D00   		.ascii	"c\015\000"
ARM GAS  C:\Users\mlgjmoor\AppData\Local\Temp\ccwL0k1p.s 			page 59


 2028 01f7 00       		.space	1
 2029              	.LC61:
 2030 01f8 41637469 		.ascii	"Activating Calibration task\015\012\000"
 2030      76617469 
 2030      6E672043 
 2030      616C6962 
 2030      72617469 
 2031 0216 0000     		.space	2
 2032              	.LC63:
 2033 0218 720D00   		.ascii	"r\015\000"
 2034 021b 00       		.space	1
 2035              	.LC65:
 2036 021c 546F6767 		.ascii	"Toggling Read ADC task\015\012\000"
 2036      6C696E67 
 2036      20526561 
 2036      64204144 
 2036      43207461 
 2037 0235 000000   		.space	3
 2038              	.LC67:
 2039 0238 44454255 		.ascii	"DEBUG: Enqueing message\015\012\000"
 2039      473A2045 
 2039      6E717565 
 2039      696E6720 
 2039      6D657373 
 2040 0252 0000     		.bss
 2041              		.align	2
 2042              		.set	.LANCHOR0,. + 0
 2043              		.type	count64.8582, %object
 2044              		.size	count64.8582, 4
 2045              	count64.8582:
 2046 0000 00000000 		.space	4
 2047              		.type	timer_flag, %object
 2048              		.size	timer_flag, 1
 2049              	timer_flag:
 2050 0004 00       		.space	1
 2051 0005 000000   		.space	3
 2052              		.type	filtered_adc, %object
 2053              		.size	filtered_adc, 8
 2054              	filtered_adc:
 2055 0008 00000000 		.space	8
 2055      00000000 
 2056              		.type	cal_point_ind.8576, %object
 2057              		.size	cal_point_ind.8576, 4
 2058              	cal_point_ind.8576:
 2059 0010 00000000 		.space	4
 2060              		.type	cal_table, %object
 2061              		.size	cal_table, 40
 2062              	cal_table:
 2063 0014 00000000 		.space	40
 2063      00000000 
 2063      00000000 
 2063      00000000 
 2063      00000000 
 2064              		.type	calibrated, %object
 2065              		.size	calibrated, 1
 2066              	calibrated:
 2067 003c 00       		.space	1
ARM GAS  C:\Users\mlgjmoor\AppData\Local\Temp\ccwL0k1p.s 			page 60


 2068 003d 000000   		.space	3
 2069              		.type	temperature, %object
 2070              		.size	temperature, 4
 2071              	temperature:
 2072 0040 00000000 		.space	4
 2073              		.type	pins, %object
 2074              		.size	pins, 40
 2075              	pins:
 2076 0044 00000000 		.space	40
 2076      00000000 
 2076      00000000 
 2076      00000000 
 2076      00000000 
 2077              		.type	index.8560, %object
 2078              		.size	index.8560, 4
 2079              	index.8560:
 2080 006c 00000000 		.space	4
 2081              		.type	input_ready, %object
 2082              		.size	input_ready, 1
 2083              	input_ready:
 2084 0070 00       		.space	1
 2085              		.type	temperature_convert, %object
 2086              		.size	temperature_convert, 1
 2087              	temperature_convert:
 2088 0071 00       		.space	1
 2089 0072 0000     		.text
 2090              	.Letext0:
 2091              		.file 2 "Generated_Source\\PSoC4/cytypes.h"
 2092              		.file 3 "Generated_Source\\PSoC4/BLE_Stack.h"
 2093              		.file 4 "Generated_Source\\PSoC4/BLE_ans.h"
 2094              		.file 5 "Generated_Source\\PSoC4/BLE_eventHandler.h"
 2095              		.file 6 "./queue.h"
 2096              		.file 7 "Generated_Source\\PSoC4/Timer.h"
 2097              		.file 8 "Generated_Source\\PSoC4/UART_SPI_UART.h"
 2098              		.file 9 "Generated_Source\\PSoC4/DieTemp.h"
 2099              		.file 10 "Generated_Source\\PSoC4/CyLib.h"
 2100              		.file 11 "Generated_Source\\PSoC4/ADC.h"
 2101              		.file 12 "Generated_Source\\PSoC4/Timer_Int.h"
 2102              		.file 13 "Generated_Source\\PSoC4/UART.h"
 2103              		.file 14 "Generated_Source\\PSoC4/PIN_RESISTOR.h"
 2104              		.file 15 "Generated_Source\\PSoC4/PIN_SENSOR_1.h"
 2105              		.file 16 "Generated_Source\\PSoC4/PIN_SENSOR_2.h"
 2106              		.file 17 "Generated_Source\\PSoC4/cyPm.h"
 2107              		.section	.debug_info,"",%progbits
 2108              	.Ldebug_info0:
 2109 0000 501C0000 		.4byte	0x1c50
 2110 0004 0400     		.2byte	0x4
 2111 0006 00000000 		.4byte	.Ldebug_abbrev0
 2112 000a 04       		.byte	0x4
 2113 000b 01       		.uleb128 0x1
 2114 000c 1E160000 		.4byte	.LASF473
 2115 0010 01       		.byte	0x1
 2116 0011 F42E0000 		.4byte	.LASF474
 2117 0015 E6000000 		.4byte	.LASF475
 2118 0019 00000000 		.4byte	.Ldebug_ranges0+0
 2119 001d 00000000 		.4byte	0
 2120 0021 00000000 		.4byte	.Ldebug_line0
ARM GAS  C:\Users\mlgjmoor\AppData\Local\Temp\ccwL0k1p.s 			page 61


 2121 0025 02       		.uleb128 0x2
 2122 0026 04       		.byte	0x4
 2123 0027 04       		.byte	0x4
 2124 0028 2B2F0000 		.4byte	.LASF0
 2125 002c 02       		.uleb128 0x2
 2126 002d 01       		.byte	0x1
 2127 002e 06       		.byte	0x6
 2128 002f B70A0000 		.4byte	.LASF1
 2129 0033 02       		.uleb128 0x2
 2130 0034 01       		.byte	0x1
 2131 0035 08       		.byte	0x8
 2132 0036 780B0000 		.4byte	.LASF2
 2133 003a 02       		.uleb128 0x2
 2134 003b 02       		.byte	0x2
 2135 003c 05       		.byte	0x5
 2136 003d 8F290000 		.4byte	.LASF3
 2137 0041 02       		.uleb128 0x2
 2138 0042 02       		.byte	0x2
 2139 0043 07       		.byte	0x7
 2140 0044 A7090000 		.4byte	.LASF4
 2141 0048 02       		.uleb128 0x2
 2142 0049 04       		.byte	0x4
 2143 004a 05       		.byte	0x5
 2144 004b A5080000 		.4byte	.LASF5
 2145 004f 02       		.uleb128 0x2
 2146 0050 04       		.byte	0x4
 2147 0051 07       		.byte	0x7
 2148 0052 12150000 		.4byte	.LASF6
 2149 0056 02       		.uleb128 0x2
 2150 0057 08       		.byte	0x8
 2151 0058 05       		.byte	0x5
 2152 0059 12190000 		.4byte	.LASF7
 2153 005d 02       		.uleb128 0x2
 2154 005e 08       		.byte	0x8
 2155 005f 07       		.byte	0x7
 2156 0060 98230000 		.4byte	.LASF8
 2157 0064 03       		.uleb128 0x3
 2158 0065 04       		.byte	0x4
 2159 0066 05       		.byte	0x5
 2160 0067 696E7400 		.ascii	"int\000"
 2161 006b 02       		.uleb128 0x2
 2162 006c 04       		.byte	0x4
 2163 006d 07       		.byte	0x7
 2164 006e E61C0000 		.4byte	.LASF9
 2165 0072 04       		.uleb128 0x4
 2166 0073 06290000 		.4byte	.LASF10
 2167 0077 02       		.byte	0x2
 2168 0078 9801     		.2byte	0x198
 2169 007a 33000000 		.4byte	0x33
 2170 007e 04       		.uleb128 0x4
 2171 007f BB310000 		.4byte	.LASF11
 2172 0083 02       		.byte	0x2
 2173 0084 9901     		.2byte	0x199
 2174 0086 41000000 		.4byte	0x41
 2175 008a 04       		.uleb128 0x4
 2176 008b C6020000 		.4byte	.LASF12
 2177 008f 02       		.byte	0x2
ARM GAS  C:\Users\mlgjmoor\AppData\Local\Temp\ccwL0k1p.s 			page 62


 2178 0090 9A01     		.2byte	0x19a
 2179 0092 4F000000 		.4byte	0x4f
 2180 0096 04       		.uleb128 0x4
 2181 0097 952C0000 		.4byte	.LASF13
 2182 009b 02       		.byte	0x2
 2183 009c 9C01     		.2byte	0x19c
 2184 009e 3A000000 		.4byte	0x3a
 2185 00a2 04       		.uleb128 0x4
 2186 00a3 6F2F0000 		.4byte	.LASF14
 2187 00a7 02       		.byte	0x2
 2188 00a8 9D01     		.2byte	0x19d
 2189 00aa 48000000 		.4byte	0x48
 2190 00ae 02       		.uleb128 0x2
 2191 00af 08       		.byte	0x8
 2192 00b0 04       		.byte	0x4
 2193 00b1 E5190000 		.4byte	.LASF15
 2194 00b5 04       		.uleb128 0x4
 2195 00b6 EA040000 		.4byte	.LASF16
 2196 00ba 02       		.byte	0x2
 2197 00bb A901     		.2byte	0x1a9
 2198 00bd C1000000 		.4byte	0xc1
 2199 00c1 02       		.uleb128 0x2
 2200 00c2 01       		.byte	0x1
 2201 00c3 08       		.byte	0x8
 2202 00c4 160E0000 		.4byte	.LASF17
 2203 00c8 05       		.uleb128 0x5
 2204 00c9 8A000000 		.4byte	0x8a
 2205 00cd 04       		.uleb128 0x4
 2206 00ce 96220000 		.4byte	.LASF18
 2207 00d2 02       		.byte	0x2
 2208 00d3 5402     		.2byte	0x254
 2209 00d5 D9000000 		.4byte	0xd9
 2210 00d9 06       		.uleb128 0x6
 2211 00da 04       		.byte	0x4
 2212 00db DF000000 		.4byte	0xdf
 2213 00df 07       		.uleb128 0x7
 2214 00e0 02       		.uleb128 0x2
 2215 00e1 04       		.byte	0x4
 2216 00e2 07       		.byte	0x7
 2217 00e3 4D000000 		.4byte	.LASF19
 2218 00e7 08       		.uleb128 0x8
 2219 00e8 04       		.byte	0x4
 2220 00e9 06       		.uleb128 0x6
 2221 00ea 04       		.byte	0x4
 2222 00eb C1000000 		.4byte	0xc1
 2223 00ef 09       		.uleb128 0x9
 2224 00f0 01       		.byte	0x1
 2225 00f1 03       		.byte	0x3
 2226 00f2 4201     		.2byte	0x142
 2227 00f4 AC020000 		.4byte	0x2ac
 2228 00f8 0A       		.uleb128 0xa
 2229 00f9 7A0E0000 		.4byte	.LASF20
 2230 00fd 00       		.sleb128 0
 2231 00fe 0A       		.uleb128 0xa
 2232 00ff 6B090000 		.4byte	.LASF21
 2233 0103 01       		.sleb128 1
 2234 0104 0A       		.uleb128 0xa
ARM GAS  C:\Users\mlgjmoor\AppData\Local\Temp\ccwL0k1p.s 			page 63


 2235 0105 B7230000 		.4byte	.LASF22
 2236 0109 02       		.sleb128 2
 2237 010a 0A       		.uleb128 0xa
 2238 010b 150B0000 		.4byte	.LASF23
 2239 010f 03       		.sleb128 3
 2240 0110 0A       		.uleb128 0xa
 2241 0111 DB2F0000 		.4byte	.LASF24
 2242 0115 04       		.sleb128 4
 2243 0116 0A       		.uleb128 0xa
 2244 0117 FA2D0000 		.4byte	.LASF25
 2245 011b 05       		.sleb128 5
 2246 011c 0A       		.uleb128 0xa
 2247 011d F4200000 		.4byte	.LASF26
 2248 0121 06       		.sleb128 6
 2249 0122 0A       		.uleb128 0xa
 2250 0123 232B0000 		.4byte	.LASF27
 2251 0127 20       		.sleb128 32
 2252 0128 0A       		.uleb128 0xa
 2253 0129 32060000 		.4byte	.LASF28
 2254 012d 21       		.sleb128 33
 2255 012e 0A       		.uleb128 0xa
 2256 012f 28180000 		.4byte	.LASF29
 2257 0133 22       		.sleb128 34
 2258 0134 0A       		.uleb128 0xa
 2259 0135 6C1F0000 		.4byte	.LASF30
 2260 0139 23       		.sleb128 35
 2261 013a 0A       		.uleb128 0xa
 2262 013b DF130000 		.4byte	.LASF31
 2263 013f 24       		.sleb128 36
 2264 0140 0A       		.uleb128 0xa
 2265 0141 42140000 		.4byte	.LASF32
 2266 0145 25       		.sleb128 37
 2267 0146 0A       		.uleb128 0xa
 2268 0147 55280000 		.4byte	.LASF33
 2269 014b 26       		.sleb128 38
 2270 014c 0A       		.uleb128 0xa
 2271 014d 3C020000 		.4byte	.LASF34
 2272 0151 27       		.sleb128 39
 2273 0152 0A       		.uleb128 0xa
 2274 0153 09310000 		.4byte	.LASF35
 2275 0157 28       		.sleb128 40
 2276 0158 0A       		.uleb128 0xa
 2277 0159 9D210000 		.4byte	.LASF36
 2278 015d 29       		.sleb128 41
 2279 015e 0A       		.uleb128 0xa
 2280 015f 40170000 		.4byte	.LASF37
 2281 0163 2A       		.sleb128 42
 2282 0164 0A       		.uleb128 0xa
 2283 0165 A21E0000 		.4byte	.LASF38
 2284 0169 2B       		.sleb128 43
 2285 016a 0A       		.uleb128 0xa
 2286 016b 582E0000 		.4byte	.LASF39
 2287 016f 2C       		.sleb128 44
 2288 0170 0A       		.uleb128 0xa
 2289 0171 45010000 		.4byte	.LASF40
 2290 0175 2D       		.sleb128 45
 2291 0176 0A       		.uleb128 0xa
ARM GAS  C:\Users\mlgjmoor\AppData\Local\Temp\ccwL0k1p.s 			page 64


 2292 0177 34290000 		.4byte	.LASF41
 2293 017b 2E       		.sleb128 46
 2294 017c 0A       		.uleb128 0xa
 2295 017d 0F070000 		.4byte	.LASF42
 2296 0181 2F       		.sleb128 47
 2297 0182 0A       		.uleb128 0xa
 2298 0183 D00D0000 		.4byte	.LASF43
 2299 0187 30       		.sleb128 48
 2300 0188 0A       		.uleb128 0xa
 2301 0189 B81A0000 		.4byte	.LASF44
 2302 018d 31       		.sleb128 49
 2303 018e 0A       		.uleb128 0xa
 2304 018f 910E0000 		.4byte	.LASF45
 2305 0193 32       		.sleb128 50
 2306 0194 0A       		.uleb128 0xa
 2307 0195 640C0000 		.4byte	.LASF46
 2308 0199 33       		.sleb128 51
 2309 019a 0A       		.uleb128 0xa
 2310 019b 2A2A0000 		.4byte	.LASF47
 2311 019f C000     		.sleb128 64
 2312 01a1 0A       		.uleb128 0xa
 2313 01a2 7E020000 		.4byte	.LASF48
 2314 01a6 C100     		.sleb128 65
 2315 01a8 0A       		.uleb128 0xa
 2316 01a9 F02F0000 		.4byte	.LASF49
 2317 01ad C200     		.sleb128 66
 2318 01af 0A       		.uleb128 0xa
 2319 01b0 22220000 		.4byte	.LASF50
 2320 01b4 C300     		.sleb128 67
 2321 01b6 0A       		.uleb128 0xa
 2322 01b7 860B0000 		.4byte	.LASF51
 2323 01bb C400     		.sleb128 68
 2324 01bd 0A       		.uleb128 0xa
 2325 01be 2E0B0000 		.4byte	.LASF52
 2326 01c2 C500     		.sleb128 69
 2327 01c4 0A       		.uleb128 0xa
 2328 01c5 81260000 		.4byte	.LASF53
 2329 01c9 C600     		.sleb128 70
 2330 01cb 0A       		.uleb128 0xa
 2331 01cc 63260000 		.4byte	.LASF54
 2332 01d0 C700     		.sleb128 71
 2333 01d2 0A       		.uleb128 0xa
 2334 01d3 840D0000 		.4byte	.LASF55
 2335 01d7 C800     		.sleb128 72
 2336 01d9 0A       		.uleb128 0xa
 2337 01da B21F0000 		.4byte	.LASF56
 2338 01de C900     		.sleb128 73
 2339 01e0 0A       		.uleb128 0xa
 2340 01e1 D50E0000 		.4byte	.LASF57
 2341 01e5 CA00     		.sleb128 74
 2342 01e7 0A       		.uleb128 0xa
 2343 01e8 4F0E0000 		.4byte	.LASF58
 2344 01ec CB00     		.sleb128 75
 2345 01ee 0A       		.uleb128 0xa
 2346 01ef E51E0000 		.4byte	.LASF59
 2347 01f3 CC00     		.sleb128 76
 2348 01f5 0A       		.uleb128 0xa
ARM GAS  C:\Users\mlgjmoor\AppData\Local\Temp\ccwL0k1p.s 			page 65


 2349 01f6 BA270000 		.4byte	.LASF60
 2350 01fa CD00     		.sleb128 77
 2351 01fc 0A       		.uleb128 0xa
 2352 01fd 53080000 		.4byte	.LASF61
 2353 0201 CE00     		.sleb128 78
 2354 0203 0A       		.uleb128 0xa
 2355 0204 F81C0000 		.4byte	.LASF62
 2356 0208 CF00     		.sleb128 79
 2357 020a 0A       		.uleb128 0xa
 2358 020b 042B0000 		.4byte	.LASF63
 2359 020f D000     		.sleb128 80
 2360 0211 0A       		.uleb128 0xa
 2361 0212 390F0000 		.4byte	.LASF64
 2362 0216 D100     		.sleb128 81
 2363 0218 0A       		.uleb128 0xa
 2364 0219 11060000 		.4byte	.LASF65
 2365 021d D200     		.sleb128 82
 2366 021f 0A       		.uleb128 0xa
 2367 0220 872D0000 		.4byte	.LASF66
 2368 0224 D300     		.sleb128 83
 2369 0226 0A       		.uleb128 0xa
 2370 0227 4B310000 		.4byte	.LASF67
 2371 022b D400     		.sleb128 84
 2372 022d 0A       		.uleb128 0xa
 2373 022e FF1E0000 		.4byte	.LASF68
 2374 0232 D500     		.sleb128 85
 2375 0234 0A       		.uleb128 0xa
 2376 0235 B50F0000 		.4byte	.LASF69
 2377 0239 D600     		.sleb128 86
 2378 023b 0A       		.uleb128 0xa
 2379 023c 2D1C0000 		.4byte	.LASF70
 2380 0240 D700     		.sleb128 87
 2381 0242 0A       		.uleb128 0xa
 2382 0243 C5300000 		.4byte	.LASF71
 2383 0247 D800     		.sleb128 88
 2384 0249 0A       		.uleb128 0xa
 2385 024a A82E0000 		.4byte	.LASF72
 2386 024e F000     		.sleb128 112
 2387 0250 0A       		.uleb128 0xa
 2388 0251 EB120000 		.4byte	.LASF73
 2389 0255 F100     		.sleb128 113
 2390 0257 0A       		.uleb128 0xa
 2391 0258 440A0000 		.4byte	.LASF74
 2392 025c F200     		.sleb128 114
 2393 025e 0A       		.uleb128 0xa
 2394 025f E62A0000 		.4byte	.LASF75
 2395 0263 F300     		.sleb128 115
 2396 0265 0A       		.uleb128 0xa
 2397 0266 0F200000 		.4byte	.LASF76
 2398 026a F400     		.sleb128 116
 2399 026c 0A       		.uleb128 0xa
 2400 026d C3170000 		.4byte	.LASF77
 2401 0271 F500     		.sleb128 117
 2402 0273 0A       		.uleb128 0xa
 2403 0274 630D0000 		.4byte	.LASF78
 2404 0278 F600     		.sleb128 118
 2405 027a 0A       		.uleb128 0xa
ARM GAS  C:\Users\mlgjmoor\AppData\Local\Temp\ccwL0k1p.s 			page 66


 2406 027b F6230000 		.4byte	.LASF79
 2407 027f F700     		.sleb128 119
 2408 0281 0A       		.uleb128 0xa
 2409 0282 F0040000 		.4byte	.LASF80
 2410 0286 F800     		.sleb128 120
 2411 0288 0A       		.uleb128 0xa
 2412 0289 8B0C0000 		.4byte	.LASF81
 2413 028d F900     		.sleb128 121
 2414 028f 0A       		.uleb128 0xa
 2415 0290 34300000 		.4byte	.LASF82
 2416 0294 FA00     		.sleb128 122
 2417 0296 0A       		.uleb128 0xa
 2418 0297 291A0000 		.4byte	.LASF83
 2419 029b FA01     		.sleb128 250
 2420 029d 0A       		.uleb128 0xa
 2421 029e E22C0000 		.4byte	.LASF84
 2422 02a2 FB01     		.sleb128 251
 2423 02a4 0A       		.uleb128 0xa
 2424 02a5 941E0000 		.4byte	.LASF85
 2425 02a9 FF01     		.sleb128 255
 2426 02ab 00       		.byte	0
 2427 02ac 0B       		.uleb128 0xb
 2428 02ad 01       		.byte	0x1
 2429 02ae 04       		.byte	0x4
 2430 02af 23       		.byte	0x23
 2431 02b0 D9020000 		.4byte	0x2d9
 2432 02b4 0A       		.uleb128 0xa
 2433 02b5 C4030000 		.4byte	.LASF86
 2434 02b9 00       		.sleb128 0
 2435 02ba 0A       		.uleb128 0xa
 2436 02bb E71B0000 		.4byte	.LASF87
 2437 02bf 01       		.sleb128 1
 2438 02c0 0A       		.uleb128 0xa
 2439 02c1 47070000 		.4byte	.LASF88
 2440 02c5 02       		.sleb128 2
 2441 02c6 0A       		.uleb128 0xa
 2442 02c7 531E0000 		.4byte	.LASF89
 2443 02cb 03       		.sleb128 3
 2444 02cc 0A       		.uleb128 0xa
 2445 02cd EB240000 		.4byte	.LASF90
 2446 02d1 04       		.sleb128 4
 2447 02d2 0A       		.uleb128 0xa
 2448 02d3 FA250000 		.4byte	.LASF91
 2449 02d7 05       		.sleb128 5
 2450 02d8 00       		.byte	0
 2451 02d9 0B       		.uleb128 0xb
 2452 02da 01       		.byte	0x1
 2453 02db 04       		.byte	0x4
 2454 02dc 2E       		.byte	0x2e
 2455 02dd EE020000 		.4byte	0x2ee
 2456 02e1 0A       		.uleb128 0xa
 2457 02e2 28320000 		.4byte	.LASF92
 2458 02e6 00       		.sleb128 0
 2459 02e7 0A       		.uleb128 0xa
 2460 02e8 921F0000 		.4byte	.LASF93
 2461 02ec 01       		.sleb128 1
 2462 02ed 00       		.byte	0
ARM GAS  C:\Users\mlgjmoor\AppData\Local\Temp\ccwL0k1p.s 			page 67


 2463 02ee 0B       		.uleb128 0xb
 2464 02ef 02       		.byte	0x2
 2465 02f0 05       		.byte	0x5
 2466 02f1 AB       		.byte	0xab
 2467 02f2 610A0000 		.4byte	0xa61
 2468 02f6 0A       		.uleb128 0xa
 2469 02f7 C21D0000 		.4byte	.LASF94
 2470 02fb 8002     		.sleb128 256
 2471 02fd 0A       		.uleb128 0xa
 2472 02fe 58300000 		.4byte	.LASF95
 2473 0302 8102     		.sleb128 257
 2474 0304 0A       		.uleb128 0xa
 2475 0305 49090000 		.4byte	.LASF96
 2476 0309 8202     		.sleb128 258
 2477 030b 0A       		.uleb128 0xa
 2478 030c 0E300000 		.4byte	.LASF97
 2479 0310 8302     		.sleb128 259
 2480 0312 0A       		.uleb128 0xa
 2481 0313 75230000 		.4byte	.LASF98
 2482 0317 8402     		.sleb128 260
 2483 0319 0A       		.uleb128 0xa
 2484 031a B3290000 		.4byte	.LASF99
 2485 031e 8502     		.sleb128 261
 2486 0320 0A       		.uleb128 0xa
 2487 0321 C00C0000 		.4byte	.LASF100
 2488 0325 8602     		.sleb128 262
 2489 0327 0A       		.uleb128 0xa
 2490 0328 790A0000 		.4byte	.LASF101
 2491 032c 8702     		.sleb128 263
 2492 032e 0A       		.uleb128 0xa
 2493 032f 052F0000 		.4byte	.LASF102
 2494 0333 8802     		.sleb128 264
 2495 0335 0A       		.uleb128 0xa
 2496 0336 C4040000 		.4byte	.LASF103
 2497 033a 8902     		.sleb128 265
 2498 033c 0A       		.uleb128 0xa
 2499 033d CD020000 		.4byte	.LASF104
 2500 0341 8A02     		.sleb128 266
 2501 0343 0A       		.uleb128 0xa
 2502 0344 26250000 		.4byte	.LASF105
 2503 0348 8B02     		.sleb128 267
 2504 034a 0A       		.uleb128 0xa
 2505 034b 42190000 		.4byte	.LASF106
 2506 034f 8C02     		.sleb128 268
 2507 0351 0A       		.uleb128 0xa
 2508 0352 DD210000 		.4byte	.LASF107
 2509 0356 8D02     		.sleb128 269
 2510 0358 0A       		.uleb128 0xa
 2511 0359 9C030000 		.4byte	.LASF108
 2512 035d 8E02     		.sleb128 270
 2513 035f 0A       		.uleb128 0xa
 2514 0360 471A0000 		.4byte	.LASF109
 2515 0364 8F02     		.sleb128 271
 2516 0366 0A       		.uleb128 0xa
 2517 0367 51060000 		.4byte	.LASF110
 2518 036b 9002     		.sleb128 272
 2519 036d 0A       		.uleb128 0xa
ARM GAS  C:\Users\mlgjmoor\AppData\Local\Temp\ccwL0k1p.s 			page 68


 2520 036e 252D0000 		.4byte	.LASF111
 2521 0372 9102     		.sleb128 273
 2522 0374 0A       		.uleb128 0xa
 2523 0375 AB0D0000 		.4byte	.LASF112
 2524 0379 9202     		.sleb128 274
 2525 037b 0A       		.uleb128 0xa
 2526 037c 75250000 		.4byte	.LASF113
 2527 0380 9302     		.sleb128 275
 2528 0382 0A       		.uleb128 0xa
 2529 0383 7E2F0000 		.4byte	.LASF114
 2530 0387 9402     		.sleb128 276
 2531 0389 0A       		.uleb128 0xa
 2532 038a C5280000 		.4byte	.LASF115
 2533 038e 9502     		.sleb128 277
 2534 0390 0A       		.uleb128 0xa
 2535 0391 D3080000 		.4byte	.LASF116
 2536 0395 9602     		.sleb128 278
 2537 0397 0A       		.uleb128 0xa
 2538 0398 C2310000 		.4byte	.LASF117
 2539 039c 9702     		.sleb128 279
 2540 039e 0A       		.uleb128 0xa
 2541 039f 561C0000 		.4byte	.LASF118
 2542 03a3 9802     		.sleb128 280
 2543 03a5 0A       		.uleb128 0xa
 2544 03a6 DD100000 		.4byte	.LASF119
 2545 03aa 9902     		.sleb128 281
 2546 03ac 0A       		.uleb128 0xa
 2547 03ad 672A0000 		.4byte	.LASF120
 2548 03b1 9A02     		.sleb128 282
 2549 03b3 0A       		.uleb128 0xa
 2550 03b4 C11E0000 		.4byte	.LASF121
 2551 03b8 9B02     		.sleb128 283
 2552 03ba 0A       		.uleb128 0xa
 2553 03bb 37320000 		.4byte	.LASF122
 2554 03bf 9C02     		.sleb128 284
 2555 03c1 0A       		.uleb128 0xa
 2556 03c2 CC2A0000 		.4byte	.LASF123
 2557 03c6 9D02     		.sleb128 285
 2558 03c8 0A       		.uleb128 0xa
 2559 03c9 ED300000 		.4byte	.LASF124
 2560 03cd 9E02     		.sleb128 286
 2561 03cf 0A       		.uleb128 0xa
 2562 03d0 FC150000 		.4byte	.LASF125
 2563 03d4 9F02     		.sleb128 287
 2564 03d6 0A       		.uleb128 0xa
 2565 03d7 11130000 		.4byte	.LASF126
 2566 03db A002     		.sleb128 288
 2567 03dd 0A       		.uleb128 0xa
 2568 03de 53040000 		.4byte	.LASF127
 2569 03e2 A102     		.sleb128 289
 2570 03e4 0A       		.uleb128 0xa
 2571 03e5 EA220000 		.4byte	.LASF128
 2572 03e9 A202     		.sleb128 290
 2573 03eb 0A       		.uleb128 0xa
 2574 03ec B4160000 		.4byte	.LASF129
 2575 03f0 A302     		.sleb128 291
 2576 03f2 0A       		.uleb128 0xa
ARM GAS  C:\Users\mlgjmoor\AppData\Local\Temp\ccwL0k1p.s 			page 69


 2577 03f3 A5250000 		.4byte	.LASF130
 2578 03f7 A402     		.sleb128 292
 2579 03f9 0A       		.uleb128 0xa
 2580 03fa 7B210000 		.4byte	.LASF131
 2581 03fe A502     		.sleb128 293
 2582 0400 0A       		.uleb128 0xa
 2583 0401 292C0000 		.4byte	.LASF132
 2584 0405 A602     		.sleb128 294
 2585 0407 0A       		.uleb128 0xa
 2586 0408 E70A0000 		.4byte	.LASF133
 2587 040c A702     		.sleb128 295
 2588 040e 0A       		.uleb128 0xa
 2589 040f 862A0000 		.4byte	.LASF134
 2590 0413 A802     		.sleb128 296
 2591 0415 0A       		.uleb128 0xa
 2592 0416 80040000 		.4byte	.LASF135
 2593 041a A902     		.sleb128 297
 2594 041c 0A       		.uleb128 0xa
 2595 041d EA290000 		.4byte	.LASF136
 2596 0421 AA02     		.sleb128 298
 2597 0423 0A       		.uleb128 0xa
 2598 0424 19030000 		.4byte	.LASF137
 2599 0428 AB02     		.sleb128 299
 2600 042a 0A       		.uleb128 0xa
 2601 042b 3D030000 		.4byte	.LASF138
 2602 042f AC02     		.sleb128 300
 2603 0431 0A       		.uleb128 0xa
 2604 0432 56000000 		.4byte	.LASF139
 2605 0436 AD02     		.sleb128 301
 2606 0438 0A       		.uleb128 0xa
 2607 0439 15240000 		.4byte	.LASF140
 2608 043d AE02     		.sleb128 302
 2609 043f 0A       		.uleb128 0xa
 2610 0440 7F300000 		.4byte	.LASF141
 2611 0444 AF02     		.sleb128 303
 2612 0446 0A       		.uleb128 0xa
 2613 0447 A6050000 		.4byte	.LASF142
 2614 044b B002     		.sleb128 304
 2615 044d 0A       		.uleb128 0xa
 2616 044e 521D0000 		.4byte	.LASF143
 2617 0452 B102     		.sleb128 305
 2618 0454 0A       		.uleb128 0xa
 2619 0455 7D280000 		.4byte	.LASF144
 2620 0459 B202     		.sleb128 306
 2621 045b 0A       		.uleb128 0xa
 2622 045c 61100000 		.4byte	.LASF145
 2623 0460 B302     		.sleb128 307
 2624 0462 0A       		.uleb128 0xa
 2625 0463 FA1D0000 		.4byte	.LASF146
 2626 0467 B402     		.sleb128 308
 2627 0469 0A       		.uleb128 0xa
 2628 046a 48120000 		.4byte	.LASF147
 2629 046e B502     		.sleb128 309
 2630 0470 0A       		.uleb128 0xa
 2631 0471 C8050000 		.4byte	.LASF148
 2632 0475 B602     		.sleb128 310
 2633 0477 0A       		.uleb128 0xa
ARM GAS  C:\Users\mlgjmoor\AppData\Local\Temp\ccwL0k1p.s 			page 70


 2634 0478 1A020000 		.4byte	.LASF149
 2635 047c B702     		.sleb128 311
 2636 047e 0A       		.uleb128 0xa
 2637 047f C7070000 		.4byte	.LASF150
 2638 0483 B802     		.sleb128 312
 2639 0485 0A       		.uleb128 0xa
 2640 0486 54240000 		.4byte	.LASF151
 2641 048a B902     		.sleb128 313
 2642 048c 0A       		.uleb128 0xa
 2643 048d 99290000 		.4byte	.LASF152
 2644 0491 BA02     		.sleb128 314
 2645 0493 0A       		.uleb128 0xa
 2646 0494 ED060000 		.4byte	.LASF153
 2647 0498 BB02     		.sleb128 315
 2648 049a 0A       		.uleb128 0xa
 2649 049b 2D200000 		.4byte	.LASF154
 2650 049f BC02     		.sleb128 316
 2651 04a1 0A       		.uleb128 0xa
 2652 04a2 BF2C0000 		.4byte	.LASF155
 2653 04a6 BD02     		.sleb128 317
 2654 04a8 0A       		.uleb128 0xa
 2655 04a9 C2190000 		.4byte	.LASF156
 2656 04ad BE02     		.sleb128 318
 2657 04af 0A       		.uleb128 0xa
 2658 04b0 012D0000 		.4byte	.LASF157
 2659 04b4 BF02     		.sleb128 319
 2660 04b6 0A       		.uleb128 0xa
 2661 04b7 6C070000 		.4byte	.LASF158
 2662 04bb C002     		.sleb128 320
 2663 04bd 0A       		.uleb128 0xa
 2664 04be B3200000 		.4byte	.LASF159
 2665 04c2 C102     		.sleb128 321
 2666 04c4 0A       		.uleb128 0xa
 2667 04c5 CE2E0000 		.4byte	.LASF160
 2668 04c9 C202     		.sleb128 322
 2669 04cb 0A       		.uleb128 0xa
 2670 04cc 482D0000 		.4byte	.LASF161
 2671 04d0 C302     		.sleb128 323
 2672 04d2 0A       		.uleb128 0xa
 2673 04d3 81000000 		.4byte	.LASF162
 2674 04d7 C402     		.sleb128 324
 2675 04d9 0A       		.uleb128 0xa
 2676 04da 0D2A0000 		.4byte	.LASF163
 2677 04de C502     		.sleb128 325
 2678 04e0 0A       		.uleb128 0xa
 2679 04e1 69170000 		.4byte	.LASF164
 2680 04e5 C602     		.sleb128 326
 2681 04e7 0A       		.uleb128 0xa
 2682 04e8 E2280000 		.4byte	.LASF165
 2683 04ec C702     		.sleb128 327
 2684 04ee 0A       		.uleb128 0xa
 2685 04ef C8260000 		.4byte	.LASF166
 2686 04f3 C802     		.sleb128 328
 2687 04f5 0A       		.uleb128 0xa
 2688 04f6 B3010000 		.4byte	.LASF167
 2689 04fa C902     		.sleb128 329
 2690 04fc 0A       		.uleb128 0xa
ARM GAS  C:\Users\mlgjmoor\AppData\Local\Temp\ccwL0k1p.s 			page 71


 2691 04fd D6250000 		.4byte	.LASF168
 2692 0501 CA02     		.sleb128 330
 2693 0503 0A       		.uleb128 0xa
 2694 0504 C80B0000 		.4byte	.LASF169
 2695 0508 CB02     		.sleb128 331
 2696 050a 0A       		.uleb128 0xa
 2697 050b 0D080000 		.4byte	.LASF170
 2698 050f CC02     		.sleb128 332
 2699 0511 0A       		.uleb128 0xa
 2700 0512 EA070000 		.4byte	.LASF171
 2701 0516 CD02     		.sleb128 333
 2702 0518 0A       		.uleb128 0xa
 2703 0519 A40B0000 		.4byte	.LASF172
 2704 051d CE02     		.sleb128 334
 2705 051f 0A       		.uleb128 0xa
 2706 0520 76180000 		.4byte	.LASF173
 2707 0524 CF02     		.sleb128 335
 2708 0526 0A       		.uleb128 0xa
 2709 0527 B92F0000 		.4byte	.LASF174
 2710 052b D002     		.sleb128 336
 2711 052d 0A       		.uleb128 0xa
 2712 052e D70F0000 		.4byte	.LASF175
 2713 0532 D102     		.sleb128 337
 2714 0534 0A       		.uleb128 0xa
 2715 0535 38240000 		.4byte	.LASF176
 2716 0539 D202     		.sleb128 338
 2717 053b 0A       		.uleb128 0xa
 2718 053c CB1F0000 		.4byte	.LASF177
 2719 0540 D302     		.sleb128 339
 2720 0542 0A       		.uleb128 0xa
 2721 0543 13050000 		.4byte	.LASF178
 2722 0547 D402     		.sleb128 340
 2723 0549 0A       		.uleb128 0xa
 2724 054a 16170000 		.4byte	.LASF179
 2725 054e D502     		.sleb128 341
 2726 0550 0A       		.uleb128 0xa
 2727 0551 9C000000 		.4byte	.LASF180
 2728 0555 D602     		.sleb128 342
 2729 0557 0A       		.uleb128 0xa
 2730 0558 71080000 		.4byte	.LASF181
 2731 055c D702     		.sleb128 343
 2732 055e 0A       		.uleb128 0xa
 2733 055f A82D0000 		.4byte	.LASF182
 2734 0563 D802     		.sleb128 344
 2735 0565 0A       		.uleb128 0xa
 2736 0566 1E120000 		.4byte	.LASF183
 2737 056a D902     		.sleb128 345
 2738 056c 0A       		.uleb128 0xa
 2739 056d 4F110000 		.4byte	.LASF184
 2740 0571 DA02     		.sleb128 346
 2741 0573 0A       		.uleb128 0xa
 2742 0574 46050000 		.4byte	.LASF185
 2743 0578 DB02     		.sleb128 347
 2744 057a 0A       		.uleb128 0xa
 2745 057b 9B2C0000 		.4byte	.LASF186
 2746 057f DC02     		.sleb128 348
 2747 0581 0A       		.uleb128 0xa
ARM GAS  C:\Users\mlgjmoor\AppData\Local\Temp\ccwL0k1p.s 			page 72


 2748 0582 FE1A0000 		.4byte	.LASF187
 2749 0586 DD02     		.sleb128 349
 2750 0588 0A       		.uleb128 0xa
 2751 0589 E4170000 		.4byte	.LASF188
 2752 058d DE02     		.sleb128 350
 2753 058f 0A       		.uleb128 0xa
 2754 0590 9C060000 		.4byte	.LASF189
 2755 0594 DF02     		.sleb128 351
 2756 0596 0A       		.uleb128 0xa
 2757 0597 E4050000 		.4byte	.LASF190
 2758 059b E002     		.sleb128 352
 2759 059d 0A       		.uleb128 0xa
 2760 059e 90010000 		.4byte	.LASF191
 2761 05a2 E102     		.sleb128 353
 2762 05a4 0A       		.uleb128 0xa
 2763 05a5 9F170000 		.4byte	.LASF192
 2764 05a9 E202     		.sleb128 354
 2765 05ab 0A       		.uleb128 0xa
 2766 05ac 97310000 		.4byte	.LASF193
 2767 05b0 E302     		.sleb128 355
 2768 05b2 0A       		.uleb128 0xa
 2769 05b3 59130000 		.4byte	.LASF194
 2770 05b7 E402     		.sleb128 356
 2771 05b9 0A       		.uleb128 0xa
 2772 05ba 75110000 		.4byte	.LASF195
 2773 05be E502     		.sleb128 357
 2774 05c0 0A       		.uleb128 0xa
 2775 05c1 231D0000 		.4byte	.LASF196
 2776 05c5 E602     		.sleb128 358
 2777 05c7 0A       		.uleb128 0xa
 2778 05c8 6A2B0000 		.4byte	.LASF197
 2779 05cc E702     		.sleb128 359
 2780 05ce 0A       		.uleb128 0xa
 2781 05cf 94240000 		.4byte	.LASF198
 2782 05d3 E802     		.sleb128 360
 2783 05d5 0A       		.uleb128 0xa
 2784 05d6 7A030000 		.4byte	.LASF199
 2785 05da E902     		.sleb128 361
 2786 05dc 0A       		.uleb128 0xa
 2787 05dd C9230000 		.4byte	.LASF200
 2788 05e1 EA02     		.sleb128 362
 2789 05e3 0A       		.uleb128 0xa
 2790 05e4 91140000 		.4byte	.LASF201
 2791 05e8 EB02     		.sleb128 363
 2792 05ea 0A       		.uleb128 0xa
 2793 05eb D8160000 		.4byte	.LASF202
 2794 05ef EC02     		.sleb128 364
 2795 05f1 0A       		.uleb128 0xa
 2796 05f2 ED1F0000 		.4byte	.LASF203
 2797 05f6 ED02     		.sleb128 365
 2798 05f8 0A       		.uleb128 0xa
 2799 05f9 D4270000 		.4byte	.LASF204
 2800 05fd EE02     		.sleb128 366
 2801 05ff 0A       		.uleb128 0xa
 2802 0600 16100000 		.4byte	.LASF205
 2803 0604 EF02     		.sleb128 367
 2804 0606 0A       		.uleb128 0xa
ARM GAS  C:\Users\mlgjmoor\AppData\Local\Temp\ccwL0k1p.s 			page 73


 2805 0607 411B0000 		.4byte	.LASF206
 2806 060b F002     		.sleb128 368
 2807 060d 0A       		.uleb128 0xa
 2808 060e F7190000 		.4byte	.LASF207
 2809 0612 F102     		.sleb128 369
 2810 0614 0A       		.uleb128 0xa
 2811 0615 9B1D0000 		.4byte	.LASF208
 2812 0619 F202     		.sleb128 370
 2813 061b 0A       		.uleb128 0xa
 2814 061c A0270000 		.4byte	.LASF209
 2815 0620 F302     		.sleb128 371
 2816 0622 0A       		.uleb128 0xa
 2817 0623 631B0000 		.4byte	.LASF210
 2818 0627 F402     		.sleb128 372
 2819 0629 0A       		.uleb128 0xa
 2820 062a 261B0000 		.4byte	.LASF211
 2821 062e F502     		.sleb128 373
 2822 0630 0A       		.uleb128 0xa
 2823 0631 CB1B0000 		.4byte	.LASF212
 2824 0635 F602     		.sleb128 374
 2825 0637 0A       		.uleb128 0xa
 2826 0638 C3100000 		.4byte	.LASF213
 2827 063c F702     		.sleb128 375
 2828 063e 0A       		.uleb128 0xa
 2829 063f 220A0000 		.4byte	.LASF214
 2830 0643 F802     		.sleb128 376
 2831 0645 0A       		.uleb128 0xa
 2832 0646 442A0000 		.4byte	.LASF215
 2833 064a F902     		.sleb128 377
 2834 064c 0A       		.uleb128 0xa
 2835 064d 1F140000 		.4byte	.LASF216
 2836 0651 FA02     		.sleb128 378
 2837 0653 0A       		.uleb128 0xa
 2838 0654 83090000 		.4byte	.LASF217
 2839 0658 FB02     		.sleb128 379
 2840 065a 0A       		.uleb128 0xa
 2841 065b AA2A0000 		.4byte	.LASF218
 2842 065f FC02     		.sleb128 380
 2843 0661 0A       		.uleb128 0xa
 2844 0662 C8240000 		.4byte	.LASF219
 2845 0666 FD02     		.sleb128 381
 2846 0668 0A       		.uleb128 0xa
 2847 0669 51230000 		.4byte	.LASF220
 2848 066d FE02     		.sleb128 382
 2849 066f 0A       		.uleb128 0xa
 2850 0670 63190000 		.4byte	.LASF221
 2851 0674 FF02     		.sleb128 383
 2852 0676 0A       		.uleb128 0xa
 2853 0677 EA010000 		.4byte	.LASF222
 2854 067b 8003     		.sleb128 384
 2855 067d 0A       		.uleb128 0xa
 2856 067e 99200000 		.4byte	.LASF223
 2857 0682 8103     		.sleb128 385
 2858 0684 0A       		.uleb128 0xa
 2859 0685 9F2F0000 		.4byte	.LASF224
 2860 0689 8203     		.sleb128 386
 2861 068b 0A       		.uleb128 0xa
ARM GAS  C:\Users\mlgjmoor\AppData\Local\Temp\ccwL0k1p.s 			page 74


 2862 068c 4B2C0000 		.4byte	.LASF225
 2863 0690 8303     		.sleb128 387
 2864 0692 0A       		.uleb128 0xa
 2865 0693 16280000 		.4byte	.LASF226
 2866 0697 8403     		.sleb128 388
 2867 0699 0A       		.uleb128 0xa
 2868 069a A3020000 		.4byte	.LASF227
 2869 069e 8503     		.sleb128 389
 2870 06a0 0A       		.uleb128 0xa
 2871 06a1 B20E0000 		.4byte	.LASF228
 2872 06a5 8603     		.sleb128 390
 2873 06a7 0A       		.uleb128 0xa
 2874 06a8 632D0000 		.4byte	.LASF229
 2875 06ac 8703     		.sleb128 391
 2876 06ae 0A       		.uleb128 0xa
 2877 06af 76320000 		.4byte	.LASF230
 2878 06b3 8803     		.sleb128 392
 2879 06b5 0A       		.uleb128 0xa
 2880 06b6 FB1B0000 		.4byte	.LASF231
 2881 06ba 8903     		.sleb128 393
 2882 06bc 0A       		.uleb128 0xa
 2883 06bd 2B310000 		.4byte	.LASF232
 2884 06c1 8A03     		.sleb128 394
 2885 06c3 0A       		.uleb128 0xa
 2886 06c4 A91B0000 		.4byte	.LASF233
 2887 06c8 8B03     		.sleb128 395
 2888 06ca 0A       		.uleb128 0xa
 2889 06cb 9F0A0000 		.4byte	.LASF234
 2890 06cf 8C03     		.sleb128 396
 2891 06d1 0A       		.uleb128 0xa
 2892 06d2 5C140000 		.4byte	.LASF235
 2893 06d6 8D03     		.sleb128 397
 2894 06d8 0A       		.uleb128 0xa
 2895 06d9 83120000 		.4byte	.LASF236
 2896 06dd 8E03     		.sleb128 398
 2897 06df 0A       		.uleb128 0xa
 2898 06e0 E6310000 		.4byte	.LASF237
 2899 06e4 8F03     		.sleb128 399
 2900 06e6 0A       		.uleb128 0xa
 2901 06e7 EC260000 		.4byte	.LASF238
 2902 06eb 9003     		.sleb128 400
 2903 06ed 0A       		.uleb128 0xa
 2904 06ee EE140000 		.4byte	.LASF239
 2905 06f2 9103     		.sleb128 401
 2906 06f4 0A       		.uleb128 0xa
 2907 06f5 35210000 		.4byte	.LASF240
 2908 06f9 9203     		.sleb128 402
 2909 06fb 0A       		.uleb128 0xa
 2910 06fc 0A040000 		.4byte	.LASF241
 2911 0700 9303     		.sleb128 403
 2912 0702 0A       		.uleb128 0xa
 2913 0703 E80C0000 		.4byte	.LASF242
 2914 0707 9403     		.sleb128 404
 2915 0709 0A       		.uleb128 0xa
 2916 070a 40220000 		.4byte	.LASF243
 2917 070e 9503     		.sleb128 405
 2918 0710 0A       		.uleb128 0xa
ARM GAS  C:\Users\mlgjmoor\AppData\Local\Temp\ccwL0k1p.s 			page 75


 2919 0711 62120000 		.4byte	.LASF244
 2920 0715 9603     		.sleb128 406
 2921 0717 0A       		.uleb128 0xa
 2922 0718 5A180000 		.4byte	.LASF245
 2923 071c 9703     		.sleb128 407
 2924 071e 0A       		.uleb128 0xa
 2925 071f 90190000 		.4byte	.LASF246
 2926 0723 9803     		.sleb128 408
 2927 0725 0A       		.uleb128 0xa
 2928 0726 472B0000 		.4byte	.LASF247
 2929 072a 9903     		.sleb128 409
 2930 072c 0A       		.uleb128 0xa
 2931 072d 85100000 		.4byte	.LASF248
 2932 0731 9A03     		.sleb128 410
 2933 0733 0A       		.uleb128 0xa
 2934 0734 711E0000 		.4byte	.LASF249
 2935 0738 9B03     		.sleb128 411
 2936 073a 0A       		.uleb128 0xa
 2937 073b F10F0000 		.4byte	.LASF250
 2938 073f 9C03     		.sleb128 412
 2939 0741 0A       		.uleb128 0xa
 2940 0742 AB130000 		.4byte	.LASF251
 2941 0746 9D03     		.sleb128 413
 2942 0748 0A       		.uleb128 0xa
 2943 0749 E4320000 		.4byte	.LASF252
 2944 074d 9E03     		.sleb128 414
 2945 074f 0A       		.uleb128 0xa
 2946 0750 D8200000 		.4byte	.LASF253
 2947 0754 9F03     		.sleb128 415
 2948 0756 0A       		.uleb128 0xa
 2949 0757 59210000 		.4byte	.LASF254
 2950 075b A003     		.sleb128 416
 2951 075d 0A       		.uleb128 0xa
 2952 075e 79060000 		.4byte	.LASF255
 2953 0762 A103     		.sleb128 417
 2954 0764 0A       		.uleb128 0xa
 2955 0765 F6110000 		.4byte	.LASF256
 2956 0769 A203     		.sleb128 418
 2957 076b 0A       		.uleb128 0xa
 2958 076c 62270000 		.4byte	.LASF257
 2959 0770 A303     		.sleb128 419
 2960 0772 0A       		.uleb128 0xa
 2961 0773 E5090000 		.4byte	.LASF258
 2962 0777 A403     		.sleb128 420
 2963 0779 0A       		.uleb128 0xa
 2964 077a 22000000 		.4byte	.LASF259
 2965 077e A503     		.sleb128 421
 2966 0780 0A       		.uleb128 0xa
 2967 0781 D52B0000 		.4byte	.LASF260
 2968 0785 A603     		.sleb128 422
 2969 0787 0A       		.uleb128 0xa
 2970 0788 F30E0000 		.4byte	.LASF261
 2971 078c A703     		.sleb128 423
 2972 078e 0A       		.uleb128 0xa
 2973 078f 9B320000 		.4byte	.LASF262
 2974 0793 A803     		.sleb128 424
 2975 0795 0A       		.uleb128 0xa
ARM GAS  C:\Users\mlgjmoor\AppData\Local\Temp\ccwL0k1p.s 			page 76


 2976 0796 AA040000 		.4byte	.LASF263
 2977 079a A903     		.sleb128 425
 2978 079c 0A       		.uleb128 0xa
 2979 079d F6180000 		.4byte	.LASF264
 2980 07a1 AA03     		.sleb128 426
 2981 07a3 0A       		.uleb128 0xa
 2982 07a4 5C320000 		.4byte	.LASF265
 2983 07a8 AB03     		.sleb128 427
 2984 07aa 0A       		.uleb128 0xa
 2985 07ab 0C290000 		.4byte	.LASF266
 2986 07af AC03     		.sleb128 428
 2987 07b1 0A       		.uleb128 0xa
 2988 07b2 301E0000 		.4byte	.LASF267
 2989 07b6 AD03     		.sleb128 429
 2990 07b8 0A       		.uleb128 0xa
 2991 07b9 50200000 		.4byte	.LASF268
 2992 07bd AE03     		.sleb128 430
 2993 07bf 0A       		.uleb128 0xa
 2994 07c0 342E0000 		.4byte	.LASF269
 2995 07c4 AF03     		.sleb128 431
 2996 07c6 0A       		.uleb128 0xa
 2997 07c7 60150000 		.4byte	.LASF270
 2998 07cb B003     		.sleb128 432
 2999 07cd 0A       		.uleb128 0xa
 3000 07ce 600A0000 		.4byte	.LASF271
 3001 07d2 B103     		.sleb128 433
 3002 07d4 0A       		.uleb128 0xa
 3003 07d5 D3060000 		.4byte	.LASF272
 3004 07d9 B203     		.sleb128 434
 3005 07db 0A       		.uleb128 0xa
 3006 07dc F8270000 		.4byte	.LASF273
 3007 07e0 B303     		.sleb128 435
 3008 07e2 0A       		.uleb128 0xa
 3009 07e3 410D0000 		.4byte	.LASF274
 3010 07e7 B403     		.sleb128 436
 3011 07e9 0A       		.uleb128 0xa
 3012 07ea 6C310000 		.4byte	.LASF275
 3013 07ee B503     		.sleb128 437
 3014 07f0 0A       		.uleb128 0xa
 3015 07f1 C2090000 		.4byte	.LASF276
 3016 07f5 B603     		.sleb128 438
 3017 07f7 0A       		.uleb128 0xa
 3018 07f8 24150000 		.4byte	.LASF277
 3019 07fc B703     		.sleb128 439
 3020 07fe 0A       		.uleb128 0xa
 3021 07ff B3180000 		.4byte	.LASF278
 3022 0803 B803     		.sleb128 440
 3023 0805 0A       		.uleb128 0xa
 3024 0806 162E0000 		.4byte	.LASF279
 3025 080a B903     		.sleb128 441
 3026 080c 0A       		.uleb128 0xa
 3027 080d A62B0000 		.4byte	.LASF280
 3028 0811 BA03     		.sleb128 442
 3029 0813 0A       		.uleb128 0xa
 3030 0814 D8110000 		.4byte	.LASF281
 3031 0818 BB03     		.sleb128 443
 3032 081a 0A       		.uleb128 0xa
ARM GAS  C:\Users\mlgjmoor\AppData\Local\Temp\ccwL0k1p.s 			page 77


 3033 081b DC1A0000 		.4byte	.LASF282
 3034 081f BC03     		.sleb128 444
 3035 0821 0A       		.uleb128 0xa
 3036 0822 5B020000 		.4byte	.LASF283
 3037 0826 BD03     		.sleb128 445
 3038 0828 0A       		.uleb128 0xa
 3039 0829 47250000 		.4byte	.LASF284
 3040 082d BE03     		.sleb128 446
 3041 082f 0A       		.uleb128 0xa
 3042 0830 57030000 		.4byte	.LASF285
 3043 0834 BF03     		.sleb128 447
 3044 0836 0A       		.uleb128 0xa
 3045 0837 A3220000 		.4byte	.LASF286
 3046 083b C003     		.sleb128 448
 3047 083d 0A       		.uleb128 0xa
 3048 083e 2F080000 		.4byte	.LASF287
 3049 0842 C103     		.sleb128 449
 3050 0844 0A       		.uleb128 0xa
 3051 0845 AE080000 		.4byte	.LASF288
 3052 0849 C203     		.sleb128 450
 3053 084b 0A       		.uleb128 0xa
 3054 084c 86270000 		.4byte	.LASF289
 3055 0850 C303     		.sleb128 451
 3056 0852 0A       		.uleb128 0xa
 3057 0853 69050000 		.4byte	.LASF290
 3058 0857 C403     		.sleb128 452
 3059 0859 0A       		.uleb128 0xa
 3060 085a 78240000 		.4byte	.LASF291
 3061 085e C503     		.sleb128 453
 3062 0860 0A       		.uleb128 0xa
 3063 0861 0E230000 		.4byte	.LASF292
 3064 0865 C603     		.sleb128 454
 3065 0867 0A       		.uleb128 0xa
 3066 0868 C8120000 		.4byte	.LASF293
 3067 086c C703     		.sleb128 455
 3068 086e 0A       		.uleb128 0xa
 3069 086f 4C2F0000 		.4byte	.LASF294
 3070 0873 C803     		.sleb128 456
 3071 0875 0A       		.uleb128 0xa
 3072 0876 941A0000 		.4byte	.LASF295
 3073 087a C903     		.sleb128 457
 3074 087c 0A       		.uleb128 0xa
 3075 087d BA210000 		.4byte	.LASF296
 3076 0881 CA03     		.sleb128 458
 3077 0883 0A       		.uleb128 0xa
 3078 0884 83150000 		.4byte	.LASF297
 3079 0888 CB03     		.sleb128 459
 3080 088a 0A       		.uleb128 0xa
 3081 088b A2260000 		.4byte	.LASF298
 3082 088f CC03     		.sleb128 460
 3083 0891 0A       		.uleb128 0xa
 3084 0892 FB160000 		.4byte	.LASF299
 3085 0896 CD03     		.sleb128 461
 3086 0898 0A       		.uleb128 0xa
 3087 0899 A8150000 		.4byte	.LASF300
 3088 089d CE03     		.sleb128 462
 3089 089f 0A       		.uleb128 0xa
ARM GAS  C:\Users\mlgjmoor\AppData\Local\Temp\ccwL0k1p.s 			page 78


 3090 08a0 83050000 		.4byte	.LASF301
 3091 08a4 CF03     		.sleb128 463
 3092 08a6 0A       		.uleb128 0xa
 3093 08a7 F6080000 		.4byte	.LASF302
 3094 08ab D003     		.sleb128 464
 3095 08ad 0A       		.uleb128 0xa
 3096 08ae FB130000 		.4byte	.LASF303
 3097 08b2 D103     		.sleb128 465
 3098 08b4 0A       		.uleb128 0xa
 3099 08b5 58290000 		.4byte	.LASF304
 3100 08b9 D203     		.sleb128 466
 3101 08bb 0A       		.uleb128 0xa
 3102 08bc 03320000 		.4byte	.LASF305
 3103 08c0 D303     		.sleb128 467
 3104 08c2 0A       		.uleb128 0xa
 3105 08c3 C8140000 		.4byte	.LASF306
 3106 08c7 D403     		.sleb128 468
 3107 08c9 0A       		.uleb128 0xa
 3108 08ca 550B0000 		.4byte	.LASF307
 3109 08ce D503     		.sleb128 469
 3110 08d0 0A       		.uleb128 0xa
 3111 08d1 99110000 		.4byte	.LASF308
 3112 08d5 D603     		.sleb128 470
 3113 08d7 0A       		.uleb128 0xa
 3114 08d8 0D210000 		.4byte	.LASF309
 3115 08dc D703     		.sleb128 471
 3116 08de 0A       		.uleb128 0xa
 3117 08df 312F0000 		.4byte	.LASF310
 3118 08e3 D803     		.sleb128 472
 3119 08e5 0A       		.uleb128 0xa
 3120 08e6 38280000 		.4byte	.LASF311
 3121 08ea D903     		.sleb128 473
 3122 08ec 0A       		.uleb128 0xa
 3123 08ed ED0B0000 		.4byte	.LASF312
 3124 08f1 DA03     		.sleb128 474
 3125 08f3 0A       		.uleb128 0xa
 3126 08f4 05180000 		.4byte	.LASF313
 3127 08f8 DB03     		.sleb128 475
 3128 08fa 0A       		.uleb128 0xa
 3129 08fb 02110000 		.4byte	.LASF314
 3130 08ff DC03     		.sleb128 476
 3131 0901 0A       		.uleb128 0xa
 3132 0902 CC2D0000 		.4byte	.LASF315
 3133 0906 DD03     		.sleb128 477
 3134 0908 0A       		.uleb128 0xa
 3135 0909 F4020000 		.4byte	.LASF316
 3136 090d DE03     		.sleb128 478
 3137 090f 0A       		.uleb128 0xa
 3138 0910 C7000000 		.4byte	.LASF317
 3139 0914 DF03     		.sleb128 479
 3140 0916 0A       		.uleb128 0xa
 3141 0917 160F0000 		.4byte	.LASF318
 3142 091b E003     		.sleb128 480
 3143 091d 0A       		.uleb128 0xa
 3144 091e 1C0D0000 		.4byte	.LASF319
 3145 0922 E103     		.sleb128 481
 3146 0924 0A       		.uleb128 0xa
ARM GAS  C:\Users\mlgjmoor\AppData\Local\Temp\ccwL0k1p.s 			page 79


 3147 0925 751D0000 		.4byte	.LASF320
 3148 0929 E203     		.sleb128 482
 3149 092b 0A       		.uleb128 0xa
 3150 092c 672C0000 		.4byte	.LASF321
 3151 0930 E303     		.sleb128 483
 3152 0932 0A       		.uleb128 0xa
 3153 0933 8C1B0000 		.4byte	.LASF322
 3154 0937 E403     		.sleb128 484
 3155 0939 0A       		.uleb128 0xa
 3156 093a 3E270000 		.4byte	.LASF323
 3157 093e E503     		.sleb128 485
 3158 0940 0A       		.uleb128 0xa
 3159 0941 F10D0000 		.4byte	.LASF324
 3160 0945 E603     		.sleb128 486
 3161 0947 0A       		.uleb128 0xa
 3162 0948 2F040000 		.4byte	.LASF325
 3163 094c E703     		.sleb128 487
 3164 094e 0A       		.uleb128 0xa
 3165 094f 19270000 		.4byte	.LASF326
 3166 0953 E803     		.sleb128 488
 3167 0955 0A       		.uleb128 0xa
 3168 0956 1B0E0000 		.4byte	.LASF327
 3169 095a E903     		.sleb128 489
 3170 095c 0A       		.uleb128 0xa
 3171 095d 20190000 		.4byte	.LASF328
 3172 0961 EA03     		.sleb128 490
 3173 0963 0A       		.uleb128 0xa
 3174 0964 22260000 		.4byte	.LASF329
 3175 0968 EB03     		.sleb128 491
 3176 096a 0A       		.uleb128 0xa
 3177 096b 26110000 		.4byte	.LASF330
 3178 096f EC03     		.sleb128 492
 3179 0971 0A       		.uleb128 0xa
 3180 0972 842B0000 		.4byte	.LASF331
 3181 0976 ED03     		.sleb128 493
 3182 0978 0A       		.uleb128 0xa
 3183 0979 920F0000 		.4byte	.LASF332
 3184 097d EE03     		.sleb128 494
 3185 097f 0A       		.uleb128 0xa
 3186 0980 25090000 		.4byte	.LASF333
 3187 0984 EF03     		.sleb128 495
 3188 0986 0A       		.uleb128 0xa
 3189 0987 65220000 		.4byte	.LASF334
 3190 098b F003     		.sleb128 496
 3191 098d 0A       		.uleb128 0xa
 3192 098e 34130000 		.4byte	.LASF335
 3193 0992 F103     		.sleb128 497
 3194 0994 0A       		.uleb128 0xa
 3195 0995 090A0000 		.4byte	.LASF336
 3196 0999 F203     		.sleb128 498
 3197 099b 0A       		.uleb128 0xa
 3198 099c 7E130000 		.4byte	.LASF337
 3199 09a0 F303     		.sleb128 499
 3200 09a2 0A       		.uleb128 0xa
 3201 09a3 B9060000 		.4byte	.LASF338
 3202 09a7 F403     		.sleb128 500
 3203 09a9 0A       		.uleb128 0xa
ARM GAS  C:\Users\mlgjmoor\AppData\Local\Temp\ccwL0k1p.s 			page 80


 3204 09aa 9D1C0000 		.4byte	.LASF339
 3205 09ae F503     		.sleb128 501
 3206 09b0 0A       		.uleb128 0xa
 3207 09b1 00000000 		.4byte	.LASF340
 3208 09b5 F603     		.sleb128 502
 3209 09b7 0A       		.uleb128 0xa
 3210 09b8 231F0000 		.4byte	.LASF341
 3211 09bc F703     		.sleb128 503
 3212 09be 0A       		.uleb128 0xa
 3213 09bf 062C0000 		.4byte	.LASF342
 3214 09c3 F803     		.sleb128 504
 3215 09c5 0A       		.uleb128 0xa
 3216 09c6 E6030000 		.4byte	.LASF343
 3217 09ca F903     		.sleb128 505
 3218 09cc 0A       		.uleb128 0xa
 3219 09cd 45260000 		.4byte	.LASF344
 3220 09d1 FA03     		.sleb128 506
 3221 09d3 0A       		.uleb128 0xa
 3222 09d4 6F1A0000 		.4byte	.LASF345
 3223 09d8 FB03     		.sleb128 507
 3224 09da 0A       		.uleb128 0xa
 3225 09db 3B100000 		.4byte	.LASF346
 3226 09df FC03     		.sleb128 508
 3227 09e1 0A       		.uleb128 0xa
 3228 09e2 CD150000 		.4byte	.LASF347
 3229 09e6 FD03     		.sleb128 509
 3230 09e8 0A       		.uleb128 0xa
 3231 09e9 400C0000 		.4byte	.LASF348
 3232 09ed FE03     		.sleb128 510
 3233 09ef 0A       		.uleb128 0xa
 3234 09f0 BF320000 		.4byte	.LASF349
 3235 09f4 FF03     		.sleb128 511
 3236 09f6 0A       		.uleb128 0xa
 3237 09f7 BD110000 		.4byte	.LASF350
 3238 09fb 8004     		.sleb128 512
 3239 09fd 0A       		.uleb128 0xa
 3240 09fe 23010000 		.4byte	.LASF351
 3241 0a02 8104     		.sleb128 513
 3242 0a04 0A       		.uleb128 0xa
 3243 0a05 511F0000 		.4byte	.LASF352
 3244 0a09 8204     		.sleb128 514
 3245 0a0b 0A       		.uleb128 0xa
 3246 0a0c B91C0000 		.4byte	.LASF353
 3247 0a10 8304     		.sleb128 515
 3248 0a12 0A       		.uleb128 0xa
 3249 0a13 A5120000 		.4byte	.LASF354
 3250 0a17 8404     		.sleb128 516
 3251 0a19 0A       		.uleb128 0xa
 3252 0a1a A1280000 		.4byte	.LASF355
 3253 0a1e 8504     		.sleb128 517
 3254 0a20 0A       		.uleb128 0xa
 3255 0a21 7C2E0000 		.4byte	.LASF356
 3256 0a25 8604     		.sleb128 518
 3257 0a27 0A       		.uleb128 0xa
 3258 0a28 6E010000 		.4byte	.LASF357
 3259 0a2c 8704     		.sleb128 519
 3260 0a2e 0A       		.uleb128 0xa
ARM GAS  C:\Users\mlgjmoor\AppData\Local\Temp\ccwL0k1p.s 			page 81


 3261 0a2f C7220000 		.4byte	.LASF358
 3262 0a33 8804     		.sleb128 520
 3263 0a35 0A       		.uleb128 0xa
 3264 0a36 580F0000 		.4byte	.LASF359
 3265 0a3a 8904     		.sleb128 521
 3266 0a3c 0A       		.uleb128 0xa
 3267 0a3d A9100000 		.4byte	.LASF360
 3268 0a41 8A04     		.sleb128 522
 3269 0a43 0A       		.uleb128 0xa
 3270 0a44 A3300000 		.4byte	.LASF361
 3271 0a48 8B04     		.sleb128 523
 3272 0a4a 0A       		.uleb128 0xa
 3273 0a4b 120C0000 		.4byte	.LASF362
 3274 0a4f 8C04     		.sleb128 524
 3275 0a51 0A       		.uleb128 0xa
 3276 0a52 C30A0000 		.4byte	.LASF363
 3277 0a56 8D04     		.sleb128 525
 3278 0a58 0A       		.uleb128 0xa
 3279 0a59 73200000 		.4byte	.LASF364
 3280 0a5d 80C003   		.sleb128 57344
 3281 0a60 00       		.byte	0
 3282 0a61 0C       		.uleb128 0xc
 3283 0a62 F0150000 		.4byte	.LASF367
 3284 0a66 08       		.byte	0x8
 3285 0a67 06       		.byte	0x6
 3286 0a68 12       		.byte	0x12
 3287 0a69 860A0000 		.4byte	0xa86
 3288 0a6d 0D       		.uleb128 0xd
 3289 0a6e C5150000 		.4byte	.LASF365
 3290 0a72 06       		.byte	0x6
 3291 0a73 15       		.byte	0x15
 3292 0a74 72000000 		.4byte	0x72
 3293 0a78 00       		.byte	0
 3294 0a79 0D       		.uleb128 0xd
 3295 0a7a E8300000 		.4byte	.LASF366
 3296 0a7e 06       		.byte	0x6
 3297 0a7f 17       		.byte	0x17
 3298 0a80 E9000000 		.4byte	0xe9
 3299 0a84 04       		.byte	0x4
 3300 0a85 00       		.byte	0
 3301 0a86 0E       		.uleb128 0xe
 3302 0a87 F0150000 		.4byte	.LASF367
 3303 0a8b 06       		.byte	0x6
 3304 0a8c 18       		.byte	0x18
 3305 0a8d 610A0000 		.4byte	0xa61
 3306 0a91 0F       		.uleb128 0xf
 3307 0a92 47000000 		.4byte	.LASF368
 3308 0a96 0808     		.2byte	0x808
 3309 0a98 06       		.byte	0x6
 3310 0a99 1A       		.byte	0x1a
 3311 0a9a CF0A0000 		.4byte	0xacf
 3312 0a9e 0D       		.uleb128 0xd
 3313 0a9f A5130000 		.4byte	.LASF369
 3314 0aa3 06       		.byte	0x6
 3315 0aa4 1C       		.byte	0x1c
 3316 0aa5 7E000000 		.4byte	0x7e
 3317 0aa9 00       		.byte	0
ARM GAS  C:\Users\mlgjmoor\AppData\Local\Temp\ccwL0k1p.s 			page 82


 3318 0aaa 0D       		.uleb128 0xd
 3319 0aab F31C0000 		.4byte	.LASF370
 3320 0aaf 06       		.byte	0x6
 3321 0ab0 1D       		.byte	0x1d
 3322 0ab1 7E000000 		.4byte	0x7e
 3323 0ab5 02       		.byte	0x2
 3324 0ab6 0D       		.uleb128 0xd
 3325 0ab7 271C0000 		.4byte	.LASF371
 3326 0abb 06       		.byte	0x6
 3327 0abc 1E       		.byte	0x1e
 3328 0abd 7E000000 		.4byte	0x7e
 3329 0ac1 04       		.byte	0x4
 3330 0ac2 0D       		.uleb128 0xd
 3331 0ac3 0F270000 		.4byte	.LASF372
 3332 0ac7 06       		.byte	0x6
 3333 0ac8 1F       		.byte	0x1f
 3334 0ac9 CF0A0000 		.4byte	0xacf
 3335 0acd 08       		.byte	0x8
 3336 0ace 00       		.byte	0
 3337 0acf 10       		.uleb128 0x10
 3338 0ad0 860A0000 		.4byte	0xa86
 3339 0ad4 DF0A0000 		.4byte	0xadf
 3340 0ad8 11       		.uleb128 0x11
 3341 0ad9 E0000000 		.4byte	0xe0
 3342 0add FF       		.byte	0xff
 3343 0ade 00       		.byte	0
 3344 0adf 0E       		.uleb128 0xe
 3345 0ae0 47000000 		.4byte	.LASF368
 3346 0ae4 06       		.byte	0x6
 3347 0ae5 20       		.byte	0x20
 3348 0ae6 910A0000 		.4byte	0xa91
 3349 0aea 0C       		.uleb128 0xc
 3350 0aeb 080C0000 		.4byte	.LASF373
 3351 0aef 08       		.byte	0x8
 3352 0af0 01       		.byte	0x1
 3353 0af1 2D       		.byte	0x2d
 3354 0af2 0F0B0000 		.4byte	0xb0f
 3355 0af6 0D       		.uleb128 0xd
 3356 0af7 2E290000 		.4byte	.LASF374
 3357 0afb 01       		.byte	0x1
 3358 0afc 2F       		.byte	0x2f
 3359 0afd 25000000 		.4byte	0x25
 3360 0b01 00       		.byte	0
 3361 0b02 0D       		.uleb128 0xd
 3362 0b03 7D290000 		.4byte	.LASF375
 3363 0b07 01       		.byte	0x1
 3364 0b08 30       		.byte	0x30
 3365 0b09 7E000000 		.4byte	0x7e
 3366 0b0d 04       		.byte	0x4
 3367 0b0e 00       		.byte	0
 3368 0b0f 0E       		.uleb128 0xe
 3369 0b10 080C0000 		.4byte	.LASF373
 3370 0b14 01       		.byte	0x1
 3371 0b15 31       		.byte	0x31
 3372 0b16 EA0A0000 		.4byte	0xaea
 3373 0b1a 0C       		.uleb128 0xc
 3374 0b1b 19120000 		.4byte	.LASF376
ARM GAS  C:\Users\mlgjmoor\AppData\Local\Temp\ccwL0k1p.s 			page 83


 3375 0b1f 08       		.byte	0x8
 3376 0b20 01       		.byte	0x1
 3377 0b21 33       		.byte	0x33
 3378 0b22 3F0B0000 		.4byte	0xb3f
 3379 0b26 0D       		.uleb128 0xd
 3380 0b27 AE0C0000 		.4byte	.LASF377
 3381 0b2b 01       		.byte	0x1
 3382 0b2c 35       		.byte	0x35
 3383 0b2d 5B0B0000 		.4byte	0xb5b
 3384 0b31 00       		.byte	0
 3385 0b32 0D       		.uleb128 0xd
 3386 0b33 99020000 		.4byte	.LASF378
 3387 0b37 01       		.byte	0x1
 3388 0b38 36       		.byte	0x36
 3389 0b39 610B0000 		.4byte	0xb61
 3390 0b3d 04       		.byte	0x4
 3391 0b3e 00       		.byte	0
 3392 0b3f 12       		.uleb128 0x12
 3393 0b40 4F0B0000 		.4byte	0xb4f
 3394 0b44 13       		.uleb128 0x13
 3395 0b45 4F0B0000 		.4byte	0xb4f
 3396 0b49 13       		.uleb128 0x13
 3397 0b4a 550B0000 		.4byte	0xb55
 3398 0b4e 00       		.byte	0
 3399 0b4f 06       		.uleb128 0x6
 3400 0b50 04       		.byte	0x4
 3401 0b51 1A0B0000 		.4byte	0xb1a
 3402 0b55 06       		.uleb128 0x6
 3403 0b56 04       		.byte	0x4
 3404 0b57 DF0A0000 		.4byte	0xadf
 3405 0b5b 06       		.uleb128 0x6
 3406 0b5c 04       		.byte	0x4
 3407 0b5d 3F0B0000 		.4byte	0xb3f
 3408 0b61 02       		.uleb128 0x2
 3409 0b62 01       		.byte	0x1
 3410 0b63 02       		.byte	0x2
 3411 0b64 E20C0000 		.4byte	.LASF379
 3412 0b68 0E       		.uleb128 0xe
 3413 0b69 19120000 		.4byte	.LASF376
 3414 0b6d 01       		.byte	0x1
 3415 0b6e 37       		.byte	0x37
 3416 0b6f 1A0B0000 		.4byte	0xb1a
 3417 0b73 0C       		.uleb128 0xc
 3418 0b74 76040000 		.4byte	.LASF380
 3419 0b78 18       		.byte	0x18
 3420 0b79 01       		.byte	0x1
 3421 0b7a 39       		.byte	0x39
 3422 0b7b 8C0B0000 		.4byte	0xb8c
 3423 0b7f 0D       		.uleb128 0xd
 3424 0b80 97210000 		.4byte	.LASF381
 3425 0b84 01       		.byte	0x1
 3426 0b85 3B       		.byte	0x3b
 3427 0b86 8C0B0000 		.4byte	0xb8c
 3428 0b8a 00       		.byte	0
 3429 0b8b 00       		.byte	0
 3430 0b8c 10       		.uleb128 0x10
 3431 0b8d 680B0000 		.4byte	0xb68
ARM GAS  C:\Users\mlgjmoor\AppData\Local\Temp\ccwL0k1p.s 			page 84


 3432 0b91 9C0B0000 		.4byte	0xb9c
 3433 0b95 11       		.uleb128 0x11
 3434 0b96 E0000000 		.4byte	0xe0
 3435 0b9a 02       		.byte	0x2
 3436 0b9b 00       		.byte	0
 3437 0b9c 0E       		.uleb128 0xe
 3438 0b9d 76040000 		.4byte	.LASF380
 3439 0ba1 01       		.byte	0x1
 3440 0ba2 3C       		.byte	0x3c
 3441 0ba3 730B0000 		.4byte	0xb73
 3442 0ba7 14       		.uleb128 0x14
 3443 0ba8 FF210000 		.4byte	.LASF476
 3444 0bac 01       		.byte	0x1
 3445 0bad 01       		.byte	0x1
 3446 0bae 3E       		.byte	0x3e
 3447 0baf CC0B0000 		.4byte	0xbcc
 3448 0bb3 0A       		.uleb128 0xa
 3449 0bb4 47150000 		.4byte	.LASF382
 3450 0bb8 00       		.sleb128 0
 3451 0bb9 0A       		.uleb128 0xa
 3452 0bba 0C0D0000 		.4byte	.LASF383
 3453 0bbe 01       		.sleb128 1
 3454 0bbf 0A       		.uleb128 0xa
 3455 0bc0 91170000 		.4byte	.LASF384
 3456 0bc4 02       		.sleb128 2
 3457 0bc5 0A       		.uleb128 0xa
 3458 0bc6 B5140000 		.4byte	.LASF385
 3459 0bca 03       		.sleb128 3
 3460 0bcb 00       		.byte	0
 3461 0bcc 15       		.uleb128 0x15
 3462 0bcd 70696E00 		.ascii	"pin\000"
 3463 0bd1 08       		.byte	0x8
 3464 0bd2 01       		.byte	0x1
 3465 0bd3 46       		.byte	0x46
 3466 0bd4 F00B0000 		.4byte	0xbf0
 3467 0bd8 16       		.uleb128 0x16
 3468 0bd9 696400   		.ascii	"id\000"
 3469 0bdc 01       		.byte	0x1
 3470 0bdd 48       		.byte	0x48
 3471 0bde 64000000 		.4byte	0x64
 3472 0be2 00       		.byte	0
 3473 0be3 0D       		.uleb128 0xd
 3474 0be4 B60C0000 		.4byte	.LASF386
 3475 0be8 01       		.byte	0x1
 3476 0be9 49       		.byte	0x49
 3477 0bea FB0B0000 		.4byte	0xbfb
 3478 0bee 04       		.byte	0x4
 3479 0bef 00       		.byte	0
 3480 0bf0 12       		.uleb128 0x12
 3481 0bf1 FB0B0000 		.4byte	0xbfb
 3482 0bf5 13       		.uleb128 0x13
 3483 0bf6 72000000 		.4byte	0x72
 3484 0bfa 00       		.byte	0
 3485 0bfb 06       		.uleb128 0x6
 3486 0bfc 04       		.byte	0x4
 3487 0bfd F00B0000 		.4byte	0xbf0
 3488 0c01 17       		.uleb128 0x17
ARM GAS  C:\Users\mlgjmoor\AppData\Local\Temp\ccwL0k1p.s 			page 85


 3489 0c02 70696E00 		.ascii	"pin\000"
 3490 0c06 01       		.byte	0x1
 3491 0c07 4A       		.byte	0x4a
 3492 0c08 CC0B0000 		.4byte	0xbcc
 3493 0c0c 18       		.uleb128 0x18
 3494 0c0d 481D0000 		.4byte	.LASF397
 3495 0c11 01       		.byte	0x1
 3496 0c12 3D02     		.2byte	0x23d
 3497 0c14 00000000 		.4byte	.LFB52
 3498 0c18 2C000000 		.4byte	.LFE52-.LFB52
 3499 0c1c 01       		.uleb128 0x1
 3500 0c1d 9C       		.byte	0x9c
 3501 0c1e 570C0000 		.4byte	0xc57
 3502 0c22 19       		.uleb128 0x19
 3503 0c23 FD2E0000 		.4byte	.LASF387
 3504 0c27 01       		.byte	0x1
 3505 0c28 3F02     		.2byte	0x23f
 3506 0c2a 64000000 		.4byte	0x64
 3507 0c2e 05       		.uleb128 0x5
 3508 0c2f 03       		.byte	0x3
 3509 0c30 00000000 		.4byte	count64.8582
 3510 0c34 1A       		.uleb128 0x1a
 3511 0c35 1E000000 		.4byte	.LVL0
 3512 0c39 E01A0000 		.4byte	0x1ae0
 3513 0c3d 470C0000 		.4byte	0xc47
 3514 0c41 1B       		.uleb128 0x1b
 3515 0c42 01       		.uleb128 0x1
 3516 0c43 50       		.byte	0x50
 3517 0c44 01       		.uleb128 0x1
 3518 0c45 32       		.byte	0x32
 3519 0c46 00       		.byte	0
 3520 0c47 1C       		.uleb128 0x1c
 3521 0c48 24000000 		.4byte	.LVL1
 3522 0c4c E01A0000 		.4byte	0x1ae0
 3523 0c50 1B       		.uleb128 0x1b
 3524 0c51 01       		.uleb128 0x1
 3525 0c52 50       		.byte	0x50
 3526 0c53 01       		.uleb128 0x1
 3527 0c54 31       		.byte	0x31
 3528 0c55 00       		.byte	0
 3529 0c56 00       		.byte	0
 3530 0c57 1D       		.uleb128 0x1d
 3531 0c58 CF130000 		.4byte	.LASF394
 3532 0c5c 01       		.byte	0x1
 3533 0c5d 5A       		.byte	0x5a
 3534 0c5e 25000000 		.4byte	0x25
 3535 0c62 00000000 		.4byte	.LFB37
 3536 0c66 A0000000 		.4byte	.LFE37-.LFB37
 3537 0c6a 01       		.uleb128 0x1
 3538 0c6b 9C       		.byte	0x9c
 3539 0c6c 130D0000 		.4byte	0xd13
 3540 0c70 1E       		.uleb128 0x1e
 3541 0c71 73747200 		.ascii	"str\000"
 3542 0c75 01       		.byte	0x1
 3543 0c76 5A       		.byte	0x5a
 3544 0c77 E9000000 		.4byte	0xe9
 3545 0c7b 00000000 		.4byte	.LLST0
ARM GAS  C:\Users\mlgjmoor\AppData\Local\Temp\ccwL0k1p.s 			page 86


 3546 0c7f 1F       		.uleb128 0x1f
 3547 0c80 992F0000 		.4byte	.LASF388
 3548 0c84 01       		.byte	0x1
 3549 0c85 5C       		.byte	0x5c
 3550 0c86 64000000 		.4byte	0x64
 3551 0c8a 21000000 		.4byte	.LLST1
 3552 0c8e 20       		.uleb128 0x20
 3553 0c8f 64656300 		.ascii	"dec\000"
 3554 0c93 01       		.byte	0x1
 3555 0c94 5D       		.byte	0x5d
 3556 0c95 64000000 		.4byte	0x64
 3557 0c99 4B000000 		.4byte	.LLST2
 3558 0c9d 1F       		.uleb128 0x1f
 3559 0c9e BF000000 		.4byte	.LASF389
 3560 0ca2 01       		.byte	0x1
 3561 0ca3 5E       		.byte	0x5e
 3562 0ca4 64000000 		.4byte	0x64
 3563 0ca8 80000000 		.4byte	.LLST3
 3564 0cac 1F       		.uleb128 0x1f
 3565 0cad B5070000 		.4byte	.LASF390
 3566 0cb1 01       		.byte	0x1
 3567 0cb2 5F       		.byte	0x5f
 3568 0cb3 25000000 		.4byte	0x25
 3569 0cb7 9F000000 		.4byte	.LLST4
 3570 0cbb 1F       		.uleb128 0x1f
 3571 0cbc BA090000 		.4byte	.LASF391
 3572 0cc0 01       		.byte	0x1
 3573 0cc1 60       		.byte	0x60
 3574 0cc2 E9000000 		.4byte	0xe9
 3575 0cc6 04010000 		.4byte	.LLST5
 3576 0cca 1F       		.uleb128 0x1f
 3577 0ccb FF170000 		.4byte	.LASF392
 3578 0ccf 01       		.byte	0x1
 3579 0cd0 61       		.byte	0x61
 3580 0cd1 C1000000 		.4byte	0xc1
 3581 0cd5 22010000 		.4byte	.LLST6
 3582 0cd9 1F       		.uleb128 0x1f
 3583 0cda 39170000 		.4byte	.LASF393
 3584 0cde 01       		.byte	0x1
 3585 0cdf 62       		.byte	0x62
 3586 0ce0 610B0000 		.4byte	0xb61
 3587 0ce4 61010000 		.4byte	.LLST7
 3588 0ce8 1A       		.uleb128 0x1a
 3589 0ce9 52000000 		.4byte	.LVL16
 3590 0ced F21A0000 		.4byte	0x1af2
 3591 0cf1 FF0C0000 		.4byte	0xcff
 3592 0cf5 1B       		.uleb128 0x1b
 3593 0cf6 01       		.uleb128 0x1
 3594 0cf7 50       		.byte	0x50
 3595 0cf8 05       		.uleb128 0x5
 3596 0cf9 03       		.byte	0x3
 3597 0cfa 00000000 		.4byte	.LC1
 3598 0cfe 00       		.byte	0
 3599 0cff 1C       		.uleb128 0x1c
 3600 0d00 8C000000 		.4byte	.LVL32
 3601 0d04 F21A0000 		.4byte	0x1af2
 3602 0d08 1B       		.uleb128 0x1b
ARM GAS  C:\Users\mlgjmoor\AppData\Local\Temp\ccwL0k1p.s 			page 87


 3603 0d09 01       		.uleb128 0x1
 3604 0d0a 50       		.byte	0x50
 3605 0d0b 05       		.uleb128 0x5
 3606 0d0c 03       		.byte	0x3
 3607 0d0d 20000000 		.4byte	.LC3
 3608 0d11 00       		.byte	0
 3609 0d12 00       		.byte	0
 3610 0d13 21       		.uleb128 0x21
 3611 0d14 7A300000 		.4byte	.LASF395
 3612 0d18 01       		.byte	0x1
 3613 0d19 8F       		.byte	0x8f
 3614 0d1a 64000000 		.4byte	0x64
 3615 0d1e 00000000 		.4byte	.LFB38
 3616 0d22 22000000 		.4byte	.LFE38-.LFB38
 3617 0d26 01       		.uleb128 0x1
 3618 0d27 9C       		.byte	0x9c
 3619 0d28 770D0000 		.4byte	0xd77
 3620 0d2c 1E       		.uleb128 0x1e
 3621 0d2d 6200     		.ascii	"b\000"
 3622 0d2f 01       		.byte	0x1
 3623 0d30 8F       		.byte	0x8f
 3624 0d31 64000000 		.4byte	0x64
 3625 0d35 80010000 		.4byte	.LLST8
 3626 0d39 1E       		.uleb128 0x1e
 3627 0d3a 7000     		.ascii	"p\000"
 3628 0d3c 01       		.byte	0x1
 3629 0d3d 8F       		.byte	0x8f
 3630 0d3e 64000000 		.4byte	0x64
 3631 0d42 C5010000 		.4byte	.LLST9
 3632 0d46 22       		.uleb128 0x22
 3633 0d47 7200     		.ascii	"r\000"
 3634 0d49 01       		.byte	0x1
 3635 0d4a 91       		.byte	0x91
 3636 0d4b 64000000 		.4byte	0x64
 3637 0d4f 1F       		.uleb128 0x1f
 3638 0d50 6E0E0000 		.4byte	.LASF396
 3639 0d54 01       		.byte	0x1
 3640 0d55 92       		.byte	0x92
 3641 0d56 64000000 		.4byte	0x64
 3642 0d5a FC010000 		.4byte	.LLST10
 3643 0d5e 1C       		.uleb128 0x1c
 3644 0d5f 10000000 		.4byte	.LVL39
 3645 0d63 130D0000 		.4byte	0xd13
 3646 0d67 1B       		.uleb128 0x1b
 3647 0d68 01       		.uleb128 0x1
 3648 0d69 51       		.byte	0x51
 3649 0d6a 04       		.uleb128 0x4
 3650 0d6b 74       		.byte	0x74
 3651 0d6c 00       		.sleb128 0
 3652 0d6d 31       		.byte	0x31
 3653 0d6e 26       		.byte	0x26
 3654 0d6f 1B       		.uleb128 0x1b
 3655 0d70 01       		.uleb128 0x1
 3656 0d71 50       		.byte	0x50
 3657 0d72 02       		.uleb128 0x2
 3658 0d73 75       		.byte	0x75
 3659 0d74 00       		.sleb128 0
ARM GAS  C:\Users\mlgjmoor\AppData\Local\Temp\ccwL0k1p.s 			page 88


 3660 0d75 00       		.byte	0
 3661 0d76 00       		.byte	0
 3662 0d77 23       		.uleb128 0x23
 3663 0d78 BC070000 		.4byte	.LASF398
 3664 0d7c 01       		.byte	0x1
 3665 0d7d A8       		.byte	0xa8
 3666 0d7e 00000000 		.4byte	.LFB39
 3667 0d82 3C010000 		.4byte	.LFE39-.LFB39
 3668 0d86 01       		.uleb128 0x1
 3669 0d87 9C       		.byte	0x9c
 3670 0d88 A90D0000 		.4byte	0xda9
 3671 0d8c 1E       		.uleb128 0x1e
 3672 0d8d 6E00     		.ascii	"n\000"
 3673 0d8f 01       		.byte	0x1
 3674 0d90 A8       		.byte	0xa8
 3675 0d91 7E000000 		.4byte	0x7e
 3676 0d95 1A020000 		.4byte	.LLST11
 3677 0d99 1E       		.uleb128 0x1e
 3678 0d9a 73747200 		.ascii	"str\000"
 3679 0d9e 01       		.byte	0x1
 3680 0d9f A8       		.byte	0xa8
 3681 0da0 E9000000 		.4byte	0xe9
 3682 0da4 9F020000 		.4byte	.LLST12
 3683 0da8 00       		.byte	0
 3684 0da9 18       		.uleb128 0x18
 3685 0daa 35050000 		.4byte	.LASF399
 3686 0dae 01       		.byte	0x1
 3687 0daf 0702     		.2byte	0x207
 3688 0db1 00000000 		.4byte	.LFB51
 3689 0db5 BC000000 		.4byte	.LFE51-.LFB51
 3690 0db9 01       		.uleb128 0x1
 3691 0dba 9C       		.byte	0x9c
 3692 0dbb 420F0000 		.4byte	0xf42
 3693 0dbf 24       		.uleb128 0x24
 3694 0dc0 7E150000 		.4byte	.LASF400
 3695 0dc4 01       		.byte	0x1
 3696 0dc5 0702     		.2byte	0x207
 3697 0dc7 420F0000 		.4byte	0xf42
 3698 0dcb 0D030000 		.4byte	.LLST13
 3699 0dcf 24       		.uleb128 0x24
 3700 0dd0 450E0000 		.4byte	.LASF401
 3701 0dd4 01       		.byte	0x1
 3702 0dd5 0702     		.2byte	0x207
 3703 0dd7 550B0000 		.4byte	0xb55
 3704 0ddb 5D030000 		.4byte	.LLST14
 3705 0ddf 25       		.uleb128 0x25
 3706 0de0 B2190000 		.4byte	.LASF402
 3707 0de4 01       		.byte	0x1
 3708 0de5 0902     		.2byte	0x209
 3709 0de7 8A000000 		.4byte	0x8a
 3710 0deb AD030000 		.4byte	.LLST15
 3711 0def 19       		.uleb128 0x19
 3712 0df0 370E0000 		.4byte	.LASF403
 3713 0df4 01       		.byte	0x1
 3714 0df5 0B02     		.2byte	0x20b
 3715 0df7 64000000 		.4byte	0x64
 3716 0dfb 05       		.uleb128 0x5
ARM GAS  C:\Users\mlgjmoor\AppData\Local\Temp\ccwL0k1p.s 			page 89


 3717 0dfc 03       		.byte	0x3
 3718 0dfd 10000000 		.4byte	cal_point_ind.8576
 3719 0e01 19       		.uleb128 0x19
 3720 0e02 43230000 		.4byte	.LASF404
 3721 0e06 01       		.byte	0x1
 3722 0e07 0E02     		.2byte	0x20e
 3723 0e09 480F0000 		.4byte	0xf48
 3724 0e0d 02       		.uleb128 0x2
 3725 0e0e 91       		.byte	0x91
 3726 0e0f 60       		.sleb128 -32
 3727 0e10 26       		.uleb128 0x26
 3728 0e11 1C000000 		.4byte	.LBB2
 3729 0e15 6C000000 		.4byte	.LBE2-.LBB2
 3730 0e19 1A0F0000 		.4byte	0xf1a
 3731 0e1d 27       		.uleb128 0x27
 3732 0e1e 6D00     		.ascii	"m\000"
 3733 0e20 01       		.byte	0x1
 3734 0e21 1702     		.2byte	0x217
 3735 0e23 580F0000 		.4byte	0xf58
 3736 0e27 C6030000 		.4byte	.LLST16
 3737 0e2b 1A       		.uleb128 0x1a
 3738 0e2c 22000000 		.4byte	.LVL85
 3739 0e30 F21A0000 		.4byte	0x1af2
 3740 0e34 420E0000 		.4byte	0xe42
 3741 0e38 1B       		.uleb128 0x1b
 3742 0e39 01       		.uleb128 0x1
 3743 0e3a 50       		.byte	0x50
 3744 0e3b 05       		.uleb128 0x5
 3745 0e3c 03       		.byte	0x3
 3746 0e3d 44000000 		.4byte	.LC6
 3747 0e41 00       		.byte	0
 3748 0e42 1A       		.uleb128 0x1a
 3749 0e43 28000000 		.4byte	.LVL86
 3750 0e47 0F1B0000 		.4byte	0x1b0f
 3751 0e4b 560E0000 		.4byte	0xe56
 3752 0e4f 1B       		.uleb128 0x1b
 3753 0e50 01       		.uleb128 0x1
 3754 0e51 50       		.byte	0x50
 3755 0e52 02       		.uleb128 0x2
 3756 0e53 74       		.byte	0x74
 3757 0e54 00       		.sleb128 0
 3758 0e55 00       		.byte	0
 3759 0e56 1A       		.uleb128 0x1a
 3760 0e57 34000000 		.4byte	.LVL88
 3761 0e5b F21A0000 		.4byte	0x1af2
 3762 0e5f 6D0E0000 		.4byte	0xe6d
 3763 0e63 1B       		.uleb128 0x1b
 3764 0e64 01       		.uleb128 0x1
 3765 0e65 50       		.byte	0x50
 3766 0e66 05       		.uleb128 0x5
 3767 0e67 03       		.byte	0x3
 3768 0e68 60000000 		.4byte	.LC8
 3769 0e6c 00       		.byte	0
 3770 0e6d 1A       		.uleb128 0x1a
 3771 0e6e 3A000000 		.4byte	.LVL89
 3772 0e72 241B0000 		.4byte	0x1b24
 3773 0e76 810E0000 		.4byte	0xe81
ARM GAS  C:\Users\mlgjmoor\AppData\Local\Temp\ccwL0k1p.s 			page 90


 3774 0e7a 1B       		.uleb128 0x1b
 3775 0e7b 01       		.uleb128 0x1
 3776 0e7c 50       		.byte	0x50
 3777 0e7d 02       		.uleb128 0x2
 3778 0e7e 74       		.byte	0x74
 3779 0e7f 00       		.sleb128 0
 3780 0e80 00       		.byte	0
 3781 0e81 1A       		.uleb128 0x1a
 3782 0e82 42000000 		.4byte	.LVL92
 3783 0e86 F21A0000 		.4byte	0x1af2
 3784 0e8a 980E0000 		.4byte	0xe98
 3785 0e8e 1B       		.uleb128 0x1b
 3786 0e8f 01       		.uleb128 0x1
 3787 0e90 50       		.byte	0x50
 3788 0e91 05       		.uleb128 0x5
 3789 0e92 03       		.byte	0x3
 3790 0e93 7C000000 		.4byte	.LC10
 3791 0e97 00       		.byte	0
 3792 0e98 28       		.uleb128 0x28
 3793 0e99 48000000 		.4byte	.LVL93
 3794 0e9d F21A0000 		.4byte	0x1af2
 3795 0ea1 1A       		.uleb128 0x1a
 3796 0ea2 4E000000 		.4byte	.LVL94
 3797 0ea6 F21A0000 		.4byte	0x1af2
 3798 0eaa B80E0000 		.4byte	0xeb8
 3799 0eae 1B       		.uleb128 0x1b
 3800 0eaf 01       		.uleb128 0x1
 3801 0eb0 50       		.byte	0x50
 3802 0eb1 05       		.uleb128 0x5
 3803 0eb2 03       		.byte	0x3
 3804 0eb3 94000000 		.4byte	.LC12
 3805 0eb7 00       		.byte	0
 3806 0eb8 28       		.uleb128 0x28
 3807 0eb9 58000000 		.4byte	.LVL96
 3808 0ebd 570C0000 		.4byte	0xc57
 3809 0ec1 1A       		.uleb128 0x1a
 3810 0ec2 6E000000 		.4byte	.LVL97
 3811 0ec6 770D0000 		.4byte	0xd77
 3812 0eca DB0E0000 		.4byte	0xedb
 3813 0ece 1B       		.uleb128 0x1b
 3814 0ecf 01       		.uleb128 0x1
 3815 0ed0 51       		.byte	0x51
 3816 0ed1 02       		.uleb128 0x2
 3817 0ed2 7D       		.byte	0x7d
 3818 0ed3 00       		.sleb128 0
 3819 0ed4 1B       		.uleb128 0x1b
 3820 0ed5 01       		.uleb128 0x1
 3821 0ed6 50       		.byte	0x50
 3822 0ed7 02       		.uleb128 0x2
 3823 0ed8 76       		.byte	0x76
 3824 0ed9 00       		.sleb128 0
 3825 0eda 00       		.byte	0
 3826 0edb 1A       		.uleb128 0x1a
 3827 0edc 74000000 		.4byte	.LVL98
 3828 0ee0 F21A0000 		.4byte	0x1af2
 3829 0ee4 F20E0000 		.4byte	0xef2
 3830 0ee8 1B       		.uleb128 0x1b
ARM GAS  C:\Users\mlgjmoor\AppData\Local\Temp\ccwL0k1p.s 			page 91


 3831 0ee9 01       		.uleb128 0x1
 3832 0eea 50       		.byte	0x50
 3833 0eeb 05       		.uleb128 0x5
 3834 0eec 03       		.byte	0x3
 3835 0eed 98000000 		.4byte	.LC14
 3836 0ef1 00       		.byte	0
 3837 0ef2 1A       		.uleb128 0x1a
 3838 0ef3 7A000000 		.4byte	.LVL99
 3839 0ef7 F21A0000 		.4byte	0x1af2
 3840 0efb 060F0000 		.4byte	0xf06
 3841 0eff 1B       		.uleb128 0x1b
 3842 0f00 01       		.uleb128 0x1
 3843 0f01 50       		.byte	0x50
 3844 0f02 02       		.uleb128 0x2
 3845 0f03 7D       		.byte	0x7d
 3846 0f04 00       		.sleb128 0
 3847 0f05 00       		.byte	0
 3848 0f06 1C       		.uleb128 0x1c
 3849 0f07 80000000 		.4byte	.LVL100
 3850 0f0b F21A0000 		.4byte	0x1af2
 3851 0f0f 1B       		.uleb128 0x1b
 3852 0f10 01       		.uleb128 0x1
 3853 0f11 50       		.byte	0x50
 3854 0f12 05       		.uleb128 0x5
 3855 0f13 03       		.byte	0x3
 3856 0f14 94000000 		.4byte	.LC12
 3857 0f18 00       		.byte	0
 3858 0f19 00       		.byte	0
 3859 0f1a 1A       		.uleb128 0x1a
 3860 0f1b 18000000 		.4byte	.LVL84
 3861 0f1f 391B0000 		.4byte	0x1b39
 3862 0f23 2E0F0000 		.4byte	0xf2e
 3863 0f27 1B       		.uleb128 0x1b
 3864 0f28 01       		.uleb128 0x1
 3865 0f29 50       		.byte	0x50
 3866 0f2a 02       		.uleb128 0x2
 3867 0f2b 74       		.byte	0x74
 3868 0f2c 00       		.sleb128 0
 3869 0f2d 00       		.byte	0
 3870 0f2e 1C       		.uleb128 0x1c
 3871 0f2f 8E000000 		.4byte	.LVL103
 3872 0f33 F21A0000 		.4byte	0x1af2
 3873 0f37 1B       		.uleb128 0x1b
 3874 0f38 01       		.uleb128 0x1
 3875 0f39 50       		.byte	0x50
 3876 0f3a 05       		.uleb128 0x5
 3877 0f3b 03       		.byte	0x3
 3878 0f3c B0000000 		.4byte	.LC16
 3879 0f40 00       		.byte	0
 3880 0f41 00       		.byte	0
 3881 0f42 06       		.uleb128 0x6
 3882 0f43 04       		.byte	0x4
 3883 0f44 680B0000 		.4byte	0xb68
 3884 0f48 10       		.uleb128 0x10
 3885 0f49 C1000000 		.4byte	0xc1
 3886 0f4d 580F0000 		.4byte	0xf58
 3887 0f51 11       		.uleb128 0x11
ARM GAS  C:\Users\mlgjmoor\AppData\Local\Temp\ccwL0k1p.s 			page 92


 3888 0f52 E0000000 		.4byte	0xe0
 3889 0f56 05       		.byte	0x5
 3890 0f57 00       		.byte	0
 3891 0f58 06       		.uleb128 0x6
 3892 0f59 04       		.byte	0x4
 3893 0f5a 860A0000 		.4byte	0xa86
 3894 0f5e 23       		.uleb128 0x23
 3895 0f5f EC230000 		.4byte	.LASF405
 3896 0f63 01       		.byte	0x1
 3897 0f64 D1       		.byte	0xd1
 3898 0f65 00000000 		.4byte	.LFB40
 3899 0f69 60000000 		.4byte	.LFE40-.LFB40
 3900 0f6d 01       		.uleb128 0x1
 3901 0f6e 9C       		.byte	0x9c
 3902 0f6f 25100000 		.4byte	0x1025
 3903 0f73 1E       		.uleb128 0x1e
 3904 0f74 6600     		.ascii	"f\000"
 3905 0f76 01       		.byte	0x1
 3906 0f77 D1       		.byte	0xd1
 3907 0f78 25000000 		.4byte	0x25
 3908 0f7c EF030000 		.4byte	.LLST17
 3909 0f80 1E       		.uleb128 0x1e
 3910 0f81 73747200 		.ascii	"str\000"
 3911 0f85 01       		.byte	0x1
 3912 0f86 D1       		.byte	0xd1
 3913 0f87 E9000000 		.4byte	0xe9
 3914 0f8b 1D040000 		.4byte	.LLST18
 3915 0f8f 1F       		.uleb128 0x1f
 3916 0f90 EB180000 		.4byte	.LASF406
 3917 0f94 01       		.byte	0x1
 3918 0f95 D3       		.byte	0xd3
 3919 0f96 64000000 		.4byte	0x64
 3920 0f9a 49040000 		.4byte	.LLST19
 3921 0f9e 1F       		.uleb128 0x1f
 3922 0f9f 752F0000 		.4byte	.LASF407
 3923 0fa3 01       		.byte	0x1
 3924 0fa4 D4       		.byte	0xd4
 3925 0fa5 64000000 		.4byte	0x64
 3926 0fa9 67040000 		.4byte	.LLST20
 3927 0fad 1F       		.uleb128 0x1f
 3928 0fae 4A110000 		.4byte	.LASF408
 3929 0fb2 01       		.byte	0x1
 3930 0fb3 D5       		.byte	0xd5
 3931 0fb4 25000000 		.4byte	0x25
 3932 0fb8 85040000 		.4byte	.LLST21
 3933 0fbc 20       		.uleb128 0x20
 3934 0fbd 6900     		.ascii	"i\000"
 3935 0fbf 01       		.byte	0x1
 3936 0fc0 D6       		.byte	0xd6
 3937 0fc1 64000000 		.4byte	0x64
 3938 0fc5 A3040000 		.4byte	.LLST22
 3939 0fc9 29       		.uleb128 0x29
 3940 0fca 461F0000 		.4byte	.LASF409
 3941 0fce 01       		.byte	0x1
 3942 0fcf D7       		.byte	0xd7
 3943 0fd0 64000000 		.4byte	0x64
 3944 0fd4 02       		.byte	0x2
ARM GAS  C:\Users\mlgjmoor\AppData\Local\Temp\ccwL0k1p.s 			page 93


 3945 0fd5 20       		.uleb128 0x20
 3946 0fd6 6300     		.ascii	"c\000"
 3947 0fd8 01       		.byte	0x1
 3948 0fd9 D8       		.byte	0xd8
 3949 0fda C1000000 		.4byte	0xc1
 3950 0fde F0040000 		.4byte	.LLST23
 3951 0fe2 1A       		.uleb128 0x1a
 3952 0fe3 22000000 		.4byte	.LVL114
 3953 0fe7 130D0000 		.4byte	0xd13
 3954 0feb FA0F0000 		.4byte	0xffa
 3955 0fef 1B       		.uleb128 0x1b
 3956 0ff0 01       		.uleb128 0x1
 3957 0ff1 51       		.byte	0x51
 3958 0ff2 01       		.uleb128 0x1
 3959 0ff3 32       		.byte	0x32
 3960 0ff4 1B       		.uleb128 0x1b
 3961 0ff5 01       		.uleb128 0x1
 3962 0ff6 50       		.byte	0x50
 3963 0ff7 01       		.uleb128 0x1
 3964 0ff8 3A       		.byte	0x3a
 3965 0ff9 00       		.byte	0
 3966 0ffa 1A       		.uleb128 0x1a
 3967 0ffb 3A000000 		.4byte	.LVL120
 3968 0fff 770D0000 		.4byte	0xd77
 3969 1003 14100000 		.4byte	0x1014
 3970 1007 1B       		.uleb128 0x1b
 3971 1008 01       		.uleb128 0x1
 3972 1009 51       		.byte	0x51
 3973 100a 02       		.uleb128 0x2
 3974 100b 76       		.byte	0x76
 3975 100c 00       		.sleb128 0
 3976 100d 1B       		.uleb128 0x1b
 3977 100e 01       		.uleb128 0x1
 3978 100f 50       		.byte	0x50
 3979 1010 02       		.uleb128 0x2
 3980 1011 74       		.byte	0x74
 3981 1012 00       		.sleb128 0
 3982 1013 00       		.byte	0
 3983 1014 1C       		.uleb128 0x1c
 3984 1015 56000000 		.4byte	.LVL126
 3985 1019 770D0000 		.4byte	0xd77
 3986 101d 1B       		.uleb128 0x1b
 3987 101e 01       		.uleb128 0x1
 3988 101f 50       		.byte	0x50
 3989 1020 02       		.uleb128 0x2
 3990 1021 75       		.byte	0x75
 3991 1022 00       		.sleb128 0
 3992 1023 00       		.byte	0
 3993 1024 00       		.byte	0
 3994 1025 1D       		.uleb128 0x1d
 3995 1026 AC160000 		.4byte	.LASF410
 3996 102a 01       		.byte	0x1
 3997 102b EC       		.byte	0xec
 3998 102c 25000000 		.4byte	0x25
 3999 1030 00000000 		.4byte	.LFB41
 4000 1034 FC000000 		.4byte	.LFE41-.LFB41
 4001 1038 01       		.uleb128 0x1
ARM GAS  C:\Users\mlgjmoor\AppData\Local\Temp\ccwL0k1p.s 			page 94


 4002 1039 9C       		.byte	0x9c
 4003 103a 2B110000 		.4byte	0x112b
 4004 103e 2A       		.uleb128 0x2a
 4005 103f 69250000 		.4byte	.LASF411
 4006 1043 01       		.byte	0x1
 4007 1044 EC       		.byte	0xec
 4008 1045 7E000000 		.4byte	0x7e
 4009 1049 03050000 		.4byte	.LLST24
 4010 104d 1F       		.uleb128 0x1f
 4011 104e B5070000 		.4byte	.LASF390
 4012 1052 01       		.byte	0x1
 4013 1053 F0       		.byte	0xf0
 4014 1054 25000000 		.4byte	0x25
 4015 1058 6F050000 		.4byte	.LLST25
 4016 105c 1F       		.uleb128 0x1f
 4017 105d 8F2C0000 		.4byte	.LASF412
 4018 1061 01       		.byte	0x1
 4019 1062 F1       		.byte	0xf1
 4020 1063 610B0000 		.4byte	0xb61
 4021 1067 E3050000 		.4byte	.LLST26
 4022 106b 1F       		.uleb128 0x1f
 4023 106c 740E0000 		.4byte	.LASF413
 4024 1070 01       		.byte	0x1
 4025 1071 F2       		.byte	0xf2
 4026 1072 610B0000 		.4byte	0xb61
 4027 1076 23060000 		.4byte	.LLST27
 4028 107a 1F       		.uleb128 0x1f
 4029 107b 211C0000 		.4byte	.LASF414
 4030 107f 01       		.byte	0x1
 4031 1080 F3       		.byte	0xf3
 4032 1081 610B0000 		.4byte	0xb61
 4033 1085 58060000 		.4byte	.LLST28
 4034 1089 20       		.uleb128 0x20
 4035 108a 6900     		.ascii	"i\000"
 4036 108c 01       		.byte	0x1
 4037 108d FB       		.byte	0xfb
 4038 108e 64000000 		.4byte	0x64
 4039 1092 A4060000 		.4byte	.LLST29
 4040 1096 26       		.uleb128 0x26
 4041 1097 58000000 		.4byte	.LBB3
 4042 109b 3E000000 		.4byte	.LBE3-.LBB3
 4043 109f E2100000 		.4byte	0x10e2
 4044 10a3 27       		.uleb128 0x27
 4045 10a4 783100   		.ascii	"x1\000"
 4046 10a7 01       		.byte	0x1
 4047 10a8 1801     		.2byte	0x118
 4048 10aa 64000000 		.4byte	0x64
 4049 10ae FB060000 		.4byte	.LLST30
 4050 10b2 27       		.uleb128 0x27
 4051 10b3 783200   		.ascii	"x2\000"
 4052 10b6 01       		.byte	0x1
 4053 10b7 1801     		.2byte	0x118
 4054 10b9 64000000 		.4byte	0x64
 4055 10bd 0E070000 		.4byte	.LLST31
 4056 10c1 27       		.uleb128 0x27
 4057 10c2 66783100 		.ascii	"fx1\000"
 4058 10c6 01       		.byte	0x1
ARM GAS  C:\Users\mlgjmoor\AppData\Local\Temp\ccwL0k1p.s 			page 95


 4059 10c7 1901     		.2byte	0x119
 4060 10c9 25000000 		.4byte	0x25
 4061 10cd 21070000 		.4byte	.LLST32
 4062 10d1 27       		.uleb128 0x27
 4063 10d2 66783200 		.ascii	"fx2\000"
 4064 10d6 01       		.byte	0x1
 4065 10d7 1901     		.2byte	0x119
 4066 10d9 25000000 		.4byte	0x25
 4067 10dd 34070000 		.4byte	.LLST33
 4068 10e1 00       		.byte	0
 4069 10e2 2B       		.uleb128 0x2b
 4070 10e3 A6000000 		.4byte	.LBB4
 4071 10e7 4A000000 		.4byte	.LBE4-.LBB4
 4072 10eb 27       		.uleb128 0x27
 4073 10ec 783100   		.ascii	"x1\000"
 4074 10ef 01       		.byte	0x1
 4075 10f0 2B01     		.2byte	0x12b
 4076 10f2 64000000 		.4byte	0x64
 4077 10f6 52070000 		.4byte	.LLST34
 4078 10fa 27       		.uleb128 0x27
 4079 10fb 783200   		.ascii	"x2\000"
 4080 10fe 01       		.byte	0x1
 4081 10ff 2B01     		.2byte	0x12b
 4082 1101 64000000 		.4byte	0x64
 4083 1105 65070000 		.4byte	.LLST35
 4084 1109 27       		.uleb128 0x27
 4085 110a 66783100 		.ascii	"fx1\000"
 4086 110e 01       		.byte	0x1
 4087 110f 2C01     		.2byte	0x12c
 4088 1111 25000000 		.4byte	0x25
 4089 1115 78070000 		.4byte	.LLST36
 4090 1119 27       		.uleb128 0x27
 4091 111a 66783200 		.ascii	"fx2\000"
 4092 111e 01       		.byte	0x1
 4093 111f 2C01     		.2byte	0x12c
 4094 1121 25000000 		.4byte	0x25
 4095 1125 8B070000 		.4byte	.LLST37
 4096 1129 00       		.byte	0
 4097 112a 00       		.byte	0
 4098 112b 18       		.uleb128 0x18
 4099 112c D8010000 		.4byte	.LASF415
 4100 1130 01       		.byte	0x1
 4101 1131 6C01     		.2byte	0x16c
 4102 1133 00000000 		.4byte	.LFB45
 4103 1137 C8000000 		.4byte	.LFE45-.LFB45
 4104 113b 01       		.uleb128 0x1
 4105 113c 9C       		.byte	0x9c
 4106 113d 6F130000 		.4byte	0x136f
 4107 1141 24       		.uleb128 0x24
 4108 1142 7E150000 		.4byte	.LASF400
 4109 1146 01       		.byte	0x1
 4110 1147 6C01     		.2byte	0x16c
 4111 1149 420F0000 		.4byte	0xf42
 4112 114d A9070000 		.4byte	.LLST38
 4113 1151 24       		.uleb128 0x24
 4114 1152 450E0000 		.4byte	.LASF401
 4115 1156 01       		.byte	0x1
ARM GAS  C:\Users\mlgjmoor\AppData\Local\Temp\ccwL0k1p.s 			page 96


 4116 1157 6C01     		.2byte	0x16c
 4117 1159 550B0000 		.4byte	0xb55
 4118 115d E3070000 		.4byte	.LLST39
 4119 1161 19       		.uleb128 0x19
 4120 1162 43230000 		.4byte	.LASF404
 4121 1166 01       		.byte	0x1
 4122 1167 6E01     		.2byte	0x16e
 4123 1169 480F0000 		.4byte	0xf48
 4124 116d 02       		.uleb128 0x2
 4125 116e 91       		.byte	0x91
 4126 116f 68       		.sleb128 -24
 4127 1170 19       		.uleb128 0x19
 4128 1171 9B250000 		.4byte	.LASF416
 4129 1175 01       		.byte	0x1
 4130 1176 6F01     		.2byte	0x16f
 4131 1178 480F0000 		.4byte	0xf48
 4132 117c 02       		.uleb128 0x2
 4133 117d 91       		.byte	0x91
 4134 117e 60       		.sleb128 -32
 4135 117f 19       		.uleb128 0x19
 4136 1180 1A090000 		.4byte	.LASF417
 4137 1184 01       		.byte	0x1
 4138 1185 7001     		.2byte	0x170
 4139 1187 6F130000 		.4byte	0x136f
 4140 118b 03       		.uleb128 0x3
 4141 118c 91       		.byte	0x91
 4142 118d A07F     		.sleb128 -96
 4143 118f 2C       		.uleb128 0x2c
 4144 1190 1A1A0000 		.4byte	.LASF418
 4145 1194 01       		.byte	0x1
 4146 1195 7101     		.2byte	0x171
 4147 1197 72000000 		.4byte	0x72
 4148 119b 25       		.uleb128 0x25
 4149 119c B2190000 		.4byte	.LASF402
 4150 11a0 01       		.byte	0x1
 4151 11a1 7301     		.2byte	0x173
 4152 11a3 8A000000 		.4byte	0x8a
 4153 11a7 1D080000 		.4byte	.LLST40
 4154 11ab 26       		.uleb128 0x26
 4155 11ac 18000000 		.4byte	.LBB5
 4156 11b0 36000000 		.4byte	.LBE5-.LBB5
 4157 11b4 7B120000 		.4byte	0x127b
 4158 11b8 25       		.uleb128 0x25
 4159 11b9 2E290000 		.4byte	.LASF374
 4160 11bd 01       		.byte	0x1
 4161 11be 7A01     		.2byte	0x17a
 4162 11c0 25000000 		.4byte	0x25
 4163 11c4 47080000 		.4byte	.LLST41
 4164 11c8 1A       		.uleb128 0x1a
 4165 11c9 1E000000 		.4byte	.LVL181
 4166 11cd 25100000 		.4byte	0x1025
 4167 11d1 DC110000 		.4byte	0x11dc
 4168 11d5 1B       		.uleb128 0x1b
 4169 11d6 01       		.uleb128 0x1
 4170 11d7 50       		.byte	0x50
 4171 11d8 02       		.uleb128 0x2
 4172 11d9 74       		.byte	0x74
ARM GAS  C:\Users\mlgjmoor\AppData\Local\Temp\ccwL0k1p.s 			page 97


 4173 11da 00       		.sleb128 0
 4174 11db 00       		.byte	0
 4175 11dc 1A       		.uleb128 0x1a
 4176 11dd 28000000 		.4byte	.LVL184
 4177 11e1 770D0000 		.4byte	0xd77
 4178 11e5 F6110000 		.4byte	0x11f6
 4179 11e9 1B       		.uleb128 0x1b
 4180 11ea 01       		.uleb128 0x1
 4181 11eb 51       		.byte	0x51
 4182 11ec 02       		.uleb128 0x2
 4183 11ed 91       		.byte	0x91
 4184 11ee 68       		.sleb128 -24
 4185 11ef 1B       		.uleb128 0x1b
 4186 11f0 01       		.uleb128 0x1
 4187 11f1 50       		.byte	0x50
 4188 11f2 02       		.uleb128 0x2
 4189 11f3 74       		.byte	0x74
 4190 11f4 00       		.sleb128 0
 4191 11f5 00       		.byte	0
 4192 11f6 1A       		.uleb128 0x1a
 4193 11f7 2E000000 		.4byte	.LVL185
 4194 11fb F21A0000 		.4byte	0x1af2
 4195 11ff 0D120000 		.4byte	0x120d
 4196 1203 1B       		.uleb128 0x1b
 4197 1204 01       		.uleb128 0x1
 4198 1205 50       		.byte	0x50
 4199 1206 05       		.uleb128 0x5
 4200 1207 03       		.byte	0x3
 4201 1208 D4000000 		.4byte	.LC20
 4202 120c 00       		.byte	0
 4203 120d 1A       		.uleb128 0x1a
 4204 120e 34000000 		.4byte	.LVL186
 4205 1212 F21A0000 		.4byte	0x1af2
 4206 1216 21120000 		.4byte	0x1221
 4207 121a 1B       		.uleb128 0x1b
 4208 121b 01       		.uleb128 0x1
 4209 121c 50       		.byte	0x50
 4210 121d 02       		.uleb128 0x2
 4211 121e 91       		.byte	0x91
 4212 121f 68       		.sleb128 -24
 4213 1220 00       		.byte	0
 4214 1221 1A       		.uleb128 0x1a
 4215 1222 3A000000 		.4byte	.LVL187
 4216 1226 F21A0000 		.4byte	0x1af2
 4217 122a 38120000 		.4byte	0x1238
 4218 122e 1B       		.uleb128 0x1b
 4219 122f 01       		.uleb128 0x1
 4220 1230 50       		.byte	0x50
 4221 1231 05       		.uleb128 0x5
 4222 1232 03       		.byte	0x3
 4223 1233 E0000000 		.4byte	.LC22
 4224 1237 00       		.byte	0
 4225 1238 1A       		.uleb128 0x1a
 4226 1239 42000000 		.4byte	.LVL188
 4227 123d 5E0F0000 		.4byte	0xf5e
 4228 1241 53120000 		.4byte	0x1253
 4229 1245 1B       		.uleb128 0x1b
ARM GAS  C:\Users\mlgjmoor\AppData\Local\Temp\ccwL0k1p.s 			page 98


 4230 1246 01       		.uleb128 0x1
 4231 1247 51       		.byte	0x51
 4232 1248 02       		.uleb128 0x2
 4233 1249 7D       		.byte	0x7d
 4234 124a 00       		.sleb128 0
 4235 124b 1B       		.uleb128 0x1b
 4236 124c 01       		.uleb128 0x1
 4237 124d 50       		.byte	0x50
 4238 124e 03       		.uleb128 0x3
 4239 124f F5       		.byte	0xf5
 4240 1250 05       		.uleb128 0x5
 4241 1251 25       		.uleb128 0x25
 4242 1252 00       		.byte	0
 4243 1253 1A       		.uleb128 0x1a
 4244 1254 48000000 		.4byte	.LVL189
 4245 1258 F21A0000 		.4byte	0x1af2
 4246 125c 67120000 		.4byte	0x1267
 4247 1260 1B       		.uleb128 0x1b
 4248 1261 01       		.uleb128 0x1
 4249 1262 50       		.byte	0x50
 4250 1263 02       		.uleb128 0x2
 4251 1264 7D       		.byte	0x7d
 4252 1265 00       		.sleb128 0
 4253 1266 00       		.byte	0
 4254 1267 1C       		.uleb128 0x1c
 4255 1268 4E000000 		.4byte	.LVL190
 4256 126c F21A0000 		.4byte	0x1af2
 4257 1270 1B       		.uleb128 0x1b
 4258 1271 01       		.uleb128 0x1
 4259 1272 50       		.byte	0x50
 4260 1273 05       		.uleb128 0x5
 4261 1274 03       		.byte	0x3
 4262 1275 94000000 		.4byte	.LC12
 4263 1279 00       		.byte	0
 4264 127a 00       		.byte	0
 4265 127b 2B       		.uleb128 0x2b
 4266 127c 50000000 		.4byte	.LBB6
 4267 1280 54000000 		.4byte	.LBE6-.LBB6
 4268 1284 25       		.uleb128 0x25
 4269 1285 40010000 		.4byte	.LASF419
 4270 1289 01       		.byte	0x1
 4271 128a 8B01     		.2byte	0x18b
 4272 128c 8A000000 		.4byte	0x8a
 4273 1290 75080000 		.4byte	.LLST42
 4274 1294 27       		.uleb128 0x27
 4275 1295 6900     		.ascii	"i\000"
 4276 1297 01       		.byte	0x1
 4277 1298 9001     		.2byte	0x190
 4278 129a 64000000 		.4byte	0x64
 4279 129e 88080000 		.4byte	.LLST43
 4280 12a2 28       		.uleb128 0x28
 4281 12a3 58000000 		.4byte	.LVL193
 4282 12a7 4E1B0000 		.4byte	0x1b4e
 4283 12ab 1A       		.uleb128 0x1a
 4284 12ac 60000000 		.4byte	.LVL195
 4285 12b0 770D0000 		.4byte	0xd77
 4286 12b4 BF120000 		.4byte	0x12bf
ARM GAS  C:\Users\mlgjmoor\AppData\Local\Temp\ccwL0k1p.s 			page 99


 4287 12b8 1B       		.uleb128 0x1b
 4288 12b9 01       		.uleb128 0x1
 4289 12ba 51       		.byte	0x51
 4290 12bb 02       		.uleb128 0x2
 4291 12bc 91       		.byte	0x91
 4292 12bd 60       		.sleb128 -32
 4293 12be 00       		.byte	0
 4294 12bf 1A       		.uleb128 0x1a
 4295 12c0 68000000 		.4byte	.LVL196
 4296 12c4 770D0000 		.4byte	0xd77
 4297 12c8 D9120000 		.4byte	0x12d9
 4298 12cc 1B       		.uleb128 0x1b
 4299 12cd 01       		.uleb128 0x1
 4300 12ce 51       		.byte	0x51
 4301 12cf 02       		.uleb128 0x2
 4302 12d0 91       		.byte	0x91
 4303 12d1 68       		.sleb128 -24
 4304 12d2 1B       		.uleb128 0x1b
 4305 12d3 01       		.uleb128 0x1
 4306 12d4 50       		.byte	0x50
 4307 12d5 02       		.uleb128 0x2
 4308 12d6 74       		.byte	0x74
 4309 12d7 00       		.sleb128 0
 4310 12d8 00       		.byte	0
 4311 12d9 1A       		.uleb128 0x1a
 4312 12da 6E000000 		.4byte	.LVL197
 4313 12de F21A0000 		.4byte	0x1af2
 4314 12e2 F0120000 		.4byte	0x12f0
 4315 12e6 1B       		.uleb128 0x1b
 4316 12e7 01       		.uleb128 0x1
 4317 12e8 50       		.byte	0x50
 4318 12e9 05       		.uleb128 0x5
 4319 12ea 03       		.byte	0x3
 4320 12eb D4000000 		.4byte	.LC20
 4321 12ef 00       		.byte	0
 4322 12f0 1A       		.uleb128 0x1a
 4323 12f1 78000000 		.4byte	.LVL200
 4324 12f5 F21A0000 		.4byte	0x1af2
 4325 12f9 07130000 		.4byte	0x1307
 4326 12fd 1B       		.uleb128 0x1b
 4327 12fe 01       		.uleb128 0x1
 4328 12ff 50       		.byte	0x50
 4329 1300 05       		.uleb128 0x5
 4330 1301 03       		.byte	0x3
 4331 1302 F4000000 		.4byte	.LC25
 4332 1306 00       		.byte	0
 4333 1307 1A       		.uleb128 0x1a
 4334 1308 86000000 		.4byte	.LVL202
 4335 130c 770D0000 		.4byte	0xd77
 4336 1310 1B130000 		.4byte	0x131b
 4337 1314 1B       		.uleb128 0x1b
 4338 1315 01       		.uleb128 0x1
 4339 1316 51       		.byte	0x51
 4340 1317 02       		.uleb128 0x2
 4341 1318 91       		.byte	0x91
 4342 1319 68       		.sleb128 -24
 4343 131a 00       		.byte	0
ARM GAS  C:\Users\mlgjmoor\AppData\Local\Temp\ccwL0k1p.s 			page 100


 4344 131b 1A       		.uleb128 0x1a
 4345 131c 8C000000 		.4byte	.LVL203
 4346 1320 F21A0000 		.4byte	0x1af2
 4347 1324 2F130000 		.4byte	0x132f
 4348 1328 1B       		.uleb128 0x1b
 4349 1329 01       		.uleb128 0x1
 4350 132a 50       		.byte	0x50
 4351 132b 02       		.uleb128 0x2
 4352 132c 91       		.byte	0x91
 4353 132d 68       		.sleb128 -24
 4354 132e 00       		.byte	0
 4355 132f 1A       		.uleb128 0x1a
 4356 1330 98000000 		.4byte	.LVL205
 4357 1334 F21A0000 		.4byte	0x1af2
 4358 1338 46130000 		.4byte	0x1346
 4359 133c 1B       		.uleb128 0x1b
 4360 133d 01       		.uleb128 0x1
 4361 133e 50       		.byte	0x50
 4362 133f 05       		.uleb128 0x5
 4363 1340 03       		.byte	0x3
 4364 1341 F8000000 		.4byte	.LC27
 4365 1345 00       		.byte	0
 4366 1346 1A       		.uleb128 0x1a
 4367 1347 9E000000 		.4byte	.LVL206
 4368 134b F21A0000 		.4byte	0x1af2
 4369 134f 5A130000 		.4byte	0x135a
 4370 1353 1B       		.uleb128 0x1b
 4371 1354 01       		.uleb128 0x1
 4372 1355 50       		.byte	0x50
 4373 1356 02       		.uleb128 0x2
 4374 1357 91       		.byte	0x91
 4375 1358 60       		.sleb128 -32
 4376 1359 00       		.byte	0
 4377 135a 1C       		.uleb128 0x1c
 4378 135b A4000000 		.4byte	.LVL207
 4379 135f F21A0000 		.4byte	0x1af2
 4380 1363 1B       		.uleb128 0x1b
 4381 1364 01       		.uleb128 0x1
 4382 1365 50       		.byte	0x50
 4383 1366 05       		.uleb128 0x5
 4384 1367 03       		.byte	0x3
 4385 1368 94000000 		.4byte	.LC12
 4386 136c 00       		.byte	0
 4387 136d 00       		.byte	0
 4388 136e 00       		.byte	0
 4389 136f 10       		.uleb128 0x10
 4390 1370 C1000000 		.4byte	0xc1
 4391 1374 7F130000 		.4byte	0x137f
 4392 1378 11       		.uleb128 0x11
 4393 1379 E0000000 		.4byte	0xe0
 4394 137d 3F       		.byte	0x3f
 4395 137e 00       		.byte	0
 4396 137f 2D       		.uleb128 0x2d
 4397 1380 87190000 		.4byte	.LASF420
 4398 1384 01       		.byte	0x1
 4399 1385 3A01     		.2byte	0x13a
 4400 1387 7E000000 		.4byte	0x7e
ARM GAS  C:\Users\mlgjmoor\AppData\Local\Temp\ccwL0k1p.s 			page 101


 4401 138b 00000000 		.4byte	.LFB42
 4402 138f 50000000 		.4byte	.LFE42-.LFB42
 4403 1393 01       		.uleb128 0x1
 4404 1394 9C       		.byte	0x9c
 4405 1395 34140000 		.4byte	0x1434
 4406 1399 24       		.uleb128 0x24
 4407 139a D9130000 		.4byte	.LASF421
 4408 139e 01       		.byte	0x1
 4409 139f 3A01     		.2byte	0x13a
 4410 13a1 34140000 		.4byte	0x1434
 4411 13a5 A7080000 		.4byte	.LLST44
 4412 13a9 25       		.uleb128 0x25
 4413 13aa B5070000 		.4byte	.LASF390
 4414 13ae 01       		.byte	0x1
 4415 13af 3C01     		.2byte	0x13c
 4416 13b1 7E000000 		.4byte	0x7e
 4417 13b5 C6080000 		.4byte	.LLST45
 4418 13b9 2E       		.uleb128 0x2e
 4419 13ba 0E000000 		.4byte	.LVL210
 4420 13be C8130000 		.4byte	0x13c8
 4421 13c2 1B       		.uleb128 0x1b
 4422 13c3 01       		.uleb128 0x1
 4423 13c4 50       		.byte	0x50
 4424 13c5 01       		.uleb128 0x1
 4425 13c6 30       		.byte	0x30
 4426 13c7 00       		.byte	0
 4427 13c8 2E       		.uleb128 0x2e
 4428 13c9 1A000000 		.4byte	.LVL211
 4429 13cd D7130000 		.4byte	0x13d7
 4430 13d1 1B       		.uleb128 0x1b
 4431 13d2 01       		.uleb128 0x1
 4432 13d3 50       		.byte	0x50
 4433 13d4 01       		.uleb128 0x1
 4434 13d5 30       		.byte	0x30
 4435 13d6 00       		.byte	0
 4436 13d7 1A       		.uleb128 0x1a
 4437 13d8 20000000 		.4byte	.LVL212
 4438 13dc 631B0000 		.4byte	0x1b63
 4439 13e0 EA130000 		.4byte	0x13ea
 4440 13e4 1B       		.uleb128 0x1b
 4441 13e5 01       		.uleb128 0x1
 4442 13e6 50       		.byte	0x50
 4443 13e7 01       		.uleb128 0x1
 4444 13e8 35       		.byte	0x35
 4445 13e9 00       		.byte	0
 4446 13ea 28       		.uleb128 0x28
 4447 13eb 24000000 		.4byte	.LVL213
 4448 13ef 741B0000 		.4byte	0x1b74
 4449 13f3 1A       		.uleb128 0x1a
 4450 13f4 2A000000 		.4byte	.LVL214
 4451 13f8 7B1B0000 		.4byte	0x1b7b
 4452 13fc 06140000 		.4byte	0x1406
 4453 1400 1B       		.uleb128 0x1b
 4454 1401 01       		.uleb128 0x1
 4455 1402 50       		.byte	0x50
 4456 1403 01       		.uleb128 0x1
 4457 1404 32       		.byte	0x32
ARM GAS  C:\Users\mlgjmoor\AppData\Local\Temp\ccwL0k1p.s 			page 102


 4458 1405 00       		.byte	0
 4459 1406 1A       		.uleb128 0x1a
 4460 1407 30000000 		.4byte	.LVL215
 4461 140b 901B0000 		.4byte	0x1b90
 4462 140f 19140000 		.4byte	0x1419
 4463 1413 1B       		.uleb128 0x1b
 4464 1414 01       		.uleb128 0x1
 4465 1415 50       		.byte	0x50
 4466 1416 01       		.uleb128 0x1
 4467 1417 30       		.byte	0x30
 4468 1418 00       		.byte	0
 4469 1419 2E       		.uleb128 0x2e
 4470 141a 38000000 		.4byte	.LVL217
 4471 141e 28140000 		.4byte	0x1428
 4472 1422 1B       		.uleb128 0x1b
 4473 1423 01       		.uleb128 0x1
 4474 1424 50       		.byte	0x50
 4475 1425 01       		.uleb128 0x1
 4476 1426 31       		.byte	0x31
 4477 1427 00       		.byte	0
 4478 1428 2F       		.uleb128 0x2f
 4479 1429 44000000 		.4byte	.LVL218
 4480 142d 1B       		.uleb128 0x1b
 4481 142e 01       		.uleb128 0x1
 4482 142f 50       		.byte	0x50
 4483 1430 01       		.uleb128 0x1
 4484 1431 31       		.byte	0x31
 4485 1432 00       		.byte	0
 4486 1433 00       		.byte	0
 4487 1434 05       		.uleb128 0x5
 4488 1435 64000000 		.4byte	0x64
 4489 1439 30       		.uleb128 0x30
 4490 143a 78000000 		.4byte	.LASF422
 4491 143e 01       		.byte	0x1
 4492 143f 4E01     		.2byte	0x14e
 4493 1441 00000000 		.4byte	.LFB43
 4494 1445 64000000 		.4byte	.LFE43-.LFB43
 4495 1449 01       		.uleb128 0x1
 4496 144a 9C       		.byte	0x9c
 4497 144b AD140000 		.4byte	0x14ad
 4498 144f 31       		.uleb128 0x31
 4499 1450 61766700 		.ascii	"avg\000"
 4500 1454 01       		.byte	0x1
 4501 1455 4E01     		.2byte	0x14e
 4502 1457 64000000 		.4byte	0x64
 4503 145b E4080000 		.4byte	.LLST46
 4504 145f 32       		.uleb128 0x32
 4505 1460 62756600 		.ascii	"buf\000"
 4506 1464 01       		.byte	0x1
 4507 1465 5001     		.2byte	0x150
 4508 1467 AD140000 		.4byte	0x14ad
 4509 146b 02       		.uleb128 0x2
 4510 146c 91       		.byte	0x91
 4511 146d 58       		.sleb128 -40
 4512 146e 25       		.uleb128 0x25
 4513 146f 4C230000 		.4byte	.LASF423
 4514 1473 01       		.byte	0x1
ARM GAS  C:\Users\mlgjmoor\AppData\Local\Temp\ccwL0k1p.s 			page 103


 4515 1474 5101     		.2byte	0x151
 4516 1476 64000000 		.4byte	0x64
 4517 147a 10090000 		.4byte	.LLST47
 4518 147e 25       		.uleb128 0x25
 4519 147f A12E0000 		.4byte	.LASF424
 4520 1483 01       		.byte	0x1
 4521 1484 5201     		.2byte	0x152
 4522 1486 64000000 		.4byte	0x64
 4523 148a 2F090000 		.4byte	.LLST48
 4524 148e 27       		.uleb128 0x27
 4525 148f 6900     		.ascii	"i\000"
 4526 1491 01       		.byte	0x1
 4527 1492 5C01     		.2byte	0x15c
 4528 1494 64000000 		.4byte	0x64
 4529 1498 65090000 		.4byte	.LLST49
 4530 149c 1C       		.uleb128 0x1c
 4531 149d 12000000 		.4byte	.LVL223
 4532 14a1 7F130000 		.4byte	0x137f
 4533 14a5 1B       		.uleb128 0x1b
 4534 14a6 01       		.uleb128 0x1
 4535 14a7 50       		.byte	0x50
 4536 14a8 02       		.uleb128 0x2
 4537 14a9 75       		.byte	0x75
 4538 14aa 00       		.sleb128 0
 4539 14ab 00       		.byte	0
 4540 14ac 00       		.byte	0
 4541 14ad 10       		.uleb128 0x10
 4542 14ae 8A000000 		.4byte	0x8a
 4543 14b2 BD140000 		.4byte	0x14bd
 4544 14b6 11       		.uleb128 0x11
 4545 14b7 E0000000 		.4byte	0xe0
 4546 14bb 03       		.byte	0x3
 4547 14bc 00       		.byte	0
 4548 14bd 18       		.uleb128 0x18
 4549 14be 7A1C0000 		.4byte	.LASF425
 4550 14c2 01       		.byte	0x1
 4551 14c3 6601     		.2byte	0x166
 4552 14c5 00000000 		.4byte	.LFB44
 4553 14c9 0A000000 		.4byte	.LFE44-.LFB44
 4554 14cd 01       		.uleb128 0x1
 4555 14ce 9C       		.byte	0x9c
 4556 14cf 03150000 		.4byte	0x1503
 4557 14d3 24       		.uleb128 0x24
 4558 14d4 7E150000 		.4byte	.LASF400
 4559 14d8 01       		.byte	0x1
 4560 14d9 6601     		.2byte	0x166
 4561 14db 420F0000 		.4byte	0xf42
 4562 14df 78090000 		.4byte	.LLST50
 4563 14e3 24       		.uleb128 0x24
 4564 14e4 450E0000 		.4byte	.LASF401
 4565 14e8 01       		.byte	0x1
 4566 14e9 6601     		.2byte	0x166
 4567 14eb 550B0000 		.4byte	0xb55
 4568 14ef 99090000 		.4byte	.LLST51
 4569 14f3 1C       		.uleb128 0x1c
 4570 14f4 08000000 		.4byte	.LVL237
 4571 14f8 39140000 		.4byte	0x1439
ARM GAS  C:\Users\mlgjmoor\AppData\Local\Temp\ccwL0k1p.s 			page 104


 4572 14fc 1B       		.uleb128 0x1b
 4573 14fd 01       		.uleb128 0x1
 4574 14fe 50       		.byte	0x50
 4575 14ff 01       		.uleb128 0x1
 4576 1500 34       		.byte	0x34
 4577 1501 00       		.byte	0
 4578 1502 00       		.byte	0
 4579 1503 33       		.uleb128 0x33
 4580 1504 8A1C0000 		.4byte	.LASF477
 4581 1508 01       		.byte	0x1
 4582 1509 A201     		.2byte	0x1a2
 4583 150b 00000000 		.4byte	.LFB46
 4584 150f 40000000 		.4byte	.LFE46-.LFB46
 4585 1513 01       		.uleb128 0x1
 4586 1514 9C       		.byte	0x9c
 4587 1515 9A150000 		.4byte	0x159a
 4588 1519 1A       		.uleb128 0x1a
 4589 151a 0A000000 		.4byte	.LVL238
 4590 151e F21A0000 		.4byte	0x1af2
 4591 1522 2D150000 		.4byte	0x152d
 4592 1526 1B       		.uleb128 0x1b
 4593 1527 01       		.uleb128 0x1
 4594 1528 50       		.byte	0x50
 4595 1529 02       		.uleb128 0x2
 4596 152a 74       		.byte	0x74
 4597 152b 00       		.sleb128 0
 4598 152c 00       		.byte	0
 4599 152d 1A       		.uleb128 0x1a
 4600 152e 10000000 		.4byte	.LVL239
 4601 1532 F21A0000 		.4byte	0x1af2
 4602 1536 44150000 		.4byte	0x1544
 4603 153a 1B       		.uleb128 0x1b
 4604 153b 01       		.uleb128 0x1
 4605 153c 50       		.byte	0x50
 4606 153d 05       		.uleb128 0x5
 4607 153e 03       		.byte	0x3
 4608 153f 60010000 		.4byte	.LC33
 4609 1543 00       		.byte	0
 4610 1544 1A       		.uleb128 0x1a
 4611 1545 16000000 		.4byte	.LVL240
 4612 1549 F21A0000 		.4byte	0x1af2
 4613 154d 5B150000 		.4byte	0x155b
 4614 1551 1B       		.uleb128 0x1b
 4615 1552 01       		.uleb128 0x1
 4616 1553 50       		.byte	0x50
 4617 1554 05       		.uleb128 0x5
 4618 1555 03       		.byte	0x3
 4619 1556 7C010000 		.4byte	.LC35
 4620 155a 00       		.byte	0
 4621 155b 1A       		.uleb128 0x1a
 4622 155c 1C000000 		.4byte	.LVL241
 4623 1560 F21A0000 		.4byte	0x1af2
 4624 1564 72150000 		.4byte	0x1572
 4625 1568 1B       		.uleb128 0x1b
 4626 1569 01       		.uleb128 0x1
 4627 156a 50       		.byte	0x50
 4628 156b 05       		.uleb128 0x5
ARM GAS  C:\Users\mlgjmoor\AppData\Local\Temp\ccwL0k1p.s 			page 105


 4629 156c 03       		.byte	0x3
 4630 156d 98010000 		.4byte	.LC37
 4631 1571 00       		.byte	0
 4632 1572 1A       		.uleb128 0x1a
 4633 1573 22000000 		.4byte	.LVL242
 4634 1577 F21A0000 		.4byte	0x1af2
 4635 157b 86150000 		.4byte	0x1586
 4636 157f 1B       		.uleb128 0x1b
 4637 1580 01       		.uleb128 0x1
 4638 1581 50       		.byte	0x50
 4639 1582 02       		.uleb128 0x2
 4640 1583 74       		.byte	0x74
 4641 1584 00       		.sleb128 0
 4642 1585 00       		.byte	0
 4643 1586 1C       		.uleb128 0x1c
 4644 1587 28000000 		.4byte	.LVL243
 4645 158b F21A0000 		.4byte	0x1af2
 4646 158f 1B       		.uleb128 0x1b
 4647 1590 01       		.uleb128 0x1
 4648 1591 50       		.byte	0x50
 4649 1592 05       		.uleb128 0x5
 4650 1593 03       		.byte	0x3
 4651 1594 94000000 		.4byte	.LC12
 4652 1598 00       		.byte	0
 4653 1599 00       		.byte	0
 4654 159a 2D       		.uleb128 0x2d
 4655 159b 8F2C0000 		.4byte	.LASF412
 4656 159f 01       		.byte	0x1
 4657 15a0 AE01     		.2byte	0x1ae
 4658 15a2 E9000000 		.4byte	0xe9
 4659 15a6 00000000 		.4byte	.LFB47
 4660 15aa 1A000000 		.4byte	.LFE47-.LFB47
 4661 15ae 01       		.uleb128 0x1
 4662 15af 9C       		.byte	0x9c
 4663 15b0 D3150000 		.4byte	0x15d3
 4664 15b4 31       		.uleb128 0x31
 4665 15b5 73747200 		.ascii	"str\000"
 4666 15b9 01       		.byte	0x1
 4667 15ba AE01     		.2byte	0x1ae
 4668 15bc E9000000 		.4byte	0xe9
 4669 15c0 BA090000 		.4byte	.LLST52
 4670 15c4 19       		.uleb128 0x19
 4671 15c5 BA090000 		.4byte	.LASF391
 4672 15c9 01       		.byte	0x1
 4673 15ca B001     		.2byte	0x1b0
 4674 15cc E9000000 		.4byte	0xe9
 4675 15d0 01       		.uleb128 0x1
 4676 15d1 50       		.byte	0x50
 4677 15d2 00       		.byte	0
 4678 15d3 2D       		.uleb128 0x2d
 4679 15d4 DB0C0000 		.4byte	.LASF426
 4680 15d8 01       		.byte	0x1
 4681 15d9 BD01     		.2byte	0x1bd
 4682 15db 610B0000 		.4byte	0xb61
 4683 15df 00000000 		.4byte	.LFB48
 4684 15e3 28000000 		.4byte	.LFE48-.LFB48
 4685 15e7 01       		.uleb128 0x1
ARM GAS  C:\Users\mlgjmoor\AppData\Local\Temp\ccwL0k1p.s 			page 106


 4686 15e8 9C       		.byte	0x9c
 4687 15e9 28160000 		.4byte	0x1628
 4688 15ed 31       		.uleb128 0x31
 4689 15ee 733100   		.ascii	"s1\000"
 4690 15f1 01       		.byte	0x1
 4691 15f2 BD01     		.2byte	0x1bd
 4692 15f4 E9000000 		.4byte	0xe9
 4693 15f8 D8090000 		.4byte	.LLST53
 4694 15fc 34       		.uleb128 0x34
 4695 15fd 733200   		.ascii	"s2\000"
 4696 1600 01       		.byte	0x1
 4697 1601 BD01     		.2byte	0x1bd
 4698 1603 E9000000 		.4byte	0xe9
 4699 1607 01       		.uleb128 0x1
 4700 1608 51       		.byte	0x51
 4701 1609 27       		.uleb128 0x27
 4702 160a 72657400 		.ascii	"ret\000"
 4703 160e 01       		.byte	0x1
 4704 160f BF01     		.2byte	0x1bf
 4705 1611 610B0000 		.4byte	0xb61
 4706 1615 040A0000 		.4byte	.LLST54
 4707 1619 27       		.uleb128 0x27
 4708 161a 6900     		.ascii	"i\000"
 4709 161c 01       		.byte	0x1
 4710 161d C001     		.2byte	0x1c0
 4711 161f 64000000 		.4byte	0x64
 4712 1623 230A0000 		.4byte	.LLST55
 4713 1627 00       		.byte	0
 4714 1628 18       		.uleb128 0x18
 4715 1629 38070000 		.4byte	.LASF427
 4716 162d 01       		.byte	0x1
 4717 162e D201     		.2byte	0x1d2
 4718 1630 00000000 		.4byte	.LFB49
 4719 1634 64000000 		.4byte	.LFE49-.LFB49
 4720 1638 01       		.uleb128 0x1
 4721 1639 9C       		.byte	0x9c
 4722 163a C1160000 		.4byte	0x16c1
 4723 163e 24       		.uleb128 0x24
 4724 163f 7C120000 		.4byte	.LASF428
 4725 1643 01       		.byte	0x1
 4726 1644 D201     		.2byte	0x1d2
 4727 1646 E9000000 		.4byte	0xe9
 4728 164a 420A0000 		.4byte	.LLST56
 4729 164e 19       		.uleb128 0x19
 4730 164f D9130000 		.4byte	.LASF421
 4731 1653 01       		.byte	0x1
 4732 1654 D401     		.2byte	0x1d4
 4733 1656 64000000 		.4byte	0x64
 4734 165a 05       		.uleb128 0x5
 4735 165b 03       		.byte	0x3
 4736 165c 6C000000 		.4byte	index.8560
 4737 1660 25       		.uleb128 0x25
 4738 1661 AB180000 		.4byte	.LASF429
 4739 1665 01       		.byte	0x1
 4740 1666 D501     		.2byte	0x1d5
 4741 1668 C1000000 		.4byte	0xc1
 4742 166c 6E0A0000 		.4byte	.LLST57
ARM GAS  C:\Users\mlgjmoor\AppData\Local\Temp\ccwL0k1p.s 			page 107


 4743 1670 28       		.uleb128 0x28
 4744 1671 08000000 		.4byte	.LVL255
 4745 1675 A51B0000 		.4byte	0x1ba5
 4746 1679 28       		.uleb128 0x28
 4747 167a 1E000000 		.4byte	.LVL257
 4748 167e B11B0000 		.4byte	0x1bb1
 4749 1682 1A       		.uleb128 0x1a
 4750 1683 36000000 		.4byte	.LVL258
 4751 1687 F21A0000 		.4byte	0x1af2
 4752 168b 99160000 		.4byte	0x1699
 4753 168f 1B       		.uleb128 0x1b
 4754 1690 01       		.uleb128 0x1
 4755 1691 50       		.byte	0x50
 4756 1692 05       		.uleb128 0x5
 4757 1693 03       		.byte	0x3
 4758 1694 C0010000 		.4byte	.LC41
 4759 1698 00       		.byte	0
 4760 1699 1A       		.uleb128 0x1a
 4761 169a 46000000 		.4byte	.LVL260
 4762 169e F21A0000 		.4byte	0x1af2
 4763 16a2 AD160000 		.4byte	0x16ad
 4764 16a6 1B       		.uleb128 0x1b
 4765 16a7 01       		.uleb128 0x1
 4766 16a8 50       		.byte	0x50
 4767 16a9 02       		.uleb128 0x2
 4768 16aa 75       		.byte	0x75
 4769 16ab 00       		.sleb128 0
 4770 16ac 00       		.byte	0
 4771 16ad 1C       		.uleb128 0x1c
 4772 16ae 4C000000 		.4byte	.LVL261
 4773 16b2 F21A0000 		.4byte	0x1af2
 4774 16b6 1B       		.uleb128 0x1b
 4775 16b7 01       		.uleb128 0x1
 4776 16b8 50       		.byte	0x50
 4777 16b9 05       		.uleb128 0x5
 4778 16ba 03       		.byte	0x3
 4779 16bb 94000000 		.4byte	.LC12
 4780 16bf 00       		.byte	0
 4781 16c0 00       		.byte	0
 4782 16c1 18       		.uleb128 0x18
 4783 16c2 4C180000 		.4byte	.LASF430
 4784 16c6 01       		.byte	0x1
 4785 16c7 F501     		.2byte	0x1f5
 4786 16c9 00000000 		.4byte	.LFB50
 4787 16cd 24000000 		.4byte	.LFE50-.LFB50
 4788 16d1 01       		.uleb128 0x1
 4789 16d2 9C       		.byte	0x9c
 4790 16d3 37170000 		.4byte	0x1737
 4791 16d7 24       		.uleb128 0x24
 4792 16d8 82140000 		.4byte	.LASF431
 4793 16dc 01       		.byte	0x1
 4794 16dd F501     		.2byte	0x1f5
 4795 16df 37170000 		.4byte	0x1737
 4796 16e3 810A0000 		.4byte	.LLST58
 4797 16e7 24       		.uleb128 0x24
 4798 16e8 450E0000 		.4byte	.LASF401
 4799 16ec 01       		.byte	0x1
ARM GAS  C:\Users\mlgjmoor\AppData\Local\Temp\ccwL0k1p.s 			page 108


 4800 16ed F501     		.2byte	0x1f5
 4801 16ef 550B0000 		.4byte	0xb55
 4802 16f3 AD0A0000 		.4byte	.LLST59
 4803 16f7 27       		.uleb128 0x27
 4804 16f8 6900     		.ascii	"i\000"
 4805 16fa 01       		.byte	0x1
 4806 16fb F701     		.2byte	0x1f7
 4807 16fd 64000000 		.4byte	0x64
 4808 1701 D90A0000 		.4byte	.LLST60
 4809 1705 2B       		.uleb128 0x2b
 4810 1706 0A000000 		.4byte	.LBB7
 4811 170a 12000000 		.4byte	.LBE7-.LBB7
 4812 170e 25       		.uleb128 0x25
 4813 170f 88140000 		.4byte	.LASF432
 4814 1713 01       		.byte	0x1
 4815 1714 FB01     		.2byte	0x1fb
 4816 1716 420F0000 		.4byte	0xf42
 4817 171a F80A0000 		.4byte	.LLST61
 4818 171e 2F       		.uleb128 0x2f
 4819 171f 1C000000 		.4byte	.LVL267
 4820 1723 1B       		.uleb128 0x1b
 4821 1724 01       		.uleb128 0x1
 4822 1725 51       		.byte	0x51
 4823 1726 02       		.uleb128 0x2
 4824 1727 75       		.byte	0x75
 4825 1728 00       		.sleb128 0
 4826 1729 1B       		.uleb128 0x1b
 4827 172a 01       		.uleb128 0x1
 4828 172b 50       		.byte	0x50
 4829 172c 07       		.uleb128 0x7
 4830 172d 74       		.byte	0x74
 4831 172e 00       		.sleb128 0
 4832 172f 33       		.byte	0x33
 4833 1730 24       		.byte	0x24
 4834 1731 76       		.byte	0x76
 4835 1732 00       		.sleb128 0
 4836 1733 22       		.byte	0x22
 4837 1734 00       		.byte	0
 4838 1735 00       		.byte	0
 4839 1736 00       		.byte	0
 4840 1737 06       		.uleb128 0x6
 4841 1738 04       		.byte	0x4
 4842 1739 9C0B0000 		.4byte	0xb9c
 4843 173d 35       		.uleb128 0x35
 4844 173e 7E090000 		.4byte	.LASF433
 4845 1742 01       		.byte	0x1
 4846 1743 6102     		.2byte	0x261
 4847 1745 64000000 		.4byte	0x64
 4848 1749 00000000 		.4byte	.LFB53
 4849 174d C4010000 		.4byte	.LFE53-.LFB53
 4850 1751 01       		.uleb128 0x1
 4851 1752 9C       		.byte	0x9c
 4852 1753 E0190000 		.4byte	0x19e0
 4853 1757 19       		.uleb128 0x19
 4854 1758 F72B0000 		.4byte	.LASF434
 4855 175c 01       		.byte	0x1
 4856 175d 8702     		.2byte	0x287
ARM GAS  C:\Users\mlgjmoor\AppData\Local\Temp\ccwL0k1p.s 			page 109


 4857 175f E0190000 		.4byte	0x19e0
 4858 1763 03       		.uleb128 0x3
 4859 1764 91       		.byte	0x91
 4860 1765 8C7F     		.sleb128 -116
 4861 1767 19       		.uleb128 0x19
 4862 1768 860F0000 		.4byte	.LASF435
 4863 176c 01       		.byte	0x1
 4864 176d 8802     		.2byte	0x288
 4865 176f 9C0B0000 		.4byte	0xb9c
 4866 1773 03       		.uleb128 0x3
 4867 1774 91       		.byte	0x91
 4868 1775 F47E     		.sleb128 -140
 4869 1777 19       		.uleb128 0x19
 4870 1778 DD1C0000 		.4byte	.LASF436
 4871 177c 01       		.byte	0x1
 4872 177d 8B02     		.2byte	0x28b
 4873 177f DF0A0000 		.4byte	0xadf
 4874 1783 03       		.uleb128 0x3
 4875 1784 91       		.byte	0x91
 4876 1785 EC6E     		.sleb128 -2196
 4877 1787 36       		.uleb128 0x36
 4878 1788 811B0000 		.4byte	.LASF451
 4879 178c 01       		.byte	0x1
 4880 178d 8C02     		.2byte	0x28c
 4881 178f 64000000 		.4byte	0x64
 4882 1793 99170000 		.4byte	0x1799
 4883 1797 37       		.uleb128 0x37
 4884 1798 00       		.byte	0
 4885 1799 19       		.uleb128 0x19
 4886 179a A81F0000 		.4byte	.LASF437
 4887 179e 01       		.byte	0x1
 4888 179f 8F02     		.2byte	0x28f
 4889 17a1 680B0000 		.4byte	0xb68
 4890 17a5 03       		.uleb128 0x3
 4891 17a6 91       		.byte	0x91
 4892 17a7 E46E     		.sleb128 -2204
 4893 17a9 19       		.uleb128 0x19
 4894 17aa 56150000 		.4byte	.LASF438
 4895 17ae 01       		.byte	0x1
 4896 17af 9502     		.2byte	0x295
 4897 17b1 680B0000 		.4byte	0xb68
 4898 17b5 03       		.uleb128 0x3
 4899 17b6 91       		.byte	0x91
 4900 17b7 DC6E     		.sleb128 -2212
 4901 17b9 19       		.uleb128 0x19
 4902 17ba 49060000 		.4byte	.LASF439
 4903 17be 01       		.byte	0x1
 4904 17bf 9B02     		.2byte	0x29b
 4905 17c1 680B0000 		.4byte	0xb68
 4906 17c5 03       		.uleb128 0x3
 4907 17c6 91       		.byte	0x91
 4908 17c7 D46E     		.sleb128 -2220
 4909 17c9 26       		.uleb128 0x26
 4910 17ca 36010000 		.4byte	.LBB8
 4911 17ce 1C000000 		.4byte	.LBE8-.LBB8
 4912 17d2 0D180000 		.4byte	0x180d
 4913 17d6 32       		.uleb128 0x32
ARM GAS  C:\Users\mlgjmoor\AppData\Local\Temp\ccwL0k1p.s 			page 110


 4914 17d7 6D00     		.ascii	"m\000"
 4915 17d9 01       		.byte	0x1
 4916 17da CF02     		.2byte	0x2cf
 4917 17dc 860A0000 		.4byte	0xa86
 4918 17e0 03       		.uleb128 0x3
 4919 17e1 91       		.byte	0x91
 4920 17e2 CC6E     		.sleb128 -2228
 4921 17e4 1A       		.uleb128 0x1a
 4922 17e5 48010000 		.4byte	.LVL295
 4923 17e9 F21A0000 		.4byte	0x1af2
 4924 17ed FB170000 		.4byte	0x17fb
 4925 17f1 1B       		.uleb128 0x1b
 4926 17f2 01       		.uleb128 0x1
 4927 17f3 50       		.byte	0x50
 4928 17f4 05       		.uleb128 0x5
 4929 17f5 03       		.byte	0x3
 4930 17f6 38020000 		.4byte	.LC67
 4931 17fa 00       		.byte	0
 4932 17fb 1C       		.uleb128 0x1c
 4933 17fc 52010000 		.4byte	.LVL296
 4934 1800 C31B0000 		.4byte	0x1bc3
 4935 1804 1B       		.uleb128 0x1b
 4936 1805 01       		.uleb128 0x1
 4937 1806 50       		.byte	0x50
 4938 1807 03       		.uleb128 0x3
 4939 1808 91       		.byte	0x91
 4940 1809 EC6E     		.sleb128 -2196
 4941 180b 00       		.byte	0
 4942 180c 00       		.byte	0
 4943 180d 1A       		.uleb128 0x1a
 4944 180e 0C000000 		.4byte	.LVL272
 4945 1812 D91B0000 		.4byte	0x1bd9
 4946 1816 24180000 		.4byte	0x1824
 4947 181a 1B       		.uleb128 0x1b
 4948 181b 01       		.uleb128 0x1
 4949 181c 50       		.byte	0x50
 4950 181d 05       		.uleb128 0x5
 4951 181e 03       		.byte	0x3
 4952 181f 00000000 		.4byte	timer_isr
 4953 1823 00       		.byte	0
 4954 1824 28       		.uleb128 0x28
 4955 1825 10000000 		.4byte	.LVL273
 4956 1829 EA1B0000 		.4byte	0x1bea
 4957 182d 28       		.uleb128 0x28
 4958 182e 14000000 		.4byte	.LVL274
 4959 1832 F21B0000 		.4byte	0x1bf2
 4960 1836 28       		.uleb128 0x28
 4961 1837 18000000 		.4byte	.LVL275
 4962 183b F91B0000 		.4byte	0x1bf9
 4963 183f 1A       		.uleb128 0x1a
 4964 1840 1E000000 		.4byte	.LVL276
 4965 1844 631B0000 		.4byte	0x1b63
 4966 1848 52180000 		.4byte	0x1852
 4967 184c 1B       		.uleb128 0x1b
 4968 184d 01       		.uleb128 0x1
 4969 184e 50       		.byte	0x50
 4970 184f 01       		.uleb128 0x1
ARM GAS  C:\Users\mlgjmoor\AppData\Local\Temp\ccwL0k1p.s 			page 111


 4971 1850 49       		.byte	0x49
 4972 1851 00       		.byte	0
 4973 1852 28       		.uleb128 0x28
 4974 1853 22000000 		.4byte	.LVL277
 4975 1857 001C0000 		.4byte	0x1c00
 4976 185b 28       		.uleb128 0x28
 4977 185c 26000000 		.4byte	.LVL278
 4978 1860 741B0000 		.4byte	0x1b74
 4979 1864 1A       		.uleb128 0x1a
 4980 1865 2C000000 		.4byte	.LVL279
 4981 1869 7B1B0000 		.4byte	0x1b7b
 4982 186d 77180000 		.4byte	0x1877
 4983 1871 1B       		.uleb128 0x1b
 4984 1872 01       		.uleb128 0x1
 4985 1873 50       		.byte	0x50
 4986 1874 01       		.uleb128 0x1
 4987 1875 38       		.byte	0x38
 4988 1876 00       		.byte	0
 4989 1877 1A       		.uleb128 0x1a
 4990 1878 32000000 		.4byte	.LVL280
 4991 187c 901B0000 		.4byte	0x1b90
 4992 1880 8A180000 		.4byte	0x188a
 4993 1884 1B       		.uleb128 0x1b
 4994 1885 01       		.uleb128 0x1
 4995 1886 50       		.byte	0x50
 4996 1887 01       		.uleb128 0x1
 4997 1888 31       		.byte	0x31
 4998 1889 00       		.byte	0
 4999 188a 1A       		.uleb128 0x1a
 5000 188b 3E000000 		.4byte	.LVL281
 5001 188f 071C0000 		.4byte	0x1c07
 5002 1893 9F180000 		.4byte	0x189f
 5003 1897 1B       		.uleb128 0x1b
 5004 1898 01       		.uleb128 0x1
 5005 1899 50       		.byte	0x50
 5006 189a 03       		.uleb128 0x3
 5007 189b 91       		.byte	0x91
 5008 189c EC6E     		.sleb128 -2196
 5009 189e 00       		.byte	0
 5010 189f 1A       		.uleb128 0x1a
 5011 18a0 9A000000 		.4byte	.LVL282
 5012 18a4 191C0000 		.4byte	0x1c19
 5013 18a8 B2180000 		.4byte	0x18b2
 5014 18ac 1B       		.uleb128 0x1b
 5015 18ad 01       		.uleb128 0x1
 5016 18ae 50       		.byte	0x50
 5017 18af 01       		.uleb128 0x1
 5018 18b0 31       		.byte	0x31
 5019 18b1 00       		.byte	0
 5020 18b2 1A       		.uleb128 0x1a
 5021 18b3 A0000000 		.4byte	.LVL283
 5022 18b7 2A1C0000 		.4byte	0x1c2a
 5023 18bb C5180000 		.4byte	0x18c5
 5024 18bf 1B       		.uleb128 0x1b
 5025 18c0 01       		.uleb128 0x1
 5026 18c1 50       		.byte	0x50
 5027 18c2 01       		.uleb128 0x1
ARM GAS  C:\Users\mlgjmoor\AppData\Local\Temp\ccwL0k1p.s 			page 112


 5028 18c3 31       		.byte	0x31
 5029 18c4 00       		.byte	0
 5030 18c5 1A       		.uleb128 0x1a
 5031 18c6 A6000000 		.4byte	.LVL284
 5032 18ca 3B1C0000 		.4byte	0x1c3b
 5033 18ce D8180000 		.4byte	0x18d8
 5034 18d2 1B       		.uleb128 0x1b
 5035 18d3 01       		.uleb128 0x1
 5036 18d4 50       		.byte	0x50
 5037 18d5 01       		.uleb128 0x1
 5038 18d6 31       		.byte	0x31
 5039 18d7 00       		.byte	0
 5040 18d8 28       		.uleb128 0x28
 5041 18d9 AA000000 		.4byte	.LVL285
 5042 18dd 03150000 		.4byte	0x1503
 5043 18e1 1A       		.uleb128 0x1a
 5044 18e2 B2000000 		.4byte	.LVL286
 5045 18e6 28160000 		.4byte	0x1628
 5046 18ea F6180000 		.4byte	0x18f6
 5047 18ee 1B       		.uleb128 0x1b
 5048 18ef 01       		.uleb128 0x1
 5049 18f0 50       		.byte	0x50
 5050 18f1 03       		.uleb128 0x3
 5051 18f2 91       		.byte	0x91
 5052 18f3 8C7F     		.sleb128 -116
 5053 18f5 00       		.byte	0
 5054 18f6 1A       		.uleb128 0x1a
 5055 18f7 C2000000 		.4byte	.LVL287
 5056 18fb F21A0000 		.4byte	0x1af2
 5057 18ff 0D190000 		.4byte	0x190d
 5058 1903 1B       		.uleb128 0x1b
 5059 1904 01       		.uleb128 0x1
 5060 1905 50       		.byte	0x50
 5061 1906 05       		.uleb128 0x5
 5062 1907 03       		.byte	0x3
 5063 1908 D8010000 		.4byte	.LC54
 5064 190c 00       		.byte	0
 5065 190d 1A       		.uleb128 0x1a
 5066 190e C8000000 		.4byte	.LVL288
 5067 1912 F21A0000 		.4byte	0x1af2
 5068 1916 24190000 		.4byte	0x1924
 5069 191a 1B       		.uleb128 0x1b
 5070 191b 01       		.uleb128 0x1
 5071 191c 50       		.byte	0x50
 5072 191d 05       		.uleb128 0x5
 5073 191e 03       		.byte	0x3
 5074 191f E8010000 		.4byte	.LC56
 5075 1923 00       		.byte	0
 5076 1924 1A       		.uleb128 0x1a
 5077 1925 D2000000 		.4byte	.LVL289
 5078 1929 F21A0000 		.4byte	0x1af2
 5079 192d 39190000 		.4byte	0x1939
 5080 1931 1B       		.uleb128 0x1b
 5081 1932 01       		.uleb128 0x1
 5082 1933 50       		.byte	0x50
 5083 1934 03       		.uleb128 0x3
 5084 1935 91       		.byte	0x91
ARM GAS  C:\Users\mlgjmoor\AppData\Local\Temp\ccwL0k1p.s 			page 113


 5085 1936 8C7F     		.sleb128 -116
 5086 1938 00       		.byte	0
 5087 1939 1A       		.uleb128 0x1a
 5088 193a D8000000 		.4byte	.LVL290
 5089 193e F21A0000 		.4byte	0x1af2
 5090 1942 50190000 		.4byte	0x1950
 5091 1946 1B       		.uleb128 0x1b
 5092 1947 01       		.uleb128 0x1
 5093 1948 50       		.byte	0x50
 5094 1949 05       		.uleb128 0x5
 5095 194a 03       		.byte	0x3
 5096 194b 94000000 		.4byte	.LC12
 5097 194f 00       		.byte	0
 5098 1950 1A       		.uleb128 0x1a
 5099 1951 E4000000 		.4byte	.LVL291
 5100 1955 D3150000 		.4byte	0x15d3
 5101 1959 6E190000 		.4byte	0x196e
 5102 195d 1B       		.uleb128 0x1b
 5103 195e 01       		.uleb128 0x1
 5104 195f 51       		.byte	0x51
 5105 1960 05       		.uleb128 0x5
 5106 1961 03       		.byte	0x3
 5107 1962 F4010000 		.4byte	.LC59
 5108 1966 1B       		.uleb128 0x1b
 5109 1967 01       		.uleb128 0x1
 5110 1968 50       		.byte	0x50
 5111 1969 03       		.uleb128 0x3
 5112 196a 91       		.byte	0x91
 5113 196b 8C7F     		.sleb128 -116
 5114 196d 00       		.byte	0
 5115 196e 1A       		.uleb128 0x1a
 5116 196f F8000000 		.4byte	.LVL292
 5117 1973 F21A0000 		.4byte	0x1af2
 5118 1977 85190000 		.4byte	0x1985
 5119 197b 1B       		.uleb128 0x1b
 5120 197c 01       		.uleb128 0x1
 5121 197d 50       		.byte	0x50
 5122 197e 05       		.uleb128 0x5
 5123 197f 03       		.byte	0x3
 5124 1980 F8010000 		.4byte	.LC61
 5125 1984 00       		.byte	0
 5126 1985 1A       		.uleb128 0x1a
 5127 1986 14010000 		.4byte	.LVL293
 5128 198a D3150000 		.4byte	0x15d3
 5129 198e A3190000 		.4byte	0x19a3
 5130 1992 1B       		.uleb128 0x1b
 5131 1993 01       		.uleb128 0x1
 5132 1994 51       		.byte	0x51
 5133 1995 05       		.uleb128 0x5
 5134 1996 03       		.byte	0x3
 5135 1997 18020000 		.4byte	.LC63
 5136 199b 1B       		.uleb128 0x1b
 5137 199c 01       		.uleb128 0x1
 5138 199d 50       		.byte	0x50
 5139 199e 03       		.uleb128 0x3
 5140 199f 91       		.byte	0x91
 5141 19a0 8C7F     		.sleb128 -116
ARM GAS  C:\Users\mlgjmoor\AppData\Local\Temp\ccwL0k1p.s 			page 114


 5142 19a2 00       		.byte	0
 5143 19a3 1A       		.uleb128 0x1a
 5144 19a4 1E010000 		.4byte	.LVL294
 5145 19a8 F21A0000 		.4byte	0x1af2
 5146 19ac BA190000 		.4byte	0x19ba
 5147 19b0 1B       		.uleb128 0x1b
 5148 19b1 01       		.uleb128 0x1
 5149 19b2 50       		.byte	0x50
 5150 19b3 05       		.uleb128 0x5
 5151 19b4 03       		.byte	0x3
 5152 19b5 1C020000 		.4byte	.LC65
 5153 19b9 00       		.byte	0
 5154 19ba 1A       		.uleb128 0x1a
 5155 19bb 64010000 		.4byte	.LVL297
 5156 19bf C1160000 		.4byte	0x16c1
 5157 19c3 D6190000 		.4byte	0x19d6
 5158 19c7 1B       		.uleb128 0x1b
 5159 19c8 01       		.uleb128 0x1
 5160 19c9 51       		.byte	0x51
 5161 19ca 03       		.uleb128 0x3
 5162 19cb 91       		.byte	0x91
 5163 19cc EC6E     		.sleb128 -2196
 5164 19ce 1B       		.uleb128 0x1b
 5165 19cf 01       		.uleb128 0x1
 5166 19d0 50       		.byte	0x50
 5167 19d1 03       		.uleb128 0x3
 5168 19d2 91       		.byte	0x91
 5169 19d3 F47E     		.sleb128 -140
 5170 19d5 00       		.byte	0
 5171 19d6 28       		.uleb128 0x28
 5172 19d7 68010000 		.4byte	.LVL298
 5173 19db 4C1C0000 		.4byte	0x1c4c
 5174 19df 00       		.byte	0
 5175 19e0 10       		.uleb128 0x10
 5176 19e1 C1000000 		.4byte	0xc1
 5177 19e5 F0190000 		.4byte	0x19f0
 5178 19e9 11       		.uleb128 0x11
 5179 19ea E0000000 		.4byte	0xe0
 5180 19ee 63       		.byte	0x63
 5181 19ef 00       		.byte	0
 5182 19f0 18       		.uleb128 0x18
 5183 19f1 C32B0000 		.4byte	.LASF440
 5184 19f5 01       		.byte	0x1
 5185 19f6 DE02     		.2byte	0x2de
 5186 19f8 00000000 		.4byte	.LFB54
 5187 19fc 02000000 		.4byte	.LFE54-.LFB54
 5188 1a00 01       		.uleb128 0x1
 5189 1a01 9C       		.byte	0x9c
 5190 1a02 231A0000 		.4byte	0x1a23
 5191 1a06 38       		.uleb128 0x38
 5192 1a07 F02D0000 		.4byte	.LASF441
 5193 1a0b 01       		.byte	0x1
 5194 1a0c DE02     		.2byte	0x2de
 5195 1a0e 8A000000 		.4byte	0x8a
 5196 1a12 01       		.uleb128 0x1
 5197 1a13 50       		.byte	0x50
 5198 1a14 38       		.uleb128 0x38
ARM GAS  C:\Users\mlgjmoor\AppData\Local\Temp\ccwL0k1p.s 			page 115


 5199 1a15 0F020000 		.4byte	.LASF442
 5200 1a19 01       		.byte	0x1
 5201 1a1a DE02     		.2byte	0x2de
 5202 1a1c E7000000 		.4byte	0xe7
 5203 1a20 01       		.uleb128 0x1
 5204 1a21 51       		.byte	0x51
 5205 1a22 00       		.byte	0
 5206 1a23 10       		.uleb128 0x10
 5207 1a24 0F0B0000 		.4byte	0xb0f
 5208 1a28 331A0000 		.4byte	0x1a33
 5209 1a2c 11       		.uleb128 0x11
 5210 1a2d E0000000 		.4byte	0xe0
 5211 1a31 04       		.byte	0x4
 5212 1a32 00       		.byte	0
 5213 1a33 39       		.uleb128 0x39
 5214 1a34 7C0F0000 		.4byte	.LASF443
 5215 1a38 01       		.byte	0x1
 5216 1a39 4D       		.byte	0x4d
 5217 1a3a 231A0000 		.4byte	0x1a23
 5218 1a3e 05       		.uleb128 0x5
 5219 1a3f 03       		.byte	0x3
 5220 1a40 14000000 		.4byte	cal_table
 5221 1a44 10       		.uleb128 0x10
 5222 1a45 7E000000 		.4byte	0x7e
 5223 1a49 541A0000 		.4byte	0x1a54
 5224 1a4d 11       		.uleb128 0x11
 5225 1a4e E0000000 		.4byte	0xe0
 5226 1a52 03       		.byte	0x3
 5227 1a53 00       		.byte	0
 5228 1a54 39       		.uleb128 0x39
 5229 1a55 98130000 		.4byte	.LASF444
 5230 1a59 01       		.byte	0x1
 5231 1a5a 4E       		.byte	0x4e
 5232 1a5b 441A0000 		.4byte	0x1a44
 5233 1a5f 05       		.uleb128 0x5
 5234 1a60 03       		.byte	0x3
 5235 1a61 08000000 		.4byte	filtered_adc
 5236 1a65 10       		.uleb128 0x10
 5237 1a66 010C0000 		.4byte	0xc01
 5238 1a6a 751A0000 		.4byte	0x1a75
 5239 1a6e 11       		.uleb128 0x11
 5240 1a6f E0000000 		.4byte	0xe0
 5241 1a73 04       		.byte	0x4
 5242 1a74 00       		.byte	0
 5243 1a75 39       		.uleb128 0x39
 5244 1a76 8C170000 		.4byte	.LASF445
 5245 1a7a 01       		.byte	0x1
 5246 1a7b 4F       		.byte	0x4f
 5247 1a7c 651A0000 		.4byte	0x1a65
 5248 1a80 05       		.uleb128 0x5
 5249 1a81 03       		.byte	0x3
 5250 1a82 44000000 		.4byte	pins
 5251 1a86 39       		.uleb128 0x39
 5252 1a87 CA250000 		.4byte	.LASF446
 5253 1a8b 01       		.byte	0x1
 5254 1a8c 51       		.byte	0x51
 5255 1a8d C8000000 		.4byte	0xc8
ARM GAS  C:\Users\mlgjmoor\AppData\Local\Temp\ccwL0k1p.s 			page 116


 5256 1a91 05       		.uleb128 0x5
 5257 1a92 03       		.byte	0x3
 5258 1a93 40000000 		.4byte	temperature
 5259 1a97 39       		.uleb128 0x39
 5260 1a98 0E220000 		.4byte	.LASF447
 5261 1a9c 01       		.byte	0x1
 5262 1a9d 52       		.byte	0x52
 5263 1a9e A81A0000 		.4byte	0x1aa8
 5264 1aa2 05       		.uleb128 0x5
 5265 1aa3 03       		.byte	0x3
 5266 1aa4 71000000 		.4byte	temperature_convert
 5267 1aa8 05       		.uleb128 0x5
 5268 1aa9 610B0000 		.4byte	0xb61
 5269 1aad 39       		.uleb128 0x39
 5270 1aae 0A0B0000 		.4byte	.LASF448
 5271 1ab2 01       		.byte	0x1
 5272 1ab3 54       		.byte	0x54
 5273 1ab4 A81A0000 		.4byte	0x1aa8
 5274 1ab8 05       		.uleb128 0x5
 5275 1ab9 03       		.byte	0x3
 5276 1aba 04000000 		.4byte	timer_flag
 5277 1abe 39       		.uleb128 0x39
 5278 1abf 8D200000 		.4byte	.LASF449
 5279 1ac3 01       		.byte	0x1
 5280 1ac4 55       		.byte	0x55
 5281 1ac5 610B0000 		.4byte	0xb61
 5282 1ac9 05       		.uleb128 0x5
 5283 1aca 03       		.byte	0x3
 5284 1acb 70000000 		.4byte	input_ready
 5285 1acf 39       		.uleb128 0x39
 5286 1ad0 EC190000 		.4byte	.LASF450
 5287 1ad4 01       		.byte	0x1
 5288 1ad5 56       		.byte	0x56
 5289 1ad6 610B0000 		.4byte	0xb61
 5290 1ada 05       		.uleb128 0x5
 5291 1adb 03       		.byte	0x3
 5292 1adc 3C000000 		.4byte	calibrated
 5293 1ae0 3A       		.uleb128 0x3a
 5294 1ae1 E51D0000 		.4byte	.LASF452
 5295 1ae5 07       		.byte	0x7
 5296 1ae6 4701     		.2byte	0x147
 5297 1ae8 F21A0000 		.4byte	0x1af2
 5298 1aec 13       		.uleb128 0x13
 5299 1aed 8A000000 		.4byte	0x8a
 5300 1af1 00       		.byte	0
 5301 1af2 3A       		.uleb128 0x3a
 5302 1af3 30230000 		.4byte	.LASF453
 5303 1af7 08       		.byte	0x8
 5304 1af8 2103     		.2byte	0x321
 5305 1afa 041B0000 		.4byte	0x1b04
 5306 1afe 13       		.uleb128 0x13
 5307 1aff 041B0000 		.4byte	0x1b04
 5308 1b03 00       		.byte	0
 5309 1b04 06       		.uleb128 0x6
 5310 1b05 04       		.byte	0x4
 5311 1b06 0A1B0000 		.4byte	0x1b0a
 5312 1b0a 3B       		.uleb128 0x3b
ARM GAS  C:\Users\mlgjmoor\AppData\Local\Temp\ccwL0k1p.s 			page 117


 5313 1b0b B5000000 		.4byte	0xb5
 5314 1b0f 3C       		.uleb128 0x3c
 5315 1b10 43120000 		.4byte	.LASF454
 5316 1b14 06       		.byte	0x6
 5317 1b15 2C       		.byte	0x2c
 5318 1b16 580F0000 		.4byte	0xf58
 5319 1b1a 241B0000 		.4byte	0x1b24
 5320 1b1e 13       		.uleb128 0x13
 5321 1b1f 550B0000 		.4byte	0xb55
 5322 1b23 00       		.byte	0
 5323 1b24 3C       		.uleb128 0x3c
 5324 1b25 A2040000 		.4byte	.LASF455
 5325 1b29 06       		.byte	0x6
 5326 1b2a 2B       		.byte	0x2b
 5327 1b2b 580F0000 		.4byte	0xf58
 5328 1b2f 391B0000 		.4byte	0x1b39
 5329 1b33 13       		.uleb128 0x13
 5330 1b34 550B0000 		.4byte	0xb55
 5331 1b38 00       		.byte	0
 5332 1b39 3C       		.uleb128 0x3c
 5333 1b3a 79140000 		.4byte	.LASF456
 5334 1b3e 06       		.byte	0x6
 5335 1b3f 2D       		.byte	0x2d
 5336 1b40 610B0000 		.4byte	0xb61
 5337 1b44 4E1B0000 		.4byte	0x1b4e
 5338 1b48 13       		.uleb128 0x13
 5339 1b49 550B0000 		.4byte	0xb55
 5340 1b4d 00       		.byte	0
 5341 1b4e 3C       		.uleb128 0x3c
 5342 1b4f 0D250000 		.4byte	.LASF457
 5343 1b53 09       		.byte	0x9
 5344 1b54 38       		.byte	0x38
 5345 1b55 A2000000 		.4byte	0xa2
 5346 1b59 631B0000 		.4byte	0x1b63
 5347 1b5d 13       		.uleb128 0x13
 5348 1b5e A2000000 		.4byte	0xa2
 5349 1b62 00       		.byte	0
 5350 1b63 3D       		.uleb128 0x3d
 5351 1b64 AF230000 		.4byte	.LASF458
 5352 1b68 0A       		.byte	0xa
 5353 1b69 D7       		.byte	0xd7
 5354 1b6a 741B0000 		.4byte	0x1b74
 5355 1b6e 13       		.uleb128 0x13
 5356 1b6f 8A000000 		.4byte	0x8a
 5357 1b73 00       		.byte	0
 5358 1b74 3E       		.uleb128 0x3e
 5359 1b75 1F1E0000 		.4byte	.LASF464
 5360 1b79 0B       		.byte	0xb
 5361 1b7a 9C       		.byte	0x9c
 5362 1b7b 3C       		.uleb128 0x3c
 5363 1b7c D7180000 		.4byte	.LASF459
 5364 1b80 0B       		.byte	0xb
 5365 1b81 9E       		.byte	0x9e
 5366 1b82 8A000000 		.4byte	0x8a
 5367 1b86 901B0000 		.4byte	0x1b90
 5368 1b8a 13       		.uleb128 0x13
 5369 1b8b 8A000000 		.4byte	0x8a
ARM GAS  C:\Users\mlgjmoor\AppData\Local\Temp\ccwL0k1p.s 			page 118


 5370 1b8f 00       		.byte	0
 5371 1b90 3C       		.uleb128 0x3c
 5372 1b91 95080000 		.4byte	.LASF460
 5373 1b95 0B       		.byte	0xb
 5374 1b96 9F       		.byte	0x9f
 5375 1b97 96000000 		.4byte	0x96
 5376 1b9b A51B0000 		.4byte	0x1ba5
 5377 1b9f 13       		.uleb128 0x13
 5378 1ba0 8A000000 		.4byte	0x8a
 5379 1ba4 00       		.byte	0
 5380 1ba5 3F       		.uleb128 0x3f
 5381 1ba6 A4070000 		.4byte	.LASF478
 5382 1baa 08       		.byte	0x8
 5383 1bab 0603     		.2byte	0x306
 5384 1bad 8A000000 		.4byte	0x8a
 5385 1bb1 3A       		.uleb128 0x3a
 5386 1bb2 B0240000 		.4byte	.LASF461
 5387 1bb6 08       		.byte	0x8
 5388 1bb7 3A03     		.2byte	0x33a
 5389 1bb9 C31B0000 		.4byte	0x1bc3
 5390 1bbd 13       		.uleb128 0x13
 5391 1bbe 8A000000 		.4byte	0x8a
 5392 1bc2 00       		.byte	0
 5393 1bc3 3D       		.uleb128 0x3d
 5394 1bc4 E51F0000 		.4byte	.LASF462
 5395 1bc8 06       		.byte	0x6
 5396 1bc9 2A       		.byte	0x2a
 5397 1bca D91B0000 		.4byte	0x1bd9
 5398 1bce 13       		.uleb128 0x13
 5399 1bcf 550B0000 		.4byte	0xb55
 5400 1bd3 13       		.uleb128 0x13
 5401 1bd4 860A0000 		.4byte	0xa86
 5402 1bd8 00       		.byte	0
 5403 1bd9 3D       		.uleb128 0x3d
 5404 1bda FF050000 		.4byte	.LASF463
 5405 1bde 0C       		.byte	0xc
 5406 1bdf 18       		.byte	0x18
 5407 1be0 EA1B0000 		.4byte	0x1bea
 5408 1be4 13       		.uleb128 0x13
 5409 1be5 CD000000 		.4byte	0xcd
 5410 1be9 00       		.byte	0
 5411 1bea 40       		.uleb128 0x40
 5412 1beb 171D0000 		.4byte	.LASF465
 5413 1bef 07       		.byte	0x7
 5414 1bf0 3201     		.2byte	0x132
 5415 1bf2 3E       		.uleb128 0x3e
 5416 1bf3 350C0000 		.4byte	.LASF466
 5417 1bf7 0D       		.byte	0xd
 5418 1bf8 6E       		.byte	0x6e
 5419 1bf9 3E       		.uleb128 0x3e
 5420 1bfa 85290000 		.4byte	.LASF467
 5421 1bfe 0B       		.byte	0xb
 5422 1bff 98       		.byte	0x98
 5423 1c00 3E       		.uleb128 0x3e
 5424 1c01 97180000 		.4byte	.LASF468
 5425 1c05 0B       		.byte	0xb
 5426 1c06 A8       		.byte	0xa8
ARM GAS  C:\Users\mlgjmoor\AppData\Local\Temp\ccwL0k1p.s 			page 119


 5427 1c07 36       		.uleb128 0x36
 5428 1c08 811B0000 		.4byte	.LASF451
 5429 1c0c 01       		.byte	0x1
 5430 1c0d 8C02     		.2byte	0x28c
 5431 1c0f 64000000 		.4byte	0x64
 5432 1c13 191C0000 		.4byte	0x1c19
 5433 1c17 37       		.uleb128 0x37
 5434 1c18 00       		.byte	0
 5435 1c19 3D       		.uleb128 0x3d
 5436 1c1a D7290000 		.4byte	.LASF469
 5437 1c1e 0E       		.byte	0xe
 5438 1c1f 33       		.byte	0x33
 5439 1c20 2A1C0000 		.4byte	0x1c2a
 5440 1c24 13       		.uleb128 0x13
 5441 1c25 72000000 		.4byte	0x72
 5442 1c29 00       		.byte	0
 5443 1c2a 3D       		.uleb128 0x3d
 5444 1c2b 0F260000 		.4byte	.LASF470
 5445 1c2f 0F       		.byte	0xf
 5446 1c30 33       		.byte	0x33
 5447 1c31 3B1C0000 		.4byte	0x1c3b
 5448 1c35 13       		.uleb128 0x13
 5449 1c36 72000000 		.4byte	0x72
 5450 1c3a 00       		.byte	0
 5451 1c3b 3D       		.uleb128 0x3d
 5452 1c3c 91070000 		.4byte	.LASF471
 5453 1c40 10       		.byte	0x10
 5454 1c41 33       		.byte	0x33
 5455 1c42 4C1C0000 		.4byte	0x1c4c
 5456 1c46 13       		.uleb128 0x13
 5457 1c47 72000000 		.4byte	0x72
 5458 1c4b 00       		.byte	0
 5459 1c4c 3E       		.uleb128 0x3e
 5460 1c4d 89220000 		.4byte	.LASF472
 5461 1c51 11       		.byte	0x11
 5462 1c52 56       		.byte	0x56
 5463 1c53 00       		.byte	0
 5464              		.section	.debug_abbrev,"",%progbits
 5465              	.Ldebug_abbrev0:
 5466 0000 01       		.uleb128 0x1
 5467 0001 11       		.uleb128 0x11
 5468 0002 01       		.byte	0x1
 5469 0003 25       		.uleb128 0x25
 5470 0004 0E       		.uleb128 0xe
 5471 0005 13       		.uleb128 0x13
 5472 0006 0B       		.uleb128 0xb
 5473 0007 03       		.uleb128 0x3
 5474 0008 0E       		.uleb128 0xe
 5475 0009 1B       		.uleb128 0x1b
 5476 000a 0E       		.uleb128 0xe
 5477 000b 55       		.uleb128 0x55
 5478 000c 17       		.uleb128 0x17
 5479 000d 11       		.uleb128 0x11
 5480 000e 01       		.uleb128 0x1
 5481 000f 10       		.uleb128 0x10
 5482 0010 17       		.uleb128 0x17
 5483 0011 00       		.byte	0
ARM GAS  C:\Users\mlgjmoor\AppData\Local\Temp\ccwL0k1p.s 			page 120


 5484 0012 00       		.byte	0
 5485 0013 02       		.uleb128 0x2
 5486 0014 24       		.uleb128 0x24
 5487 0015 00       		.byte	0
 5488 0016 0B       		.uleb128 0xb
 5489 0017 0B       		.uleb128 0xb
 5490 0018 3E       		.uleb128 0x3e
 5491 0019 0B       		.uleb128 0xb
 5492 001a 03       		.uleb128 0x3
 5493 001b 0E       		.uleb128 0xe
 5494 001c 00       		.byte	0
 5495 001d 00       		.byte	0
 5496 001e 03       		.uleb128 0x3
 5497 001f 24       		.uleb128 0x24
 5498 0020 00       		.byte	0
 5499 0021 0B       		.uleb128 0xb
 5500 0022 0B       		.uleb128 0xb
 5501 0023 3E       		.uleb128 0x3e
 5502 0024 0B       		.uleb128 0xb
 5503 0025 03       		.uleb128 0x3
 5504 0026 08       		.uleb128 0x8
 5505 0027 00       		.byte	0
 5506 0028 00       		.byte	0
 5507 0029 04       		.uleb128 0x4
 5508 002a 16       		.uleb128 0x16
 5509 002b 00       		.byte	0
 5510 002c 03       		.uleb128 0x3
 5511 002d 0E       		.uleb128 0xe
 5512 002e 3A       		.uleb128 0x3a
 5513 002f 0B       		.uleb128 0xb
 5514 0030 3B       		.uleb128 0x3b
 5515 0031 05       		.uleb128 0x5
 5516 0032 49       		.uleb128 0x49
 5517 0033 13       		.uleb128 0x13
 5518 0034 00       		.byte	0
 5519 0035 00       		.byte	0
 5520 0036 05       		.uleb128 0x5
 5521 0037 35       		.uleb128 0x35
 5522 0038 00       		.byte	0
 5523 0039 49       		.uleb128 0x49
 5524 003a 13       		.uleb128 0x13
 5525 003b 00       		.byte	0
 5526 003c 00       		.byte	0
 5527 003d 06       		.uleb128 0x6
 5528 003e 0F       		.uleb128 0xf
 5529 003f 00       		.byte	0
 5530 0040 0B       		.uleb128 0xb
 5531 0041 0B       		.uleb128 0xb
 5532 0042 49       		.uleb128 0x49
 5533 0043 13       		.uleb128 0x13
 5534 0044 00       		.byte	0
 5535 0045 00       		.byte	0
 5536 0046 07       		.uleb128 0x7
 5537 0047 15       		.uleb128 0x15
 5538 0048 00       		.byte	0
 5539 0049 27       		.uleb128 0x27
 5540 004a 19       		.uleb128 0x19
ARM GAS  C:\Users\mlgjmoor\AppData\Local\Temp\ccwL0k1p.s 			page 121


 5541 004b 00       		.byte	0
 5542 004c 00       		.byte	0
 5543 004d 08       		.uleb128 0x8
 5544 004e 0F       		.uleb128 0xf
 5545 004f 00       		.byte	0
 5546 0050 0B       		.uleb128 0xb
 5547 0051 0B       		.uleb128 0xb
 5548 0052 00       		.byte	0
 5549 0053 00       		.byte	0
 5550 0054 09       		.uleb128 0x9
 5551 0055 04       		.uleb128 0x4
 5552 0056 01       		.byte	0x1
 5553 0057 0B       		.uleb128 0xb
 5554 0058 0B       		.uleb128 0xb
 5555 0059 3A       		.uleb128 0x3a
 5556 005a 0B       		.uleb128 0xb
 5557 005b 3B       		.uleb128 0x3b
 5558 005c 05       		.uleb128 0x5
 5559 005d 01       		.uleb128 0x1
 5560 005e 13       		.uleb128 0x13
 5561 005f 00       		.byte	0
 5562 0060 00       		.byte	0
 5563 0061 0A       		.uleb128 0xa
 5564 0062 28       		.uleb128 0x28
 5565 0063 00       		.byte	0
 5566 0064 03       		.uleb128 0x3
 5567 0065 0E       		.uleb128 0xe
 5568 0066 1C       		.uleb128 0x1c
 5569 0067 0D       		.uleb128 0xd
 5570 0068 00       		.byte	0
 5571 0069 00       		.byte	0
 5572 006a 0B       		.uleb128 0xb
 5573 006b 04       		.uleb128 0x4
 5574 006c 01       		.byte	0x1
 5575 006d 0B       		.uleb128 0xb
 5576 006e 0B       		.uleb128 0xb
 5577 006f 3A       		.uleb128 0x3a
 5578 0070 0B       		.uleb128 0xb
 5579 0071 3B       		.uleb128 0x3b
 5580 0072 0B       		.uleb128 0xb
 5581 0073 01       		.uleb128 0x1
 5582 0074 13       		.uleb128 0x13
 5583 0075 00       		.byte	0
 5584 0076 00       		.byte	0
 5585 0077 0C       		.uleb128 0xc
 5586 0078 13       		.uleb128 0x13
 5587 0079 01       		.byte	0x1
 5588 007a 03       		.uleb128 0x3
 5589 007b 0E       		.uleb128 0xe
 5590 007c 0B       		.uleb128 0xb
 5591 007d 0B       		.uleb128 0xb
 5592 007e 3A       		.uleb128 0x3a
 5593 007f 0B       		.uleb128 0xb
 5594 0080 3B       		.uleb128 0x3b
 5595 0081 0B       		.uleb128 0xb
 5596 0082 01       		.uleb128 0x1
 5597 0083 13       		.uleb128 0x13
ARM GAS  C:\Users\mlgjmoor\AppData\Local\Temp\ccwL0k1p.s 			page 122


 5598 0084 00       		.byte	0
 5599 0085 00       		.byte	0
 5600 0086 0D       		.uleb128 0xd
 5601 0087 0D       		.uleb128 0xd
 5602 0088 00       		.byte	0
 5603 0089 03       		.uleb128 0x3
 5604 008a 0E       		.uleb128 0xe
 5605 008b 3A       		.uleb128 0x3a
 5606 008c 0B       		.uleb128 0xb
 5607 008d 3B       		.uleb128 0x3b
 5608 008e 0B       		.uleb128 0xb
 5609 008f 49       		.uleb128 0x49
 5610 0090 13       		.uleb128 0x13
 5611 0091 38       		.uleb128 0x38
 5612 0092 0B       		.uleb128 0xb
 5613 0093 00       		.byte	0
 5614 0094 00       		.byte	0
 5615 0095 0E       		.uleb128 0xe
 5616 0096 16       		.uleb128 0x16
 5617 0097 00       		.byte	0
 5618 0098 03       		.uleb128 0x3
 5619 0099 0E       		.uleb128 0xe
 5620 009a 3A       		.uleb128 0x3a
 5621 009b 0B       		.uleb128 0xb
 5622 009c 3B       		.uleb128 0x3b
 5623 009d 0B       		.uleb128 0xb
 5624 009e 49       		.uleb128 0x49
 5625 009f 13       		.uleb128 0x13
 5626 00a0 00       		.byte	0
 5627 00a1 00       		.byte	0
 5628 00a2 0F       		.uleb128 0xf
 5629 00a3 13       		.uleb128 0x13
 5630 00a4 01       		.byte	0x1
 5631 00a5 03       		.uleb128 0x3
 5632 00a6 0E       		.uleb128 0xe
 5633 00a7 0B       		.uleb128 0xb
 5634 00a8 05       		.uleb128 0x5
 5635 00a9 3A       		.uleb128 0x3a
 5636 00aa 0B       		.uleb128 0xb
 5637 00ab 3B       		.uleb128 0x3b
 5638 00ac 0B       		.uleb128 0xb
 5639 00ad 01       		.uleb128 0x1
 5640 00ae 13       		.uleb128 0x13
 5641 00af 00       		.byte	0
 5642 00b0 00       		.byte	0
 5643 00b1 10       		.uleb128 0x10
 5644 00b2 01       		.uleb128 0x1
 5645 00b3 01       		.byte	0x1
 5646 00b4 49       		.uleb128 0x49
 5647 00b5 13       		.uleb128 0x13
 5648 00b6 01       		.uleb128 0x1
 5649 00b7 13       		.uleb128 0x13
 5650 00b8 00       		.byte	0
 5651 00b9 00       		.byte	0
 5652 00ba 11       		.uleb128 0x11
 5653 00bb 21       		.uleb128 0x21
 5654 00bc 00       		.byte	0
ARM GAS  C:\Users\mlgjmoor\AppData\Local\Temp\ccwL0k1p.s 			page 123


 5655 00bd 49       		.uleb128 0x49
 5656 00be 13       		.uleb128 0x13
 5657 00bf 2F       		.uleb128 0x2f
 5658 00c0 0B       		.uleb128 0xb
 5659 00c1 00       		.byte	0
 5660 00c2 00       		.byte	0
 5661 00c3 12       		.uleb128 0x12
 5662 00c4 15       		.uleb128 0x15
 5663 00c5 01       		.byte	0x1
 5664 00c6 27       		.uleb128 0x27
 5665 00c7 19       		.uleb128 0x19
 5666 00c8 01       		.uleb128 0x1
 5667 00c9 13       		.uleb128 0x13
 5668 00ca 00       		.byte	0
 5669 00cb 00       		.byte	0
 5670 00cc 13       		.uleb128 0x13
 5671 00cd 05       		.uleb128 0x5
 5672 00ce 00       		.byte	0
 5673 00cf 49       		.uleb128 0x49
 5674 00d0 13       		.uleb128 0x13
 5675 00d1 00       		.byte	0
 5676 00d2 00       		.byte	0
 5677 00d3 14       		.uleb128 0x14
 5678 00d4 04       		.uleb128 0x4
 5679 00d5 01       		.byte	0x1
 5680 00d6 03       		.uleb128 0x3
 5681 00d7 0E       		.uleb128 0xe
 5682 00d8 0B       		.uleb128 0xb
 5683 00d9 0B       		.uleb128 0xb
 5684 00da 3A       		.uleb128 0x3a
 5685 00db 0B       		.uleb128 0xb
 5686 00dc 3B       		.uleb128 0x3b
 5687 00dd 0B       		.uleb128 0xb
 5688 00de 01       		.uleb128 0x1
 5689 00df 13       		.uleb128 0x13
 5690 00e0 00       		.byte	0
 5691 00e1 00       		.byte	0
 5692 00e2 15       		.uleb128 0x15
 5693 00e3 13       		.uleb128 0x13
 5694 00e4 01       		.byte	0x1
 5695 00e5 03       		.uleb128 0x3
 5696 00e6 08       		.uleb128 0x8
 5697 00e7 0B       		.uleb128 0xb
 5698 00e8 0B       		.uleb128 0xb
 5699 00e9 3A       		.uleb128 0x3a
 5700 00ea 0B       		.uleb128 0xb
 5701 00eb 3B       		.uleb128 0x3b
 5702 00ec 0B       		.uleb128 0xb
 5703 00ed 01       		.uleb128 0x1
 5704 00ee 13       		.uleb128 0x13
 5705 00ef 00       		.byte	0
 5706 00f0 00       		.byte	0
 5707 00f1 16       		.uleb128 0x16
 5708 00f2 0D       		.uleb128 0xd
 5709 00f3 00       		.byte	0
 5710 00f4 03       		.uleb128 0x3
 5711 00f5 08       		.uleb128 0x8
ARM GAS  C:\Users\mlgjmoor\AppData\Local\Temp\ccwL0k1p.s 			page 124


 5712 00f6 3A       		.uleb128 0x3a
 5713 00f7 0B       		.uleb128 0xb
 5714 00f8 3B       		.uleb128 0x3b
 5715 00f9 0B       		.uleb128 0xb
 5716 00fa 49       		.uleb128 0x49
 5717 00fb 13       		.uleb128 0x13
 5718 00fc 38       		.uleb128 0x38
 5719 00fd 0B       		.uleb128 0xb
 5720 00fe 00       		.byte	0
 5721 00ff 00       		.byte	0
 5722 0100 17       		.uleb128 0x17
 5723 0101 16       		.uleb128 0x16
 5724 0102 00       		.byte	0
 5725 0103 03       		.uleb128 0x3
 5726 0104 08       		.uleb128 0x8
 5727 0105 3A       		.uleb128 0x3a
 5728 0106 0B       		.uleb128 0xb
 5729 0107 3B       		.uleb128 0x3b
 5730 0108 0B       		.uleb128 0xb
 5731 0109 49       		.uleb128 0x49
 5732 010a 13       		.uleb128 0x13
 5733 010b 00       		.byte	0
 5734 010c 00       		.byte	0
 5735 010d 18       		.uleb128 0x18
 5736 010e 2E       		.uleb128 0x2e
 5737 010f 01       		.byte	0x1
 5738 0110 3F       		.uleb128 0x3f
 5739 0111 19       		.uleb128 0x19
 5740 0112 03       		.uleb128 0x3
 5741 0113 0E       		.uleb128 0xe
 5742 0114 3A       		.uleb128 0x3a
 5743 0115 0B       		.uleb128 0xb
 5744 0116 3B       		.uleb128 0x3b
 5745 0117 05       		.uleb128 0x5
 5746 0118 27       		.uleb128 0x27
 5747 0119 19       		.uleb128 0x19
 5748 011a 11       		.uleb128 0x11
 5749 011b 01       		.uleb128 0x1
 5750 011c 12       		.uleb128 0x12
 5751 011d 06       		.uleb128 0x6
 5752 011e 40       		.uleb128 0x40
 5753 011f 18       		.uleb128 0x18
 5754 0120 9742     		.uleb128 0x2117
 5755 0122 19       		.uleb128 0x19
 5756 0123 01       		.uleb128 0x1
 5757 0124 13       		.uleb128 0x13
 5758 0125 00       		.byte	0
 5759 0126 00       		.byte	0
 5760 0127 19       		.uleb128 0x19
 5761 0128 34       		.uleb128 0x34
 5762 0129 00       		.byte	0
 5763 012a 03       		.uleb128 0x3
 5764 012b 0E       		.uleb128 0xe
 5765 012c 3A       		.uleb128 0x3a
 5766 012d 0B       		.uleb128 0xb
 5767 012e 3B       		.uleb128 0x3b
 5768 012f 05       		.uleb128 0x5
ARM GAS  C:\Users\mlgjmoor\AppData\Local\Temp\ccwL0k1p.s 			page 125


 5769 0130 49       		.uleb128 0x49
 5770 0131 13       		.uleb128 0x13
 5771 0132 02       		.uleb128 0x2
 5772 0133 18       		.uleb128 0x18
 5773 0134 00       		.byte	0
 5774 0135 00       		.byte	0
 5775 0136 1A       		.uleb128 0x1a
 5776 0137 898201   		.uleb128 0x4109
 5777 013a 01       		.byte	0x1
 5778 013b 11       		.uleb128 0x11
 5779 013c 01       		.uleb128 0x1
 5780 013d 31       		.uleb128 0x31
 5781 013e 13       		.uleb128 0x13
 5782 013f 01       		.uleb128 0x1
 5783 0140 13       		.uleb128 0x13
 5784 0141 00       		.byte	0
 5785 0142 00       		.byte	0
 5786 0143 1B       		.uleb128 0x1b
 5787 0144 8A8201   		.uleb128 0x410a
 5788 0147 00       		.byte	0
 5789 0148 02       		.uleb128 0x2
 5790 0149 18       		.uleb128 0x18
 5791 014a 9142     		.uleb128 0x2111
 5792 014c 18       		.uleb128 0x18
 5793 014d 00       		.byte	0
 5794 014e 00       		.byte	0
 5795 014f 1C       		.uleb128 0x1c
 5796 0150 898201   		.uleb128 0x4109
 5797 0153 01       		.byte	0x1
 5798 0154 11       		.uleb128 0x11
 5799 0155 01       		.uleb128 0x1
 5800 0156 31       		.uleb128 0x31
 5801 0157 13       		.uleb128 0x13
 5802 0158 00       		.byte	0
 5803 0159 00       		.byte	0
 5804 015a 1D       		.uleb128 0x1d
 5805 015b 2E       		.uleb128 0x2e
 5806 015c 01       		.byte	0x1
 5807 015d 3F       		.uleb128 0x3f
 5808 015e 19       		.uleb128 0x19
 5809 015f 03       		.uleb128 0x3
 5810 0160 0E       		.uleb128 0xe
 5811 0161 3A       		.uleb128 0x3a
 5812 0162 0B       		.uleb128 0xb
 5813 0163 3B       		.uleb128 0x3b
 5814 0164 0B       		.uleb128 0xb
 5815 0165 27       		.uleb128 0x27
 5816 0166 19       		.uleb128 0x19
 5817 0167 49       		.uleb128 0x49
 5818 0168 13       		.uleb128 0x13
 5819 0169 11       		.uleb128 0x11
 5820 016a 01       		.uleb128 0x1
 5821 016b 12       		.uleb128 0x12
 5822 016c 06       		.uleb128 0x6
 5823 016d 40       		.uleb128 0x40
 5824 016e 18       		.uleb128 0x18
 5825 016f 9642     		.uleb128 0x2116
ARM GAS  C:\Users\mlgjmoor\AppData\Local\Temp\ccwL0k1p.s 			page 126


 5826 0171 19       		.uleb128 0x19
 5827 0172 01       		.uleb128 0x1
 5828 0173 13       		.uleb128 0x13
 5829 0174 00       		.byte	0
 5830 0175 00       		.byte	0
 5831 0176 1E       		.uleb128 0x1e
 5832 0177 05       		.uleb128 0x5
 5833 0178 00       		.byte	0
 5834 0179 03       		.uleb128 0x3
 5835 017a 08       		.uleb128 0x8
 5836 017b 3A       		.uleb128 0x3a
 5837 017c 0B       		.uleb128 0xb
 5838 017d 3B       		.uleb128 0x3b
 5839 017e 0B       		.uleb128 0xb
 5840 017f 49       		.uleb128 0x49
 5841 0180 13       		.uleb128 0x13
 5842 0181 02       		.uleb128 0x2
 5843 0182 17       		.uleb128 0x17
 5844 0183 00       		.byte	0
 5845 0184 00       		.byte	0
 5846 0185 1F       		.uleb128 0x1f
 5847 0186 34       		.uleb128 0x34
 5848 0187 00       		.byte	0
 5849 0188 03       		.uleb128 0x3
 5850 0189 0E       		.uleb128 0xe
 5851 018a 3A       		.uleb128 0x3a
 5852 018b 0B       		.uleb128 0xb
 5853 018c 3B       		.uleb128 0x3b
 5854 018d 0B       		.uleb128 0xb
 5855 018e 49       		.uleb128 0x49
 5856 018f 13       		.uleb128 0x13
 5857 0190 02       		.uleb128 0x2
 5858 0191 17       		.uleb128 0x17
 5859 0192 00       		.byte	0
 5860 0193 00       		.byte	0
 5861 0194 20       		.uleb128 0x20
 5862 0195 34       		.uleb128 0x34
 5863 0196 00       		.byte	0
 5864 0197 03       		.uleb128 0x3
 5865 0198 08       		.uleb128 0x8
 5866 0199 3A       		.uleb128 0x3a
 5867 019a 0B       		.uleb128 0xb
 5868 019b 3B       		.uleb128 0x3b
 5869 019c 0B       		.uleb128 0xb
 5870 019d 49       		.uleb128 0x49
 5871 019e 13       		.uleb128 0x13
 5872 019f 02       		.uleb128 0x2
 5873 01a0 17       		.uleb128 0x17
 5874 01a1 00       		.byte	0
 5875 01a2 00       		.byte	0
 5876 01a3 21       		.uleb128 0x21
 5877 01a4 2E       		.uleb128 0x2e
 5878 01a5 01       		.byte	0x1
 5879 01a6 3F       		.uleb128 0x3f
 5880 01a7 19       		.uleb128 0x19
 5881 01a8 03       		.uleb128 0x3
 5882 01a9 0E       		.uleb128 0xe
ARM GAS  C:\Users\mlgjmoor\AppData\Local\Temp\ccwL0k1p.s 			page 127


 5883 01aa 3A       		.uleb128 0x3a
 5884 01ab 0B       		.uleb128 0xb
 5885 01ac 3B       		.uleb128 0x3b
 5886 01ad 0B       		.uleb128 0xb
 5887 01ae 27       		.uleb128 0x27
 5888 01af 19       		.uleb128 0x19
 5889 01b0 49       		.uleb128 0x49
 5890 01b1 13       		.uleb128 0x13
 5891 01b2 11       		.uleb128 0x11
 5892 01b3 01       		.uleb128 0x1
 5893 01b4 12       		.uleb128 0x12
 5894 01b5 06       		.uleb128 0x6
 5895 01b6 40       		.uleb128 0x40
 5896 01b7 18       		.uleb128 0x18
 5897 01b8 9742     		.uleb128 0x2117
 5898 01ba 19       		.uleb128 0x19
 5899 01bb 01       		.uleb128 0x1
 5900 01bc 13       		.uleb128 0x13
 5901 01bd 00       		.byte	0
 5902 01be 00       		.byte	0
 5903 01bf 22       		.uleb128 0x22
 5904 01c0 34       		.uleb128 0x34
 5905 01c1 00       		.byte	0
 5906 01c2 03       		.uleb128 0x3
 5907 01c3 08       		.uleb128 0x8
 5908 01c4 3A       		.uleb128 0x3a
 5909 01c5 0B       		.uleb128 0xb
 5910 01c6 3B       		.uleb128 0x3b
 5911 01c7 0B       		.uleb128 0xb
 5912 01c8 49       		.uleb128 0x49
 5913 01c9 13       		.uleb128 0x13
 5914 01ca 00       		.byte	0
 5915 01cb 00       		.byte	0
 5916 01cc 23       		.uleb128 0x23
 5917 01cd 2E       		.uleb128 0x2e
 5918 01ce 01       		.byte	0x1
 5919 01cf 3F       		.uleb128 0x3f
 5920 01d0 19       		.uleb128 0x19
 5921 01d1 03       		.uleb128 0x3
 5922 01d2 0E       		.uleb128 0xe
 5923 01d3 3A       		.uleb128 0x3a
 5924 01d4 0B       		.uleb128 0xb
 5925 01d5 3B       		.uleb128 0x3b
 5926 01d6 0B       		.uleb128 0xb
 5927 01d7 27       		.uleb128 0x27
 5928 01d8 19       		.uleb128 0x19
 5929 01d9 11       		.uleb128 0x11
 5930 01da 01       		.uleb128 0x1
 5931 01db 12       		.uleb128 0x12
 5932 01dc 06       		.uleb128 0x6
 5933 01dd 40       		.uleb128 0x40
 5934 01de 18       		.uleb128 0x18
 5935 01df 9642     		.uleb128 0x2116
 5936 01e1 19       		.uleb128 0x19
 5937 01e2 01       		.uleb128 0x1
 5938 01e3 13       		.uleb128 0x13
 5939 01e4 00       		.byte	0
ARM GAS  C:\Users\mlgjmoor\AppData\Local\Temp\ccwL0k1p.s 			page 128


 5940 01e5 00       		.byte	0
 5941 01e6 24       		.uleb128 0x24
 5942 01e7 05       		.uleb128 0x5
 5943 01e8 00       		.byte	0
 5944 01e9 03       		.uleb128 0x3
 5945 01ea 0E       		.uleb128 0xe
 5946 01eb 3A       		.uleb128 0x3a
 5947 01ec 0B       		.uleb128 0xb
 5948 01ed 3B       		.uleb128 0x3b
 5949 01ee 05       		.uleb128 0x5
 5950 01ef 49       		.uleb128 0x49
 5951 01f0 13       		.uleb128 0x13
 5952 01f1 02       		.uleb128 0x2
 5953 01f2 17       		.uleb128 0x17
 5954 01f3 00       		.byte	0
 5955 01f4 00       		.byte	0
 5956 01f5 25       		.uleb128 0x25
 5957 01f6 34       		.uleb128 0x34
 5958 01f7 00       		.byte	0
 5959 01f8 03       		.uleb128 0x3
 5960 01f9 0E       		.uleb128 0xe
 5961 01fa 3A       		.uleb128 0x3a
 5962 01fb 0B       		.uleb128 0xb
 5963 01fc 3B       		.uleb128 0x3b
 5964 01fd 05       		.uleb128 0x5
 5965 01fe 49       		.uleb128 0x49
 5966 01ff 13       		.uleb128 0x13
 5967 0200 02       		.uleb128 0x2
 5968 0201 17       		.uleb128 0x17
 5969 0202 00       		.byte	0
 5970 0203 00       		.byte	0
 5971 0204 26       		.uleb128 0x26
 5972 0205 0B       		.uleb128 0xb
 5973 0206 01       		.byte	0x1
 5974 0207 11       		.uleb128 0x11
 5975 0208 01       		.uleb128 0x1
 5976 0209 12       		.uleb128 0x12
 5977 020a 06       		.uleb128 0x6
 5978 020b 01       		.uleb128 0x1
 5979 020c 13       		.uleb128 0x13
 5980 020d 00       		.byte	0
 5981 020e 00       		.byte	0
 5982 020f 27       		.uleb128 0x27
 5983 0210 34       		.uleb128 0x34
 5984 0211 00       		.byte	0
 5985 0212 03       		.uleb128 0x3
 5986 0213 08       		.uleb128 0x8
 5987 0214 3A       		.uleb128 0x3a
 5988 0215 0B       		.uleb128 0xb
 5989 0216 3B       		.uleb128 0x3b
 5990 0217 05       		.uleb128 0x5
 5991 0218 49       		.uleb128 0x49
 5992 0219 13       		.uleb128 0x13
 5993 021a 02       		.uleb128 0x2
 5994 021b 17       		.uleb128 0x17
 5995 021c 00       		.byte	0
 5996 021d 00       		.byte	0
ARM GAS  C:\Users\mlgjmoor\AppData\Local\Temp\ccwL0k1p.s 			page 129


 5997 021e 28       		.uleb128 0x28
 5998 021f 898201   		.uleb128 0x4109
 5999 0222 00       		.byte	0
 6000 0223 11       		.uleb128 0x11
 6001 0224 01       		.uleb128 0x1
 6002 0225 31       		.uleb128 0x31
 6003 0226 13       		.uleb128 0x13
 6004 0227 00       		.byte	0
 6005 0228 00       		.byte	0
 6006 0229 29       		.uleb128 0x29
 6007 022a 34       		.uleb128 0x34
 6008 022b 00       		.byte	0
 6009 022c 03       		.uleb128 0x3
 6010 022d 0E       		.uleb128 0xe
 6011 022e 3A       		.uleb128 0x3a
 6012 022f 0B       		.uleb128 0xb
 6013 0230 3B       		.uleb128 0x3b
 6014 0231 0B       		.uleb128 0xb
 6015 0232 49       		.uleb128 0x49
 6016 0233 13       		.uleb128 0x13
 6017 0234 1C       		.uleb128 0x1c
 6018 0235 0B       		.uleb128 0xb
 6019 0236 00       		.byte	0
 6020 0237 00       		.byte	0
 6021 0238 2A       		.uleb128 0x2a
 6022 0239 05       		.uleb128 0x5
 6023 023a 00       		.byte	0
 6024 023b 03       		.uleb128 0x3
 6025 023c 0E       		.uleb128 0xe
 6026 023d 3A       		.uleb128 0x3a
 6027 023e 0B       		.uleb128 0xb
 6028 023f 3B       		.uleb128 0x3b
 6029 0240 0B       		.uleb128 0xb
 6030 0241 49       		.uleb128 0x49
 6031 0242 13       		.uleb128 0x13
 6032 0243 02       		.uleb128 0x2
 6033 0244 17       		.uleb128 0x17
 6034 0245 00       		.byte	0
 6035 0246 00       		.byte	0
 6036 0247 2B       		.uleb128 0x2b
 6037 0248 0B       		.uleb128 0xb
 6038 0249 01       		.byte	0x1
 6039 024a 11       		.uleb128 0x11
 6040 024b 01       		.uleb128 0x1
 6041 024c 12       		.uleb128 0x12
 6042 024d 06       		.uleb128 0x6
 6043 024e 00       		.byte	0
 6044 024f 00       		.byte	0
 6045 0250 2C       		.uleb128 0x2c
 6046 0251 34       		.uleb128 0x34
 6047 0252 00       		.byte	0
 6048 0253 03       		.uleb128 0x3
 6049 0254 0E       		.uleb128 0xe
 6050 0255 3A       		.uleb128 0x3a
 6051 0256 0B       		.uleb128 0xb
 6052 0257 3B       		.uleb128 0x3b
 6053 0258 05       		.uleb128 0x5
ARM GAS  C:\Users\mlgjmoor\AppData\Local\Temp\ccwL0k1p.s 			page 130


 6054 0259 49       		.uleb128 0x49
 6055 025a 13       		.uleb128 0x13
 6056 025b 00       		.byte	0
 6057 025c 00       		.byte	0
 6058 025d 2D       		.uleb128 0x2d
 6059 025e 2E       		.uleb128 0x2e
 6060 025f 01       		.byte	0x1
 6061 0260 3F       		.uleb128 0x3f
 6062 0261 19       		.uleb128 0x19
 6063 0262 03       		.uleb128 0x3
 6064 0263 0E       		.uleb128 0xe
 6065 0264 3A       		.uleb128 0x3a
 6066 0265 0B       		.uleb128 0xb
 6067 0266 3B       		.uleb128 0x3b
 6068 0267 05       		.uleb128 0x5
 6069 0268 27       		.uleb128 0x27
 6070 0269 19       		.uleb128 0x19
 6071 026a 49       		.uleb128 0x49
 6072 026b 13       		.uleb128 0x13
 6073 026c 11       		.uleb128 0x11
 6074 026d 01       		.uleb128 0x1
 6075 026e 12       		.uleb128 0x12
 6076 026f 06       		.uleb128 0x6
 6077 0270 40       		.uleb128 0x40
 6078 0271 18       		.uleb128 0x18
 6079 0272 9742     		.uleb128 0x2117
 6080 0274 19       		.uleb128 0x19
 6081 0275 01       		.uleb128 0x1
 6082 0276 13       		.uleb128 0x13
 6083 0277 00       		.byte	0
 6084 0278 00       		.byte	0
 6085 0279 2E       		.uleb128 0x2e
 6086 027a 898201   		.uleb128 0x4109
 6087 027d 01       		.byte	0x1
 6088 027e 11       		.uleb128 0x11
 6089 027f 01       		.uleb128 0x1
 6090 0280 01       		.uleb128 0x1
 6091 0281 13       		.uleb128 0x13
 6092 0282 00       		.byte	0
 6093 0283 00       		.byte	0
 6094 0284 2F       		.uleb128 0x2f
 6095 0285 898201   		.uleb128 0x4109
 6096 0288 01       		.byte	0x1
 6097 0289 11       		.uleb128 0x11
 6098 028a 01       		.uleb128 0x1
 6099 028b 00       		.byte	0
 6100 028c 00       		.byte	0
 6101 028d 30       		.uleb128 0x30
 6102 028e 2E       		.uleb128 0x2e
 6103 028f 01       		.byte	0x1
 6104 0290 3F       		.uleb128 0x3f
 6105 0291 19       		.uleb128 0x19
 6106 0292 03       		.uleb128 0x3
 6107 0293 0E       		.uleb128 0xe
 6108 0294 3A       		.uleb128 0x3a
 6109 0295 0B       		.uleb128 0xb
 6110 0296 3B       		.uleb128 0x3b
ARM GAS  C:\Users\mlgjmoor\AppData\Local\Temp\ccwL0k1p.s 			page 131


 6111 0297 05       		.uleb128 0x5
 6112 0298 27       		.uleb128 0x27
 6113 0299 19       		.uleb128 0x19
 6114 029a 11       		.uleb128 0x11
 6115 029b 01       		.uleb128 0x1
 6116 029c 12       		.uleb128 0x12
 6117 029d 06       		.uleb128 0x6
 6118 029e 40       		.uleb128 0x40
 6119 029f 18       		.uleb128 0x18
 6120 02a0 9642     		.uleb128 0x2116
 6121 02a2 19       		.uleb128 0x19
 6122 02a3 01       		.uleb128 0x1
 6123 02a4 13       		.uleb128 0x13
 6124 02a5 00       		.byte	0
 6125 02a6 00       		.byte	0
 6126 02a7 31       		.uleb128 0x31
 6127 02a8 05       		.uleb128 0x5
 6128 02a9 00       		.byte	0
 6129 02aa 03       		.uleb128 0x3
 6130 02ab 08       		.uleb128 0x8
 6131 02ac 3A       		.uleb128 0x3a
 6132 02ad 0B       		.uleb128 0xb
 6133 02ae 3B       		.uleb128 0x3b
 6134 02af 05       		.uleb128 0x5
 6135 02b0 49       		.uleb128 0x49
 6136 02b1 13       		.uleb128 0x13
 6137 02b2 02       		.uleb128 0x2
 6138 02b3 17       		.uleb128 0x17
 6139 02b4 00       		.byte	0
 6140 02b5 00       		.byte	0
 6141 02b6 32       		.uleb128 0x32
 6142 02b7 34       		.uleb128 0x34
 6143 02b8 00       		.byte	0
 6144 02b9 03       		.uleb128 0x3
 6145 02ba 08       		.uleb128 0x8
 6146 02bb 3A       		.uleb128 0x3a
 6147 02bc 0B       		.uleb128 0xb
 6148 02bd 3B       		.uleb128 0x3b
 6149 02be 05       		.uleb128 0x5
 6150 02bf 49       		.uleb128 0x49
 6151 02c0 13       		.uleb128 0x13
 6152 02c1 02       		.uleb128 0x2
 6153 02c2 18       		.uleb128 0x18
 6154 02c3 00       		.byte	0
 6155 02c4 00       		.byte	0
 6156 02c5 33       		.uleb128 0x33
 6157 02c6 2E       		.uleb128 0x2e
 6158 02c7 01       		.byte	0x1
 6159 02c8 3F       		.uleb128 0x3f
 6160 02c9 19       		.uleb128 0x19
 6161 02ca 03       		.uleb128 0x3
 6162 02cb 0E       		.uleb128 0xe
 6163 02cc 3A       		.uleb128 0x3a
 6164 02cd 0B       		.uleb128 0xb
 6165 02ce 3B       		.uleb128 0x3b
 6166 02cf 05       		.uleb128 0x5
 6167 02d0 11       		.uleb128 0x11
ARM GAS  C:\Users\mlgjmoor\AppData\Local\Temp\ccwL0k1p.s 			page 132


 6168 02d1 01       		.uleb128 0x1
 6169 02d2 12       		.uleb128 0x12
 6170 02d3 06       		.uleb128 0x6
 6171 02d4 40       		.uleb128 0x40
 6172 02d5 18       		.uleb128 0x18
 6173 02d6 9742     		.uleb128 0x2117
 6174 02d8 19       		.uleb128 0x19
 6175 02d9 01       		.uleb128 0x1
 6176 02da 13       		.uleb128 0x13
 6177 02db 00       		.byte	0
 6178 02dc 00       		.byte	0
 6179 02dd 34       		.uleb128 0x34
 6180 02de 05       		.uleb128 0x5
 6181 02df 00       		.byte	0
 6182 02e0 03       		.uleb128 0x3
 6183 02e1 08       		.uleb128 0x8
 6184 02e2 3A       		.uleb128 0x3a
 6185 02e3 0B       		.uleb128 0xb
 6186 02e4 3B       		.uleb128 0x3b
 6187 02e5 05       		.uleb128 0x5
 6188 02e6 49       		.uleb128 0x49
 6189 02e7 13       		.uleb128 0x13
 6190 02e8 02       		.uleb128 0x2
 6191 02e9 18       		.uleb128 0x18
 6192 02ea 00       		.byte	0
 6193 02eb 00       		.byte	0
 6194 02ec 35       		.uleb128 0x35
 6195 02ed 2E       		.uleb128 0x2e
 6196 02ee 01       		.byte	0x1
 6197 02ef 3F       		.uleb128 0x3f
 6198 02f0 19       		.uleb128 0x19
 6199 02f1 03       		.uleb128 0x3
 6200 02f2 0E       		.uleb128 0xe
 6201 02f3 3A       		.uleb128 0x3a
 6202 02f4 0B       		.uleb128 0xb
 6203 02f5 3B       		.uleb128 0x3b
 6204 02f6 05       		.uleb128 0x5
 6205 02f7 49       		.uleb128 0x49
 6206 02f8 13       		.uleb128 0x13
 6207 02f9 11       		.uleb128 0x11
 6208 02fa 01       		.uleb128 0x1
 6209 02fb 12       		.uleb128 0x12
 6210 02fc 06       		.uleb128 0x6
 6211 02fd 40       		.uleb128 0x40
 6212 02fe 18       		.uleb128 0x18
 6213 02ff 9742     		.uleb128 0x2117
 6214 0301 19       		.uleb128 0x19
 6215 0302 01       		.uleb128 0x1
 6216 0303 13       		.uleb128 0x13
 6217 0304 00       		.byte	0
 6218 0305 00       		.byte	0
 6219 0306 36       		.uleb128 0x36
 6220 0307 2E       		.uleb128 0x2e
 6221 0308 01       		.byte	0x1
 6222 0309 3F       		.uleb128 0x3f
 6223 030a 19       		.uleb128 0x19
 6224 030b 03       		.uleb128 0x3
ARM GAS  C:\Users\mlgjmoor\AppData\Local\Temp\ccwL0k1p.s 			page 133


 6225 030c 0E       		.uleb128 0xe
 6226 030d 3A       		.uleb128 0x3a
 6227 030e 0B       		.uleb128 0xb
 6228 030f 3B       		.uleb128 0x3b
 6229 0310 05       		.uleb128 0x5
 6230 0311 49       		.uleb128 0x49
 6231 0312 13       		.uleb128 0x13
 6232 0313 3C       		.uleb128 0x3c
 6233 0314 19       		.uleb128 0x19
 6234 0315 01       		.uleb128 0x1
 6235 0316 13       		.uleb128 0x13
 6236 0317 00       		.byte	0
 6237 0318 00       		.byte	0
 6238 0319 37       		.uleb128 0x37
 6239 031a 18       		.uleb128 0x18
 6240 031b 00       		.byte	0
 6241 031c 00       		.byte	0
 6242 031d 00       		.byte	0
 6243 031e 38       		.uleb128 0x38
 6244 031f 05       		.uleb128 0x5
 6245 0320 00       		.byte	0
 6246 0321 03       		.uleb128 0x3
 6247 0322 0E       		.uleb128 0xe
 6248 0323 3A       		.uleb128 0x3a
 6249 0324 0B       		.uleb128 0xb
 6250 0325 3B       		.uleb128 0x3b
 6251 0326 05       		.uleb128 0x5
 6252 0327 49       		.uleb128 0x49
 6253 0328 13       		.uleb128 0x13
 6254 0329 02       		.uleb128 0x2
 6255 032a 18       		.uleb128 0x18
 6256 032b 00       		.byte	0
 6257 032c 00       		.byte	0
 6258 032d 39       		.uleb128 0x39
 6259 032e 34       		.uleb128 0x34
 6260 032f 00       		.byte	0
 6261 0330 03       		.uleb128 0x3
 6262 0331 0E       		.uleb128 0xe
 6263 0332 3A       		.uleb128 0x3a
 6264 0333 0B       		.uleb128 0xb
 6265 0334 3B       		.uleb128 0x3b
 6266 0335 0B       		.uleb128 0xb
 6267 0336 49       		.uleb128 0x49
 6268 0337 13       		.uleb128 0x13
 6269 0338 02       		.uleb128 0x2
 6270 0339 18       		.uleb128 0x18
 6271 033a 00       		.byte	0
 6272 033b 00       		.byte	0
 6273 033c 3A       		.uleb128 0x3a
 6274 033d 2E       		.uleb128 0x2e
 6275 033e 01       		.byte	0x1
 6276 033f 3F       		.uleb128 0x3f
 6277 0340 19       		.uleb128 0x19
 6278 0341 03       		.uleb128 0x3
 6279 0342 0E       		.uleb128 0xe
 6280 0343 3A       		.uleb128 0x3a
 6281 0344 0B       		.uleb128 0xb
ARM GAS  C:\Users\mlgjmoor\AppData\Local\Temp\ccwL0k1p.s 			page 134


 6282 0345 3B       		.uleb128 0x3b
 6283 0346 05       		.uleb128 0x5
 6284 0347 27       		.uleb128 0x27
 6285 0348 19       		.uleb128 0x19
 6286 0349 3C       		.uleb128 0x3c
 6287 034a 19       		.uleb128 0x19
 6288 034b 01       		.uleb128 0x1
 6289 034c 13       		.uleb128 0x13
 6290 034d 00       		.byte	0
 6291 034e 00       		.byte	0
 6292 034f 3B       		.uleb128 0x3b
 6293 0350 26       		.uleb128 0x26
 6294 0351 00       		.byte	0
 6295 0352 49       		.uleb128 0x49
 6296 0353 13       		.uleb128 0x13
 6297 0354 00       		.byte	0
 6298 0355 00       		.byte	0
 6299 0356 3C       		.uleb128 0x3c
 6300 0357 2E       		.uleb128 0x2e
 6301 0358 01       		.byte	0x1
 6302 0359 3F       		.uleb128 0x3f
 6303 035a 19       		.uleb128 0x19
 6304 035b 03       		.uleb128 0x3
 6305 035c 0E       		.uleb128 0xe
 6306 035d 3A       		.uleb128 0x3a
 6307 035e 0B       		.uleb128 0xb
 6308 035f 3B       		.uleb128 0x3b
 6309 0360 0B       		.uleb128 0xb
 6310 0361 27       		.uleb128 0x27
 6311 0362 19       		.uleb128 0x19
 6312 0363 49       		.uleb128 0x49
 6313 0364 13       		.uleb128 0x13
 6314 0365 3C       		.uleb128 0x3c
 6315 0366 19       		.uleb128 0x19
 6316 0367 01       		.uleb128 0x1
 6317 0368 13       		.uleb128 0x13
 6318 0369 00       		.byte	0
 6319 036a 00       		.byte	0
 6320 036b 3D       		.uleb128 0x3d
 6321 036c 2E       		.uleb128 0x2e
 6322 036d 01       		.byte	0x1
 6323 036e 3F       		.uleb128 0x3f
 6324 036f 19       		.uleb128 0x19
 6325 0370 03       		.uleb128 0x3
 6326 0371 0E       		.uleb128 0xe
 6327 0372 3A       		.uleb128 0x3a
 6328 0373 0B       		.uleb128 0xb
 6329 0374 3B       		.uleb128 0x3b
 6330 0375 0B       		.uleb128 0xb
 6331 0376 27       		.uleb128 0x27
 6332 0377 19       		.uleb128 0x19
 6333 0378 3C       		.uleb128 0x3c
 6334 0379 19       		.uleb128 0x19
 6335 037a 01       		.uleb128 0x1
 6336 037b 13       		.uleb128 0x13
 6337 037c 00       		.byte	0
 6338 037d 00       		.byte	0
ARM GAS  C:\Users\mlgjmoor\AppData\Local\Temp\ccwL0k1p.s 			page 135


 6339 037e 3E       		.uleb128 0x3e
 6340 037f 2E       		.uleb128 0x2e
 6341 0380 00       		.byte	0
 6342 0381 3F       		.uleb128 0x3f
 6343 0382 19       		.uleb128 0x19
 6344 0383 03       		.uleb128 0x3
 6345 0384 0E       		.uleb128 0xe
 6346 0385 3A       		.uleb128 0x3a
 6347 0386 0B       		.uleb128 0xb
 6348 0387 3B       		.uleb128 0x3b
 6349 0388 0B       		.uleb128 0xb
 6350 0389 27       		.uleb128 0x27
 6351 038a 19       		.uleb128 0x19
 6352 038b 3C       		.uleb128 0x3c
 6353 038c 19       		.uleb128 0x19
 6354 038d 00       		.byte	0
 6355 038e 00       		.byte	0
 6356 038f 3F       		.uleb128 0x3f
 6357 0390 2E       		.uleb128 0x2e
 6358 0391 00       		.byte	0
 6359 0392 3F       		.uleb128 0x3f
 6360 0393 19       		.uleb128 0x19
 6361 0394 03       		.uleb128 0x3
 6362 0395 0E       		.uleb128 0xe
 6363 0396 3A       		.uleb128 0x3a
 6364 0397 0B       		.uleb128 0xb
 6365 0398 3B       		.uleb128 0x3b
 6366 0399 05       		.uleb128 0x5
 6367 039a 27       		.uleb128 0x27
 6368 039b 19       		.uleb128 0x19
 6369 039c 49       		.uleb128 0x49
 6370 039d 13       		.uleb128 0x13
 6371 039e 3C       		.uleb128 0x3c
 6372 039f 19       		.uleb128 0x19
 6373 03a0 00       		.byte	0
 6374 03a1 00       		.byte	0
 6375 03a2 40       		.uleb128 0x40
 6376 03a3 2E       		.uleb128 0x2e
 6377 03a4 00       		.byte	0
 6378 03a5 3F       		.uleb128 0x3f
 6379 03a6 19       		.uleb128 0x19
 6380 03a7 03       		.uleb128 0x3
 6381 03a8 0E       		.uleb128 0xe
 6382 03a9 3A       		.uleb128 0x3a
 6383 03aa 0B       		.uleb128 0xb
 6384 03ab 3B       		.uleb128 0x3b
 6385 03ac 05       		.uleb128 0x5
 6386 03ad 27       		.uleb128 0x27
 6387 03ae 19       		.uleb128 0x19
 6388 03af 3C       		.uleb128 0x3c
 6389 03b0 19       		.uleb128 0x19
 6390 03b1 00       		.byte	0
 6391 03b2 00       		.byte	0
 6392 03b3 00       		.byte	0
 6393              		.section	.debug_loc,"",%progbits
 6394              	.Ldebug_loc0:
 6395              	.LLST0:
ARM GAS  C:\Users\mlgjmoor\AppData\Local\Temp\ccwL0k1p.s 			page 136


 6396 0000 00000000 		.4byte	.LVL2
 6397 0004 16000000 		.4byte	.LVL5
 6398 0008 0100     		.2byte	0x1
 6399 000a 50       		.byte	0x50
 6400 000b 16000000 		.4byte	.LVL5
 6401 000f A0000000 		.4byte	.LFE37
 6402 0013 0400     		.2byte	0x4
 6403 0015 F3       		.byte	0xf3
 6404 0016 01       		.uleb128 0x1
 6405 0017 50       		.byte	0x50
 6406 0018 9F       		.byte	0x9f
 6407 0019 00000000 		.4byte	0
 6408 001d 00000000 		.4byte	0
 6409              	.LLST1:
 6410 0021 08000000 		.4byte	.LVL3
 6411 0025 16000000 		.4byte	.LVL5
 6412 0029 0200     		.2byte	0x2
 6413 002b 30       		.byte	0x30
 6414 002c 9F       		.byte	0x9f
 6415 002d 16000000 		.4byte	.LVL5
 6416 0031 26000000 		.4byte	.LVL6
 6417 0035 0100     		.2byte	0x1
 6418 0037 56       		.byte	0x56
 6419 0038 28000000 		.4byte	.LVL7
 6420 003c 8E000000 		.4byte	.LVL34
 6421 0040 0100     		.2byte	0x1
 6422 0042 56       		.byte	0x56
 6423 0043 00000000 		.4byte	0
 6424 0047 00000000 		.4byte	0
 6425              	.LLST2:
 6426 004b 08000000 		.4byte	.LVL3
 6427 004f 16000000 		.4byte	.LVL5
 6428 0053 0200     		.2byte	0x2
 6429 0055 30       		.byte	0x30
 6430 0056 9F       		.byte	0x9f
 6431 0057 16000000 		.4byte	.LVL5
 6432 005b 36000000 		.4byte	.LVL11
 6433 005f 0100     		.2byte	0x1
 6434 0061 58       		.byte	0x58
 6435 0062 36000000 		.4byte	.LVL11
 6436 0066 3C000000 		.4byte	.LVL13
 6437 006a 0100     		.2byte	0x1
 6438 006c 50       		.byte	0x50
 6439 006d 3C000000 		.4byte	.LVL13
 6440 0071 8E000000 		.4byte	.LVL36
 6441 0075 0100     		.2byte	0x1
 6442 0077 58       		.byte	0x58
 6443 0078 00000000 		.4byte	0
 6444 007c 00000000 		.4byte	0
 6445              	.LLST3:
 6446 0080 08000000 		.4byte	.LVL3
 6447 0084 16000000 		.4byte	.LVL5
 6448 0088 0200     		.2byte	0x2
 6449 008a 30       		.byte	0x30
 6450 008b 9F       		.byte	0x9f
 6451 008c 16000000 		.4byte	.LVL5
 6452 0090 86000000 		.4byte	.LVL30
ARM GAS  C:\Users\mlgjmoor\AppData\Local\Temp\ccwL0k1p.s 			page 137


 6453 0094 0100     		.2byte	0x1
 6454 0096 54       		.byte	0x54
 6455 0097 00000000 		.4byte	0
 6456 009b 00000000 		.4byte	0
 6457              	.LLST4:
 6458 009f 08000000 		.4byte	.LVL3
 6459 00a3 66000000 		.4byte	.LVL22
 6460 00a7 0600     		.2byte	0x6
 6461 00a9 9E       		.byte	0x9e
 6462 00aa 04       		.uleb128 0x4
 6463 00ab 00000000 		.4byte	0
 6464 00af 66000000 		.4byte	.LVL22
 6465 00b3 6A000000 		.4byte	.LVL23
 6466 00b7 0100     		.2byte	0x1
 6467 00b9 50       		.byte	0x50
 6468 00ba 6A000000 		.4byte	.LVL23
 6469 00be 72000000 		.4byte	.LVL25
 6470 00c2 0100     		.2byte	0x1
 6471 00c4 55       		.byte	0x55
 6472 00c5 72000000 		.4byte	.LVL25
 6473 00c9 7A000000 		.4byte	.LVL27
 6474 00cd 0100     		.2byte	0x1
 6475 00cf 50       		.byte	0x50
 6476 00d0 7A000000 		.4byte	.LVL27
 6477 00d4 86000000 		.4byte	.LVL30
 6478 00d8 0100     		.2byte	0x1
 6479 00da 55       		.byte	0x55
 6480 00db 86000000 		.4byte	.LVL30
 6481 00df 88000000 		.4byte	.LVL31
 6482 00e3 0100     		.2byte	0x1
 6483 00e5 50       		.byte	0x50
 6484 00e6 88000000 		.4byte	.LVL31
 6485 00ea 8E000000 		.4byte	.LVL33
 6486 00ee 0100     		.2byte	0x1
 6487 00f0 54       		.byte	0x54
 6488 00f1 8E000000 		.4byte	.LVL33
 6489 00f5 A0000000 		.4byte	.LFE37
 6490 00f9 0100     		.2byte	0x1
 6491 00fb 50       		.byte	0x50
 6492 00fc 00000000 		.4byte	0
 6493 0100 00000000 		.4byte	0
 6494              	.LLST5:
 6495 0104 08000000 		.4byte	.LVL3
 6496 0108 16000000 		.4byte	.LVL5
 6497 010c 0100     		.2byte	0x1
 6498 010e 50       		.byte	0x50
 6499 010f 16000000 		.4byte	.LVL5
 6500 0113 66000000 		.4byte	.LVL22
 6501 0117 0100     		.2byte	0x1
 6502 0119 55       		.byte	0x55
 6503 011a 00000000 		.4byte	0
 6504 011e 00000000 		.4byte	0
 6505              	.LLST6:
 6506 0122 0A000000 		.4byte	.LVL4
 6507 0126 2A000000 		.4byte	.LVL8
 6508 012a 0100     		.2byte	0x1
 6509 012c 53       		.byte	0x53
ARM GAS  C:\Users\mlgjmoor\AppData\Local\Temp\ccwL0k1p.s 			page 138


 6510 012d 2E000000 		.4byte	.LVL10
 6511 0131 38000000 		.4byte	.LVL12
 6512 0135 0100     		.2byte	0x1
 6513 0137 53       		.byte	0x53
 6514 0138 40000000 		.4byte	.LVL15
 6515 013c 51000000 		.4byte	.LVL16-1
 6516 0140 0100     		.2byte	0x1
 6517 0142 53       		.byte	0x53
 6518 0143 54000000 		.4byte	.LVL17
 6519 0147 56000000 		.4byte	.LVL18
 6520 014b 0100     		.2byte	0x1
 6521 014d 53       		.byte	0x53
 6522 014e 5A000000 		.4byte	.LVL20
 6523 0152 63000000 		.4byte	.LVL21-1
 6524 0156 0100     		.2byte	0x1
 6525 0158 53       		.byte	0x53
 6526 0159 00000000 		.4byte	0
 6527 015d 00000000 		.4byte	0
 6528              	.LLST7:
 6529 0161 08000000 		.4byte	.LVL3
 6530 0165 16000000 		.4byte	.LVL5
 6531 0169 0200     		.2byte	0x2
 6532 016b 30       		.byte	0x30
 6533 016c 9F       		.byte	0x9f
 6534 016d 16000000 		.4byte	.LVL5
 6535 0171 8E000000 		.4byte	.LVL35
 6536 0175 0100     		.2byte	0x1
 6537 0177 57       		.byte	0x57
 6538 0178 00000000 		.4byte	0
 6539 017c 00000000 		.4byte	0
 6540              	.LLST8:
 6541 0180 00000000 		.4byte	.LVL37
 6542 0184 0F000000 		.4byte	.LVL39-1
 6543 0188 0100     		.2byte	0x1
 6544 018a 50       		.byte	0x50
 6545 018b 0F000000 		.4byte	.LVL39-1
 6546 018f 1A000000 		.4byte	.LVL42
 6547 0193 0100     		.2byte	0x1
 6548 0195 55       		.byte	0x55
 6549 0196 1A000000 		.4byte	.LVL42
 6550 019a 1E000000 		.4byte	.LVL44
 6551 019e 0400     		.2byte	0x4
 6552 01a0 F3       		.byte	0xf3
 6553 01a1 01       		.uleb128 0x1
 6554 01a2 50       		.byte	0x50
 6555 01a3 9F       		.byte	0x9f
 6556 01a4 1E000000 		.4byte	.LVL44
 6557 01a8 20000000 		.4byte	.LVL45
 6558 01ac 0100     		.2byte	0x1
 6559 01ae 50       		.byte	0x50
 6560 01af 20000000 		.4byte	.LVL45
 6561 01b3 22000000 		.4byte	.LFE38
 6562 01b7 0400     		.2byte	0x4
 6563 01b9 F3       		.byte	0xf3
 6564 01ba 01       		.uleb128 0x1
 6565 01bb 50       		.byte	0x50
 6566 01bc 9F       		.byte	0x9f
ARM GAS  C:\Users\mlgjmoor\AppData\Local\Temp\ccwL0k1p.s 			page 139


 6567 01bd 00000000 		.4byte	0
 6568 01c1 00000000 		.4byte	0
 6569              	.LLST9:
 6570 01c5 00000000 		.4byte	.LVL37
 6571 01c9 0C000000 		.4byte	.LVL38
 6572 01cd 0100     		.2byte	0x1
 6573 01cf 51       		.byte	0x51
 6574 01d0 0C000000 		.4byte	.LVL38
 6575 01d4 1E000000 		.4byte	.LVL44
 6576 01d8 0100     		.2byte	0x1
 6577 01da 54       		.byte	0x54
 6578 01db 1E000000 		.4byte	.LVL44
 6579 01df 20000000 		.4byte	.LVL45
 6580 01e3 0100     		.2byte	0x1
 6581 01e5 51       		.byte	0x51
 6582 01e6 20000000 		.4byte	.LVL45
 6583 01ea 22000000 		.4byte	.LFE38
 6584 01ee 0400     		.2byte	0x4
 6585 01f0 F3       		.byte	0xf3
 6586 01f1 01       		.uleb128 0x1
 6587 01f2 51       		.byte	0x51
 6588 01f3 9F       		.byte	0x9f
 6589 01f4 00000000 		.4byte	0
 6590 01f8 00000000 		.4byte	0
 6591              	.LLST10:
 6592 01fc 10000000 		.4byte	.LVL39
 6593 0200 16000000 		.4byte	.LVL40
 6594 0204 0100     		.2byte	0x1
 6595 0206 50       		.byte	0x50
 6596 0207 18000000 		.4byte	.LVL41
 6597 020b 1C000000 		.4byte	.LVL43
 6598 020f 0100     		.2byte	0x1
 6599 0211 50       		.byte	0x50
 6600 0212 00000000 		.4byte	0
 6601 0216 00000000 		.4byte	0
 6602              	.LLST11:
 6603 021a 00000000 		.4byte	.LVL46
 6604 021e 08000000 		.4byte	.LVL47
 6605 0222 0100     		.2byte	0x1
 6606 0224 50       		.byte	0x50
 6607 0225 08000000 		.4byte	.LVL47
 6608 0229 10000000 		.4byte	.LVL48
 6609 022d 0400     		.2byte	0x4
 6610 022f F3       		.byte	0xf3
 6611 0230 01       		.uleb128 0x1
 6612 0231 50       		.byte	0x50
 6613 0232 9F       		.byte	0x9f
 6614 0233 10000000 		.4byte	.LVL48
 6615 0237 1D000000 		.4byte	.LVL50-1
 6616 023b 0100     		.2byte	0x1
 6617 023d 50       		.byte	0x50
 6618 023e 1D000000 		.4byte	.LVL50-1
 6619 0242 3C000000 		.4byte	.LVL53
 6620 0246 0400     		.2byte	0x4
 6621 0248 F3       		.byte	0xf3
 6622 0249 01       		.uleb128 0x1
 6623 024a 50       		.byte	0x50
ARM GAS  C:\Users\mlgjmoor\AppData\Local\Temp\ccwL0k1p.s 			page 140


 6624 024b 9F       		.byte	0x9f
 6625 024c 3C000000 		.4byte	.LVL53
 6626 0250 47000000 		.4byte	.LVL55-1
 6627 0254 0100     		.2byte	0x1
 6628 0256 50       		.byte	0x50
 6629 0257 47000000 		.4byte	.LVL55-1
 6630 025b 7A000000 		.4byte	.LVL60
 6631 025f 0400     		.2byte	0x4
 6632 0261 F3       		.byte	0xf3
 6633 0262 01       		.uleb128 0x1
 6634 0263 50       		.byte	0x50
 6635 0264 9F       		.byte	0x9f
 6636 0265 7A000000 		.4byte	.LVL60
 6637 0269 89000000 		.4byte	.LVL62-1
 6638 026d 0100     		.2byte	0x1
 6639 026f 50       		.byte	0x50
 6640 0270 89000000 		.4byte	.LVL62-1
 6641 0274 CE000000 		.4byte	.LVL69
 6642 0278 0400     		.2byte	0x4
 6643 027a F3       		.byte	0xf3
 6644 027b 01       		.uleb128 0x1
 6645 027c 50       		.byte	0x50
 6646 027d 9F       		.byte	0x9f
 6647 027e CE000000 		.4byte	.LVL69
 6648 0282 D7000000 		.4byte	.LVL71-1
 6649 0286 0100     		.2byte	0x1
 6650 0288 50       		.byte	0x50
 6651 0289 D7000000 		.4byte	.LVL71-1
 6652 028d 3C010000 		.4byte	.LFE39
 6653 0291 0400     		.2byte	0x4
 6654 0293 F3       		.byte	0xf3
 6655 0294 01       		.uleb128 0x1
 6656 0295 50       		.byte	0x50
 6657 0296 9F       		.byte	0x9f
 6658 0297 00000000 		.4byte	0
 6659 029b 00000000 		.4byte	0
 6660              	.LLST12:
 6661 029f 00000000 		.4byte	.LVL46
 6662 02a3 1A000000 		.4byte	.LVL49
 6663 02a7 0100     		.2byte	0x1
 6664 02a9 51       		.byte	0x51
 6665 02aa 1A000000 		.4byte	.LVL49
 6666 02ae 3C000000 		.4byte	.LVL53
 6667 02b2 0100     		.2byte	0x1
 6668 02b4 55       		.byte	0x55
 6669 02b5 3C000000 		.4byte	.LVL53
 6670 02b9 44000000 		.4byte	.LVL54
 6671 02bd 0100     		.2byte	0x1
 6672 02bf 51       		.byte	0x51
 6673 02c0 44000000 		.4byte	.LVL54
 6674 02c4 7A000000 		.4byte	.LVL60
 6675 02c8 0100     		.2byte	0x1
 6676 02ca 55       		.byte	0x55
 6677 02cb 7A000000 		.4byte	.LVL60
 6678 02cf 86000000 		.4byte	.LVL61
 6679 02d3 0100     		.2byte	0x1
 6680 02d5 51       		.byte	0x51
ARM GAS  C:\Users\mlgjmoor\AppData\Local\Temp\ccwL0k1p.s 			page 141


 6681 02d6 86000000 		.4byte	.LVL61
 6682 02da CE000000 		.4byte	.LVL69
 6683 02de 0100     		.2byte	0x1
 6684 02e0 55       		.byte	0x55
 6685 02e1 CE000000 		.4byte	.LVL69
 6686 02e5 D4000000 		.4byte	.LVL70
 6687 02e9 0100     		.2byte	0x1
 6688 02eb 51       		.byte	0x51
 6689 02ec D4000000 		.4byte	.LVL70
 6690 02f0 2E010000 		.4byte	.LVL80
 6691 02f4 0100     		.2byte	0x1
 6692 02f6 55       		.byte	0x55
 6693 02f7 2E010000 		.4byte	.LVL80
 6694 02fb 3C010000 		.4byte	.LFE39
 6695 02ff 0400     		.2byte	0x4
 6696 0301 F3       		.byte	0xf3
 6697 0302 01       		.uleb128 0x1
 6698 0303 51       		.byte	0x51
 6699 0304 9F       		.byte	0x9f
 6700 0305 00000000 		.4byte	0
 6701 0309 00000000 		.4byte	0
 6702              	.LLST13:
 6703 030d 00000000 		.4byte	.LVL81
 6704 0311 14000000 		.4byte	.LVL83
 6705 0315 0100     		.2byte	0x1
 6706 0317 50       		.byte	0x50
 6707 0318 14000000 		.4byte	.LVL83
 6708 031c 3C000000 		.4byte	.LVL90
 6709 0320 0100     		.2byte	0x1
 6710 0322 55       		.byte	0x55
 6711 0323 3C000000 		.4byte	.LVL90
 6712 0327 88000000 		.4byte	.LVL101
 6713 032b 0400     		.2byte	0x4
 6714 032d F3       		.byte	0xf3
 6715 032e 01       		.uleb128 0x1
 6716 032f 50       		.byte	0x50
 6717 0330 9F       		.byte	0x9f
 6718 0331 88000000 		.4byte	.LVL101
 6719 0335 8A000000 		.4byte	.LVL102
 6720 0339 0100     		.2byte	0x1
 6721 033b 50       		.byte	0x50
 6722 033c 8A000000 		.4byte	.LVL102
 6723 0340 9C000000 		.4byte	.LVL104
 6724 0344 0100     		.2byte	0x1
 6725 0346 55       		.byte	0x55
 6726 0347 9C000000 		.4byte	.LVL104
 6727 034b BC000000 		.4byte	.LFE51
 6728 034f 0400     		.2byte	0x4
 6729 0351 F3       		.byte	0xf3
 6730 0352 01       		.uleb128 0x1
 6731 0353 50       		.byte	0x50
 6732 0354 9F       		.byte	0x9f
 6733 0355 00000000 		.4byte	0
 6734 0359 00000000 		.4byte	0
 6735              	.LLST14:
 6736 035d 00000000 		.4byte	.LVL81
 6737 0361 17000000 		.4byte	.LVL84-1
ARM GAS  C:\Users\mlgjmoor\AppData\Local\Temp\ccwL0k1p.s 			page 142


 6738 0365 0100     		.2byte	0x1
 6739 0367 51       		.byte	0x51
 6740 0368 17000000 		.4byte	.LVL84-1
 6741 036c 50000000 		.4byte	.LVL95
 6742 0370 0100     		.2byte	0x1
 6743 0372 54       		.byte	0x54
 6744 0373 50000000 		.4byte	.LVL95
 6745 0377 88000000 		.4byte	.LVL101
 6746 037b 0400     		.2byte	0x4
 6747 037d F3       		.byte	0xf3
 6748 037e 01       		.uleb128 0x1
 6749 037f 51       		.byte	0x51
 6750 0380 9F       		.byte	0x9f
 6751 0381 88000000 		.4byte	.LVL101
 6752 0385 8D000000 		.4byte	.LVL103-1
 6753 0389 0100     		.2byte	0x1
 6754 038b 51       		.byte	0x51
 6755 038c 8D000000 		.4byte	.LVL103-1
 6756 0390 9C000000 		.4byte	.LVL104
 6757 0394 0100     		.2byte	0x1
 6758 0396 54       		.byte	0x54
 6759 0397 9C000000 		.4byte	.LVL104
 6760 039b BC000000 		.4byte	.LFE51
 6761 039f 0400     		.2byte	0x4
 6762 03a1 F3       		.byte	0xf3
 6763 03a2 01       		.uleb128 0x1
 6764 03a3 51       		.byte	0x51
 6765 03a4 9F       		.byte	0x9f
 6766 03a5 00000000 		.4byte	0
 6767 03a9 00000000 		.4byte	0
 6768              	.LLST15:
 6769 03ad 0C000000 		.4byte	.LVL82
 6770 03b1 9E000000 		.4byte	.LVL105
 6771 03b5 0700     		.2byte	0x7
 6772 03b7 76       		.byte	0x76
 6773 03b8 00       		.sleb128 0
 6774 03b9 0A       		.byte	0xa
 6775 03ba FFFF     		.2byte	0xffff
 6776 03bc 1A       		.byte	0x1a
 6777 03bd 9F       		.byte	0x9f
 6778 03be 00000000 		.4byte	0
 6779 03c2 00000000 		.4byte	0
 6780              	.LLST16:
 6781 03c6 28000000 		.4byte	.LVL86
 6782 03ca 30000000 		.4byte	.LVL87
 6783 03ce 0100     		.2byte	0x1
 6784 03d0 50       		.byte	0x50
 6785 03d1 3C000000 		.4byte	.LVL90
 6786 03d5 3E000000 		.4byte	.LVL91
 6787 03d9 0100     		.2byte	0x1
 6788 03db 50       		.byte	0x50
 6789 03dc 3E000000 		.4byte	.LVL91
 6790 03e0 88000000 		.4byte	.LVL101
 6791 03e4 0100     		.2byte	0x1
 6792 03e6 55       		.byte	0x55
 6793 03e7 00000000 		.4byte	0
 6794 03eb 00000000 		.4byte	0
ARM GAS  C:\Users\mlgjmoor\AppData\Local\Temp\ccwL0k1p.s 			page 143


 6795              	.LLST17:
 6796 03ef 00000000 		.4byte	.LVL106
 6797 03f3 09000000 		.4byte	.LVL108-1
 6798 03f7 0100     		.2byte	0x1
 6799 03f9 50       		.byte	0x50
 6800 03fa 09000000 		.4byte	.LVL108-1
 6801 03fe 1A000000 		.4byte	.LVL112
 6802 0402 0100     		.2byte	0x1
 6803 0404 55       		.byte	0x55
 6804 0405 1A000000 		.4byte	.LVL112
 6805 0409 60000000 		.4byte	.LFE40
 6806 040d 0600     		.2byte	0x6
 6807 040f F3       		.byte	0xf3
 6808 0410 03       		.uleb128 0x3
 6809 0411 F5       		.byte	0xf5
 6810 0412 00       		.uleb128 0
 6811 0413 25       		.uleb128 0x25
 6812 0414 9F       		.byte	0x9f
 6813 0415 00000000 		.4byte	0
 6814 0419 00000000 		.4byte	0
 6815              	.LLST18:
 6816 041d 00000000 		.4byte	.LVL106
 6817 0421 09000000 		.4byte	.LVL108-1
 6818 0425 0100     		.2byte	0x1
 6819 0427 51       		.byte	0x51
 6820 0428 09000000 		.4byte	.LVL108-1
 6821 042c 5E000000 		.4byte	.LVL131
 6822 0430 0100     		.2byte	0x1
 6823 0432 56       		.byte	0x56
 6824 0433 5E000000 		.4byte	.LVL131
 6825 0437 60000000 		.4byte	.LFE40
 6826 043b 0400     		.2byte	0x4
 6827 043d F3       		.byte	0xf3
 6828 043e 01       		.uleb128 0x1
 6829 043f 51       		.byte	0x51
 6830 0440 9F       		.byte	0x9f
 6831 0441 00000000 		.4byte	0
 6832 0445 00000000 		.4byte	0
 6833              	.LLST19:
 6834 0449 0C000000 		.4byte	.LVL109
 6835 044d 0F000000 		.4byte	.LVL110-1
 6836 0451 0100     		.2byte	0x1
 6837 0453 50       		.byte	0x50
 6838 0454 0F000000 		.4byte	.LVL110-1
 6839 0458 3E000000 		.4byte	.LVL121
 6840 045c 0100     		.2byte	0x1
 6841 045e 54       		.byte	0x54
 6842 045f 00000000 		.4byte	0
 6843 0463 00000000 		.4byte	0
 6844              	.LLST20:
 6845 0467 32000000 		.4byte	.LVL118
 6846 046b 34000000 		.4byte	.LVL119
 6847 046f 0100     		.2byte	0x1
 6848 0471 50       		.byte	0x50
 6849 0472 34000000 		.4byte	.LVL119
 6850 0476 5E000000 		.4byte	.LVL130
 6851 047a 0100     		.2byte	0x1
ARM GAS  C:\Users\mlgjmoor\AppData\Local\Temp\ccwL0k1p.s 			page 144


 6852 047c 55       		.byte	0x55
 6853 047d 00000000 		.4byte	0
 6854 0481 00000000 		.4byte	0
 6855              	.LLST21:
 6856 0485 1A000000 		.4byte	.LVL112
 6857 0489 1C000000 		.4byte	.LVL113
 6858 048d 0100     		.2byte	0x1
 6859 048f 50       		.byte	0x50
 6860 0490 1C000000 		.4byte	.LVL113
 6861 0494 32000000 		.4byte	.LVL118
 6862 0498 0100     		.2byte	0x1
 6863 049a 55       		.byte	0x55
 6864 049b 00000000 		.4byte	0
 6865 049f 00000000 		.4byte	0
 6866              	.LLST22:
 6867 04a3 06000000 		.4byte	.LVL107
 6868 04a7 3E000000 		.4byte	.LVL121
 6869 04ab 0200     		.2byte	0x2
 6870 04ad 30       		.byte	0x30
 6871 04ae 9F       		.byte	0x9f
 6872 04af 3E000000 		.4byte	.LVL121
 6873 04b3 48000000 		.4byte	.LVL123
 6874 04b7 0100     		.2byte	0x1
 6875 04b9 53       		.byte	0x53
 6876 04ba 48000000 		.4byte	.LVL123
 6877 04be 4E000000 		.4byte	.LVL124
 6878 04c2 0100     		.2byte	0x1
 6879 04c4 51       		.byte	0x51
 6880 04c5 4E000000 		.4byte	.LVL124
 6881 04c9 52000000 		.4byte	.LVL125
 6882 04cd 0300     		.2byte	0x3
 6883 04cf 71       		.byte	0x71
 6884 04d0 7F       		.sleb128 -1
 6885 04d1 9F       		.byte	0x9f
 6886 04d2 58000000 		.4byte	.LVL127
 6887 04d6 5A000000 		.4byte	.LVL128
 6888 04da 0100     		.2byte	0x1
 6889 04dc 51       		.byte	0x51
 6890 04dd 5A000000 		.4byte	.LVL128
 6891 04e1 5E000000 		.4byte	.LVL129
 6892 04e5 0100     		.2byte	0x1
 6893 04e7 53       		.byte	0x53
 6894 04e8 00000000 		.4byte	0
 6895 04ec 00000000 		.4byte	0
 6896              	.LLST23:
 6897 04f0 44000000 		.4byte	.LVL122
 6898 04f4 5A000000 		.4byte	.LVL128
 6899 04f8 0100     		.2byte	0x1
 6900 04fa 54       		.byte	0x54
 6901 04fb 00000000 		.4byte	0
 6902 04ff 00000000 		.4byte	0
 6903              	.LLST24:
 6904 0503 00000000 		.4byte	.LVL132
 6905 0507 66000000 		.4byte	.LVL145
 6906 050b 0100     		.2byte	0x1
 6907 050d 50       		.byte	0x50
 6908 050e 66000000 		.4byte	.LVL145
ARM GAS  C:\Users\mlgjmoor\AppData\Local\Temp\ccwL0k1p.s 			page 145


 6909 0512 98000000 		.4byte	.LVL154
 6910 0516 0400     		.2byte	0x4
 6911 0518 F3       		.byte	0xf3
 6912 0519 01       		.uleb128 0x1
 6913 051a 50       		.byte	0x50
 6914 051b 9F       		.byte	0x9f
 6915 051c 98000000 		.4byte	.LVL154
 6916 0520 A4000000 		.4byte	.LVL157
 6917 0524 0100     		.2byte	0x1
 6918 0526 50       		.byte	0x50
 6919 0527 A4000000 		.4byte	.LVL157
 6920 052b A6000000 		.4byte	.LVL158
 6921 052f 0400     		.2byte	0x4
 6922 0531 F3       		.byte	0xf3
 6923 0532 01       		.uleb128 0x1
 6924 0533 50       		.byte	0x50
 6925 0534 9F       		.byte	0x9f
 6926 0535 A6000000 		.4byte	.LVL158
 6927 0539 BE000000 		.4byte	.LVL166
 6928 053d 0100     		.2byte	0x1
 6929 053f 50       		.byte	0x50
 6930 0540 BE000000 		.4byte	.LVL166
 6931 0544 F0000000 		.4byte	.LVL175
 6932 0548 0400     		.2byte	0x4
 6933 054a F3       		.byte	0xf3
 6934 054b 01       		.uleb128 0x1
 6935 054c 50       		.byte	0x50
 6936 054d 9F       		.byte	0x9f
 6937 054e F0000000 		.4byte	.LVL175
 6938 0552 F2000000 		.4byte	.LVL176
 6939 0556 0100     		.2byte	0x1
 6940 0558 50       		.byte	0x50
 6941 0559 F2000000 		.4byte	.LVL176
 6942 055d FC000000 		.4byte	.LFE41
 6943 0561 0400     		.2byte	0x4
 6944 0563 F3       		.byte	0xf3
 6945 0564 01       		.uleb128 0x1
 6946 0565 50       		.byte	0x50
 6947 0566 9F       		.byte	0x9f
 6948 0567 00000000 		.4byte	0
 6949 056b 00000000 		.4byte	0
 6950              	.LLST25:
 6951 056f 06000000 		.4byte	.LVL133
 6952 0573 96000000 		.4byte	.LVL153
 6953 0577 0600     		.2byte	0x6
 6954 0579 9E       		.byte	0x9e
 6955 057a 04       		.uleb128 0x4
 6956 057b 00000000 		.4byte	0
 6957 057f 96000000 		.4byte	.LVL153
 6958 0583 98000000 		.4byte	.LVL154
 6959 0587 0100     		.2byte	0x1
 6960 0589 50       		.byte	0x50
 6961 058a 98000000 		.4byte	.LVL154
 6962 058e A4000000 		.4byte	.LVL157
 6963 0592 0600     		.2byte	0x6
 6964 0594 9E       		.byte	0x9e
 6965 0595 04       		.uleb128 0x4
ARM GAS  C:\Users\mlgjmoor\AppData\Local\Temp\ccwL0k1p.s 			page 146


 6966 0596 00000000 		.4byte	0
 6967 059a A4000000 		.4byte	.LVL157
 6968 059e A6000000 		.4byte	.LVL158
 6969 05a2 0100     		.2byte	0x1
 6970 05a4 50       		.byte	0x50
 6971 05a5 A6000000 		.4byte	.LVL158
 6972 05a9 EE000000 		.4byte	.LVL174
 6973 05ad 0600     		.2byte	0x6
 6974 05af 9E       		.byte	0x9e
 6975 05b0 04       		.uleb128 0x4
 6976 05b1 00000000 		.4byte	0
 6977 05b5 EE000000 		.4byte	.LVL174
 6978 05b9 F0000000 		.4byte	.LVL175
 6979 05bd 0100     		.2byte	0x1
 6980 05bf 50       		.byte	0x50
 6981 05c0 F0000000 		.4byte	.LVL175
 6982 05c4 F2000000 		.4byte	.LVL176
 6983 05c8 0600     		.2byte	0x6
 6984 05ca 9E       		.byte	0x9e
 6985 05cb 04       		.uleb128 0x4
 6986 05cc 00000000 		.4byte	0
 6987 05d0 F2000000 		.4byte	.LVL176
 6988 05d4 FC000000 		.4byte	.LFE41
 6989 05d8 0100     		.2byte	0x1
 6990 05da 50       		.byte	0x50
 6991 05db 00000000 		.4byte	0
 6992 05df 00000000 		.4byte	0
 6993              	.LLST26:
 6994 05e3 06000000 		.4byte	.LVL133
 6995 05e7 4E000000 		.4byte	.LVL139
 6996 05eb 0200     		.2byte	0x2
 6997 05ed 30       		.byte	0x30
 6998 05ee 9F       		.byte	0x9f
 6999 05ef 4E000000 		.4byte	.LVL139
 7000 05f3 69000000 		.4byte	.LVL146-1
 7001 05f7 0100     		.2byte	0x1
 7002 05f9 52       		.byte	0x52
 7003 05fa 98000000 		.4byte	.LVL154
 7004 05fe A0000000 		.4byte	.LVL156
 7005 0602 0100     		.2byte	0x1
 7006 0604 52       		.byte	0x52
 7007 0605 A6000000 		.4byte	.LVL158
 7008 0609 A8000000 		.4byte	.LVL159
 7009 060d 0100     		.2byte	0x1
 7010 060f 52       		.byte	0x52
 7011 0610 F0000000 		.4byte	.LVL175
 7012 0614 F2000000 		.4byte	.LVL176
 7013 0618 0100     		.2byte	0x1
 7014 061a 52       		.byte	0x52
 7015 061b 00000000 		.4byte	0
 7016 061f 00000000 		.4byte	0
 7017              	.LLST27:
 7018 0623 06000000 		.4byte	.LVL133
 7019 0627 4E000000 		.4byte	.LVL139
 7020 062b 0200     		.2byte	0x2
 7021 062d 30       		.byte	0x30
 7022 062e 9F       		.byte	0x9f
ARM GAS  C:\Users\mlgjmoor\AppData\Local\Temp\ccwL0k1p.s 			page 147


 7023 062f 4E000000 		.4byte	.LVL139
 7024 0633 69000000 		.4byte	.LVL146-1
 7025 0637 0100     		.2byte	0x1
 7026 0639 51       		.byte	0x51
 7027 063a 98000000 		.4byte	.LVL154
 7028 063e AA000000 		.4byte	.LVL160
 7029 0642 0100     		.2byte	0x1
 7030 0644 51       		.byte	0x51
 7031 0645 F0000000 		.4byte	.LVL175
 7032 0649 F2000000 		.4byte	.LVL176
 7033 064d 0100     		.2byte	0x1
 7034 064f 51       		.byte	0x51
 7035 0650 00000000 		.4byte	0
 7036 0654 00000000 		.4byte	0
 7037              	.LLST28:
 7038 0658 06000000 		.4byte	.LVL133
 7039 065c 32000000 		.4byte	.LVL136
 7040 0660 0200     		.2byte	0x2
 7041 0662 30       		.byte	0x30
 7042 0663 9F       		.byte	0x9f
 7043 0664 32000000 		.4byte	.LVL136
 7044 0668 40000000 		.4byte	.LVL137
 7045 066c 0100     		.2byte	0x1
 7046 066e 55       		.byte	0x55
 7047 066f 40000000 		.4byte	.LVL137
 7048 0673 4A000000 		.4byte	.LVL138
 7049 0677 0200     		.2byte	0x2
 7050 0679 30       		.byte	0x30
 7051 067a 9F       		.byte	0x9f
 7052 067b 4A000000 		.4byte	.LVL138
 7053 067f 60000000 		.4byte	.LVL143
 7054 0683 0100     		.2byte	0x1
 7055 0685 55       		.byte	0x55
 7056 0686 98000000 		.4byte	.LVL154
 7057 068a B0000000 		.4byte	.LVL161
 7058 068e 0100     		.2byte	0x1
 7059 0690 55       		.byte	0x55
 7060 0691 F0000000 		.4byte	.LVL175
 7061 0695 F2000000 		.4byte	.LVL176
 7062 0699 0100     		.2byte	0x1
 7063 069b 55       		.byte	0x55
 7064 069c 00000000 		.4byte	0
 7065 06a0 00000000 		.4byte	0
 7066              	.LLST29:
 7067 06a4 06000000 		.4byte	.LVL133
 7068 06a8 12000000 		.4byte	.LVL134
 7069 06ac 0200     		.2byte	0x2
 7070 06ae 30       		.byte	0x30
 7071 06af 9F       		.byte	0x9f
 7072 06b0 12000000 		.4byte	.LVL134
 7073 06b4 40000000 		.4byte	.LVL137
 7074 06b8 0100     		.2byte	0x1
 7075 06ba 53       		.byte	0x53
 7076 06bb 40000000 		.4byte	.LVL137
 7077 06bf 4A000000 		.4byte	.LVL138
 7078 06c3 0200     		.2byte	0x2
 7079 06c5 30       		.byte	0x30
ARM GAS  C:\Users\mlgjmoor\AppData\Local\Temp\ccwL0k1p.s 			page 148


 7080 06c6 9F       		.byte	0x9f
 7081 06c7 4A000000 		.4byte	.LVL138
 7082 06cb 5A000000 		.4byte	.LVL140
 7083 06cf 0100     		.2byte	0x1
 7084 06d1 53       		.byte	0x53
 7085 06d2 98000000 		.4byte	.LVL154
 7086 06d6 9E000000 		.4byte	.LVL155
 7087 06da 0100     		.2byte	0x1
 7088 06dc 53       		.byte	0x53
 7089 06dd A6000000 		.4byte	.LVL158
 7090 06e1 B4000000 		.4byte	.LVL163
 7091 06e5 0100     		.2byte	0x1
 7092 06e7 53       		.byte	0x53
 7093 06e8 F0000000 		.4byte	.LVL175
 7094 06ec F2000000 		.4byte	.LVL176
 7095 06f0 0100     		.2byte	0x1
 7096 06f2 53       		.byte	0x53
 7097 06f3 00000000 		.4byte	0
 7098 06f7 00000000 		.4byte	0
 7099              	.LLST30:
 7100 06fb 5C000000 		.4byte	.LVL141
 7101 06ff 98000000 		.4byte	.LVL154
 7102 0703 0100     		.2byte	0x1
 7103 0705 56       		.byte	0x56
 7104 0706 00000000 		.4byte	0
 7105 070a 00000000 		.4byte	0
 7106              	.LLST31:
 7107 070e 60000000 		.4byte	.LVL143
 7108 0712 98000000 		.4byte	.LVL154
 7109 0716 0100     		.2byte	0x1
 7110 0718 55       		.byte	0x55
 7111 0719 00000000 		.4byte	0
 7112 071d 00000000 		.4byte	0
 7113              	.LLST32:
 7114 0721 5E000000 		.4byte	.LVL142
 7115 0725 72000000 		.4byte	.LVL148
 7116 0729 0100     		.2byte	0x1
 7117 072b 57       		.byte	0x57
 7118 072c 00000000 		.4byte	0
 7119 0730 00000000 		.4byte	0
 7120              	.LLST33:
 7121 0734 64000000 		.4byte	.LVL144
 7122 0738 69000000 		.4byte	.LVL146-1
 7123 073c 0100     		.2byte	0x1
 7124 073e 53       		.byte	0x53
 7125 073f 69000000 		.4byte	.LVL146-1
 7126 0743 98000000 		.4byte	.LVL154
 7127 0747 0100     		.2byte	0x1
 7128 0749 58       		.byte	0x58
 7129 074a 00000000 		.4byte	0
 7130 074e 00000000 		.4byte	0
 7131              	.LLST34:
 7132 0752 B0000000 		.4byte	.LVL161
 7133 0756 F0000000 		.4byte	.LVL175
 7134 075a 0100     		.2byte	0x1
 7135 075c 55       		.byte	0x55
 7136 075d 00000000 		.4byte	0
ARM GAS  C:\Users\mlgjmoor\AppData\Local\Temp\ccwL0k1p.s 			page 149


 7137 0761 00000000 		.4byte	0
 7138              	.LLST35:
 7139 0765 B8000000 		.4byte	.LVL164
 7140 0769 F0000000 		.4byte	.LVL175
 7141 076d 0100     		.2byte	0x1
 7142 076f 57       		.byte	0x57
 7143 0770 00000000 		.4byte	0
 7144 0774 00000000 		.4byte	0
 7145              	.LLST36:
 7146 0778 B2000000 		.4byte	.LVL162
 7147 077c CA000000 		.4byte	.LVL169
 7148 0780 0100     		.2byte	0x1
 7149 0782 56       		.byte	0x56
 7150 0783 00000000 		.4byte	0
 7151 0787 00000000 		.4byte	0
 7152              	.LLST37:
 7153 078b BC000000 		.4byte	.LVL165
 7154 078f C1000000 		.4byte	.LVL167-1
 7155 0793 0100     		.2byte	0x1
 7156 0795 53       		.byte	0x53
 7157 0796 C1000000 		.4byte	.LVL167-1
 7158 079a F0000000 		.4byte	.LVL175
 7159 079e 0100     		.2byte	0x1
 7160 07a0 58       		.byte	0x58
 7161 07a1 00000000 		.4byte	0
 7162 07a5 00000000 		.4byte	0
 7163              	.LLST38:
 7164 07a9 00000000 		.4byte	.LVL177
 7165 07ad 1A000000 		.4byte	.LVL180
 7166 07b1 0100     		.2byte	0x1
 7167 07b3 50       		.byte	0x50
 7168 07b4 1A000000 		.4byte	.LVL180
 7169 07b8 50000000 		.4byte	.LVL191
 7170 07bc 0400     		.2byte	0x4
 7171 07be F3       		.byte	0xf3
 7172 07bf 01       		.uleb128 0x1
 7173 07c0 50       		.byte	0x50
 7174 07c1 9F       		.byte	0x9f
 7175 07c2 50000000 		.4byte	.LVL191
 7176 07c6 54000000 		.4byte	.LVL192
 7177 07ca 0100     		.2byte	0x1
 7178 07cc 50       		.byte	0x50
 7179 07cd 54000000 		.4byte	.LVL192
 7180 07d1 C8000000 		.4byte	.LFE45
 7181 07d5 0400     		.2byte	0x4
 7182 07d7 F3       		.byte	0xf3
 7183 07d8 01       		.uleb128 0x1
 7184 07d9 50       		.byte	0x50
 7185 07da 9F       		.byte	0x9f
 7186 07db 00000000 		.4byte	0
 7187 07df 00000000 		.4byte	0
 7188              	.LLST39:
 7189 07e3 00000000 		.4byte	.LVL177
 7190 07e7 1D000000 		.4byte	.LVL181-1
 7191 07eb 0100     		.2byte	0x1
 7192 07ed 51       		.byte	0x51
 7193 07ee 1D000000 		.4byte	.LVL181-1
ARM GAS  C:\Users\mlgjmoor\AppData\Local\Temp\ccwL0k1p.s 			page 150


 7194 07f2 50000000 		.4byte	.LVL191
 7195 07f6 0400     		.2byte	0x4
 7196 07f8 F3       		.byte	0xf3
 7197 07f9 01       		.uleb128 0x1
 7198 07fa 51       		.byte	0x51
 7199 07fb 9F       		.byte	0x9f
 7200 07fc 50000000 		.4byte	.LVL191
 7201 0800 57000000 		.4byte	.LVL193-1
 7202 0804 0100     		.2byte	0x1
 7203 0806 51       		.byte	0x51
 7204 0807 57000000 		.4byte	.LVL193-1
 7205 080b C8000000 		.4byte	.LFE45
 7206 080f 0400     		.2byte	0x4
 7207 0811 F3       		.byte	0xf3
 7208 0812 01       		.uleb128 0x1
 7209 0813 51       		.byte	0x51
 7210 0814 9F       		.byte	0x9f
 7211 0815 00000000 		.4byte	0
 7212 0819 00000000 		.4byte	0
 7213              	.LLST40:
 7214 081d 08000000 		.4byte	.LVL178
 7215 0821 70000000 		.4byte	.LVL198
 7216 0825 0700     		.2byte	0x7
 7217 0827 74       		.byte	0x74
 7218 0828 00       		.sleb128 0
 7219 0829 0A       		.byte	0xa
 7220 082a FFFF     		.2byte	0xffff
 7221 082c 1A       		.byte	0x1a
 7222 082d 9F       		.byte	0x9f
 7223 082e 80000000 		.4byte	.LVL201
 7224 0832 85000000 		.4byte	.LVL202-1
 7225 0836 0700     		.2byte	0x7
 7226 0838 70       		.byte	0x70
 7227 0839 00       		.sleb128 0
 7228 083a 0A       		.byte	0xa
 7229 083b FFFF     		.2byte	0xffff
 7230 083d 1A       		.byte	0x1a
 7231 083e 9F       		.byte	0x9f
 7232 083f 00000000 		.4byte	0
 7233 0843 00000000 		.4byte	0
 7234              	.LLST41:
 7235 0847 18000000 		.4byte	.LVL179
 7236 084b 20000000 		.4byte	.LVL182
 7237 084f 0600     		.2byte	0x6
 7238 0851 9E       		.byte	0x9e
 7239 0852 04       		.uleb128 0x4
 7240 0853 00000000 		.4byte	0
 7241 0857 20000000 		.4byte	.LVL182
 7242 085b 22000000 		.4byte	.LVL183
 7243 085f 0100     		.2byte	0x1
 7244 0861 50       		.byte	0x50
 7245 0862 22000000 		.4byte	.LVL183
 7246 0866 50000000 		.4byte	.LVL191
 7247 086a 0100     		.2byte	0x1
 7248 086c 55       		.byte	0x55
 7249 086d 00000000 		.4byte	0
 7250 0871 00000000 		.4byte	0
ARM GAS  C:\Users\mlgjmoor\AppData\Local\Temp\ccwL0k1p.s 			page 151


 7251              	.LLST42:
 7252 0875 58000000 		.4byte	.LVL193
 7253 0879 5A000000 		.4byte	.LVL194
 7254 087d 0100     		.2byte	0x1
 7255 087f 50       		.byte	0x50
 7256 0880 00000000 		.4byte	0
 7257 0884 00000000 		.4byte	0
 7258              	.LLST43:
 7259 0888 6E000000 		.4byte	.LVL197
 7260 088c 72000000 		.4byte	.LVL199
 7261 0890 0200     		.2byte	0x2
 7262 0892 30       		.byte	0x30
 7263 0893 9F       		.byte	0x9f
 7264 0894 72000000 		.4byte	.LVL199
 7265 0898 A4000000 		.4byte	.LVL207
 7266 089c 0100     		.2byte	0x1
 7267 089e 54       		.byte	0x54
 7268 089f 00000000 		.4byte	0
 7269 08a3 00000000 		.4byte	0
 7270              	.LLST44:
 7271 08a7 00000000 		.4byte	.LVL208
 7272 08ab 0A000000 		.4byte	.LVL209
 7273 08af 0100     		.2byte	0x1
 7274 08b1 50       		.byte	0x50
 7275 08b2 0A000000 		.4byte	.LVL209
 7276 08b6 50000000 		.4byte	.LFE42
 7277 08ba 0200     		.2byte	0x2
 7278 08bc 91       		.byte	0x91
 7279 08bd 6C       		.sleb128 -20
 7280 08be 00000000 		.4byte	0
 7281 08c2 00000000 		.4byte	0
 7282              	.LLST45:
 7283 08c6 32000000 		.4byte	.LVL216
 7284 08ca 48000000 		.4byte	.LVL219
 7285 08ce 0100     		.2byte	0x1
 7286 08d0 55       		.byte	0x55
 7287 08d1 48000000 		.4byte	.LVL219
 7288 08d5 50000000 		.4byte	.LFE42
 7289 08d9 0100     		.2byte	0x1
 7290 08db 50       		.byte	0x50
 7291 08dc 00000000 		.4byte	0
 7292 08e0 00000000 		.4byte	0
 7293              	.LLST46:
 7294 08e4 00000000 		.4byte	.LVL220
 7295 08e8 0A000000 		.4byte	.LVL222
 7296 08ec 0100     		.2byte	0x1
 7297 08ee 50       		.byte	0x50
 7298 08ef 0A000000 		.4byte	.LVL222
 7299 08f3 5C000000 		.4byte	.LVL234
 7300 08f7 0100     		.2byte	0x1
 7301 08f9 57       		.byte	0x57
 7302 08fa 5C000000 		.4byte	.LVL234
 7303 08fe 64000000 		.4byte	.LFE43
 7304 0902 0400     		.2byte	0x4
 7305 0904 F3       		.byte	0xf3
 7306 0905 01       		.uleb128 0x1
 7307 0906 50       		.byte	0x50
ARM GAS  C:\Users\mlgjmoor\AppData\Local\Temp\ccwL0k1p.s 			page 152


 7308 0907 9F       		.byte	0x9f
 7309 0908 00000000 		.4byte	0
 7310 090c 00000000 		.4byte	0
 7311              	.LLST47:
 7312 0910 06000000 		.4byte	.LVL221
 7313 0914 0A000000 		.4byte	.LVL222
 7314 0918 0200     		.2byte	0x2
 7315 091a 30       		.byte	0x30
 7316 091b 9F       		.byte	0x9f
 7317 091c 0A000000 		.4byte	.LVL222
 7318 0920 5C000000 		.4byte	.LVL233
 7319 0924 0100     		.2byte	0x1
 7320 0926 56       		.byte	0x56
 7321 0927 00000000 		.4byte	0
 7322 092b 00000000 		.4byte	0
 7323              	.LLST48:
 7324 092f 0A000000 		.4byte	.LVL222
 7325 0933 14000000 		.4byte	.LVL224
 7326 0937 0100     		.2byte	0x1
 7327 0939 54       		.byte	0x54
 7328 093a 14000000 		.4byte	.LVL224
 7329 093e 22000000 		.4byte	.LVL225
 7330 0942 0300     		.2byte	0x3
 7331 0944 75       		.byte	0x75
 7332 0945 7F       		.sleb128 -1
 7333 0946 9F       		.byte	0x9f
 7334 0947 22000000 		.4byte	.LVL225
 7335 094b 26000000 		.4byte	.LVL226
 7336 094f 0100     		.2byte	0x1
 7337 0951 55       		.byte	0x55
 7338 0952 28000000 		.4byte	.LVL227
 7339 0956 2E000000 		.4byte	.LVL228
 7340 095a 0100     		.2byte	0x1
 7341 095c 54       		.byte	0x54
 7342 095d 00000000 		.4byte	0
 7343 0961 00000000 		.4byte	0
 7344              	.LLST49:
 7345 0965 36000000 		.4byte	.LVL229
 7346 0969 5C000000 		.4byte	.LVL232
 7347 096d 0100     		.2byte	0x1
 7348 096f 54       		.byte	0x54
 7349 0970 00000000 		.4byte	0
 7350 0974 00000000 		.4byte	0
 7351              	.LLST50:
 7352 0978 00000000 		.4byte	.LVL235
 7353 097c 04000000 		.4byte	.LVL236
 7354 0980 0100     		.2byte	0x1
 7355 0982 50       		.byte	0x50
 7356 0983 04000000 		.4byte	.LVL236
 7357 0987 0A000000 		.4byte	.LFE44
 7358 098b 0400     		.2byte	0x4
 7359 098d F3       		.byte	0xf3
 7360 098e 01       		.uleb128 0x1
 7361 098f 50       		.byte	0x50
 7362 0990 9F       		.byte	0x9f
 7363 0991 00000000 		.4byte	0
 7364 0995 00000000 		.4byte	0
ARM GAS  C:\Users\mlgjmoor\AppData\Local\Temp\ccwL0k1p.s 			page 153


 7365              	.LLST51:
 7366 0999 00000000 		.4byte	.LVL235
 7367 099d 07000000 		.4byte	.LVL237-1
 7368 09a1 0100     		.2byte	0x1
 7369 09a3 51       		.byte	0x51
 7370 09a4 07000000 		.4byte	.LVL237-1
 7371 09a8 0A000000 		.4byte	.LFE44
 7372 09ac 0400     		.2byte	0x4
 7373 09ae F3       		.byte	0xf3
 7374 09af 01       		.uleb128 0x1
 7375 09b0 51       		.byte	0x51
 7376 09b1 9F       		.byte	0x9f
 7377 09b2 00000000 		.4byte	0
 7378 09b6 00000000 		.4byte	0
 7379              	.LLST52:
 7380 09ba 00000000 		.4byte	.LVL244
 7381 09be 04000000 		.4byte	.LVL245
 7382 09c2 0100     		.2byte	0x1
 7383 09c4 50       		.byte	0x50
 7384 09c5 04000000 		.4byte	.LVL245
 7385 09c9 1A000000 		.4byte	.LFE47
 7386 09cd 0100     		.2byte	0x1
 7387 09cf 52       		.byte	0x52
 7388 09d0 00000000 		.4byte	0
 7389 09d4 00000000 		.4byte	0
 7390              	.LLST53:
 7391 09d8 00000000 		.4byte	.LVL247
 7392 09dc 08000000 		.4byte	.LVL249
 7393 09e0 0100     		.2byte	0x1
 7394 09e2 50       		.byte	0x50
 7395 09e3 08000000 		.4byte	.LVL249
 7396 09e7 26000000 		.4byte	.LVL253
 7397 09eb 0100     		.2byte	0x1
 7398 09ed 55       		.byte	0x55
 7399 09ee 26000000 		.4byte	.LVL253
 7400 09f2 28000000 		.4byte	.LFE48
 7401 09f6 0400     		.2byte	0x4
 7402 09f8 F3       		.byte	0xf3
 7403 09f9 01       		.uleb128 0x1
 7404 09fa 50       		.byte	0x50
 7405 09fb 9F       		.byte	0x9f
 7406 09fc 00000000 		.4byte	0
 7407 0a00 00000000 		.4byte	0
 7408              	.LLST54:
 7409 0a04 04000000 		.4byte	.LVL248
 7410 0a08 0A000000 		.4byte	.LVL250
 7411 0a0c 0200     		.2byte	0x2
 7412 0a0e 31       		.byte	0x31
 7413 0a0f 9F       		.byte	0x9f
 7414 0a10 0A000000 		.4byte	.LVL250
 7415 0a14 28000000 		.4byte	.LFE48
 7416 0a18 0100     		.2byte	0x1
 7417 0a1a 50       		.byte	0x50
 7418 0a1b 00000000 		.4byte	0
 7419 0a1f 00000000 		.4byte	0
 7420              	.LLST55:
 7421 0a23 04000000 		.4byte	.LVL248
ARM GAS  C:\Users\mlgjmoor\AppData\Local\Temp\ccwL0k1p.s 			page 154


 7422 0a27 0A000000 		.4byte	.LVL250
 7423 0a2b 0200     		.2byte	0x2
 7424 0a2d 30       		.byte	0x30
 7425 0a2e 9F       		.byte	0x9f
 7426 0a2f 0A000000 		.4byte	.LVL250
 7427 0a33 28000000 		.4byte	.LFE48
 7428 0a37 0100     		.2byte	0x1
 7429 0a39 53       		.byte	0x53
 7430 0a3a 00000000 		.4byte	0
 7431 0a3e 00000000 		.4byte	0
 7432              	.LLST56:
 7433 0a42 00000000 		.4byte	.LVL254
 7434 0a46 07000000 		.4byte	.LVL255-1
 7435 0a4a 0100     		.2byte	0x1
 7436 0a4c 50       		.byte	0x50
 7437 0a4d 07000000 		.4byte	.LVL255-1
 7438 0a51 54000000 		.4byte	.LVL262
 7439 0a55 0100     		.2byte	0x1
 7440 0a57 55       		.byte	0x55
 7441 0a58 54000000 		.4byte	.LVL262
 7442 0a5c 64000000 		.4byte	.LFE49
 7443 0a60 0400     		.2byte	0x4
 7444 0a62 F3       		.byte	0xf3
 7445 0a63 01       		.uleb128 0x1
 7446 0a64 50       		.byte	0x50
 7447 0a65 9F       		.byte	0x9f
 7448 0a66 00000000 		.4byte	0
 7449 0a6a 00000000 		.4byte	0
 7450              	.LLST57:
 7451 0a6e 0A000000 		.4byte	.LVL256
 7452 0a72 38000000 		.4byte	.LVL259
 7453 0a76 0100     		.2byte	0x1
 7454 0a78 54       		.byte	0x54
 7455 0a79 00000000 		.4byte	0
 7456 0a7d 00000000 		.4byte	0
 7457              	.LLST58:
 7458 0a81 00000000 		.4byte	.LVL263
 7459 0a85 0A000000 		.4byte	.LVL265
 7460 0a89 0100     		.2byte	0x1
 7461 0a8b 50       		.byte	0x50
 7462 0a8c 0A000000 		.4byte	.LVL265
 7463 0a90 22000000 		.4byte	.LVL271
 7464 0a94 0100     		.2byte	0x1
 7465 0a96 56       		.byte	0x56
 7466 0a97 22000000 		.4byte	.LVL271
 7467 0a9b 24000000 		.4byte	.LFE50
 7468 0a9f 0400     		.2byte	0x4
 7469 0aa1 F3       		.byte	0xf3
 7470 0aa2 01       		.uleb128 0x1
 7471 0aa3 50       		.byte	0x50
 7472 0aa4 9F       		.byte	0x9f
 7473 0aa5 00000000 		.4byte	0
 7474 0aa9 00000000 		.4byte	0
 7475              	.LLST59:
 7476 0aad 00000000 		.4byte	.LVL263
 7477 0ab1 0A000000 		.4byte	.LVL265
 7478 0ab5 0100     		.2byte	0x1
ARM GAS  C:\Users\mlgjmoor\AppData\Local\Temp\ccwL0k1p.s 			page 155


 7479 0ab7 51       		.byte	0x51
 7480 0ab8 0A000000 		.4byte	.LVL265
 7481 0abc 22000000 		.4byte	.LVL270
 7482 0ac0 0100     		.2byte	0x1
 7483 0ac2 55       		.byte	0x55
 7484 0ac3 22000000 		.4byte	.LVL270
 7485 0ac7 24000000 		.4byte	.LFE50
 7486 0acb 0400     		.2byte	0x4
 7487 0acd F3       		.byte	0xf3
 7488 0ace 01       		.uleb128 0x1
 7489 0acf 51       		.byte	0x51
 7490 0ad0 9F       		.byte	0x9f
 7491 0ad1 00000000 		.4byte	0
 7492 0ad5 00000000 		.4byte	0
 7493              	.LLST60:
 7494 0ad9 06000000 		.4byte	.LVL264
 7495 0add 0A000000 		.4byte	.LVL265
 7496 0ae1 0200     		.2byte	0x2
 7497 0ae3 30       		.byte	0x30
 7498 0ae4 9F       		.byte	0x9f
 7499 0ae5 0A000000 		.4byte	.LVL265
 7500 0ae9 22000000 		.4byte	.LVL269
 7501 0aed 0100     		.2byte	0x1
 7502 0aef 54       		.byte	0x54
 7503 0af0 00000000 		.4byte	0
 7504 0af4 00000000 		.4byte	0
 7505              	.LLST61:
 7506 0af8 0E000000 		.4byte	.LVL266
 7507 0afc 1B000000 		.4byte	.LVL267-1
 7508 0b00 0100     		.2byte	0x1
 7509 0b02 50       		.byte	0x50
 7510 0b03 1B000000 		.4byte	.LVL267-1
 7511 0b07 1E000000 		.4byte	.LVL268
 7512 0b0b 0800     		.2byte	0x8
 7513 0b0d 74       		.byte	0x74
 7514 0b0e 00       		.sleb128 0
 7515 0b0f 33       		.byte	0x33
 7516 0b10 24       		.byte	0x24
 7517 0b11 76       		.byte	0x76
 7518 0b12 00       		.sleb128 0
 7519 0b13 22       		.byte	0x22
 7520 0b14 9F       		.byte	0x9f
 7521 0b15 00000000 		.4byte	0
 7522 0b19 00000000 		.4byte	0
 7523              		.section	.debug_aranges,"",%progbits
 7524 0000 A4000000 		.4byte	0xa4
 7525 0004 0200     		.2byte	0x2
 7526 0006 00000000 		.4byte	.Ldebug_info0
 7527 000a 04       		.byte	0x4
 7528 000b 00       		.byte	0
 7529 000c 0000     		.2byte	0
 7530 000e 0000     		.2byte	0
 7531 0010 00000000 		.4byte	.LFB52
 7532 0014 2C000000 		.4byte	.LFE52-.LFB52
 7533 0018 00000000 		.4byte	.LFB37
 7534 001c A0000000 		.4byte	.LFE37-.LFB37
 7535 0020 00000000 		.4byte	.LFB38
ARM GAS  C:\Users\mlgjmoor\AppData\Local\Temp\ccwL0k1p.s 			page 156


 7536 0024 22000000 		.4byte	.LFE38-.LFB38
 7537 0028 00000000 		.4byte	.LFB39
 7538 002c 3C010000 		.4byte	.LFE39-.LFB39
 7539 0030 00000000 		.4byte	.LFB51
 7540 0034 BC000000 		.4byte	.LFE51-.LFB51
 7541 0038 00000000 		.4byte	.LFB40
 7542 003c 60000000 		.4byte	.LFE40-.LFB40
 7543 0040 00000000 		.4byte	.LFB41
 7544 0044 FC000000 		.4byte	.LFE41-.LFB41
 7545 0048 00000000 		.4byte	.LFB45
 7546 004c C8000000 		.4byte	.LFE45-.LFB45
 7547 0050 00000000 		.4byte	.LFB42
 7548 0054 50000000 		.4byte	.LFE42-.LFB42
 7549 0058 00000000 		.4byte	.LFB43
 7550 005c 64000000 		.4byte	.LFE43-.LFB43
 7551 0060 00000000 		.4byte	.LFB44
 7552 0064 0A000000 		.4byte	.LFE44-.LFB44
 7553 0068 00000000 		.4byte	.LFB46
 7554 006c 40000000 		.4byte	.LFE46-.LFB46
 7555 0070 00000000 		.4byte	.LFB47
 7556 0074 1A000000 		.4byte	.LFE47-.LFB47
 7557 0078 00000000 		.4byte	.LFB48
 7558 007c 28000000 		.4byte	.LFE48-.LFB48
 7559 0080 00000000 		.4byte	.LFB49
 7560 0084 64000000 		.4byte	.LFE49-.LFB49
 7561 0088 00000000 		.4byte	.LFB50
 7562 008c 24000000 		.4byte	.LFE50-.LFB50
 7563 0090 00000000 		.4byte	.LFB53
 7564 0094 C4010000 		.4byte	.LFE53-.LFB53
 7565 0098 00000000 		.4byte	.LFB54
 7566 009c 02000000 		.4byte	.LFE54-.LFB54
 7567 00a0 00000000 		.4byte	0
 7568 00a4 00000000 		.4byte	0
 7569              		.section	.debug_ranges,"",%progbits
 7570              	.Ldebug_ranges0:
 7571 0000 00000000 		.4byte	.LFB52
 7572 0004 2C000000 		.4byte	.LFE52
 7573 0008 00000000 		.4byte	.LFB37
 7574 000c A0000000 		.4byte	.LFE37
 7575 0010 00000000 		.4byte	.LFB38
 7576 0014 22000000 		.4byte	.LFE38
 7577 0018 00000000 		.4byte	.LFB39
 7578 001c 3C010000 		.4byte	.LFE39
 7579 0020 00000000 		.4byte	.LFB51
 7580 0024 BC000000 		.4byte	.LFE51
 7581 0028 00000000 		.4byte	.LFB40
 7582 002c 60000000 		.4byte	.LFE40
 7583 0030 00000000 		.4byte	.LFB41
 7584 0034 FC000000 		.4byte	.LFE41
 7585 0038 00000000 		.4byte	.LFB45
 7586 003c C8000000 		.4byte	.LFE45
 7587 0040 00000000 		.4byte	.LFB42
 7588 0044 50000000 		.4byte	.LFE42
 7589 0048 00000000 		.4byte	.LFB43
 7590 004c 64000000 		.4byte	.LFE43
 7591 0050 00000000 		.4byte	.LFB44
 7592 0054 0A000000 		.4byte	.LFE44
ARM GAS  C:\Users\mlgjmoor\AppData\Local\Temp\ccwL0k1p.s 			page 157


 7593 0058 00000000 		.4byte	.LFB46
 7594 005c 40000000 		.4byte	.LFE46
 7595 0060 00000000 		.4byte	.LFB47
 7596 0064 1A000000 		.4byte	.LFE47
 7597 0068 00000000 		.4byte	.LFB48
 7598 006c 28000000 		.4byte	.LFE48
 7599 0070 00000000 		.4byte	.LFB49
 7600 0074 64000000 		.4byte	.LFE49
 7601 0078 00000000 		.4byte	.LFB50
 7602 007c 24000000 		.4byte	.LFE50
 7603 0080 00000000 		.4byte	.LFB53
 7604 0084 C4010000 		.4byte	.LFE53
 7605 0088 00000000 		.4byte	.LFB54
 7606 008c 02000000 		.4byte	.LFE54
 7607 0090 00000000 		.4byte	0
 7608 0094 00000000 		.4byte	0
 7609              		.section	.debug_line,"",%progbits
 7610              	.Ldebug_line0:
 7611 0000 1A040000 		.section	.debug_str,"MS",%progbits,1
 7611      02001A01 
 7611      00000201 
 7611      FB0E0D00 
 7611      01010101 
 7612              	.LASF340:
 7613 0000 4359424C 		.ascii	"CYBLE_EVT_UDSC_READ_CHAR_RESPONSE\000"
 7613      455F4556 
 7613      545F5544 
 7613      53435F52 
 7613      4541445F 
 7614              	.LASF259:
 7615 0022 4359424C 		.ascii	"CYBLE_EVT_HTSS_NOTIFICATION_DISABLED\000"
 7615      455F4556 
 7615      545F4854 
 7615      53535F4E 
 7615      4F544946 
 7616              	.LASF368:
 7617 0047 71756575 		.ascii	"queue\000"
 7617      6500
 7618              	.LASF19:
 7619 004d 73697A65 		.ascii	"sizetype\000"
 7619      74797065 
 7619      00
 7620              	.LASF139:
 7621 0056 4359424C 		.ascii	"CYBLE_EVT_BCSC_READ_CHAR_RESPONSE\000"
 7621      455F4556 
 7621      545F4243 
 7621      53435F52 
 7621      4541445F 
 7622              	.LASF422:
 7623 0078 72656164 		.ascii	"read_fsr\000"
 7623      5F667372 
 7623      00
 7624              	.LASF162:
 7625 0081 4359424C 		.ascii	"CYBLE_EVT_CGMSC_INDICATION\000"
 7625      455F4556 
 7625      545F4347 
 7625      4D53435F 
ARM GAS  C:\Users\mlgjmoor\AppData\Local\Temp\ccwL0k1p.s 			page 158


 7625      494E4449 
 7626              	.LASF180:
 7627 009c 4359424C 		.ascii	"CYBLE_EVT_CPSC_READ_DESCR_RESPONSE\000"
 7627      455F4556 
 7627      545F4350 
 7627      53435F52 
 7627      4541445F 
 7628              	.LASF389:
 7629 00bf 6465635F 		.ascii	"dec_len\000"
 7629      6C656E00 
 7630              	.LASF317:
 7631 00c7 4359424C 		.ascii	"CYBLE_EVT_RTUSS_WRITE_CHAR_CMD\000"
 7631      455F4556 
 7631      545F5254 
 7631      5553535F 
 7631      57524954 
 7632              	.LASF475:
 7633 00e6 433A5C55 		.ascii	"C:\\Users\\mlgjmoor\\Documents\\PSoC Creator\\Nodus"
 7633      73657273 
 7633      5C6D6C67 
 7633      6A6D6F6F 
 7633      725C446F 
 7634 0114 435C6E6F 		.ascii	"C\\nodusC.cydsn\000"
 7634      64757343 
 7634      2E637964 
 7634      736E00
 7635              	.LASF351:
 7636 0123 4359424C 		.ascii	"CYBLE_EVT_WPTSC_NOTIFICATION\000"
 7636      455F4556 
 7636      545F5750 
 7636      5453435F 
 7636      4E4F5449 
 7637              	.LASF419:
 7638 0140 63656C73 		.ascii	"cels\000"
 7638      00
 7639              	.LASF40:
 7640 0145 4359424C 		.ascii	"CYBLE_EVT_GAP_NUMERIC_COMPARISON_REQUEST\000"
 7640      455F4556 
 7640      545F4741 
 7640      505F4E55 
 7640      4D455249 
 7641              	.LASF357:
 7642 016e 4359424C 		.ascii	"CYBLE_EVT_WSSS_INDICATION_ENABLED\000"
 7642      455F4556 
 7642      545F5753 
 7642      53535F49 
 7642      4E444943 
 7643              	.LASF191:
 7644 0190 4359424C 		.ascii	"CYBLE_EVT_CSCSC_READ_CHAR_RESPONSE\000"
 7644      455F4556 
 7644      545F4353 
 7644      4353435F 
 7644      52454144 
 7645              	.LASF167:
 7646 01b3 4359424C 		.ascii	"CYBLE_EVT_CGMSC_WRITE_DESCR_RESPONSE\000"
 7646      455F4556 
 7646      545F4347 
ARM GAS  C:\Users\mlgjmoor\AppData\Local\Temp\ccwL0k1p.s 			page 159


 7646      4D53435F 
 7646      57524954 
 7647              	.LASF415:
 7648 01d8 77726974 		.ascii	"writeUART_routine\000"
 7648      65554152 
 7648      545F726F 
 7648      7574696E 
 7648      6500
 7649              	.LASF222:
 7650 01ea 4359424C 		.ascii	"CYBLE_EVT_GLSS_NOTIFICATION_DISABLED\000"
 7650      455F4556 
 7650      545F474C 
 7650      53535F4E 
 7650      4F544946 
 7651              	.LASF442:
 7652 020f 6576656E 		.ascii	"eventParam\000"
 7652      74506172 
 7652      616D00
 7653              	.LASF149:
 7654 021a 4359424C 		.ascii	"CYBLE_EVT_BLSC_READ_CHAR_RESPONSE\000"
 7654      455F4556 
 7654      545F424C 
 7654      53435F52 
 7654      4541445F 
 7655              	.LASF34:
 7656 023c 4359424C 		.ascii	"CYBLE_EVT_GAP_DEVICE_CONNECTED\000"
 7656      455F4556 
 7656      545F4741 
 7656      505F4445 
 7656      56494345 
 7657              	.LASF283:
 7658 025b 4359424C 		.ascii	"CYBLE_EVT_LLSC_WRITE_CHAR_RESPONSE\000"
 7658      455F4556 
 7658      545F4C4C 
 7658      53435F57 
 7658      52495445 
 7659              	.LASF48:
 7660 027e 4359424C 		.ascii	"CYBLE_EVT_GATT_CONNECT_IND\000"
 7660      455F4556 
 7660      545F4741 
 7660      54545F43 
 7660      4F4E4E45 
 7661              	.LASF378:
 7662 0299 69735F61 		.ascii	"is_active\000"
 7662      63746976 
 7662      6500
 7663              	.LASF227:
 7664 02a3 4359424C 		.ascii	"CYBLE_EVT_GLSC_WRITE_CHAR_RESPONSE\000"
 7664      455F4556 
 7664      545F474C 
 7664      53435F57 
 7664      52495445 
 7665              	.LASF12:
 7666 02c6 75696E74 		.ascii	"uint32\000"
 7666      333200
 7667              	.LASF104:
 7668 02cd 4359424C 		.ascii	"CYBLE_EVT_GATTC_DESCR_DISCOVERY_FAILED\000"
ARM GAS  C:\Users\mlgjmoor\AppData\Local\Temp\ccwL0k1p.s 			page 160


 7668      455F4556 
 7668      545F4741 
 7668      5454435F 
 7668      44455343 
 7669              	.LASF316:
 7670 02f4 4359424C 		.ascii	"CYBLE_EVT_RSCSC_WRITE_DESCR_RESPONSE\000"
 7670      455F4556 
 7670      545F5253 
 7670      4353435F 
 7670      57524954 
 7671              	.LASF137:
 7672 0319 4359424C 		.ascii	"CYBLE_EVT_BCSS_INDICATION_CONFIRMED\000"
 7672      455F4556 
 7672      545F4243 
 7672      53535F49 
 7672      4E444943 
 7673              	.LASF138:
 7674 033d 4359424C 		.ascii	"CYBLE_EVT_BCSC_INDICATION\000"
 7674      455F4556 
 7674      545F4243 
 7674      53435F49 
 7674      4E444943 
 7675              	.LASF285:
 7676 0357 4359424C 		.ascii	"CYBLE_EVT_LNSS_INDICATION_DISABLED\000"
 7676      455F4556 
 7676      545F4C4E 
 7676      53535F49 
 7676      4E444943 
 7677              	.LASF199:
 7678 037a 4359424C 		.ascii	"CYBLE_EVT_CTSC_READ_CHAR_RESPONSE\000"
 7678      455F4556 
 7678      545F4354 
 7678      53435F52 
 7678      4541445F 
 7679              	.LASF108:
 7680 039c 4359424C 		.ascii	"CYBLE_EVT_GATTC_SRVC_DISCOVERY_COMPLETE\000"
 7680      455F4556 
 7680      545F4741 
 7680      5454435F 
 7680      53525643 
 7681              	.LASF86:
 7682 03c4 4359424C 		.ascii	"CYBLE_ANS_SUPPORTED_NEW_ALERT_CAT\000"
 7682      455F414E 
 7682      535F5355 
 7682      50504F52 
 7682      5445445F 
 7683              	.LASF343:
 7684 03e6 4359424C 		.ascii	"CYBLE_EVT_UDSC_WRITE_DESCR_RESPONSE\000"
 7684      455F4556 
 7684      545F5544 
 7684      53435F57 
 7684      52495445 
 7685              	.LASF241:
 7686 040a 4359424C 		.ascii	"CYBLE_EVT_HIDSC_WRITE_DESCR_RESPONSE\000"
 7686      455F4556 
 7686      545F4849 
 7686      4453435F 
ARM GAS  C:\Users\mlgjmoor\AppData\Local\Temp\ccwL0k1p.s 			page 161


 7686      57524954 
 7687              	.LASF325:
 7688 042f 4359424C 		.ascii	"CYBLE_EVT_TPSS_NOTIFICATION_ENABLED\000"
 7688      455F4556 
 7688      545F5450 
 7688      53535F4E 
 7688      4F544946 
 7689              	.LASF127:
 7690 0453 4359424C 		.ascii	"CYBLE_EVT_ANSC_READ_DESCR_RESPONSE\000"
 7690      455F4556 
 7690      545F414E 
 7690      53435F52 
 7690      4541445F 
 7691              	.LASF380:
 7692 0476 73636865 		.ascii	"scheduler\000"
 7692      64756C65 
 7692      7200
 7693              	.LASF135:
 7694 0480 4359424C 		.ascii	"CYBLE_EVT_BCSS_INDICATION_ENABLED\000"
 7694      455F4556 
 7694      545F4243 
 7694      53535F49 
 7694      4E444943 
 7695              	.LASF455:
 7696 04a2 64657175 		.ascii	"dequeue\000"
 7696      65756500 
 7697              	.LASF263:
 7698 04aa 4359424C 		.ascii	"CYBLE_EVT_HTSS_CHAR_WRITE\000"
 7698      455F4556 
 7698      545F4854 
 7698      53535F43 
 7698      4841525F 
 7699              	.LASF103:
 7700 04c4 4359424C 		.ascii	"CYBLE_EVT_GATTC_CHAR_DISCOVERY_FAILED\000"
 7700      455F4556 
 7700      545F4741 
 7700      5454435F 
 7700      43484152 
 7701              	.LASF16:
 7702 04ea 63686172 		.ascii	"char8\000"
 7702      3800
 7703              	.LASF80:
 7704 04f0 4359424C 		.ascii	"CYBLE_EVT_L2CAP_CBFC_RX_CREDIT_IND\000"
 7704      455F4556 
 7704      545F4C32 
 7704      4341505F 
 7704      43424643 
 7705              	.LASF178:
 7706 0513 4359424C 		.ascii	"CYBLE_EVT_CPSC_READ_CHAR_RESPONSE\000"
 7706      455F4556 
 7706      545F4350 
 7706      53435F52 
 7706      4541445F 
 7707              	.LASF399:
 7708 0535 63616C69 		.ascii	"calibrate_sensor\000"
 7708      62726174 
 7708      655F7365 
ARM GAS  C:\Users\mlgjmoor\AppData\Local\Temp\ccwL0k1p.s 			page 162


 7708      6E736F72 
 7708      00
 7709              	.LASF185:
 7710 0546 4359424C 		.ascii	"CYBLE_EVT_CSCSS_INDICATION_ENABLED\000"
 7710      455F4556 
 7710      545F4353 
 7710      4353535F 
 7710      494E4449 
 7711              	.LASF290:
 7712 0569 4359424C 		.ascii	"CYBLE_EVT_LNSC_INDICATION\000"
 7712      455F4556 
 7712      545F4C4E 
 7712      53435F49 
 7712      4E444943 
 7713              	.LASF301:
 7714 0583 4359424C 		.ascii	"CYBLE_EVT_PASSC_READ_CHAR_RESPONSE\000"
 7714      455F4556 
 7714      545F5041 
 7714      5353435F 
 7714      52454144 
 7715              	.LASF142:
 7716 05a6 4359424C 		.ascii	"CYBLE_EVT_BLSS_INDICATION_ENABLED\000"
 7716      455F4556 
 7716      545F424C 
 7716      53535F49 
 7716      4E444943 
 7717              	.LASF148:
 7718 05c8 4359424C 		.ascii	"CYBLE_EVT_BLSC_NOTIFICATION\000"
 7718      455F4556 
 7718      545F424C 
 7718      53435F4E 
 7718      4F544946 
 7719              	.LASF190:
 7720 05e4 4359424C 		.ascii	"CYBLE_EVT_CSCSC_INDICATION\000"
 7720      455F4556 
 7720      545F4353 
 7720      4353435F 
 7720      494E4449 
 7721              	.LASF463:
 7722 05ff 54696D65 		.ascii	"Timer_Int_StartEx\000"
 7722      725F496E 
 7722      745F5374 
 7722      61727445 
 7722      7800
 7723              	.LASF65:
 7724 0611 4359424C 		.ascii	"CYBLE_EVT_GATTC_HANDLE_VALUE_NTF\000"
 7724      455F4556 
 7724      545F4741 
 7724      5454435F 
 7724      48414E44 
 7725              	.LASF28:
 7726 0632 4359424C 		.ascii	"CYBLE_EVT_GAP_AUTH_REQ\000"
 7726      455F4556 
 7726      545F4741 
 7726      505F4155 
 7726      54485F52 
 7727              	.LASF439:
ARM GAS  C:\Users\mlgjmoor\AppData\Local\Temp\ccwL0k1p.s 			page 163


 7728 0649 72656164 		.ascii	"readADC\000"
 7728      41444300 
 7729              	.LASF110:
 7730 0651 4359424C 		.ascii	"CYBLE_EVT_GATTC_CHAR_DISCOVERY_COMPLETE\000"
 7730      455F4556 
 7730      545F4741 
 7730      5454435F 
 7730      43484152 
 7731              	.LASF255:
 7732 0679 4359424C 		.ascii	"CYBLE_EVT_HRSC_WRITE_CHAR_RESPONSE\000"
 7732      455F4556 
 7732      545F4852 
 7732      53435F57 
 7732      52495445 
 7733              	.LASF189:
 7734 069c 4359424C 		.ascii	"CYBLE_EVT_CSCSC_NOTIFICATION\000"
 7734      455F4556 
 7734      545F4353 
 7734      4353435F 
 7734      4E4F5449 
 7735              	.LASF338:
 7736 06b9 4359424C 		.ascii	"CYBLE_EVT_UDSC_INDICATION\000"
 7736      455F4556 
 7736      545F5544 
 7736      53435F49 
 7736      4E444943 
 7737              	.LASF272:
 7738 06d3 4359424C 		.ascii	"CYBLE_EVT_IPSS_WRITE_CHAR\000"
 7738      455F4556 
 7738      545F4950 
 7738      53535F57 
 7738      52495445 
 7739              	.LASF153:
 7740 06ed 4359424C 		.ascii	"CYBLE_EVT_BMSC_READ_CHAR_RESPONSE\000"
 7740      455F4556 
 7740      545F424D 
 7740      53435F52 
 7740      4541445F 
 7741              	.LASF42:
 7742 070f 4359424C 		.ascii	"CYBLE_EVT_GAP_OOB_GENERATED_NOTIFICATION\000"
 7742      455F4556 
 7742      545F4741 
 7742      505F4F4F 
 7742      425F4745 
 7743              	.LASF427:
 7744 0738 6765745F 		.ascii	"get_user_input\000"
 7744      75736572 
 7744      5F696E70 
 7744      757400
 7745              	.LASF88:
 7746 0747 4359424C 		.ascii	"CYBLE_ANS_SUPPORTED_UNREAD_ALERT_CAT\000"
 7746      455F414E 
 7746      535F5355 
 7746      50504F52 
 7746      5445445F 
 7747              	.LASF158:
 7748 076c 4359424C 		.ascii	"CYBLE_EVT_CGMSS_INDICATION_CONFIRMED\000"
ARM GAS  C:\Users\mlgjmoor\AppData\Local\Temp\ccwL0k1p.s 			page 164


 7748      455F4556 
 7748      545F4347 
 7748      4D53535F 
 7748      494E4449 
 7749              	.LASF471:
 7750 0791 50494E5F 		.ascii	"PIN_SENSOR_2_Write\000"
 7750      53454E53 
 7750      4F525F32 
 7750      5F577269 
 7750      746500
 7751              	.LASF478:
 7752 07a4 55415254 		.ascii	"UART_UartGetChar\000"
 7752      5F556172 
 7752      74476574 
 7752      43686172 
 7752      00
 7753              	.LASF390:
 7754 07b5 72657375 		.ascii	"result\000"
 7754      6C7400
 7755              	.LASF398:
 7756 07bc 696E7432 		.ascii	"int2string\000"
 7756      73747269 
 7756      6E6700
 7757              	.LASF150:
 7758 07c7 4359424C 		.ascii	"CYBLE_EVT_BLSC_READ_DESCR_RESPONSE\000"
 7758      455F4556 
 7758      545F424C 
 7758      53435F52 
 7758      4541445F 
 7759              	.LASF171:
 7760 07ea 4359424C 		.ascii	"CYBLE_EVT_CPSS_INDICATION_DISABLED\000"
 7760      455F4556 
 7760      545F4350 
 7760      53535F49 
 7760      4E444943 
 7761              	.LASF170:
 7762 080d 4359424C 		.ascii	"CYBLE_EVT_CPSS_INDICATION_ENABLED\000"
 7762      455F4556 
 7762      545F4350 
 7762      53535F49 
 7762      4E444943 
 7763              	.LASF287:
 7764 082f 4359424C 		.ascii	"CYBLE_EVT_LNSS_NOTIFICATION_ENABLED\000"
 7764      455F4556 
 7764      545F4C4E 
 7764      53535F4E 
 7764      4F544946 
 7765              	.LASF61:
 7766 0853 4359424C 		.ascii	"CYBLE_EVT_GATTS_WRITE_CMD_REQ\000"
 7766      455F4556 
 7766      545F4741 
 7766      5454535F 
 7766      57524954 
 7767              	.LASF181:
 7768 0871 4359424C 		.ascii	"CYBLE_EVT_CPSC_WRITE_DESCR_RESPONSE\000"
 7768      455F4556 
 7768      545F4350 
ARM GAS  C:\Users\mlgjmoor\AppData\Local\Temp\ccwL0k1p.s 			page 165


 7768      53435F57 
 7768      52495445 
 7769              	.LASF460:
 7770 0895 4144435F 		.ascii	"ADC_GetResult16\000"
 7770      47657452 
 7770      6573756C 
 7770      74313600 
 7771              	.LASF5:
 7772 08a5 6C6F6E67 		.ascii	"long int\000"
 7772      20696E74 
 7772      00
 7773              	.LASF288:
 7774 08ae 4359424C 		.ascii	"CYBLE_EVT_LNSS_NOTIFICATION_DISABLED\000"
 7774      455F4556 
 7774      545F4C4E 
 7774      53535F4E 
 7774      4F544946 
 7775              	.LASF116:
 7776 08d3 4359424C 		.ascii	"CYBLE_EVT_ANCSC_READ_CHAR_RESPONSE\000"
 7776      455F4556 
 7776      545F414E 
 7776      4353435F 
 7776      52454144 
 7777              	.LASF302:
 7778 08f6 4359424C 		.ascii	"CYBLE_EVT_PASSC_WRITE_CHAR_RESPONSE\000"
 7778      455F4556 
 7778      545F5041 
 7778      5353435F 
 7778      57524954 
 7779              	.LASF417:
 7780 091a 666C6F61 		.ascii	"floatAsStr\000"
 7780      74417353 
 7780      747200
 7781              	.LASF333:
 7782 0925 4359424C 		.ascii	"CYBLE_EVT_UDSS_INDICATION_CONFIRMED\000"
 7782      455F4556 
 7782      545F5544 
 7782      53535F49 
 7782      4E444943 
 7783              	.LASF96:
 7784 0949 4359424C 		.ascii	"CYBLE_LONG_TERM_KEY_REQUEST_REPLY\000"
 7784      455F4C4F 
 7784      4E475F54 
 7784      45524D5F 
 7784      4B45595F 
 7785              	.LASF21:
 7786 096b 4359424C 		.ascii	"CYBLE_EVT_STACK_ON\000"
 7786      455F4556 
 7786      545F5354 
 7786      41434B5F 
 7786      4F4E00
 7787              	.LASF433:
 7788 097e 6D61696E 		.ascii	"main\000"
 7788      00
 7789              	.LASF217:
 7790 0983 4359424C 		.ascii	"CYBLE_EVT_ESSC_WRITE_DESCR_RESPONSE\000"
 7790      455F4556 
ARM GAS  C:\Users\mlgjmoor\AppData\Local\Temp\ccwL0k1p.s 			page 166


 7790      545F4553 
 7790      53435F57 
 7790      52495445 
 7791              	.LASF4:
 7792 09a7 73686F72 		.ascii	"short unsigned int\000"
 7792      7420756E 
 7792      7369676E 
 7792      65642069 
 7792      6E7400
 7793              	.LASF391:
 7794 09ba 7374725F 		.ascii	"str_cpy\000"
 7794      63707900 
 7795              	.LASF276:
 7796 09c2 4359424C 		.ascii	"CYBLE_EVT_IPSC_WRITE_CHAR_RESPONSE\000"
 7796      455F4556 
 7796      545F4950 
 7796      53435F57 
 7796      52495445 
 7797              	.LASF258:
 7798 09e5 4359424C 		.ascii	"CYBLE_EVT_HTSS_NOTIFICATION_ENABLED\000"
 7798      455F4556 
 7798      545F4854 
 7798      53535F4E 
 7798      4F544946 
 7799              	.LASF336:
 7800 0a09 4359424C 		.ascii	"CYBLE_EVT_UDSS_READ_CHAR\000"
 7800      455F4556 
 7800      545F5544 
 7800      53535F52 
 7800      4541445F 
 7801              	.LASF214:
 7802 0a22 4359424C 		.ascii	"CYBLE_EVT_ESSC_READ_CHAR_RESPONSE\000"
 7802      455F4556 
 7802      545F4553 
 7802      53435F52 
 7802      4541445F 
 7803              	.LASF74:
 7804 0a44 4359424C 		.ascii	"CYBLE_EVT_L2CAP_COMMAND_REJ\000"
 7804      455F4556 
 7804      545F4C32 
 7804      4341505F 
 7804      434F4D4D 
 7805              	.LASF271:
 7806 0a60 4359424C 		.ascii	"CYBLE_EVT_IPSS_READ_CHAR\000"
 7806      455F4556 
 7806      545F4950 
 7806      53535F52 
 7806      4541445F 
 7807              	.LASF101:
 7808 0a79 4359424C 		.ascii	"CYBLE_EVT_GATTC_SRVC_DISCOVERY_FAILED\000"
 7808      455F4556 
 7808      545F4741 
 7808      5454435F 
 7808      53525643 
 7809              	.LASF234:
 7810 0a9f 4359424C 		.ascii	"CYBLE_EVT_HIDSS_SUSPEND\000"
 7810      455F4556 
ARM GAS  C:\Users\mlgjmoor\AppData\Local\Temp\ccwL0k1p.s 			page 167


 7810      545F4849 
 7810      4453535F 
 7810      53555350 
 7811              	.LASF1:
 7812 0ab7 7369676E 		.ascii	"signed char\000"
 7812      65642063 
 7812      68617200 
 7813              	.LASF363:
 7814 0ac3 4359424C 		.ascii	"CYBLE_EVT_WSSC_WRITE_DESCR_RESPONSE\000"
 7814      455F4556 
 7814      545F5753 
 7814      53435F57 
 7814      52495445 
 7815              	.LASF133:
 7816 0ae7 4359424C 		.ascii	"CYBLE_EVT_BASC_READ_DESCR_RESPONSE\000"
 7816      455F4556 
 7816      545F4241 
 7816      53435F52 
 7816      4541445F 
 7817              	.LASF448:
 7818 0b0a 74696D65 		.ascii	"timer_flag\000"
 7818      725F666C 
 7818      616700
 7819              	.LASF23:
 7820 0b15 4359424C 		.ascii	"CYBLE_EVT_HARDWARE_ERROR\000"
 7820      455F4556 
 7820      545F4841 
 7820      52445741 
 7820      52455F45 
 7821              	.LASF52:
 7822 0b2e 4359424C 		.ascii	"CYBLE_EVT_GATTC_READ_BY_GROUP_TYPE_RSP\000"
 7822      455F4556 
 7822      545F4741 
 7822      5454435F 
 7822      52454144 
 7823              	.LASF307:
 7824 0b55 4359424C 		.ascii	"CYBLE_EVT_RSCSS_INDICATION_ENABLED\000"
 7824      455F4556 
 7824      545F5253 
 7824      4353535F 
 7824      494E4449 
 7825              	.LASF2:
 7826 0b78 756E7369 		.ascii	"unsigned char\000"
 7826      676E6564 
 7826      20636861 
 7826      7200
 7827              	.LASF51:
 7828 0b86 4359424C 		.ascii	"CYBLE_EVT_GATTC_XCHNG_MTU_RSP\000"
 7828      455F4556 
 7828      545F4741 
 7828      5454435F 
 7828      5843484E 
 7829              	.LASF172:
 7830 0ba4 4359424C 		.ascii	"CYBLE_EVT_CPSS_INDICATION_CONFIRMED\000"
 7830      455F4556 
 7830      545F4350 
 7830      53535F49 
ARM GAS  C:\Users\mlgjmoor\AppData\Local\Temp\ccwL0k1p.s 			page 168


 7830      4E444943 
 7831              	.LASF169:
 7832 0bc8 4359424C 		.ascii	"CYBLE_EVT_CPSS_NOTIFICATION_DISABLED\000"
 7832      455F4556 
 7832      545F4350 
 7832      53535F4E 
 7832      4F544946 
 7833              	.LASF312:
 7834 0bed 4359424C 		.ascii	"CYBLE_EVT_RSCSC_INDICATION\000"
 7834      455F4556 
 7834      545F5253 
 7834      4353435F 
 7834      494E4449 
 7835              	.LASF373:
 7836 0c08 63616C5F 		.ascii	"cal_point\000"
 7836      706F696E 
 7836      7400
 7837              	.LASF362:
 7838 0c12 4359424C 		.ascii	"CYBLE_EVT_WSSC_READ_DESCR_RESPONSE\000"
 7838      455F4556 
 7838      545F5753 
 7838      53435F52 
 7838      4541445F 
 7839              	.LASF466:
 7840 0c35 55415254 		.ascii	"UART_Start\000"
 7840      5F537461 
 7840      727400
 7841              	.LASF348:
 7842 0c40 4359424C 		.ascii	"CYBLE_EVT_WPTSS_INDICATION_DISABLED\000"
 7842      455F4556 
 7842      545F5750 
 7842      5453535F 
 7842      494E4449 
 7843              	.LASF46:
 7844 0c64 4359424C 		.ascii	"CYBLE_EVT_GAP_SMP_NEGOTIATED_AUTH_INFO\000"
 7844      455F4556 
 7844      545F4741 
 7844      505F534D 
 7844      505F4E45 
 7845              	.LASF81:
 7846 0c8b 4359424C 		.ascii	"CYBLE_EVT_L2CAP_CBFC_TX_CREDIT_IND\000"
 7846      455F4556 
 7846      545F4C32 
 7846      4341505F 
 7846      43424643 
 7847              	.LASF377:
 7848 0cae 7461736B 		.ascii	"task_cb\000"
 7848      5F636200 
 7849              	.LASF386:
 7850 0cb6 70696E5F 		.ascii	"pin_write\000"
 7850      77726974 
 7850      6500
 7851              	.LASF100:
 7852 0cc0 4359424C 		.ascii	"CYBLE_EVT_GATTC_INDICATION\000"
 7852      455F4556 
 7852      545F4741 
 7852      5454435F 
ARM GAS  C:\Users\mlgjmoor\AppData\Local\Temp\ccwL0k1p.s 			page 169


 7852      494E4449 
 7853              	.LASF426:
 7854 0cdb 7374725F 		.ascii	"str_eq\000"
 7854      657100
 7855              	.LASF379:
 7856 0ce2 5F426F6F 		.ascii	"_Bool\000"
 7856      6C00
 7857              	.LASF242:
 7858 0ce8 4359424C 		.ascii	"CYBLE_EVT_HPSS_NOTIFICATION_ENABLED\000"
 7858      455F4556 
 7858      545F4850 
 7858      53535F4E 
 7858      4F544946 
 7859              	.LASF383:
 7860 0d0c 5441534B 		.ascii	"TASK_WRITE_UART\000"
 7860      5F575249 
 7860      54455F55 
 7860      41525400 
 7861              	.LASF319:
 7862 0d1c 4359424C 		.ascii	"CYBLE_EVT_SCPSS_NOTIFICATION_ENABLED\000"
 7862      455F4556 
 7862      545F5343 
 7862      5053535F 
 7862      4E4F5449 
 7863              	.LASF274:
 7864 0d41 4359424C 		.ascii	"CYBLE_EVT_IPSC_READ_CHAR_RESPONSE\000"
 7864      455F4556 
 7864      545F4950 
 7864      53435F52 
 7864      4541445F 
 7865              	.LASF78:
 7866 0d63 4359424C 		.ascii	"CYBLE_EVT_L2CAP_CBFC_DISCONN_CNF\000"
 7866      455F4556 
 7866      545F4C32 
 7866      4341505F 
 7866      43424643 
 7867              	.LASF55:
 7868 0d84 4359424C 		.ascii	"CYBLE_EVT_GATTC_FIND_BY_TYPE_VALUE_RSP\000"
 7868      455F4556 
 7868      545F4741 
 7868      5454435F 
 7868      46494E44 
 7869              	.LASF112:
 7870 0dab 4359424C 		.ascii	"CYBLE_EVT_ANCSS_NOTIFICATION_ENABLED\000"
 7870      455F4556 
 7870      545F414E 
 7870      4353535F 
 7870      4E4F5449 
 7871              	.LASF43:
 7872 0dd0 4359424C 		.ascii	"CYBLE_EVT_GAP_DATA_LENGTH_CHANGE\000"
 7872      455F4556 
 7872      545F4741 
 7872      505F4441 
 7872      54415F4C 
 7873              	.LASF324:
 7874 0df1 4359424C 		.ascii	"CYBLE_EVT_SCPSC_WRITE_DESCR_RESPONSE\000"
 7874      455F4556 
ARM GAS  C:\Users\mlgjmoor\AppData\Local\Temp\ccwL0k1p.s 			page 170


 7874      545F5343 
 7874      5053435F 
 7874      57524954 
 7875              	.LASF17:
 7876 0e16 63686172 		.ascii	"char\000"
 7876      00
 7877              	.LASF327:
 7878 0e1b 4359424C 		.ascii	"CYBLE_EVT_TPSC_NOTIFICATION\000"
 7878      455F4556 
 7878      545F5450 
 7878      53435F4E 
 7878      4F544946 
 7879              	.LASF403:
 7880 0e37 63616C5F 		.ascii	"cal_point_ind\000"
 7880      706F696E 
 7880      745F696E 
 7880      6400
 7881              	.LASF401:
 7882 0e45 6970635F 		.ascii	"ipc_queue\000"
 7882      71756575 
 7882      6500
 7883              	.LASF58:
 7884 0e4f 4359424C 		.ascii	"CYBLE_EVT_GATTC_READ_MULTI_RSP\000"
 7884      455F4556 
 7884      545F4741 
 7884      5454435F 
 7884      52454144 
 7885              	.LASF396:
 7886 0e6e 6578705F 		.ascii	"exp_h\000"
 7886      6800
 7887              	.LASF413:
 7888 0e74 75707065 		.ascii	"upper\000"
 7888      7200
 7889              	.LASF20:
 7890 0e7a 4359424C 		.ascii	"CYBLE_EVT_HOST_INVALID\000"
 7890      455F4556 
 7890      545F484F 
 7890      53545F49 
 7890      4E56414C 
 7891              	.LASF45:
 7892 0e91 4359424C 		.ascii	"CYBLE_EVT_GAPC_DIRECT_ADV_REPORT\000"
 7892      455F4556 
 7892      545F4741 
 7892      50435F44 
 7892      49524543 
 7893              	.LASF228:
 7894 0eb2 4359424C 		.ascii	"CYBLE_EVT_GLSC_READ_DESCR_RESPONSE\000"
 7894      455F4556 
 7894      545F474C 
 7894      53435F52 
 7894      4541445F 
 7895              	.LASF57:
 7896 0ed5 4359424C 		.ascii	"CYBLE_EVT_GATTC_READ_BLOB_RSP\000"
 7896      455F4556 
 7896      545F4741 
 7896      5454435F 
 7896      52454144 
ARM GAS  C:\Users\mlgjmoor\AppData\Local\Temp\ccwL0k1p.s 			page 171


 7897              	.LASF261:
 7898 0ef3 4359424C 		.ascii	"CYBLE_EVT_HTSS_INDICATION_DISABLED\000"
 7898      455F4556 
 7898      545F4854 
 7898      53535F49 
 7898      4E444943 
 7899              	.LASF318:
 7900 0f16 4359424C 		.ascii	"CYBLE_EVT_RTUSC_READ_CHAR_RESPONSE\000"
 7900      455F4556 
 7900      545F5254 
 7900      5553435F 
 7900      52454144 
 7901              	.LASF64:
 7902 0f39 4359424C 		.ascii	"CYBLE_EVT_GATTC_EXEC_WRITE_RSP\000"
 7902      455F4556 
 7902      545F4741 
 7902      5454435F 
 7902      45584543 
 7903              	.LASF359:
 7904 0f58 4359424C 		.ascii	"CYBLE_EVT_WSSS_INDICATION_CONFIRMED\000"
 7904      455F4556 
 7904      545F5753 
 7904      53535F49 
 7904      4E444943 
 7905              	.LASF443:
 7906 0f7c 63616C5F 		.ascii	"cal_table\000"
 7906      7461626C 
 7906      6500
 7907              	.LASF435:
 7908 0f86 6D795363 		.ascii	"myScheduler\000"
 7908      68656475 
 7908      6C657200 
 7909              	.LASF332:
 7910 0f92 4359424C 		.ascii	"CYBLE_EVT_UDSS_INDICATION_DISABLED\000"
 7910      455F4556 
 7910      545F5544 
 7910      53535F49 
 7910      4E444943 
 7911              	.LASF69:
 7912 0fb5 4359424C 		.ascii	"CYBLE_EVT_GATTC_STOP_CMD_COMPLETE\000"
 7912      455F4556 
 7912      545F4741 
 7912      5454435F 
 7912      53544F50 
 7913              	.LASF175:
 7914 0fd7 4359424C 		.ascii	"CYBLE_EVT_CPSS_CHAR_WRITE\000"
 7914      455F4556 
 7914      545F4350 
 7914      53535F43 
 7914      4841525F 
 7915              	.LASF250:
 7916 0ff1 4359424C 		.ascii	"CYBLE_EVT_HRSS_ENERGY_EXPENDED_RESET\000"
 7916      455F4556 
 7916      545F4852 
 7916      53535F45 
 7916      4E455247 
 7917              	.LASF205:
ARM GAS  C:\Users\mlgjmoor\AppData\Local\Temp\ccwL0k1p.s 			page 172


 7918 1016 4359424C 		.ascii	"CYBLE_EVT_ESSS_NOTIFICATION_DISABLED\000"
 7918      455F4556 
 7918      545F4553 
 7918      53535F4E 
 7918      4F544946 
 7919              	.LASF346:
 7920 103b 4359424C 		.ascii	"CYBLE_EVT_WPTSS_NOTIFICATION_DISABLED\000"
 7920      455F4556 
 7920      545F5750 
 7920      5453535F 
 7920      4E4F5449 
 7921              	.LASF145:
 7922 1061 4359424C 		.ascii	"CYBLE_EVT_BLSS_NOTIFICATION_ENABLED\000"
 7922      455F4556 
 7922      545F424C 
 7922      53535F4E 
 7922      4F544946 
 7923              	.LASF248:
 7924 1085 4359424C 		.ascii	"CYBLE_EVT_HPSC_WRITE_DESCR_RESPONSE\000"
 7924      455F4556 
 7924      545F4850 
 7924      53435F57 
 7924      52495445 
 7925              	.LASF360:
 7926 10a9 4359424C 		.ascii	"CYBLE_EVT_WSSC_INDICATION\000"
 7926      455F4556 
 7926      545F5753 
 7926      53435F49 
 7926      4E444943 
 7927              	.LASF213:
 7928 10c3 4359424C 		.ascii	"CYBLE_EVT_ESSC_INDICATION\000"
 7928      455F4556 
 7928      545F4553 
 7928      53435F49 
 7928      4E444943 
 7929              	.LASF119:
 7930 10dd 4359424C 		.ascii	"CYBLE_EVT_ANCSC_WRITE_DESCR_RESPONSE\000"
 7930      455F4556 
 7930      545F414E 
 7930      4353435F 
 7930      57524954 
 7931              	.LASF314:
 7932 1102 4359424C 		.ascii	"CYBLE_EVT_RSCSC_WRITE_CHAR_RESPONSE\000"
 7932      455F4556 
 7932      545F5253 
 7932      4353435F 
 7932      57524954 
 7933              	.LASF330:
 7934 1126 4359424C 		.ascii	"CYBLE_EVT_TPSC_WRITE_DESCR_RESPONSE\000"
 7934      455F4556 
 7934      545F5450 
 7934      53435F57 
 7934      52495445 
 7935              	.LASF408:
 7936 114a 74656D70 		.ascii	"temp\000"
 7936      00
 7937              	.LASF184:
ARM GAS  C:\Users\mlgjmoor\AppData\Local\Temp\ccwL0k1p.s 			page 173


 7938 114f 4359424C 		.ascii	"CYBLE_EVT_CSCSS_NOTIFICATION_DISABLED\000"
 7938      455F4556 
 7938      545F4353 
 7938      4353535F 
 7938      4E4F5449 
 7939              	.LASF195:
 7940 1175 4359424C 		.ascii	"CYBLE_EVT_CTSS_NOTIFICATION_ENABLED\000"
 7940      455F4556 
 7940      545F4354 
 7940      53535F4E 
 7940      4F544946 
 7941              	.LASF308:
 7942 1199 4359424C 		.ascii	"CYBLE_EVT_RSCSS_INDICATION_DISABLED\000"
 7942      455F4556 
 7942      545F5253 
 7942      4353535F 
 7942      494E4449 
 7943              	.LASF350:
 7944 11bd 4359424C 		.ascii	"CYBLE_EVT_WPTSS_WRITE_CHAR\000"
 7944      455F4556 
 7944      545F5750 
 7944      5453535F 
 7944      57524954 
 7945              	.LASF281:
 7946 11d8 4359424C 		.ascii	"CYBLE_EVT_LLSS_WRITE_CHAR_REQ\000"
 7946      455F4556 
 7946      545F4C4C 
 7946      53535F57 
 7946      52495445 
 7947              	.LASF256:
 7948 11f6 4359424C 		.ascii	"CYBLE_EVT_HRSC_READ_DESCR_RESPONSE\000"
 7948      455F4556 
 7948      545F4852 
 7948      53435F52 
 7948      4541445F 
 7949              	.LASF376:
 7950 1219 7461736B 		.ascii	"task\000"
 7950      00
 7951              	.LASF183:
 7952 121e 4359424C 		.ascii	"CYBLE_EVT_CSCSS_NOTIFICATION_ENABLED\000"
 7952      455F4556 
 7952      545F4353 
 7952      4353535F 
 7952      4E4F5449 
 7953              	.LASF454:
 7954 1243 7065656B 		.ascii	"peek\000"
 7954      00
 7955              	.LASF147:
 7956 1248 4359424C 		.ascii	"CYBLE_EVT_BLSC_INDICATION\000"
 7956      455F4556 
 7956      545F424C 
 7956      53435F49 
 7956      4E444943 
 7957              	.LASF244:
 7958 1262 4359424C 		.ascii	"CYBLE_EVT_HPSS_CHAR_WRITE\000"
 7958      455F4556 
 7958      545F4850 
ARM GAS  C:\Users\mlgjmoor\AppData\Local\Temp\ccwL0k1p.s 			page 174


 7958      53535F43 
 7958      4841525F 
 7959              	.LASF428:
 7960 127c 62756666 		.ascii	"buffer\000"
 7960      657200
 7961              	.LASF236:
 7962 1283 4359424C 		.ascii	"CYBLE_EVT_HIDSS_REPORT_CHAR_WRITE\000"
 7962      455F4556 
 7962      545F4849 
 7962      4453535F 
 7962      5245504F 
 7963              	.LASF354:
 7964 12a5 4359424C 		.ascii	"CYBLE_EVT_WPTSC_READ_CHAR_RESPONSE\000"
 7964      455F4556 
 7964      545F5750 
 7964      5453435F 
 7964      52454144 
 7965              	.LASF293:
 7966 12c8 4359424C 		.ascii	"CYBLE_EVT_LNSC_WRITE_CHAR_RESPONSE\000"
 7966      455F4556 
 7966      545F4C4E 
 7966      53435F57 
 7966      52495445 
 7967              	.LASF73:
 7968 12eb 4359424C 		.ascii	"CYBLE_EVT_L2CAP_CONN_PARAM_UPDATE_RSP\000"
 7968      455F4556 
 7968      545F4C32 
 7968      4341505F 
 7968      434F4E4E 
 7969              	.LASF126:
 7970 1311 4359424C 		.ascii	"CYBLE_EVT_ANSC_WRITE_CHAR_RESPONSE\000"
 7970      455F4556 
 7970      545F414E 
 7970      53435F57 
 7970      52495445 
 7971              	.LASF335:
 7972 1334 4359424C 		.ascii	"CYBLE_EVT_UDSS_NOTIFICATION_DISABLED\000"
 7972      455F4556 
 7972      545F5544 
 7972      53535F4E 
 7972      4F544946 
 7973              	.LASF194:
 7974 1359 4359424C 		.ascii	"CYBLE_EVT_CSCSC_WRITE_DESCR_RESPONSE\000"
 7974      455F4556 
 7974      545F4353 
 7974      4353435F 
 7974      57524954 
 7975              	.LASF337:
 7976 137e 4359424C 		.ascii	"CYBLE_EVT_UDSS_WRITE_CHAR\000"
 7976      455F4556 
 7976      545F5544 
 7976      53535F57 
 7976      52495445 
 7977              	.LASF444:
 7978 1398 66696C74 		.ascii	"filtered_adc\000"
 7978      65726564 
 7978      5F616463 
ARM GAS  C:\Users\mlgjmoor\AppData\Local\Temp\ccwL0k1p.s 			page 175


 7978      00
 7979              	.LASF369:
 7980 13a5 66726F6E 		.ascii	"front\000"
 7980      7400
 7981              	.LASF251:
 7982 13ab 4359424C 		.ascii	"CYBLE_EVT_HRSS_NOTIFICATION_ENABLED\000"
 7982      455F4556 
 7982      545F4852 
 7982      53535F4E 
 7982      4F544946 
 7983              	.LASF394:
 7984 13cf 73747232 		.ascii	"str2float\000"
 7984      666C6F61 
 7984      7400
 7985              	.LASF421:
 7986 13d9 696E6465 		.ascii	"index\000"
 7986      7800
 7987              	.LASF31:
 7988 13df 4359424C 		.ascii	"CYBLE_EVT_GAP_AUTH_COMPLETE\000"
 7988      455F4556 
 7988      545F4741 
 7988      505F4155 
 7988      54485F43 
 7989              	.LASF303:
 7990 13fb 4359424C 		.ascii	"CYBLE_EVT_PASSC_READ_DESCR_RESPONSE\000"
 7990      455F4556 
 7990      545F5041 
 7990      5353435F 
 7990      52454144 
 7991              	.LASF216:
 7992 141f 4359424C 		.ascii	"CYBLE_EVT_ESSC_READ_DESCR_RESPONSE\000"
 7992      455F4556 
 7992      545F4553 
 7992      53435F52 
 7992      4541445F 
 7993              	.LASF32:
 7994 1442 4359424C 		.ascii	"CYBLE_EVT_GAP_AUTH_FAILED\000"
 7994      455F4556 
 7994      545F4741 
 7994      505F4155 
 7994      54485F46 
 7995              	.LASF235:
 7996 145c 4359424C 		.ascii	"CYBLE_EVT_HIDSS_EXIT_SUSPEND\000"
 7996      455F4556 
 7996      545F4849 
 7996      4453535F 
 7996      45584954 
 7997              	.LASF456:
 7998 1479 69735F65 		.ascii	"is_empty\000"
 7998      6D707479 
 7998      00
 7999              	.LASF431:
 8000 1482 73636865 		.ascii	"sched\000"
 8000      6400
 8001              	.LASF432:
 8002 1488 6375725F 		.ascii	"cur_task\000"
 8002      7461736B 
ARM GAS  C:\Users\mlgjmoor\AppData\Local\Temp\ccwL0k1p.s 			page 176


 8002      00
 8003              	.LASF201:
 8004 1491 4359424C 		.ascii	"CYBLE_EVT_CTSC_WRITE_DESCR_RESPONSE\000"
 8004      455F4556 
 8004      545F4354 
 8004      53435F57 
 8004      52495445 
 8005              	.LASF385:
 8006 14b5 4D41585F 		.ascii	"MAX_SCHEDULER_TASK\000"
 8006      53434845 
 8006      44554C45 
 8006      525F5441 
 8006      534B00
 8007              	.LASF306:
 8008 14c8 4359424C 		.ascii	"CYBLE_EVT_RSCSS_NOTIFICATION_DISABLED\000"
 8008      455F4556 
 8008      545F5253 
 8008      4353535F 
 8008      4E4F5449 
 8009              	.LASF239:
 8010 14ee 4359424C 		.ascii	"CYBLE_EVT_HIDSC_WRITE_CHAR_RESPONSE\000"
 8010      455F4556 
 8010      545F4849 
 8010      4453435F 
 8010      57524954 
 8011              	.LASF6:
 8012 1512 6C6F6E67 		.ascii	"long unsigned int\000"
 8012      20756E73 
 8012      69676E65 
 8012      6420696E 
 8012      7400
 8013              	.LASF277:
 8014 1524 4359424C 		.ascii	"CYBLE_EVT_IPSC_READ_DESCR_RESPONSE\000"
 8014      455F4556 
 8014      545F4950 
 8014      53435F52 
 8014      4541445F 
 8015              	.LASF382:
 8016 1547 5441534B 		.ascii	"TASK_CALIBRATE\000"
 8016      5F43414C 
 8016      49425241 
 8016      544500
 8017              	.LASF438:
 8018 1556 77726974 		.ascii	"writeUART\000"
 8018      65554152 
 8018      5400
 8019              	.LASF270:
 8020 1560 4359424C 		.ascii	"CYBLE_EVT_IASS_WRITE_CHAR_CMD\000"
 8020      455F4556 
 8020      545F4941 
 8020      53535F57 
 8020      52495445 
 8021              	.LASF400:
 8022 157e 73656C66 		.ascii	"self\000"
 8022      00
 8023              	.LASF297:
 8024 1583 4359424C 		.ascii	"CYBLE_EVT_PASSS_NOTIFICATION_ENABLED\000"
ARM GAS  C:\Users\mlgjmoor\AppData\Local\Temp\ccwL0k1p.s 			page 177


 8024      455F4556 
 8024      545F5041 
 8024      5353535F 
 8024      4E4F5449 
 8025              	.LASF300:
 8026 15a8 4359424C 		.ascii	"CYBLE_EVT_PASSC_NOTIFICATION\000"
 8026      455F4556 
 8026      545F5041 
 8026      5353435F 
 8026      4E4F5449 
 8027              	.LASF365:
 8028 15c5 61646472 		.ascii	"address\000"
 8028      65737300 
 8029              	.LASF347:
 8030 15cd 4359424C 		.ascii	"CYBLE_EVT_WPTSS_INDICATION_ENABLED\000"
 8030      455F4556 
 8030      545F5750 
 8030      5453535F 
 8030      494E4449 
 8031              	.LASF367:
 8032 15f0 6970635F 		.ascii	"ipc_message\000"
 8032      6D657373 
 8032      61676500 
 8033              	.LASF125:
 8034 15fc 4359424C 		.ascii	"CYBLE_EVT_ANSC_READ_CHAR_RESPONSE\000"
 8034      455F4556 
 8034      545F414E 
 8034      53435F52 
 8034      4541445F 
 8035              	.LASF473:
 8036 161e 474E5520 		.ascii	"GNU C 4.9.3 20150303 (release) [ARM/embedded-4_9-br"
 8036      4320342E 
 8036      392E3320 
 8036      32303135 
 8036      30333033 
 8037 1651 616E6368 		.ascii	"anch revision 221220] -mcpu=cortex-m0 -mthumb -g -O"
 8037      20726576 
 8037      6973696F 
 8037      6E203232 
 8037      31323230 
 8038 1684 67202D66 		.ascii	"g -ffunction-sections -ffat-lto-objects\000"
 8038      66756E63 
 8038      74696F6E 
 8038      2D736563 
 8038      74696F6E 
 8039              	.LASF410:
 8040 16ac 6C696E74 		.ascii	"linterp\000"
 8040      65727000 
 8041              	.LASF129:
 8042 16b4 4359424C 		.ascii	"CYBLE_EVT_BASS_NOTIFICATION_ENABLED\000"
 8042      455F4556 
 8042      545F4241 
 8042      53535F4E 
 8042      4F544946 
 8043              	.LASF202:
 8044 16d8 4359424C 		.ascii	"CYBLE_EVT_CTSC_WRITE_CHAR_RESPONSE\000"
 8044      455F4556 
ARM GAS  C:\Users\mlgjmoor\AppData\Local\Temp\ccwL0k1p.s 			page 178


 8044      545F4354 
 8044      53435F57 
 8044      52495445 
 8045              	.LASF299:
 8046 16fb 4359424C 		.ascii	"CYBLE_EVT_PASSS_WRITE_CHAR\000"
 8046      455F4556 
 8046      545F5041 
 8046      5353535F 
 8046      57524954 
 8047              	.LASF179:
 8048 1716 4359424C 		.ascii	"CYBLE_EVT_CPSC_WRITE_CHAR_RESPONSE\000"
 8048      455F4556 
 8048      545F4350 
 8048      53435F57 
 8048      52495445 
 8049              	.LASF393:
 8050 1739 696E5F64 		.ascii	"in_dec\000"
 8050      656300
 8051              	.LASF37:
 8052 1740 4359424C 		.ascii	"CYBLE_EVT_GAP_CONNECTION_UPDATE_COMPLETE\000"
 8052      455F4556 
 8052      545F4741 
 8052      505F434F 
 8052      4E4E4543 
 8053              	.LASF164:
 8054 1769 4359424C 		.ascii	"CYBLE_EVT_CGMSC_READ_CHAR_RESPONSE\000"
 8054      455F4556 
 8054      545F4347 
 8054      4D53435F 
 8054      52454144 
 8055              	.LASF445:
 8056 178c 70696E73 		.ascii	"pins\000"
 8056      00
 8057              	.LASF384:
 8058 1791 5441534B 		.ascii	"TASK_READ_ADC\000"
 8058      5F524541 
 8058      445F4144 
 8058      4300
 8059              	.LASF192:
 8060 179f 4359424C 		.ascii	"CYBLE_EVT_CSCSC_WRITE_CHAR_RESPONSE\000"
 8060      455F4556 
 8060      545F4353 
 8060      4353435F 
 8060      57524954 
 8061              	.LASF77:
 8062 17c3 4359424C 		.ascii	"CYBLE_EVT_L2CAP_CBFC_DISCONN_IND\000"
 8062      455F4556 
 8062      545F4C32 
 8062      4341505F 
 8062      43424643 
 8063              	.LASF188:
 8064 17e4 4359424C 		.ascii	"CYBLE_EVT_CSCSS_CHAR_WRITE\000"
 8064      455F4556 
 8064      545F4353 
 8064      4353535F 
 8064      43484152 
 8065              	.LASF392:
ARM GAS  C:\Users\mlgjmoor\AppData\Local\Temp\ccwL0k1p.s 			page 179


 8066 17ff 6375725F 		.ascii	"cur_c\000"
 8066      6300
 8067              	.LASF313:
 8068 1805 4359424C 		.ascii	"CYBLE_EVT_RSCSC_READ_CHAR_RESPONSE\000"
 8068      455F4556 
 8068      545F5253 
 8068      4353435F 
 8068      52454144 
 8069              	.LASF29:
 8070 1828 4359424C 		.ascii	"CYBLE_EVT_GAP_PASSKEY_ENTRY_REQUEST\000"
 8070      455F4556 
 8070      545F4741 
 8070      505F5041 
 8070      53534B45 
 8071              	.LASF430:
 8072 184c 72756E5F 		.ascii	"run_scheduler\000"
 8072      73636865 
 8072      64756C65 
 8072      7200
 8073              	.LASF245:
 8074 185a 4359424C 		.ascii	"CYBLE_EVT_HPSC_NOTIFICATION\000"
 8074      455F4556 
 8074      545F4850 
 8074      53435F4E 
 8074      4F544946 
 8075              	.LASF173:
 8076 1876 4359424C 		.ascii	"CYBLE_EVT_CPSS_BROADCAST_ENABLED\000"
 8076      455F4556 
 8076      545F4350 
 8076      53535F42 
 8076      524F4144 
 8077              	.LASF468:
 8078 1897 4144435F 		.ascii	"ADC_EnableInjection\000"
 8078      456E6162 
 8078      6C65496E 
 8078      6A656374 
 8078      696F6E00 
 8079              	.LASF429:
 8080 18ab 696E5F63 		.ascii	"in_char\000"
 8080      68617200 
 8081              	.LASF278:
 8082 18b3 4359424C 		.ascii	"CYBLE_EVT_IPSC_WRITE_DESCR_RESPONSE\000"
 8082      455F4556 
 8082      545F4950 
 8082      53435F57 
 8082      52495445 
 8083              	.LASF459:
 8084 18d7 4144435F 		.ascii	"ADC_IsEndConversion\000"
 8084      4973456E 
 8084      64436F6E 
 8084      76657273 
 8084      696F6E00 
 8085              	.LASF406:
 8086 18eb 77686F6C 		.ascii	"whole_part\000"
 8086      655F7061 
 8086      727400
 8087              	.LASF264:
ARM GAS  C:\Users\mlgjmoor\AppData\Local\Temp\ccwL0k1p.s 			page 180


 8088 18f6 4359424C 		.ascii	"CYBLE_EVT_HTSC_NOTIFICATION\000"
 8088      455F4556 
 8088      545F4854 
 8088      53435F4E 
 8088      4F544946 
 8089              	.LASF7:
 8090 1912 6C6F6E67 		.ascii	"long long int\000"
 8090      206C6F6E 
 8090      6720696E 
 8090      7400
 8091              	.LASF328:
 8092 1920 4359424C 		.ascii	"CYBLE_EVT_TPSC_READ_CHAR_RESPONSE\000"
 8092      455F4556 
 8092      545F5450 
 8092      53435F52 
 8092      4541445F 
 8093              	.LASF106:
 8094 1942 4359424C 		.ascii	"CYBLE_EVT_GATTC_CHAR_DUPLICATION\000"
 8094      455F4556 
 8094      545F4741 
 8094      5454435F 
 8094      43484152 
 8095              	.LASF221:
 8096 1963 4359424C 		.ascii	"CYBLE_EVT_GLSS_NOTIFICATION_ENABLED\000"
 8096      455F4556 
 8096      545F474C 
 8096      53535F4E 
 8096      4F544946 
 8097              	.LASF420:
 8098 1987 72656164 		.ascii	"read_adc\000"
 8098      5F616463 
 8098      00
 8099              	.LASF246:
 8100 1990 4359424C 		.ascii	"CYBLE_EVT_HPSC_READ_CHAR_RESPONSE\000"
 8100      455F4556 
 8100      545F4850 
 8100      53435F52 
 8100      4541445F 
 8101              	.LASF402:
 8102 19b2 6164635F 		.ascii	"adc_accumulator\000"
 8102      61636375 
 8102      6D756C61 
 8102      746F7200 
 8103              	.LASF156:
 8104 19c2 4359424C 		.ascii	"CYBLE_EVT_CGMSS_INDICATION_ENABLED\000"
 8104      455F4556 
 8104      545F4347 
 8104      4D53535F 
 8104      494E4449 
 8105              	.LASF15:
 8106 19e5 646F7562 		.ascii	"double\000"
 8106      6C6500
 8107              	.LASF450:
 8108 19ec 63616C69 		.ascii	"calibrated\000"
 8108      62726174 
 8108      656400
 8109              	.LASF207:
ARM GAS  C:\Users\mlgjmoor\AppData\Local\Temp\ccwL0k1p.s 			page 181


 8110 19f7 4359424C 		.ascii	"CYBLE_EVT_ESSS_INDICATION_DISABLED\000"
 8110      455F4556 
 8110      545F4553 
 8110      53535F49 
 8110      4E444943 
 8111              	.LASF418:
 8112 1a1a 496E7465 		.ascii	"InterruptState\000"
 8112      72727570 
 8112      74537461 
 8112      746500
 8113              	.LASF83:
 8114 1a29 4359424C 		.ascii	"CYBLE_EVT_PENDING_FLASH_WRITE\000"
 8114      455F4556 
 8114      545F5045 
 8114      4E44494E 
 8114      475F464C 
 8115              	.LASF109:
 8116 1a47 4359424C 		.ascii	"CYBLE_EVT_GATTC_INCL_DISCOVERY_COMPLETE\000"
 8116      455F4556 
 8116      545F4741 
 8116      5454435F 
 8116      494E434C 
 8117              	.LASF345:
 8118 1a6f 4359424C 		.ascii	"CYBLE_EVT_WPTSS_NOTIFICATION_ENABLED\000"
 8118      455F4556 
 8118      545F5750 
 8118      5453535F 
 8118      4E4F5449 
 8119              	.LASF295:
 8120 1a94 4359424C 		.ascii	"CYBLE_EVT_LNSC_WRITE_DESCR_RESPONSE\000"
 8120      455F4556 
 8120      545F4C4E 
 8120      53435F57 
 8120      52495445 
 8121              	.LASF44:
 8122 1ab8 4359424C 		.ascii	"CYBLE_EVT_GAP_ENHANCE_CONN_COMPLETE\000"
 8122      455F4556 
 8122      545F4741 
 8122      505F454E 
 8122      48414E43 
 8123              	.LASF282:
 8124 1adc 4359424C 		.ascii	"CYBLE_EVT_LLSC_READ_CHAR_RESPONSE\000"
 8124      455F4556 
 8124      545F4C4C 
 8124      53435F52 
 8124      4541445F 
 8125              	.LASF187:
 8126 1afe 4359424C 		.ascii	"CYBLE_EVT_CSCSS_INDICATION_CONFIRMATION\000"
 8126      455F4556 
 8126      545F4353 
 8126      4353535F 
 8126      494E4449 
 8127              	.LASF211:
 8128 1b26 4359424C 		.ascii	"CYBLE_EVT_ESSS_DESCR_WRITE\000"
 8128      455F4556 
 8128      545F4553 
 8128      53535F44 
ARM GAS  C:\Users\mlgjmoor\AppData\Local\Temp\ccwL0k1p.s 			page 182


 8128      45534352 
 8129              	.LASF206:
 8130 1b41 4359424C 		.ascii	"CYBLE_EVT_ESSS_INDICATION_ENABLED\000"
 8130      455F4556 
 8130      545F4553 
 8130      53535F49 
 8130      4E444943 
 8131              	.LASF210:
 8132 1b63 4359424C 		.ascii	"CYBLE_EVT_ESSS_EXEC_WRITE_REQ\000"
 8132      455F4556 
 8132      545F4553 
 8132      53535F45 
 8132      5845435F 
 8133              	.LASF451:
 8134 1b81 696E6974 		.ascii	"init_queue\000"
 8134      5F717565 
 8134      756500
 8135              	.LASF322:
 8136 1b8c 4359424C 		.ascii	"CYBLE_EVT_SCPSC_NOTIFICATION\000"
 8136      455F4556 
 8136      545F5343 
 8136      5053435F 
 8136      4E4F5449 
 8137              	.LASF233:
 8138 1ba9 4359424C 		.ascii	"CYBLE_EVT_HIDSS_REPORT_MODE_ENTER\000"
 8138      455F4556 
 8138      545F4849 
 8138      4453535F 
 8138      5245504F 
 8139              	.LASF212:
 8140 1bcb 4359424C 		.ascii	"CYBLE_EVT_ESSC_NOTIFICATION\000"
 8140      455F4556 
 8140      545F4553 
 8140      53435F4E 
 8140      4F544946 
 8141              	.LASF87:
 8142 1be7 4359424C 		.ascii	"CYBLE_ANS_NEW_ALERT\000"
 8142      455F414E 
 8142      535F4E45 
 8142      575F414C 
 8142      45525400 
 8143              	.LASF231:
 8144 1bfb 4359424C 		.ascii	"CYBLE_EVT_HIDSS_NOTIFICATION_DISABLED\000"
 8144      455F4556 
 8144      545F4849 
 8144      4453535F 
 8144      4E4F5449 
 8145              	.LASF414:
 8146 1c21 65786163 		.ascii	"exact\000"
 8146      7400
 8147              	.LASF371:
 8148 1c27 636F756E 		.ascii	"count\000"
 8148      7400
 8149              	.LASF70:
 8150 1c2d 4359424C 		.ascii	"CYBLE_EVT_GATTS_READ_CHAR_VAL_ACCESS_REQ\000"
 8150      455F4556 
 8150      545F4741 
ARM GAS  C:\Users\mlgjmoor\AppData\Local\Temp\ccwL0k1p.s 			page 183


 8150      5454535F 
 8150      52454144 
 8151              	.LASF118:
 8152 1c56 4359424C 		.ascii	"CYBLE_EVT_ANCSC_READ_DESCR_RESPONSE\000"
 8152      455F4556 
 8152      545F414E 
 8152      4353435F 
 8152      52454144 
 8153              	.LASF425:
 8154 1c7a 72656164 		.ascii	"readADC_routine\000"
 8154      4144435F 
 8154      726F7574 
 8154      696E6500 
 8155              	.LASF477:
 8156 1c8a 7072696E 		.ascii	"print_user_message\000"
 8156      745F7573 
 8156      65725F6D 
 8156      65737361 
 8156      676500
 8157              	.LASF339:
 8158 1c9d 4359424C 		.ascii	"CYBLE_EVT_UDSC_NOTIFICATION\000"
 8158      455F4556 
 8158      545F5544 
 8158      53435F4E 
 8158      4F544946 
 8159              	.LASF353:
 8160 1cb9 4359424C 		.ascii	"CYBLE_EVT_WPTSC_WRITE_CHAR_RESPONSE\000"
 8160      455F4556 
 8160      545F5750 
 8160      5453435F 
 8160      57524954 
 8161              	.LASF436:
 8162 1cdd 6970635F 		.ascii	"ipc_fifo\000"
 8162      6669666F 
 8162      00
 8163              	.LASF9:
 8164 1ce6 756E7369 		.ascii	"unsigned int\000"
 8164      676E6564 
 8164      20696E74 
 8164      00
 8165              	.LASF370:
 8166 1cf3 72656172 		.ascii	"rear\000"
 8166      00
 8167              	.LASF62:
 8168 1cf8 4359424C 		.ascii	"CYBLE_EVT_GATTS_PREP_WRITE_REQ\000"
 8168      455F4556 
 8168      545F4741 
 8168      5454535F 
 8168      50524550 
 8169              	.LASF465:
 8170 1d17 54696D65 		.ascii	"Timer_Start\000"
 8170      725F5374 
 8170      61727400 
 8171              	.LASF196:
 8172 1d23 4359424C 		.ascii	"CYBLE_EVT_CTSS_NOTIFICATION_DISABLED\000"
 8172      455F4556 
 8172      545F4354 
ARM GAS  C:\Users\mlgjmoor\AppData\Local\Temp\ccwL0k1p.s 			page 184


 8172      53535F4E 
 8172      4F544946 
 8173              	.LASF397:
 8174 1d48 74696D65 		.ascii	"timer_isr\000"
 8174      725F6973 
 8174      7200
 8175              	.LASF143:
 8176 1d52 4359424C 		.ascii	"CYBLE_EVT_BLSS_INDICATION_DISABLED\000"
 8176      455F4556 
 8176      545F424C 
 8176      53535F49 
 8176      4E444943 
 8177              	.LASF320:
 8178 1d75 4359424C 		.ascii	"CYBLE_EVT_SCPSS_NOTIFICATION_DISABLED\000"
 8178      455F4556 
 8178      545F5343 
 8178      5053535F 
 8178      4E4F5449 
 8179              	.LASF208:
 8180 1d9b 4359424C 		.ascii	"CYBLE_EVT_ESSS_INDICATION_CONFIRMATION\000"
 8180      455F4556 
 8180      545F4553 
 8180      53535F49 
 8180      4E444943 
 8181              	.LASF94:
 8182 1dc2 4359424C 		.ascii	"CYBLE_AUTHENTICATION_REQUEST_REPLY\000"
 8182      455F4155 
 8182      5448454E 
 8182      54494341 
 8182      54494F4E 
 8183              	.LASF452:
 8184 1de5 54696D65 		.ascii	"Timer_ClearInterrupt\000"
 8184      725F436C 
 8184      65617249 
 8184      6E746572 
 8184      72757074 
 8185              	.LASF146:
 8186 1dfa 4359424C 		.ascii	"CYBLE_EVT_BLSS_NOTIFICATION_DISABLED\000"
 8186      455F4556 
 8186      545F424C 
 8186      53535F4E 
 8186      4F544946 
 8187              	.LASF464:
 8188 1e1f 4144435F 		.ascii	"ADC_StartConvert\000"
 8188      53746172 
 8188      74436F6E 
 8188      76657274 
 8188      00
 8189              	.LASF267:
 8190 1e30 4359424C 		.ascii	"CYBLE_EVT_HTSC_WRITE_CHAR_RESPONSE\000"
 8190      455F4556 
 8190      545F4854 
 8190      53435F57 
 8190      52495445 
 8191              	.LASF89:
 8192 1e53 4359424C 		.ascii	"CYBLE_ANS_UNREAD_ALERT_STATUS\000"
 8192      455F414E 
ARM GAS  C:\Users\mlgjmoor\AppData\Local\Temp\ccwL0k1p.s 			page 185


 8192      535F554E 
 8192      52454144 
 8192      5F414C45 
 8193              	.LASF249:
 8194 1e71 4359424C 		.ascii	"CYBLE_EVT_HPSC_WRITE_CHAR_RESPONSE\000"
 8194      455F4556 
 8194      545F4850 
 8194      53435F57 
 8194      52495445 
 8195              	.LASF85:
 8196 1e94 4359424C 		.ascii	"CYBLE_EVT_MAX\000"
 8196      455F4556 
 8196      545F4D41 
 8196      5800
 8197              	.LASF38:
 8198 1ea2 4359424C 		.ascii	"CYBLE_EVT_GAPC_SCAN_START_STOP\000"
 8198      455F4556 
 8198      545F4741 
 8198      50435F53 
 8198      43414E5F 
 8199              	.LASF121:
 8200 1ec1 4359424C 		.ascii	"CYBLE_EVT_ANSS_NOTIFICATION_ENABLED\000"
 8200      455F4556 
 8200      545F414E 
 8200      53535F4E 
 8200      4F544946 
 8201              	.LASF59:
 8202 1ee5 4359424C 		.ascii	"CYBLE_EVT_GATTS_WRITE_REQ\000"
 8202      455F4556 
 8202      545F4741 
 8202      5454535F 
 8202      57524954 
 8203              	.LASF68:
 8204 1eff 4359424C 		.ascii	"CYBLE_EVT_GATTS_DATA_SIGNED_CMD_REQ\000"
 8204      455F4556 
 8204      545F4741 
 8204      5454535F 
 8204      44415441 
 8205              	.LASF341:
 8206 1f23 4359424C 		.ascii	"CYBLE_EVT_UDSC_WRITE_CHAR_RESPONSE\000"
 8206      455F4556 
 8206      545F5544 
 8206      53435F57 
 8206      52495445 
 8207              	.LASF409:
 8208 1f46 6465635F 		.ascii	"dec_places\000"
 8208      706C6163 
 8208      657300
 8209              	.LASF352:
 8210 1f51 4359424C 		.ascii	"CYBLE_EVT_WPTSC_INDICATION\000"
 8210      455F4556 
 8210      545F5750 
 8210      5453435F 
 8210      494E4449 
 8211              	.LASF30:
 8212 1f6c 4359424C 		.ascii	"CYBLE_EVT_GAP_PASSKEY_DISPLAY_REQUEST\000"
 8212      455F4556 
ARM GAS  C:\Users\mlgjmoor\AppData\Local\Temp\ccwL0k1p.s 			page 186


 8212      545F4741 
 8212      505F5041 
 8212      53534B45 
 8213              	.LASF93:
 8214 1f92 4359424C 		.ascii	"CYBLE_ANS_DESCR_COUNT\000"
 8214      455F414E 
 8214      535F4445 
 8214      5343525F 
 8214      434F554E 
 8215              	.LASF437:
 8216 1fa8 63616C69 		.ascii	"calibrate\000"
 8216      62726174 
 8216      6500
 8217              	.LASF56:
 8218 1fb2 4359424C 		.ascii	"CYBLE_EVT_GATTC_READ_RSP\000"
 8218      455F4556 
 8218      545F4741 
 8218      5454435F 
 8218      52454144 
 8219              	.LASF177:
 8220 1fcb 4359424C 		.ascii	"CYBLE_EVT_CPSC_INDICATION\000"
 8220      455F4556 
 8220      545F4350 
 8220      53435F49 
 8220      4E444943 
 8221              	.LASF462:
 8222 1fe5 656E7175 		.ascii	"enqueue\000"
 8222      65756500 
 8223              	.LASF203:
 8224 1fed 4359424C 		.ascii	"CYBLE_EVT_DISC_READ_CHAR_RESPONSE\000"
 8224      455F4556 
 8224      545F4449 
 8224      53435F52 
 8224      4541445F 
 8225              	.LASF76:
 8226 200f 4359424C 		.ascii	"CYBLE_EVT_L2CAP_CBFC_CONN_CNF\000"
 8226      455F4556 
 8226      545F4C32 
 8226      4341505F 
 8226      43424643 
 8227              	.LASF154:
 8228 202d 4359424C 		.ascii	"CYBLE_EVT_BMSC_WRITE_CHAR_RESPONSE\000"
 8228      455F4556 
 8228      545F424D 
 8228      53435F57 
 8228      52495445 
 8229              	.LASF268:
 8230 2050 4359424C 		.ascii	"CYBLE_EVT_HTSC_READ_DESCR_RESPONSE\000"
 8230      455F4556 
 8230      545F4854 
 8230      53435F52 
 8230      4541445F 
 8231              	.LASF364:
 8232 2073 4359424C 		.ascii	"CYBLE_DEBUG_EVT_BLESS_INT\000"
 8232      455F4445 
 8232      4255475F 
 8232      4556545F 
ARM GAS  C:\Users\mlgjmoor\AppData\Local\Temp\ccwL0k1p.s 			page 187


 8232      424C4553 
 8233              	.LASF449:
 8234 208d 696E7075 		.ascii	"input_ready\000"
 8234      745F7265 
 8234      61647900 
 8235              	.LASF223:
 8236 2099 4359424C 		.ascii	"CYBLE_EVT_GLSS_WRITE_CHAR\000"
 8236      455F4556 
 8236      545F474C 
 8236      53535F57 
 8236      52495445 
 8237              	.LASF159:
 8238 20b3 4359424C 		.ascii	"CYBLE_EVT_CGMSS_NOTIFICATION_ENABLED\000"
 8238      455F4556 
 8238      545F4347 
 8238      4D53535F 
 8238      4E4F5449 
 8239              	.LASF253:
 8240 20d8 4359424C 		.ascii	"CYBLE_EVT_HRSC_NOTIFICATION\000"
 8240      455F4556 
 8240      545F4852 
 8240      53435F4E 
 8240      4F544946 
 8241              	.LASF26:
 8242 20f4 4359424C 		.ascii	"CYBLE_EVT_MEMORY_REQUEST\000"
 8242      455F4556 
 8242      545F4D45 
 8242      4D4F5259 
 8242      5F524551 
 8243              	.LASF309:
 8244 210d 4359424C 		.ascii	"CYBLE_EVT_RSCSS_INDICATION_CONFIRMATION\000"
 8244      455F4556 
 8244      545F5253 
 8244      4353535F 
 8244      494E4449 
 8245              	.LASF240:
 8246 2135 4359424C 		.ascii	"CYBLE_EVT_HIDSC_READ_DESCR_RESPONSE\000"
 8246      455F4556 
 8246      545F4849 
 8246      4453435F 
 8246      52454144 
 8247              	.LASF254:
 8248 2159 4359424C 		.ascii	"CYBLE_EVT_HRSC_READ_CHAR_RESPONSE\000"
 8248      455F4556 
 8248      545F4852 
 8248      53435F52 
 8248      4541445F 
 8249              	.LASF131:
 8250 217b 4359424C 		.ascii	"CYBLE_EVT_BASC_NOTIFICATION\000"
 8250      455F4556 
 8250      545F4241 
 8250      53435F4E 
 8250      4F544946 
 8251              	.LASF381:
 8252 2197 7461736B 		.ascii	"tasks\000"
 8252      7300
 8253              	.LASF36:
ARM GAS  C:\Users\mlgjmoor\AppData\Local\Temp\ccwL0k1p.s 			page 188


 8254 219d 4359424C 		.ascii	"CYBLE_EVT_GAP_ENCRYPT_CHANGE\000"
 8254      455F4556 
 8254      545F4741 
 8254      505F454E 
 8254      43525950 
 8255              	.LASF296:
 8256 21ba 4359424C 		.ascii	"CYBLE_EVT_NDCSC_READ_CHAR_RESPONSE\000"
 8256      455F4556 
 8256      545F4E44 
 8256      4353435F 
 8256      52454144 
 8257              	.LASF107:
 8258 21dd 4359424C 		.ascii	"CYBLE_EVT_GATTC_DESCR_DUPLICATION\000"
 8258      455F4556 
 8258      545F4741 
 8258      5454435F 
 8258      44455343 
 8259              	.LASF476:
 8260 21ff 73636865 		.ascii	"scheduler_task\000"
 8260      64756C65 
 8260      725F7461 
 8260      736B00
 8261              	.LASF447:
 8262 220e 74656D70 		.ascii	"temperature_convert\000"
 8262      65726174 
 8262      7572655F 
 8262      636F6E76 
 8262      65727400 
 8263              	.LASF50:
 8264 2222 4359424C 		.ascii	"CYBLE_EVT_GATTS_XCNHG_MTU_REQ\000"
 8264      455F4556 
 8264      545F4741 
 8264      5454535F 
 8264      58434E48 
 8265              	.LASF243:
 8266 2240 4359424C 		.ascii	"CYBLE_EVT_HPSS_NOTIFICATION_DISABLED\000"
 8266      455F4556 
 8266      545F4850 
 8266      53535F4E 
 8266      4F544946 
 8267              	.LASF334:
 8268 2265 4359424C 		.ascii	"CYBLE_EVT_UDSS_NOTIFICATION_ENABLED\000"
 8268      455F4556 
 8268      545F5544 
 8268      53535F4E 
 8268      4F544946 
 8269              	.LASF472:
 8270 2289 43795379 		.ascii	"CySysPmSleep\000"
 8270      73506D53 
 8270      6C656570 
 8270      00
 8271              	.LASF18:
 8272 2296 63796973 		.ascii	"cyisraddress\000"
 8272      72616464 
 8272      72657373 
 8272      00
 8273              	.LASF286:
ARM GAS  C:\Users\mlgjmoor\AppData\Local\Temp\ccwL0k1p.s 			page 189


 8274 22a3 4359424C 		.ascii	"CYBLE_EVT_LNSS_INDICATION_CONFIRMED\000"
 8274      455F4556 
 8274      545F4C4E 
 8274      53535F49 
 8274      4E444943 
 8275              	.LASF358:
 8276 22c7 4359424C 		.ascii	"CYBLE_EVT_WSSS_INDICATION_DISABLED\000"
 8276      455F4556 
 8276      545F5753 
 8276      53535F49 
 8276      4E444943 
 8277              	.LASF128:
 8278 22ea 4359424C 		.ascii	"CYBLE_EVT_ANSC_WRITE_DESCR_RESPONSE\000"
 8278      455F4556 
 8278      545F414E 
 8278      53435F57 
 8278      52495445 
 8279              	.LASF292:
 8280 230e 4359424C 		.ascii	"CYBLE_EVT_LNSC_READ_CHAR_RESPONSE\000"
 8280      455F4556 
 8280      545F4C4E 
 8280      53435F52 
 8280      4541445F 
 8281              	.LASF453:
 8282 2330 55415254 		.ascii	"UART_UartPutString\000"
 8282      5F556172 
 8282      74507574 
 8282      53747269 
 8282      6E6700
 8283              	.LASF404:
 8284 2343 6E756D41 		.ascii	"numAsStr\000"
 8284      73537472 
 8284      00
 8285              	.LASF423:
 8286 234c 6C6F6F70 		.ascii	"loop\000"
 8286      00
 8287              	.LASF220:
 8288 2351 4359424C 		.ascii	"CYBLE_EVT_GLSS_INDICATION_CONFIRMED\000"
 8288      455F4556 
 8288      545F474C 
 8288      53535F49 
 8288      4E444943 
 8289              	.LASF98:
 8290 2375 4359424C 		.ascii	"CYBLE_EVT_GATTS_INDICATION_ENABLED\000"
 8290      455F4556 
 8290      545F4741 
 8290      5454535F 
 8290      494E4449 
 8291              	.LASF8:
 8292 2398 6C6F6E67 		.ascii	"long long unsigned int\000"
 8292      206C6F6E 
 8292      6720756E 
 8292      7369676E 
 8292      65642069 
 8293              	.LASF458:
 8294 23af 43794465 		.ascii	"CyDelay\000"
 8294      6C617900 
ARM GAS  C:\Users\mlgjmoor\AppData\Local\Temp\ccwL0k1p.s 			page 190


 8295              	.LASF22:
 8296 23b7 4359424C 		.ascii	"CYBLE_EVT_TIMEOUT\000"
 8296      455F4556 
 8296      545F5449 
 8296      4D454F55 
 8296      5400
 8297              	.LASF200:
 8298 23c9 4359424C 		.ascii	"CYBLE_EVT_CTSC_READ_DESCR_RESPONSE\000"
 8298      455F4556 
 8298      545F4354 
 8298      53435F52 
 8298      4541445F 
 8299              	.LASF405:
 8300 23ec 666C6F61 		.ascii	"float2str\000"
 8300      74327374 
 8300      7200
 8301              	.LASF79:
 8302 23f6 4359424C 		.ascii	"CYBLE_EVT_L2CAP_CBFC_DATA_READ\000"
 8302      455F4556 
 8302      545F4C32 
 8302      4341505F 
 8302      43424643 
 8303              	.LASF140:
 8304 2415 4359424C 		.ascii	"CYBLE_EVT_BCSC_READ_DESCR_RESPONSE\000"
 8304      455F4556 
 8304      545F4243 
 8304      53435F52 
 8304      4541445F 
 8305              	.LASF176:
 8306 2438 4359424C 		.ascii	"CYBLE_EVT_CPSC_NOTIFICATION\000"
 8306      455F4556 
 8306      545F4350 
 8306      53435F4E 
 8306      4F544946 
 8307              	.LASF151:
 8308 2454 4359424C 		.ascii	"CYBLE_EVT_BLSC_WRITE_DESCR_RESPONSE\000"
 8308      455F4556 
 8308      545F424C 
 8308      53435F57 
 8308      52495445 
 8309              	.LASF291:
 8310 2478 4359424C 		.ascii	"CYBLE_EVT_LNSC_NOTIFICATION\000"
 8310      455F4556 
 8310      545F4C4E 
 8310      53435F4E 
 8310      4F544946 
 8311              	.LASF198:
 8312 2494 4359424C 		.ascii	"CYBLE_EVT_CTSC_NOTIFICATION\000"
 8312      455F4556 
 8312      545F4354 
 8312      53435F4E 
 8312      4F544946 
 8313              	.LASF461:
 8314 24b0 55415254 		.ascii	"UART_SpiUartWriteTxData\000"
 8314      5F537069 
 8314      55617274 
 8314      57726974 
ARM GAS  C:\Users\mlgjmoor\AppData\Local\Temp\ccwL0k1p.s 			page 191


 8314      65547844 
 8315              	.LASF219:
 8316 24c8 4359424C 		.ascii	"CYBLE_EVT_GLSS_INDICATION_DISABLED\000"
 8316      455F4556 
 8316      545F474C 
 8316      53535F49 
 8316      4E444943 
 8317              	.LASF90:
 8318 24eb 4359424C 		.ascii	"CYBLE_ANS_ALERT_NTF_CONTROL_POINT\000"
 8318      455F414E 
 8318      535F414C 
 8318      4552545F 
 8318      4E54465F 
 8319              	.LASF457:
 8320 250d 44696554 		.ascii	"DieTemp_CountsTo_Celsius\000"
 8320      656D705F 
 8320      436F756E 
 8320      7473546F 
 8320      5F43656C 
 8321              	.LASF105:
 8322 2526 4359424C 		.ascii	"CYBLE_EVT_GATTC_SRVC_DUPLICATION\000"
 8322      455F4556 
 8322      545F4741 
 8322      5454435F 
 8322      53525643 
 8323              	.LASF284:
 8324 2547 4359424C 		.ascii	"CYBLE_EVT_LNSS_INDICATION_ENABLED\000"
 8324      455F4556 
 8324      545F4C4E 
 8324      53535F49 
 8324      4E444943 
 8325              	.LASF411:
 8326 2569 6164635F 		.ascii	"adc_reading\000"
 8326      72656164 
 8326      696E6700 
 8327              	.LASF113:
 8328 2575 4359424C 		.ascii	"CYBLE_EVT_ANCSS_NOTIFICATION_DISABLED\000"
 8328      455F4556 
 8328      545F414E 
 8328      4353535F 
 8328      4E4F5449 
 8329              	.LASF416:
 8330 259b 74656D70 		.ascii	"tempAsStr\000"
 8330      41735374 
 8330      7200
 8331              	.LASF130:
 8332 25a5 4359424C 		.ascii	"CYBLE_EVT_BASS_NOTIFICATION_DISABLED\000"
 8332      455F4556 
 8332      545F4241 
 8332      53535F4E 
 8332      4F544946 
 8333              	.LASF446:
 8334 25ca 74656D70 		.ascii	"temperature\000"
 8334      65726174 
 8334      75726500 
 8335              	.LASF168:
 8336 25d6 4359424C 		.ascii	"CYBLE_EVT_CPSS_NOTIFICATION_ENABLED\000"
ARM GAS  C:\Users\mlgjmoor\AppData\Local\Temp\ccwL0k1p.s 			page 192


 8336      455F4556 
 8336      545F4350 
 8336      53535F4E 
 8336      4F544946 
 8337              	.LASF91:
 8338 25fa 4359424C 		.ascii	"CYBLE_ANS_CHAR_COUNT\000"
 8338      455F414E 
 8338      535F4348 
 8338      41525F43 
 8338      4F554E54 
 8339              	.LASF470:
 8340 260f 50494E5F 		.ascii	"PIN_SENSOR_1_Write\000"
 8340      53454E53 
 8340      4F525F31 
 8340      5F577269 
 8340      746500
 8341              	.LASF329:
 8342 2622 4359424C 		.ascii	"CYBLE_EVT_TPSC_READ_DESCR_RESPONSE\000"
 8342      455F4556 
 8342      545F5450 
 8342      53435F52 
 8342      4541445F 
 8343              	.LASF344:
 8344 2645 4359424C 		.ascii	"CYBLE_EVT_UDSC_ERROR_RESPONSE\000"
 8344      455F4556 
 8344      545F5544 
 8344      53435F45 
 8344      52524F52 
 8345              	.LASF54:
 8346 2663 4359424C 		.ascii	"CYBLE_EVT_GATTC_FIND_INFO_RSP\000"
 8346      455F4556 
 8346      545F4741 
 8346      5454435F 
 8346      46494E44 
 8347              	.LASF53:
 8348 2681 4359424C 		.ascii	"CYBLE_EVT_GATTC_READ_BY_TYPE_RSP\000"
 8348      455F4556 
 8348      545F4741 
 8348      5454435F 
 8348      52454144 
 8349              	.LASF298:
 8350 26a2 4359424C 		.ascii	"CYBLE_EVT_PASSS_NOTIFICATION_DISABLED\000"
 8350      455F4556 
 8350      545F5041 
 8350      5353535F 
 8350      4E4F5449 
 8351              	.LASF166:
 8352 26c8 4359424C 		.ascii	"CYBLE_EVT_CGMSC_READ_DESCR_RESPONSE\000"
 8352      455F4556 
 8352      545F4347 
 8352      4D53435F 
 8352      52454144 
 8353              	.LASF238:
 8354 26ec 4359424C 		.ascii	"CYBLE_EVT_HIDSC_READ_CHAR_RESPONSE\000"
 8354      455F4556 
 8354      545F4849 
 8354      4453435F 
ARM GAS  C:\Users\mlgjmoor\AppData\Local\Temp\ccwL0k1p.s 			page 193


 8354      52454144 
 8355              	.LASF372:
 8356 270f 636F6E74 		.ascii	"container\000"
 8356      61696E65 
 8356      7200
 8357              	.LASF326:
 8358 2719 4359424C 		.ascii	"CYBLE_EVT_TPSS_NOTIFICATION_DISABLED\000"
 8358      455F4556 
 8358      545F5450 
 8358      53535F4E 
 8358      4F544946 
 8359              	.LASF323:
 8360 273e 4359424C 		.ascii	"CYBLE_EVT_SCPSC_READ_DESCR_RESPONSE\000"
 8360      455F4556 
 8360      545F5343 
 8360      5053435F 
 8360      52454144 
 8361              	.LASF257:
 8362 2762 4359424C 		.ascii	"CYBLE_EVT_HRSC_WRITE_DESCR_RESPONSE\000"
 8362      455F4556 
 8362      545F4852 
 8362      53435F57 
 8362      52495445 
 8363              	.LASF289:
 8364 2786 4359424C 		.ascii	"CYBLE_EVT_LNSS_WRITE_CHAR\000"
 8364      455F4556 
 8364      545F4C4E 
 8364      53535F57 
 8364      52495445 
 8365              	.LASF209:
 8366 27a0 4359424C 		.ascii	"CYBLE_EVT_ESSS_CHAR_WRITE\000"
 8366      455F4556 
 8366      545F4553 
 8366      53535F43 
 8366      4841525F 
 8367              	.LASF60:
 8368 27ba 4359424C 		.ascii	"CYBLE_EVT_GATTC_WRITE_RSP\000"
 8368      455F4556 
 8368      545F4741 
 8368      5454435F 
 8368      57524954 
 8369              	.LASF204:
 8370 27d4 4359424C 		.ascii	"CYBLE_EVT_ESSS_NOTIFICATION_ENABLED\000"
 8370      455F4556 
 8370      545F4553 
 8370      53535F4E 
 8370      4F544946 
 8371              	.LASF273:
 8372 27f8 4359424C 		.ascii	"CYBLE_EVT_IPSS_WRITE_CHAR_CMD\000"
 8372      455F4556 
 8372      545F4950 
 8372      53535F57 
 8372      52495445 
 8373              	.LASF226:
 8374 2816 4359424C 		.ascii	"CYBLE_EVT_GLSC_READ_CHAR_RESPONSE\000"
 8374      455F4556 
 8374      545F474C 
ARM GAS  C:\Users\mlgjmoor\AppData\Local\Temp\ccwL0k1p.s 			page 194


 8374      53435F52 
 8374      4541445F 
 8375              	.LASF311:
 8376 2838 4359424C 		.ascii	"CYBLE_EVT_RSCSC_NOTIFICATION\000"
 8376      455F4556 
 8376      545F5253 
 8376      4353435F 
 8376      4E4F5449 
 8377              	.LASF33:
 8378 2855 4359424C 		.ascii	"CYBLE_EVT_GAPP_ADVERTISEMENT_START_STOP\000"
 8378      455F4556 
 8378      545F4741 
 8378      50505F41 
 8378      44564552 
 8379              	.LASF144:
 8380 287d 4359424C 		.ascii	"CYBLE_EVT_BLSS_INDICATION_CONFIRMED\000"
 8380      455F4556 
 8380      545F424C 
 8380      53535F49 
 8380      4E444943 
 8381              	.LASF355:
 8382 28a1 4359424C 		.ascii	"CYBLE_EVT_WPTSC_READ_DESCR_RESPONSE\000"
 8382      455F4556 
 8382      545F5750 
 8382      5453435F 
 8382      52454144 
 8383              	.LASF115:
 8384 28c5 4359424C 		.ascii	"CYBLE_EVT_ANCSC_NOTIFICATION\000"
 8384      455F4556 
 8384      545F414E 
 8384      4353435F 
 8384      4E4F5449 
 8385              	.LASF165:
 8386 28e2 4359424C 		.ascii	"CYBLE_EVT_CGMSC_WRITE_CHAR_RESPONSE\000"
 8386      455F4556 
 8386      545F4347 
 8386      4D53435F 
 8386      57524954 
 8387              	.LASF10:
 8388 2906 75696E74 		.ascii	"uint8\000"
 8388      3800
 8389              	.LASF266:
 8390 290c 4359424C 		.ascii	"CYBLE_EVT_HTSC_READ_CHAR_RESPONSE\000"
 8390      455F4556 
 8390      545F4854 
 8390      53435F52 
 8390      4541445F 
 8391              	.LASF374:
 8392 292e 666F7263 		.ascii	"force\000"
 8392      6500
 8393              	.LASF41:
 8394 2934 4359424C 		.ascii	"CYBLE_EVT_GAP_KEYPRESS_NOTIFICATION\000"
 8394      455F4556 
 8394      545F4741 
 8394      505F4B45 
 8394      59505245 
 8395              	.LASF304:
ARM GAS  C:\Users\mlgjmoor\AppData\Local\Temp\ccwL0k1p.s 			page 195


 8396 2958 4359424C 		.ascii	"CYBLE_EVT_PASSC_WRITE_DESCR_RESPONSE\000"
 8396      455F4556 
 8396      545F5041 
 8396      5353435F 
 8396      57524954 
 8397              	.LASF375:
 8398 297d 6164635F 		.ascii	"adc_val\000"
 8398      76616C00 
 8399              	.LASF467:
 8400 2985 4144435F 		.ascii	"ADC_Start\000"
 8400      53746172 
 8400      7400
 8401              	.LASF3:
 8402 298f 73686F72 		.ascii	"short int\000"
 8402      7420696E 
 8402      7400
 8403              	.LASF152:
 8404 2999 4359424C 		.ascii	"CYBLE_EVT_BMSS_WRITE_CHAR\000"
 8404      455F4556 
 8404      545F424D 
 8404      53535F57 
 8404      52495445 
 8405              	.LASF99:
 8406 29b3 4359424C 		.ascii	"CYBLE_EVT_GATTS_INDICATION_DISABLED\000"
 8406      455F4556 
 8406      545F4741 
 8406      5454535F 
 8406      494E4449 
 8407              	.LASF469:
 8408 29d7 50494E5F 		.ascii	"PIN_RESISTOR_Write\000"
 8408      52455349 
 8408      53544F52 
 8408      5F577269 
 8408      746500
 8409              	.LASF136:
 8410 29ea 4359424C 		.ascii	"CYBLE_EVT_BCSS_INDICATION_DISABLED\000"
 8410      455F4556 
 8410      545F4243 
 8410      53535F49 
 8410      4E444943 
 8411              	.LASF163:
 8412 2a0d 4359424C 		.ascii	"CYBLE_EVT_CGMSC_NOTIFICATION\000"
 8412      455F4556 
 8412      545F4347 
 8412      4D53435F 
 8412      4E4F5449 
 8413              	.LASF47:
 8414 2a2a 4359424C 		.ascii	"CYBLE_EVT_GATTC_ERROR_RSP\000"
 8414      455F4556 
 8414      545F4741 
 8414      5454435F 
 8414      4552524F 
 8415              	.LASF215:
 8416 2a44 4359424C 		.ascii	"CYBLE_EVT_ESSC_WRITE_CHAR_RESPONSE\000"
 8416      455F4556 
 8416      545F4553 
 8416      53435F57 
ARM GAS  C:\Users\mlgjmoor\AppData\Local\Temp\ccwL0k1p.s 			page 196


 8416      52495445 
 8417              	.LASF120:
 8418 2a67 4359424C 		.ascii	"CYBLE_EVT_ANCSC_ERROR_RESPONSE\000"
 8418      455F4556 
 8418      545F414E 
 8418      4353435F 
 8418      4552524F 
 8419              	.LASF134:
 8420 2a86 4359424C 		.ascii	"CYBLE_EVT_BASC_WRITE_DESCR_RESPONSE\000"
 8420      455F4556 
 8420      545F4241 
 8420      53435F57 
 8420      52495445 
 8421              	.LASF218:
 8422 2aaa 4359424C 		.ascii	"CYBLE_EVT_GLSS_INDICATION_ENABLED\000"
 8422      455F4556 
 8422      545F474C 
 8422      53535F49 
 8422      4E444943 
 8423              	.LASF123:
 8424 2acc 4359424C 		.ascii	"CYBLE_EVT_ANSS_CHAR_WRITE\000"
 8424      455F4556 
 8424      545F414E 
 8424      53535F43 
 8424      4841525F 
 8425              	.LASF75:
 8426 2ae6 4359424C 		.ascii	"CYBLE_EVT_L2CAP_CBFC_CONN_IND\000"
 8426      455F4556 
 8426      545F4C32 
 8426      4341505F 
 8426      43424643 
 8427              	.LASF63:
 8428 2b04 4359424C 		.ascii	"CYBLE_EVT_GATTS_EXEC_WRITE_REQ\000"
 8428      455F4556 
 8428      545F4741 
 8428      5454535F 
 8428      45584543 
 8429              	.LASF27:
 8430 2b23 4359424C 		.ascii	"CYBLE_EVT_GAPC_SCAN_PROGRESS_RESULT\000"
 8430      455F4556 
 8430      545F4741 
 8430      50435F53 
 8430      43414E5F 
 8431              	.LASF247:
 8432 2b47 4359424C 		.ascii	"CYBLE_EVT_HPSC_READ_DESCR_RESPONSE\000"
 8432      455F4556 
 8432      545F4850 
 8432      53435F52 
 8432      4541445F 
 8433              	.LASF197:
 8434 2b6a 4359424C 		.ascii	"CYBLE_EVT_CTSS_CHAR_WRITE\000"
 8434      455F4556 
 8434      545F4354 
 8434      53535F43 
 8434      4841525F 
 8435              	.LASF331:
 8436 2b84 4359424C 		.ascii	"CYBLE_EVT_UDSS_INDICATION_ENABLED\000"
ARM GAS  C:\Users\mlgjmoor\AppData\Local\Temp\ccwL0k1p.s 			page 197


 8436      455F4556 
 8436      545F5544 
 8436      53535F49 
 8436      4E444943 
 8437              	.LASF280:
 8438 2ba6 4359424C 		.ascii	"CYBLE_EVT_IPSC_READ_BLOB_RSP\000"
 8438      455F4556 
 8438      545F4950 
 8438      53435F52 
 8438      4541445F 
 8439              	.LASF440:
 8440 2bc3 53746163 		.ascii	"StackEventHandler\000"
 8440      6B457665 
 8440      6E744861 
 8440      6E646C65 
 8440      7200
 8441              	.LASF260:
 8442 2bd5 4359424C 		.ascii	"CYBLE_EVT_HTSS_INDICATION_ENABLED\000"
 8442      455F4556 
 8442      545F4854 
 8442      53535F49 
 8442      4E444943 
 8443              	.LASF434:
 8444 2bf7 75736572 		.ascii	"user_input_buf\000"
 8444      5F696E70 
 8444      75745F62 
 8444      756600
 8445              	.LASF342:
 8446 2c06 4359424C 		.ascii	"CYBLE_EVT_UDSC_READ_DESCR_RESPONSE\000"
 8446      455F4556 
 8446      545F5544 
 8446      53435F52 
 8446      4541445F 
 8447              	.LASF132:
 8448 2c29 4359424C 		.ascii	"CYBLE_EVT_BASC_READ_CHAR_RESPONSE\000"
 8448      455F4556 
 8448      545F4241 
 8448      53435F52 
 8448      4541445F 
 8449              	.LASF225:
 8450 2c4b 4359424C 		.ascii	"CYBLE_EVT_GLSC_NOTIFICATION\000"
 8450      455F4556 
 8450      545F474C 
 8450      53435F4E 
 8450      4F544946 
 8451              	.LASF321:
 8452 2c67 4359424C 		.ascii	"CYBLE_EVT_SCPSS_SCAN_INT_WIN_CHAR_WRITE\000"
 8452      455F4556 
 8452      545F5343 
 8452      5053535F 
 8452      5343414E 
 8453              	.LASF412:
 8454 2c8f 6C6F7765 		.ascii	"lower\000"
 8454      7200
 8455              	.LASF13:
 8456 2c95 696E7431 		.ascii	"int16\000"
 8456      3600
ARM GAS  C:\Users\mlgjmoor\AppData\Local\Temp\ccwL0k1p.s 			page 198


 8457              	.LASF186:
 8458 2c9b 4359424C 		.ascii	"CYBLE_EVT_CSCSS_INDICATION_DISABLED\000"
 8458      455F4556 
 8458      545F4353 
 8458      4353535F 
 8458      494E4449 
 8459              	.LASF155:
 8460 2cbf 4359424C 		.ascii	"CYBLE_EVT_BMSC_READ_DESCR_RESPONSE\000"
 8460      455F4556 
 8460      545F424D 
 8460      53435F52 
 8460      4541445F 
 8461              	.LASF84:
 8462 2ce2 4359424C 		.ascii	"CYBLE_EVT_LE_PING_AUTH_TIMEOUT\000"
 8462      455F4556 
 8462      545F4C45 
 8462      5F50494E 
 8462      475F4155 
 8463              	.LASF157:
 8464 2d01 4359424C 		.ascii	"CYBLE_EVT_CGMSS_INDICATION_DISABLED\000"
 8464      455F4556 
 8464      545F4347 
 8464      4D53535F 
 8464      494E4449 
 8465              	.LASF111:
 8466 2d25 4359424C 		.ascii	"CYBLE_EVT_GATTC_DISCOVERY_COMPLETE\000"
 8466      455F4556 
 8466      545F4741 
 8466      5454435F 
 8466      44495343 
 8467              	.LASF161:
 8468 2d48 4359424C 		.ascii	"CYBLE_EVT_CGMSS_WRITE_CHAR\000"
 8468      455F4556 
 8468      545F4347 
 8468      4D53535F 
 8468      57524954 
 8469              	.LASF229:
 8470 2d63 4359424C 		.ascii	"CYBLE_EVT_GLSC_WRITE_DESCR_RESPONSE\000"
 8470      455F4556 
 8470      545F474C 
 8470      53435F57 
 8470      52495445 
 8471              	.LASF66:
 8472 2d87 4359424C 		.ascii	"CYBLE_EVT_GATTC_HANDLE_VALUE_IND\000"
 8472      455F4556 
 8472      545F4741 
 8472      5454435F 
 8472      48414E44 
 8473              	.LASF182:
 8474 2da8 4359424C 		.ascii	"CYBLE_EVT_CPSC_SCAN_PROGRESS_RESULT\000"
 8474      455F4556 
 8474      545F4350 
 8474      53435F53 
 8474      43414E5F 
 8475              	.LASF315:
 8476 2dcc 4359424C 		.ascii	"CYBLE_EVT_RSCSC_READ_DESCR_RESPONSE\000"
 8476      455F4556 
ARM GAS  C:\Users\mlgjmoor\AppData\Local\Temp\ccwL0k1p.s 			page 199


 8476      545F5253 
 8476      4353435F 
 8476      52454144 
 8477              	.LASF441:
 8478 2df0 6576656E 		.ascii	"eventCode\000"
 8478      74436F64 
 8478      6500
 8479              	.LASF25:
 8480 2dfa 4359424C 		.ascii	"CYBLE_EVT_STACK_BUSY_STATUS\000"
 8480      455F4556 
 8480      545F5354 
 8480      41434B5F 
 8480      42555359 
 8481              	.LASF279:
 8482 2e16 4359424C 		.ascii	"CYBLE_EVT_IPSC_ERROR_RESPONSE\000"
 8482      455F4556 
 8482      545F4950 
 8482      53435F45 
 8482      52524F52 
 8483              	.LASF269:
 8484 2e34 4359424C 		.ascii	"CYBLE_EVT_HTSC_WRITE_DESCR_RESPONSE\000"
 8484      455F4556 
 8484      545F4854 
 8484      53435F57 
 8484      52495445 
 8485              	.LASF39:
 8486 2e58 4359424C 		.ascii	"CYBLE_EVT_GAP_KEYINFO_EXCHNGE_CMPLT\000"
 8486      455F4556 
 8486      545F4741 
 8486      505F4B45 
 8486      59494E46 
 8487              	.LASF356:
 8488 2e7c 4359424C 		.ascii	"CYBLE_EVT_WPTSC_WRITE_DESCR_RESPONSE\000"
 8488      455F4556 
 8488      545F5750 
 8488      5453435F 
 8488      57524954 
 8489              	.LASF424:
 8490 2ea1 73656E73 		.ascii	"sensor\000"
 8490      6F7200
 8491              	.LASF72:
 8492 2ea8 4359424C 		.ascii	"CYBLE_EVT_L2CAP_CONN_PARAM_UPDATE_REQ\000"
 8492      455F4556 
 8492      545F4C32 
 8492      4341505F 
 8492      434F4E4E 
 8493              	.LASF160:
 8494 2ece 4359424C 		.ascii	"CYBLE_EVT_CGMSS_NOTIFICATION_DISABLED\000"
 8494      455F4556 
 8494      545F4347 
 8494      4D53535F 
 8494      4E4F5449 
 8495              	.LASF474:
 8496 2ef4 2E5C6D61 		.ascii	".\\main.c\000"
 8496      696E2E63 
 8496      00
 8497              	.LASF387:
ARM GAS  C:\Users\mlgjmoor\AppData\Local\Temp\ccwL0k1p.s 			page 200


 8498 2efd 636F756E 		.ascii	"count64\000"
 8498      74363400 
 8499              	.LASF102:
 8500 2f05 4359424C 		.ascii	"CYBLE_EVT_GATTC_INCL_DISCOVERY_FAILED\000"
 8500      455F4556 
 8500      545F4741 
 8500      5454435F 
 8500      494E434C 
 8501              	.LASF0:
 8502 2f2b 666C6F61 		.ascii	"float\000"
 8502      7400
 8503              	.LASF310:
 8504 2f31 4359424C 		.ascii	"CYBLE_EVT_RSCSS_CHAR_WRITE\000"
 8504      455F4556 
 8504      545F5253 
 8504      4353535F 
 8504      43484152 
 8505              	.LASF294:
 8506 2f4c 4359424C 		.ascii	"CYBLE_EVT_LNSC_READ_DESCR_RESPONSE\000"
 8506      455F4556 
 8506      545F4C4E 
 8506      53435F52 
 8506      4541445F 
 8507              	.LASF14:
 8508 2f6f 696E7433 		.ascii	"int32\000"
 8508      3200
 8509              	.LASF407:
 8510 2f75 66726163 		.ascii	"fraction\000"
 8510      74696F6E 
 8510      00
 8511              	.LASF114:
 8512 2f7e 4359424C 		.ascii	"CYBLE_EVT_ANCSS_WRITE_CHAR\000"
 8512      455F4556 
 8512      545F414E 
 8512      4353535F 
 8512      57524954 
 8513              	.LASF388:
 8514 2f99 77686F6C 		.ascii	"whole\000"
 8514      6500
 8515              	.LASF224:
 8516 2f9f 4359424C 		.ascii	"CYBLE_EVT_GLSC_INDICATION\000"
 8516      455F4556 
 8516      545F474C 
 8516      53435F49 
 8516      4E444943 
 8517              	.LASF174:
 8518 2fb9 4359424C 		.ascii	"CYBLE_EVT_CPSS_BROADCAST_DISABLED\000"
 8518      455F4556 
 8518      545F4350 
 8518      53535F42 
 8518      524F4144 
 8519              	.LASF24:
 8520 2fdb 4359424C 		.ascii	"CYBLE_EVT_HCI_STATUS\000"
 8520      455F4556 
 8520      545F4843 
 8520      495F5354 
 8520      41545553 
ARM GAS  C:\Users\mlgjmoor\AppData\Local\Temp\ccwL0k1p.s 			page 201


 8521              	.LASF49:
 8522 2ff0 4359424C 		.ascii	"CYBLE_EVT_GATT_DISCONNECT_IND\000"
 8522      455F4556 
 8522      545F4741 
 8522      54545F44 
 8522      4953434F 
 8523              	.LASF97:
 8524 300e 4359424C 		.ascii	"CYBLE_KEY_EXCHANGE_INFO_REQUEST_REPLY\000"
 8524      455F4B45 
 8524      595F4558 
 8524      4348414E 
 8524      47455F49 
 8525              	.LASF82:
 8526 3034 4359424C 		.ascii	"CYBLE_EVT_L2CAP_CBFC_DATA_WRITE_IND\000"
 8526      455F4556 
 8526      545F4C32 
 8526      4341505F 
 8526      43424643 
 8527              	.LASF95:
 8528 3058 4359424C 		.ascii	"CYBLE_PASSKEY_ENTRY_REQUEST_REPLY\000"
 8528      455F5041 
 8528      53534B45 
 8528      595F454E 
 8528      5452595F 
 8529              	.LASF395:
 8530 307a 706F7772 		.ascii	"powr\000"
 8530      00
 8531              	.LASF141:
 8532 307f 4359424C 		.ascii	"CYBLE_EVT_BCSC_WRITE_DESCR_RESPONSE\000"
 8532      455F4556 
 8532      545F4243 
 8532      53435F57 
 8532      52495445 
 8533              	.LASF361:
 8534 30a3 4359424C 		.ascii	"CYBLE_EVT_WSSC_READ_CHAR_RESPONSE\000"
 8534      455F4556 
 8534      545F5753 
 8534      53435F52 
 8534      4541445F 
 8535              	.LASF71:
 8536 30c5 4359424C 		.ascii	"CYBLE_EVT_GATTC_LONG_PROCEDURE_END\000"
 8536      455F4556 
 8536      545F4741 
 8536      5454435F 
 8536      4C4F4E47 
 8537              	.LASF366:
 8538 30e8 64617461 		.ascii	"data\000"
 8538      00
 8539              	.LASF124:
 8540 30ed 4359424C 		.ascii	"CYBLE_EVT_ANSC_NOTIFICATION\000"
 8540      455F4556 
 8540      545F414E 
 8540      53435F4E 
 8540      4F544946 
 8541              	.LASF35:
 8542 3109 4359424C 		.ascii	"CYBLE_EVT_GAP_DEVICE_DISCONNECTED\000"
 8542      455F4556 
ARM GAS  C:\Users\mlgjmoor\AppData\Local\Temp\ccwL0k1p.s 			page 202


 8542      545F4741 
 8542      505F4445 
 8542      56494345 
 8543              	.LASF232:
 8544 312b 4359424C 		.ascii	"CYBLE_EVT_HIDSS_BOOT_MODE_ENTER\000"
 8544      455F4556 
 8544      545F4849 
 8544      4453535F 
 8544      424F4F54 
 8545              	.LASF67:
 8546 314b 4359424C 		.ascii	"CYBLE_EVT_GATTS_HANDLE_VALUE_CNF\000"
 8546      455F4556 
 8546      545F4741 
 8546      5454535F 
 8546      48414E44 
 8547              	.LASF275:
 8548 316c 4359424C 		.ascii	"CYBLE_EVT_IPSC_READ_MULTIPLE_CHAR_RESPONSE\000"
 8548      455F4556 
 8548      545F4950 
 8548      53435F52 
 8548      4541445F 
 8549              	.LASF193:
 8550 3197 4359424C 		.ascii	"CYBLE_EVT_CSCSC_READ_DESCR_RESPONSE\000"
 8550      455F4556 
 8550      545F4353 
 8550      4353435F 
 8550      52454144 
 8551              	.LASF11:
 8552 31bb 75696E74 		.ascii	"uint16\000"
 8552      313600
 8553              	.LASF117:
 8554 31c2 4359424C 		.ascii	"CYBLE_EVT_ANCSC_WRITE_CHAR_RESPONSE\000"
 8554      455F4556 
 8554      545F414E 
 8554      4353435F 
 8554      57524954 
 8555              	.LASF237:
 8556 31e6 4359424C 		.ascii	"CYBLE_EVT_HIDSC_NOTIFICATION\000"
 8556      455F4556 
 8556      545F4849 
 8556      4453435F 
 8556      4E4F5449 
 8557              	.LASF305:
 8558 3203 4359424C 		.ascii	"CYBLE_EVT_RSCSS_NOTIFICATION_ENABLED\000"
 8558      455F4556 
 8558      545F5253 
 8558      4353535F 
 8558      4E4F5449 
 8559              	.LASF92:
 8560 3228 4359424C 		.ascii	"CYBLE_ANS_CCCD\000"
 8560      455F414E 
 8560      535F4343 
 8560      434400
 8561              	.LASF122:
 8562 3237 4359424C 		.ascii	"CYBLE_EVT_ANSS_NOTIFICATION_DISABLED\000"
 8562      455F4556 
 8562      545F414E 
ARM GAS  C:\Users\mlgjmoor\AppData\Local\Temp\ccwL0k1p.s 			page 203


 8562      53535F4E 
 8562      4F544946 
 8563              	.LASF265:
 8564 325c 4359424C 		.ascii	"CYBLE_EVT_HTSC_INDICATION\000"
 8564      455F4556 
 8564      545F4854 
 8564      53435F49 
 8564      4E444943 
 8565              	.LASF230:
 8566 3276 4359424C 		.ascii	"CYBLE_EVT_HIDSS_NOTIFICATION_ENABLED\000"
 8566      455F4556 
 8566      545F4849 
 8566      4453535F 
 8566      4E4F5449 
 8567              	.LASF262:
 8568 329b 4359424C 		.ascii	"CYBLE_EVT_HTSS_INDICATION_CONFIRMED\000"
 8568      455F4556 
 8568      545F4854 
 8568      53535F49 
 8568      4E444943 
 8569              	.LASF349:
 8570 32bf 4359424C 		.ascii	"CYBLE_EVT_WPTSS_INDICATION_CONFIRMED\000"
 8570      455F4556 
 8570      545F5750 
 8570      5453535F 
 8570      494E4449 
 8571              	.LASF252:
 8572 32e4 4359424C 		.ascii	"CYBLE_EVT_HRSS_NOTIFICATION_DISABLED\000"
 8572      455F4556 
 8572      545F4852 
 8572      53535F4E 
 8572      4F544946 
 8573              		.ident	"GCC: (GNU Tools for ARM Embedded Processors) 4.9.3 20150303 (release) [ARM/embedded-4_9-br
