ARM GAS  C:\Users\mlgjmoor\AppData\Local\Temp\ccwL0k1p.s 			page 1


   1              		.cpu cortex-m0
   2              		.fpu softvfp
   3              		.eabi_attribute 20, 1
   4              		.eabi_attribute 21, 1
   5              		.eabi_attribute 23, 3
   6              		.eabi_attribute 24, 1
   7              		.eabi_attribute 25, 1
   8              		.eabi_attribute 26, 1
   9              		.eabi_attribute 30, 1
  10              		.eabi_attribute 34, 0
  11              		.eabi_attribute 18, 4
  12              		.code	16
  13              		.file	"main.c"
  14              		.text
  15              	.Ltext0:
  16              		.cfi_sections	.debug_frame
  17              		.section	.text.timer_isr,"ax",%progbits
  18              		.align	2
  19              		.global	timer_isr
  20              		.code	16
  21              		.thumb_func
  22              		.type	timer_isr, %function
  23              	timer_isr:
  24              	.LFB52:
  25              		.file 1 ".\\main.c"
   1:.\main.c      **** /* ========================================
   2:.\main.c      ****  *
   3:.\main.c      ****  * Copyright Flex, 2016
   4:.\main.c      ****  * All Rights Reserved
   5:.\main.c      ****  * UNPUBLISHED, LICENSED SOFTWARE.
   6:.\main.c      ****  *
   7:.\main.c      ****  * CONFIDENTIAL AND PROPRIETARY INFORMATION
   8:.\main.c      ****  * WHICH IS THE PROPERTY OF your company.
   9:.\main.c      ****  *
  10:.\main.c      ****  * ========================================
  11:.\main.c      **** */
  12:.\main.c      **** #define INPUT_BUFFER_MAX            100
  13:.\main.c      **** #define ADC_BUFFER_SIZE             64
  14:.\main.c      **** #define SCHEDULER_NUM_OF_TASKS      3
  15:.\main.c      **** #define CAL_TABLE_NUM_OF_POINTS     5
  16:.\main.c      **** #define ADC_CYCLES_PER_SECOND       8
  17:.\main.c      **** //#define ADC_SENSORS                 1 //WILL BE 16 IN FINAL
  18:.\main.c      **** #define ADC_TEMPERATURE_CHANNEL     1
  19:.\main.c      **** #define IIR_WEIGHT                  8 // Should be power of 2 y = ((IIR_weight - 1)y + x) / IIR_WEI
  20:.\main.c      **** 
  21:.\main.c      **** #define NUMBER_OF_SENSORS           4
  22:.\main.c      **** 
  23:.\main.c      **** #define LOW                         0
  24:.\main.c      **** #define HIGH_Z                      1
  25:.\main.c      **** 
  26:.\main.c      **** #include <project.h>
  27:.\main.c      **** #include <stdbool.h>
  28:.\main.c      **** #include <stdio.h>
  29:.\main.c      **** #include <string.h>
  30:.\main.c      **** #include <queue.h>
  31:.\main.c      **** #include <nodus_api.h>
  32:.\main.c      **** 
ARM GAS  C:\Users\mlgjmoor\AppData\Local\Temp\ccwL0k1p.s 			page 2


  33:.\main.c      **** // Function declarations
  34:.\main.c      **** void StackEventHandler( uint32 eventCode, void *eventParam );
  35:.\main.c      **** 
  36:.\main.c      **** // Type definitions
  37:.\main.c      **** 
  38:.\main.c      **** typedef struct fsr_params
  39:.\main.c      **** {
  40:.\main.c      ****     uint8 numberOfSensors;
  41:.\main.c      ****     uint8 samplesToAvg; // For most efficient result this aught to be a power of 2
  42:.\main.c      ****     
  43:.\main.c      **** } fsr_params;
  44:.\main.c      **** 
  45:.\main.c      **** typedef struct cal_point
  46:.\main.c      **** {
  47:.\main.c      ****     float force;
  48:.\main.c      ****     uint16 adc_val;
  49:.\main.c      **** }cal_point;
  50:.\main.c      **** 
  51:.\main.c      **** typedef struct task
  52:.\main.c      **** {
  53:.\main.c      ****     void  (*task_cb)(struct task*, queue*);
  54:.\main.c      ****     bool  is_active;
  55:.\main.c      **** }task;
  56:.\main.c      **** 
  57:.\main.c      **** typedef struct scheduler
  58:.\main.c      **** {
  59:.\main.c      ****     task tasks[SCHEDULER_NUM_OF_TASKS];
  60:.\main.c      **** }scheduler;
  61:.\main.c      **** 
  62:.\main.c      **** typedef enum scheduler_task
  63:.\main.c      **** {
  64:.\main.c      ****     TASK_CALIBRATE,
  65:.\main.c      ****     TASK_WRITE_UART,
  66:.\main.c      ****     TASK_READ_ADC,
  67:.\main.c      ****     MAX_SCHEDULER_TASK
  68:.\main.c      **** } scheduler_task;
  69:.\main.c      **** 
  70:.\main.c      **** typedef struct pin
  71:.\main.c      **** {
  72:.\main.c      ****     int id;
  73:.\main.c      ****     void (*pin_write)(uint8 value);
  74:.\main.c      **** } pin;
  75:.\main.c      **** 
  76:.\main.c      **** // Global declarations
  77:.\main.c      **** static cal_point cal_table[CAL_TABLE_NUM_OF_POINTS];
  78:.\main.c      **** static uint16 filtered_adc[NUMBER_OF_SENSORS];
  79:.\main.c      **** static pin pins[NUMBER_OF_SENSORS + 1]; // the +1 is for the resistor
  80:.\main.c      **** 
  81:.\main.c      **** static volatile uint32 temperature = 0;
  82:.\main.c      **** static volatile bool temperature_convert = false;
  83:.\main.c      **** 
  84:.\main.c      **** static volatile bool timer_flag = false;
  85:.\main.c      **** static bool input_ready = false;
  86:.\main.c      **** static bool calibrated = false;
  87:.\main.c      **** 
  88:.\main.c      **** 
  89:.\main.c      **** // converts a string into a float
ARM GAS  C:\Users\mlgjmoor\AppData\Local\Temp\ccwL0k1p.s 			page 3


  90:.\main.c      **** float str2float(char* str)
  91:.\main.c      **** {
  92:.\main.c      ****     int whole = 0;
  93:.\main.c      ****     int dec = 0;
  94:.\main.c      ****     int dec_len = 0;
  95:.\main.c      ****     float result = 0.0;
  96:.\main.c      ****     char* str_cpy = str;
  97:.\main.c      ****     char cur_c;
  98:.\main.c      ****     bool in_dec = false;
  99:.\main.c      ****     
 100:.\main.c      ****     cur_c = *str_cpy;
 101:.\main.c      ****     while (cur_c != '\0')
 102:.\main.c      ****     {
 103:.\main.c      ****         // if char is a letter
 104:.\main.c      ****         if (cur_c >= '0' && cur_c <= '9')
 105:.\main.c      ****         {
 106:.\main.c      ****             if (in_dec == false)
 107:.\main.c      ****             {
 108:.\main.c      ****                 whole *= 10;
 109:.\main.c      ****                 whole += (cur_c - '0');
 110:.\main.c      ****             }
 111:.\main.c      ****             else
 112:.\main.c      ****             {
 113:.\main.c      ****                 dec *= 10;
 114:.\main.c      ****                 dec += (cur_c - '0');
 115:.\main.c      ****                 dec_len++;
 116:.\main.c      ****             }
 117:.\main.c      ****         }
 118:.\main.c      ****         else if (cur_c == '.')
 119:.\main.c      ****         {
 120:.\main.c      ****             in_dec = true;
 121:.\main.c      ****         }
 122:.\main.c      ****         else if ( !(cur_c == '\n' || cur_c == '\r') )
 123:.\main.c      ****         {
 124:.\main.c      ****             UART_UartPutString("WARNING: Unrecognized char\r\n");
 125:.\main.c      ****         }
 126:.\main.c      ****         
 127:.\main.c      ****         cur_c = *(++str_cpy);
 128:.\main.c      ****     }
 129:.\main.c      ****     result = (float)dec;
 130:.\main.c      ****     while (dec_len != 0)
 131:.\main.c      ****     {
 132:.\main.c      ****         result /= 10.0;
 133:.\main.c      ****         dec_len--;
 134:.\main.c      ****     }
 135:.\main.c      ****     result += (float)whole;
 136:.\main.c      ****     UART_UartPutString("DEBUG: float conversion complete\r\n");                                    
 137:.\main.c      ****     return result;
 138:.\main.c      **** }
 139:.\main.c      **** 
 140:.\main.c      **** 
 141:.\main.c      **** // raise a base to a power
 142:.\main.c      **** // fun with recursion, can prove it terminates
 143:.\main.c      **** int powr(int b, int p)
 144:.\main.c      **** {
 145:.\main.c      ****     int r;
 146:.\main.c      ****     int exp_h;
ARM GAS  C:\Users\mlgjmoor\AppData\Local\Temp\ccwL0k1p.s 			page 4


 147:.\main.c      ****     
 148:.\main.c      ****     if (p == 0)
 149:.\main.c      ****     {
 150:.\main.c      ****         return 1;
 151:.\main.c      ****     }
 152:.\main.c      ****     else 
 153:.\main.c      ****     {
 154:.\main.c      ****         exp_h = powr(b, p >> 1); // p >> 1 === p / 2
 155:.\main.c      ****         if (p%2 == 0)
 156:.\main.c      ****         {
 157:.\main.c      ****             return exp_h * exp_h;
 158:.\main.c      ****         }
 159:.\main.c      ****         else
 160:.\main.c      ****         {
 161:.\main.c      ****             return b * exp_h * exp_h;
 162:.\main.c      ****         }
 163:.\main.c      ****     }
 164:.\main.c      **** }
 165:.\main.c      **** 
 166:.\main.c      **** 
 167:.\main.c      **** // converts an integer to a string
 168:.\main.c      **** void int2string(uint16 n, char str[6])
 169:.\main.c      **** {
 170:.\main.c      ****     if (n < 10)
 171:.\main.c      ****     {
 172:.\main.c      ****         str[0] = (char)('0' + n);
 173:.\main.c      ****         str[1] = '\0';
 174:.\main.c      ****     }
 175:.\main.c      ****     else if (n < 100)
 176:.\main.c      ****     {
 177:.\main.c      ****         str[1] = (char)('0' + (n % 10));
 178:.\main.c      ****         str[0] = (char)('0' + ((n / 10) % 10));
 179:.\main.c      ****         str[2] = '\0';
 180:.\main.c      ****     }
 181:.\main.c      ****     else if (n < 1000)
 182:.\main.c      ****     {
 183:.\main.c      ****         str[2] = (char)('0' + (n % 10));
 184:.\main.c      ****         str[1] = (char)('0' + ((n / 10) % 10));
 185:.\main.c      ****         str[0] = (char)('0' + ((n / 100) % 10));
 186:.\main.c      ****         str[3] = '\0';
 187:.\main.c      ****     }
 188:.\main.c      ****     else if (n < 10000)
 189:.\main.c      ****     {
 190:.\main.c      ****         str[4] = '\0';
 191:.\main.c      ****         str[3] = (char)('0' + (n % 10));
 192:.\main.c      ****         str[2] = (char)('0' + ((n / 10) % 10));
 193:.\main.c      ****         str[1] = (char)('0' + ((n / 100) % 10));
 194:.\main.c      ****         str[0] = (char)('0' + ((n / 1000) % 10));
 195:.\main.c      ****     }
 196:.\main.c      ****     else
 197:.\main.c      ****     {
 198:.\main.c      ****         str[5] = '\0';
 199:.\main.c      ****         str[4] = (char)('0' + (n % 10));
 200:.\main.c      ****         str[3] = (char)('0' + ((n / 10) % 10));
 201:.\main.c      ****         str[2] = (char)('0' + ((n / 100) % 10));
 202:.\main.c      ****         str[1] = (char)('0' + ((n / 1000) % 10));
 203:.\main.c      ****         str[0] = (char)('0' + ((n / 10000) % 10));
ARM GAS  C:\Users\mlgjmoor\AppData\Local\Temp\ccwL0k1p.s 			page 5


 204:.\main.c      ****     }
 205:.\main.c      **** }
 206:.\main.c      **** 
 207:.\main.c      **** 
 208:.\main.c      **** // Float -> String
 209:.\main.c      **** void float2str(float f, char str[64])
 210:.\main.c      **** {
 211:.\main.c      ****     int whole_part;
 212:.\main.c      ****     int fraction;
 213:.\main.c      ****     float temp;
 214:.\main.c      ****     int i = 0;
 215:.\main.c      ****     int dec_places = 2;  // Change this if you want more decimal places.
 216:.\main.c      ****     char c;
 217:.\main.c      ****     
 218:.\main.c      ****     whole_part = (int) f;
 219:.\main.c      ****     temp = f - whole_part;
 220:.\main.c      ****     fraction = (int)(powr(10, dec_places) * temp);
 221:.\main.c      ****     
 222:.\main.c      ****     int2string(whole_part, str);
 223:.\main.c      ****     for(i=0; i<64; i++)
 224:.\main.c      ****     {
 225:.\main.c      ****         c = str[i];
 226:.\main.c      ****         if (c == '\0')
 227:.\main.c      ****         {
 228:.\main.c      ****             str[i] = '.';
 229:.\main.c      ****             int2string(fraction, &str[i+1]);
 230:.\main.c      ****             break;
 231:.\main.c      ****         }
 232:.\main.c      ****     }
 233:.\main.c      **** }
 234:.\main.c      **** 
 235:.\main.c      **** // linear interpolation of adc_result
 236:.\main.c      **** float linterp(uint16 adc_reading)
 237:.\main.c      **** {
 238:.\main.c      ****     // The whole configuration creates a strictly decreasing function of resistance / force
 239:.\main.c      ****     
 240:.\main.c      ****     float result = 0.0;
 241:.\main.c      ****     bool lower = false;
 242:.\main.c      ****     bool upper = false;
 243:.\main.c      ****     bool exact = false;
 244:.\main.c      ****     
 245:.\main.c      ****     // Find the index, assume the calibration point table is in ascending order
 246:.\main.c      ****     // ^^^ bad assumption
 247:.\main.c      ****     // the data isn't in an easy format in the table
 248:.\main.c      ****     // if a point is <adc_val, force>, then the adc_val goes from high to low as
 249:.\main.c      ****     // points are iterated across the table.
 250:.\main.c      ****     
 251:.\main.c      ****     int i;
 252:.\main.c      ****     i=0;
 253:.\main.c      ****     
 254:.\main.c      ****     if (adc_reading >= cal_table[0].adc_val)
 255:.\main.c      ****     {
 256:.\main.c      ****         lower = true;
 257:.\main.c      ****     }
 258:.\main.c      ****     else
 259:.\main.c      ****     {
 260:.\main.c      ****         for (i=1; i<CAL_TABLE_NUM_OF_POINTS; i++)
ARM GAS  C:\Users\mlgjmoor\AppData\Local\Temp\ccwL0k1p.s 			page 6


 261:.\main.c      ****         {
 262:.\main.c      ****             if (adc_reading > cal_table[i].adc_val) break;
 263:.\main.c      ****             else if (adc_reading == cal_table[i].adc_val)
 264:.\main.c      ****             {
 265:.\main.c      ****                 exact = true;
 266:.\main.c      ****                 break;
 267:.\main.c      ****             }
 268:.\main.c      ****         }
 269:.\main.c      ****         
 270:.\main.c      ****         if (adc_reading < cal_table[CAL_TABLE_NUM_OF_POINTS-1].adc_val) upper = true;
 271:.\main.c      ****     }
 272:.\main.c      ****     
 273:.\main.c      ****     if (lower)
 274:.\main.c      ****     {
 275:.\main.c      ****         result = 0.0;
 276:.\main.c      ****     }
 277:.\main.c      ****     else if (upper)
 278:.\main.c      ****     {
 279:.\main.c      ****         // We can extrapolate linearly from the last two points
 280:.\main.c      ****         int x1, x2;
 281:.\main.c      ****         float fx1, fx2;
 282:.\main.c      ****         
 283:.\main.c      ****         x1 = cal_table[CAL_TABLE_NUM_OF_POINTS-2].adc_val;
 284:.\main.c      ****         fx1 = cal_table[CAL_TABLE_NUM_OF_POINTS-2].force;
 285:.\main.c      ****         
 286:.\main.c      ****         x2 = cal_table[CAL_TABLE_NUM_OF_POINTS-1].adc_val;
 287:.\main.c      ****         fx2 = cal_table[CAL_TABLE_NUM_OF_POINTS-1].force;
 288:.\main.c      ****         
 289:.\main.c      ****         
 290:.\main.c      ****         result = ( (x2 - adc_reading)* fx1 + (adc_reading - x1) * fx2 ) / ((float)(x2 - x1)) ;
 291:.\main.c      ****     }
 292:.\main.c      ****     else if (exact)
 293:.\main.c      ****     {
 294:.\main.c      ****         result = cal_table[i].force;
 295:.\main.c      ****     }
 296:.\main.c      ****     else // do a linear interpolation
 297:.\main.c      ****     {
 298:.\main.c      ****         // Basic of linear interpolation: f(x) = (x2 - x)/lin_range * f(x1) + (x - x1)/lin_range * 
 299:.\main.c      ****         int x1, x2;
 300:.\main.c      ****         float fx1, fx2;
 301:.\main.c      ****         
 302:.\main.c      ****         x1 = cal_table[i - 1].adc_val;
 303:.\main.c      ****         fx1 = cal_table[i - 1].force;
 304:.\main.c      ****         
 305:.\main.c      ****         x2 = cal_table[i].adc_val;
 306:.\main.c      ****         fx2 = cal_table[i].force;
 307:.\main.c      ****         
 308:.\main.c      ****         result = ( (x2 - adc_reading)* fx1 + (adc_reading - x1) * fx2 ) / ((float)(x2 - x1)) ;
 309:.\main.c      ****     }
 310:.\main.c      ****     
 311:.\main.c      ****     return result;
 312:.\main.c      **** }
 313:.\main.c      **** 
 314:.\main.c      **** uint16 read_adc( volatile int index )
 315:.\main.c      **** {
 316:.\main.c      ****     uint16 result;
 317:.\main.c      ****     
ARM GAS  C:\Users\mlgjmoor\AppData\Local\Temp\ccwL0k1p.s 			page 7


 318:.\main.c      ****     pins[0].pin_write(LOW);
 319:.\main.c      ****     pins[index].pin_write(LOW);
 320:.\main.c      ****     
 321:.\main.c      ****     // Wait for transient response
 322:.\main.c      ****     CyDelay(5u);
 323:.\main.c      ****     
 324:.\main.c      ****     ADC_StartConvert();
 325:.\main.c      ****     ADC_IsEndConversion(ADC_WAIT_FOR_RESULT);
 326:.\main.c      ****     result = ADC_GetResult16(0);
 327:.\main.c      ****     
 328:.\main.c      ****     pins[0].pin_write(HIGH_Z);
 329:.\main.c      ****     pins[index].pin_write(HIGH_Z);
 330:.\main.c      ****     
 331:.\main.c      ****     return result;
 332:.\main.c      **** }
 333:.\main.c      **** 
 334:.\main.c      **** void read_fsr(int avg)
 335:.\main.c      **** {
 336:.\main.c      ****     uint32 buf[NUMBER_OF_SENSORS];
 337:.\main.c      ****     int loop;
 338:.\main.c      ****     int sensor;
 339:.\main.c      ****     
 340:.\main.c      ****     for (loop=0; loop < avg; loop++)
 341:.\main.c      ****     {
 342:.\main.c      ****         for (sensor=0; sensor < NUMBER_OF_SENSORS; sensor++)
 343:.\main.c      ****         {
 344:.\main.c      ****             buf[sensor] += read_adc(sensor+1);
 345:.\main.c      ****         }
 346:.\main.c      ****     }
 347:.\main.c      ****     
 348:.\main.c      ****     int i;
 349:.\main.c      ****     for (i=0; i<NUMBER_OF_SENSORS; i++)
 350:.\main.c      ****     {
 351:.\main.c      ****         filtered_adc[i] = (uint16) (buf[i] / avg);
 352:.\main.c      ****         buf[i] = 0;
 353:.\main.c      ****     }
 354:.\main.c      ****     
 355:.\main.c      **** }
 356:.\main.c      **** 
 357:.\main.c      **** // This method has a few "waits" in here, that concerns me
 358:.\main.c      **** void readADC_routine(task* self, queue* ipc_queue)
 359:.\main.c      **** {    
 360:.\main.c      ****     read_fsr(4);
 361:.\main.c      **** }
 362:.\main.c      **** 
 363:.\main.c      **** // Reads the ADC every second
 364:.\main.c      **** void writeUART_routine(task* self, queue* ipc_queue)
 365:.\main.c      **** {    
 366:.\main.c      ****     char numAsStr[6];
 367:.\main.c      ****     char tempAsStr[6];
 368:.\main.c      ****     char floatAsStr[64];
 369:.\main.c      ****     uint8 InterruptState;
 370:.\main.c      ****     // This function uses the global cooked_adc
 371:.\main.c      ****     uint32 adc_accumulator = filtered_adc[0];
 372:.\main.c      ****     
 373:.\main.c      ****     
 374:.\main.c      ****     if (timer_flag)
ARM GAS  C:\Users\mlgjmoor\AppData\Local\Temp\ccwL0k1p.s 			page 8


 375:.\main.c      ****     {
 376:.\main.c      ****         if (calibrated)
 377:.\main.c      ****         {
 378:.\main.c      ****             float force = 0.0;
 379:.\main.c      ****             
 380:.\main.c      ****             force = linterp((uint16)adc_accumulator);
 381:.\main.c      ****             
 382:.\main.c      ****             int2string((uint16)adc_accumulator, numAsStr);
 383:.\main.c      ****             UART_UartPutString("ADC Value: ");
 384:.\main.c      ****             UART_UartPutString(numAsStr);
 385:.\main.c      ****             UART_UartPutString("\tCalculated Force: ");
 386:.\main.c      ****             
 387:.\main.c      ****             float2str(force, floatAsStr);
 388:.\main.c      ****             
 389:.\main.c      ****             UART_UartPutString(floatAsStr);
 390:.\main.c      ****             UART_UartPutString("\r\n");
 391:.\main.c      ****         }
 392:.\main.c      ****         
 393:.\main.c      ****         else
 394:.\main.c      ****         {
 395:.\main.c      ****             uint32 cels;
 396:.\main.c      ****             cels = DieTemp_CountsTo_Celsius(temperature);
 397:.\main.c      ****             int2string((uint16)cels, tempAsStr);
 398:.\main.c      ****             int2string((uint16)adc_accumulator, numAsStr);
 399:.\main.c      ****             UART_UartPutString("ADC Value: ");
 400:.\main.c      ****             int i;
 401:.\main.c      ****             for (i=0; i<NUMBER_OF_SENSORS; i++)
 402:.\main.c      ****             {
 403:.\main.c      ****                 UART_UartPutString("\t");
 404:.\main.c      ****                 adc_accumulator = filtered_adc[i];
 405:.\main.c      ****                 int2string((uint16)adc_accumulator, numAsStr);
 406:.\main.c      ****                 UART_UartPutString(numAsStr);
 407:.\main.c      ****             }
 408:.\main.c      ****             UART_UartPutString("\tTemperature: ");
 409:.\main.c      ****             UART_UartPutString(tempAsStr);
 410:.\main.c      ****             UART_UartPutString("\r\n");
 411:.\main.c      ****         }
 412:.\main.c      ****         
 413:.\main.c      ****         timer_flag = false;
 414:.\main.c      ****     }
 415:.\main.c      **** }
 416:.\main.c      **** 
 417:.\main.c      **** // Print an initial message on UART
 418:.\main.c      **** void print_user_message()
 419:.\main.c      **** {
 420:.\main.c      ****     UART_UartPutString("\r\n***********************************************************************
 421:.\main.c      ****     UART_UartPutString("---Force Sensor Test---\r\n");
 422:.\main.c      ****     UART_UartPutString("Press 'c' to calibrate\r\n");
 423:.\main.c      ****     UART_UartPutString("Press 'r' to toggle continuous read\r\n");
 424:.\main.c      ****     UART_UartPutString("\r\n***********************************************************************
 425:.\main.c      ****     UART_UartPutString("\r\n");
 426:.\main.c      **** }
 427:.\main.c      **** 
 428:.\main.c      **** // string -> string
 429:.\main.c      **** // Changes all characters in an ASCII string to lower case equivalent
 430:.\main.c      **** char* lower(char* str)
 431:.\main.c      **** {
ARM GAS  C:\Users\mlgjmoor\AppData\Local\Temp\ccwL0k1p.s 			page 9


 432:.\main.c      ****     char* str_cpy = str;
 433:.\main.c      ****     while (*str != '\0')
 434:.\main.c      ****     {
 435:.\main.c      ****         if (*str >= 'A' && *str <= 'Z')
 436:.\main.c      ****         {
 437:.\main.c      ****             *str += 'a' - 'A';
 438:.\main.c      ****         }
 439:.\main.c      ****         str++;
 440:.\main.c      ****     }
 441:.\main.c      ****     return str_cpy;
 442:.\main.c      **** }
 443:.\main.c      **** 
 444:.\main.c      **** // Returns true if both strings contain the same characters up til the null terminator
 445:.\main.c      **** bool str_eq(char* s1, char* s2)
 446:.\main.c      **** {
 447:.\main.c      ****     bool ret = true;
 448:.\main.c      ****     int i = 0;
 449:.\main.c      ****     while ((s1[i] != '\0' || s2[i] != '\0') && ret == true)
 450:.\main.c      ****     {
 451:.\main.c      ****         if (s1[i] != s2[i])
 452:.\main.c      ****         {
 453:.\main.c      ****             ret = false;
 454:.\main.c      ****         }
 455:.\main.c      **** 
 456:.\main.c      ****         i++;
 457:.\main.c      ****     }
 458:.\main.c      ****     
 459:.\main.c      ****     return ret;
 460:.\main.c      **** }
 461:.\main.c      **** 
 462:.\main.c      **** // Very basic input handler
 463:.\main.c      **** //  Called 64 times per second (I think, adc may mess with it)
 464:.\main.c      **** // Grabs a character from the UART, if \0 it ignores it, if a newline
 465:.\main.c      **** //  the input_ready flag is set to true
 466:.\main.c      **** void get_user_input(char buffer[INPUT_BUFFER_MAX])
 467:.\main.c      **** {
 468:.\main.c      ****     static int index = 0;
 469:.\main.c      ****     char in_char;
 470:.\main.c      ****     
 471:.\main.c      ****     
 472:.\main.c      ****     in_char = (char)UART_UartGetChar();
 473:.\main.c      ****     
 474:.\main.c      ****     if ( index < (INPUT_BUFFER_MAX -1) )
 475:.\main.c      ****     {
 476:.\main.c      ****         // local echo
 477:.\main.c      ****         if (0u != in_char)
 478:.\main.c      ****         {            
 479:.\main.c      ****             UART_UartPutChar(in_char);
 480:.\main.c      ****             buffer[index] = in_char;
 481:.\main.c      ****             index++;
 482:.\main.c      ****             
 483:.\main.c      ****             // A newline char indicates a command is entered
 484:.\main.c      ****             if (in_char == '\n' || in_char == '\r')
 485:.\main.c      ****             {
 486:.\main.c      ****                 UART_UartPutString("DEBUG: Input Accepted\r\n");
 487:.\main.c      ****                 // index was already incremented, so this terminates the string
 488:.\main.c      ****                 buffer[index] = '\0';
ARM GAS  C:\Users\mlgjmoor\AppData\Local\Temp\ccwL0k1p.s 			page 10


 489:.\main.c      ****                 UART_UartPutString(buffer);
 490:.\main.c      ****                 UART_UartPutString("\r\n");
 491:.\main.c      ****                 input_ready = true;
 492:.\main.c      ****                 index = 0;
 493:.\main.c      ****             }
 494:.\main.c      ****         }
 495:.\main.c      ****     }
 496:.\main.c      **** }
 497:.\main.c      **** 
 498:.\main.c      **** // Main scheduler task
 499:.\main.c      **** // It runs all the tasks flagged as active each clock tick (64 Hz)
 500:.\main.c      **** // (I think, adc may mess with it)
 501:.\main.c      **** void run_scheduler(scheduler* sched, queue* ipc_queue)
 502:.\main.c      **** {
 503:.\main.c      ****     int i;
 504:.\main.c      ****     // Iterate through all the tasks
 505:.\main.c      ****     for (i = 0; i < SCHEDULER_NUM_OF_TASKS; i++)
 506:.\main.c      ****     {
 507:.\main.c      ****         task* cur_task = &(sched->tasks)[i];
 508:.\main.c      ****         
 509:.\main.c      ****         if (cur_task->is_active)
 510:.\main.c      ****         {
 511:.\main.c      ****             // if the task is active, call the task
 512:.\main.c      ****             (cur_task->task_cb)(cur_task, ipc_queue);
 513:.\main.c      ****         }
 514:.\main.c      ****         
 515:.\main.c      ****     }
 516:.\main.c      **** }
 517:.\main.c      **** 
 518:.\main.c      **** // The function for the task of Calibrating the sensor
 519:.\main.c      **** void calibrate_sensor(task* self, queue* ipc_queue)
 520:.\main.c      **** {
 521:.\main.c      ****     uint32 adc_accumulator = filtered_adc[0]; // KLUDGE: make this better for multisensor support
 522:.\main.c      ****     // Static variable declarations
 523:.\main.c      ****     static int cal_point_ind = 0;
 524:.\main.c      ****     
 525:.\main.c      ****     // Non-static (ephemeral?) variable declarations
 526:.\main.c      ****     char numAsStr[6];
 527:.\main.c      ****     
 528:.\main.c      ****     // basically do one loop of a for loop on the points in cal_table
 529:.\main.c      ****     if (cal_point_ind < CAL_TABLE_NUM_OF_POINTS)
 530:.\main.c      ****     {
 531:.\main.c      ****         // Wait for a message in the IPC queue
 532:.\main.c      ****         if (is_empty(ipc_queue) == false)
 533:.\main.c      ****         {
 534:.\main.c      ****             UART_UartPutString("DEBUG: Message Received\r\n");
 535:.\main.c      ****             ipc_message* m = peek(ipc_queue);
 536:.\main.c      ****             // Just making sure the message is the one we want
 537:.\main.c      ****             if (m->address == TASK_CALIBRATE)
 538:.\main.c      ****             {
 539:.\main.c      ****                 UART_UartPutString("DEBUG: Dequeing Message\r\n");
 540:.\main.c      ****                 m = dequeue(ipc_queue);
 541:.\main.c      ****                 
 542:.\main.c      ****                 UART_UartPutString("DEBUG: Message Reads: ");
 543:.\main.c      ****                 UART_UartPutString(m->data);
 544:.\main.c      ****                 UART_UartPutString("\r\n");
 545:.\main.c      ****                 
ARM GAS  C:\Users\mlgjmoor\AppData\Local\Temp\ccwL0k1p.s 			page 11


 546:.\main.c      ****                 cal_table[cal_point_ind].force = str2float(m->data);
 547:.\main.c      ****                 cal_table[cal_point_ind].adc_val = (uint16)(adc_accumulator);
 548:.\main.c      ****                 
 549:.\main.c      ****                 int2string((uint16)(adc_accumulator), numAsStr);
 550:.\main.c      ****                 UART_UartPutString("INFO: Message Reads: ");
 551:.\main.c      ****                 UART_UartPutString(numAsStr);
 552:.\main.c      ****                 UART_UartPutString("\r\n");
 553:.\main.c      ****                 
 554:.\main.c      ****                 
 555:.\main.c      ****                 // Update/reset static variables at end of "loop"
 556:.\main.c      ****                 cal_point_ind++;
 557:.\main.c      ****             }
 558:.\main.c      ****         }
 559:.\main.c      ****     }
 560:.\main.c      ****     else
 561:.\main.c      ****     {
 562:.\main.c      ****         UART_UartPutString("DEBUG: Exiting calibration task\r\n");
 563:.\main.c      ****         // Turn self off
 564:.\main.c      ****         self->is_active = false;
 565:.\main.c      ****         // Reset static vars for any future call
 566:.\main.c      ****         cal_point_ind = 0;
 567:.\main.c      ****         // Set global static vars
 568:.\main.c      ****         calibrated = true;
 569:.\main.c      ****     }
 570:.\main.c      **** }
 571:.\main.c      **** 
 572:.\main.c      **** // ISR for Interrupt triggered by timer (64 HZ)
 573:.\main.c      **** CY_ISR(timer_isr)
 574:.\main.c      **** {
  26              		.loc 1 574 0
  27              		.cfi_startproc
  28 0000 08B5     		push	{r3, lr}
  29              		.cfi_def_cfa_offset 8
  30              		.cfi_offset 3, -8
  31              		.cfi_offset 14, -4
 575:.\main.c      ****     static int count64 = 0;
 576:.\main.c      ****     // Increment counter, it will set timer_flag once per second
 577:.\main.c      ****     count64++;
  32              		.loc 1 577 0
  33 0002 094A     		ldr	r2, .L3
  34 0004 1368     		ldr	r3, [r2]
  35 0006 0133     		add	r3, r3, #1
  36 0008 1360     		str	r3, [r2]
 578:.\main.c      ****     if (count64 == 64) {
  37              		.loc 1 578 0
  38 000a 402B     		cmp	r3, #64
  39 000c 04D1     		bne	.L2
 579:.\main.c      ****         timer_flag = true;
  40              		.loc 1 579 0
  41 000e 131C     		mov	r3, r2
  42 0010 0122     		mov	r2, #1
  43 0012 1A71     		strb	r2, [r3, #4]
 580:.\main.c      ****         count64 = 0;
  44              		.loc 1 580 0
  45 0014 0022     		mov	r2, #0
  46 0016 1A60     		str	r2, [r3]
  47              	.L2:
ARM GAS  C:\Users\mlgjmoor\AppData\Local\Temp\ccwL0k1p.s 			page 12


 581:.\main.c      ****         //temperature_convert = true;
 582:.\main.c      ****     }
 583:.\main.c      ****     
 584:.\main.c      ****     Timer_ClearInterrupt( Timer_INTR_MASK_CC_MATCH );
  48              		.loc 1 584 0
  49 0018 0220     		mov	r0, #2
  50 001a FFF7FEFF 		bl	Timer_ClearInterrupt
  51              	.LVL0:
 585:.\main.c      ****     Timer_ClearInterrupt(Timer_INTR_MASK_TC);
  52              		.loc 1 585 0
  53 001e 0120     		mov	r0, #1
  54 0020 FFF7FEFF 		bl	Timer_ClearInterrupt
  55              	.LVL1:
 586:.\main.c      **** }
  56              		.loc 1 586 0
  57              		@ sp needed
  58 0024 08BD     		pop	{r3, pc}
  59              	.L4:
  60 0026 C046     		.align	2
  61              	.L3:
  62 0028 00000000 		.word	.LANCHOR0
  63              		.cfi_endproc
  64              	.LFE52:
  65              		.size	timer_isr, .-timer_isr
  66              		.global	__aeabi_i2f
  67              		.global	__aeabi_fdiv
  68              		.global	__aeabi_fadd
  69              		.section	.text.str2float,"ax",%progbits
  70              		.align	2
  71              		.global	str2float
  72              		.code	16
  73              		.thumb_func
  74              		.type	str2float, %function
  75              	str2float:
  76              	.LFB37:
  91:.\main.c      ****     int whole = 0;
  77              		.loc 1 91 0
  78              		.cfi_startproc
  79              	.LVL2:
  80 0000 F0B5     		push	{r4, r5, r6, r7, lr}
  81              		.cfi_def_cfa_offset 20
  82              		.cfi_offset 4, -20
  83              		.cfi_offset 5, -16
  84              		.cfi_offset 6, -12
  85              		.cfi_offset 7, -8
  86              		.cfi_offset 14, -4
  87 0002 4746     		mov	r7, r8
  88 0004 80B4     		push	{r7}
  89              		.cfi_def_cfa_offset 24
  90              		.cfi_offset 8, -24
  91 0006 051C     		mov	r5, r0
  92              	.LVL3:
 100:.\main.c      ****     while (cur_c != '\0')
  93              		.loc 1 100 0
  94 0008 0378     		ldrb	r3, [r0]
  95              	.LVL4:
  98:.\main.c      ****     
ARM GAS  C:\Users\mlgjmoor\AppData\Local\Temp\ccwL0k1p.s 			page 13


  96              		.loc 1 98 0
  97 000a 0027     		mov	r7, #0
  94:.\main.c      ****     float result = 0.0;
  98              		.loc 1 94 0
  99 000c 0024     		mov	r4, #0
  93:.\main.c      ****     int dec_len = 0;
 100              		.loc 1 93 0
 101 000e 0022     		mov	r2, #0
 102 0010 9046     		mov	r8, r2
  92:.\main.c      ****     int dec = 0;
 103              		.loc 1 92 0
 104 0012 0026     		mov	r6, #0
 101:.\main.c      ****     {
 105              		.loc 1 101 0
 106 0014 21E0     		b	.L6
 107              	.LVL5:
 108              	.L10:
 104:.\main.c      ****         {
 109              		.loc 1 104 0
 110 0016 1A1C     		mov	r2, r3
 111 0018 303A     		sub	r2, r2, #48
 112 001a 092A     		cmp	r2, #9
 113 001c 10D8     		bhi	.L7
 106:.\main.c      ****             {
 114              		.loc 1 106 0
 115 001e 002F     		cmp	r7, #0
 116 0020 05D1     		bne	.L8
 108:.\main.c      ****                 whole += (cur_c - '0');
 117              		.loc 1 108 0
 118 0022 B200     		lsl	r2, r6, #2
 119 0024 9619     		add	r6, r2, r6
 120              	.LVL6:
 121 0026 7600     		lsl	r6, r6, #1
 122              	.LVL7:
 109:.\main.c      ****             }
 123              		.loc 1 109 0
 124 0028 303B     		sub	r3, r3, #48
 125              	.LVL8:
 126 002a 9E19     		add	r6, r3, r6
 127              	.LVL9:
 128 002c 13E0     		b	.L9
 129              	.LVL10:
 130              	.L8:
 113:.\main.c      ****                 dec += (cur_c - '0');
 131              		.loc 1 113 0
 132 002e 4246     		mov	r2, r8
 133 0030 9000     		lsl	r0, r2, #2
 134 0032 4044     		add	r0, r0, r8
 135 0034 4000     		lsl	r0, r0, #1
 136              	.LVL11:
 114:.\main.c      ****                 dec_len++;
 137              		.loc 1 114 0
 138 0036 303B     		sub	r3, r3, #48
 139              	.LVL12:
 140 0038 9846     		mov	r8, r3
 141 003a 8044     		add	r8, r8, r0
 142              	.LVL13:
ARM GAS  C:\Users\mlgjmoor\AppData\Local\Temp\ccwL0k1p.s 			page 14


 115:.\main.c      ****             }
 143              		.loc 1 115 0
 144 003c 0134     		add	r4, r4, #1
 145              	.LVL14:
 146 003e 0AE0     		b	.L9
 147              	.LVL15:
 148              	.L7:
 118:.\main.c      ****         {
 149              		.loc 1 118 0
 150 0040 2E2B     		cmp	r3, #46
 151 0042 07D0     		beq	.L13
 122:.\main.c      ****         {
 152              		.loc 1 122 0
 153 0044 0A2B     		cmp	r3, #10
 154 0046 06D0     		beq	.L9
 122:.\main.c      ****         {
 155              		.loc 1 122 0 is_stmt 0 discriminator 1
 156 0048 0D2B     		cmp	r3, #13
 157 004a 04D0     		beq	.L9
 124:.\main.c      ****         }
 158              		.loc 1 124 0 is_stmt 1
 159 004c 1148     		ldr	r0, .L14
 160 004e FFF7FEFF 		bl	UART_UartPutString
 161              	.LVL16:
 162 0052 00E0     		b	.L9
 163              	.LVL17:
 164              	.L13:
 120:.\main.c      ****         }
 165              		.loc 1 120 0
 166 0054 0127     		mov	r7, #1
 167              	.LVL18:
 168              	.L9:
 127:.\main.c      ****     }
 169              		.loc 1 127 0
 170 0056 0135     		add	r5, r5, #1
 171              	.LVL19:
 172 0058 2B78     		ldrb	r3, [r5]
 173              	.LVL20:
 174              	.L6:
 101:.\main.c      ****     {
 175              		.loc 1 101 0
 176 005a 002B     		cmp	r3, #0
 177 005c DBD1     		bne	.L10
 129:.\main.c      ****     while (dec_len != 0)
 178              		.loc 1 129 0
 179 005e 4046     		mov	r0, r8
 180 0060 FFF7FEFF 		bl	__aeabi_i2f
 181              	.LVL21:
 182 0064 051C     		add	r5, r0, #0
 183              	.LVL22:
 130:.\main.c      ****     {
 184              		.loc 1 130 0
 185 0066 05E0     		b	.L11
 186              	.L12:
 132:.\main.c      ****         dec_len--;
 187              		.loc 1 132 0
 188 0068 281C     		add	r0, r5, #0
ARM GAS  C:\Users\mlgjmoor\AppData\Local\Temp\ccwL0k1p.s 			page 15


 189              	.LVL23:
 190 006a 0B49     		ldr	r1, .L14+4
 191 006c FFF7FEFF 		bl	__aeabi_fdiv
 192              	.LVL24:
 193 0070 051C     		add	r5, r0, #0
 194              	.LVL25:
 133:.\main.c      ****     }
 195              		.loc 1 133 0
 196 0072 013C     		sub	r4, r4, #1
 197              	.LVL26:
 198              	.L11:
 130:.\main.c      ****     {
 199              		.loc 1 130 0
 200 0074 002C     		cmp	r4, #0
 201 0076 F7D1     		bne	.L12
 135:.\main.c      ****     UART_UartPutString("DEBUG: float conversion complete\r\n");                                    
 202              		.loc 1 135 0
 203 0078 301C     		mov	r0, r6
 204              	.LVL27:
 205 007a FFF7FEFF 		bl	__aeabi_i2f
 206              	.LVL28:
 207 007e 291C     		add	r1, r5, #0
 208 0080 FFF7FEFF 		bl	__aeabi_fadd
 209              	.LVL29:
 210 0084 041C     		add	r4, r0, #0
 211              	.LVL30:
 136:.\main.c      ****     return result;
 212              		.loc 1 136 0
 213 0086 0548     		ldr	r0, .L14+8
 214              	.LVL31:
 215 0088 FFF7FEFF 		bl	UART_UartPutString
 216              	.LVL32:
 138:.\main.c      **** 
 217              		.loc 1 138 0
 218 008c 201C     		add	r0, r4, #0
 219              		@ sp needed
 220              	.LVL33:
 221              	.LVL34:
 222              	.LVL35:
 223              	.LVL36:
 224 008e 04BC     		pop	{r2}
 225 0090 9046     		mov	r8, r2
 226 0092 F0BD     		pop	{r4, r5, r6, r7, pc}
 227              	.L15:
 228              		.align	2
 229              	.L14:
 230 0094 00000000 		.word	.LC1
 231 0098 00002041 		.word	1092616192
 232 009c 20000000 		.word	.LC3
 233              		.cfi_endproc
 234              	.LFE37:
 235              		.size	str2float, .-str2float
 236              		.section	.text.powr,"ax",%progbits
 237              		.align	2
 238              		.global	powr
 239              		.code	16
 240              		.thumb_func
ARM GAS  C:\Users\mlgjmoor\AppData\Local\Temp\ccwL0k1p.s 			page 16


 241              		.type	powr, %function
 242              	powr:
 243              	.LFB38:
 144:.\main.c      ****     int r;
 244              		.loc 1 144 0
 245              		.cfi_startproc
 246              	.LVL37:
 247 0000 38B5     		push	{r3, r4, r5, lr}
 248              		.cfi_def_cfa_offset 16
 249              		.cfi_offset 3, -16
 250              		.cfi_offset 4, -12
 251              		.cfi_offset 5, -8
 252              		.cfi_offset 14, -4
 148:.\main.c      ****     {
 253              		.loc 1 148 0
 254 0002 0029     		cmp	r1, #0
 255 0004 0BD0     		beq	.L19
 256 0006 0C1C     		mov	r4, r1
 257 0008 051C     		mov	r5, r0
 154:.\main.c      ****         if (p%2 == 0)
 258              		.loc 1 154 0
 259 000a 4910     		asr	r1, r1, #1
 260              	.LVL38:
 261 000c FFF7FEFF 		bl	powr
 262              	.LVL39:
 155:.\main.c      ****         {
 263              		.loc 1 155 0
 264 0010 E307     		lsl	r3, r4, #31
 265 0012 01D4     		bmi	.L18
 157:.\main.c      ****         }
 266              		.loc 1 157 0
 267 0014 4043     		mul	r0, r0
 268              	.LVL40:
 269 0016 03E0     		b	.L17
 270              	.LVL41:
 271              	.L18:
 161:.\main.c      ****         }
 272              		.loc 1 161 0
 273 0018 4543     		mul	r5, r0
 274              	.LVL42:
 275 001a 6843     		mul	r0, r5
 276              	.LVL43:
 277 001c 00E0     		b	.L17
 278              	.LVL44:
 279              	.L19:
 150:.\main.c      ****     }
 280              		.loc 1 150 0
 281 001e 0120     		mov	r0, #1
 282              	.LVL45:
 283              	.L17:
 164:.\main.c      **** 
 284              		.loc 1 164 0
 285              		@ sp needed
 286 0020 38BD     		pop	{r3, r4, r5, pc}
 287              		.cfi_endproc
 288              	.LFE38:
 289              		.size	powr, .-powr
ARM GAS  C:\Users\mlgjmoor\AppData\Local\Temp\ccwL0k1p.s 			page 17


 290              		.global	__aeabi_uidivmod
 291              		.global	__aeabi_uidiv
 292 0022 C046     		.section	.text.int2string,"ax",%progbits
 293              		.align	2
 294              		.global	int2string
 295              		.code	16
 296              		.thumb_func
 297              		.type	int2string, %function
 298              	int2string:
 299              	.LFB39:
 169:.\main.c      ****     if (n < 10)
 300              		.loc 1 169 0
 301              		.cfi_startproc
 302              	.LVL46:
 303 0000 38B5     		push	{r3, r4, r5, lr}
 304              		.cfi_def_cfa_offset 16
 305              		.cfi_offset 3, -16
 306              		.cfi_offset 4, -12
 307              		.cfi_offset 5, -8
 308              		.cfi_offset 14, -4
 170:.\main.c      ****     {
 309              		.loc 1 170 0
 310 0002 0928     		cmp	r0, #9
 311 0004 04D8     		bhi	.L21
 172:.\main.c      ****         str[1] = '\0';
 312              		.loc 1 172 0
 313 0006 3030     		add	r0, r0, #48
 314              	.LVL47:
 315 0008 0870     		strb	r0, [r1]
 173:.\main.c      ****     }
 316              		.loc 1 173 0
 317 000a 0023     		mov	r3, #0
 318 000c 4B70     		strb	r3, [r1, #1]
 319 000e 8EE0     		b	.L20
 320              	.LVL48:
 321              	.L21:
 322 0010 0D1C     		mov	r5, r1
 323 0012 041E     		sub	r4, r0, #0
 175:.\main.c      ****     {
 324              		.loc 1 175 0
 325 0014 632C     		cmp	r4, #99
 326 0016 11D8     		bhi	.L23
 177:.\main.c      ****         str[0] = (char)('0' + ((n / 10) % 10));
 327              		.loc 1 177 0
 328 0018 0A21     		mov	r1, #10
 329              	.LVL49:
 330 001a FFF7FEFF 		bl	__aeabi_uidivmod
 331              	.LVL50:
 332 001e 3031     		add	r1, r1, #48
 333 0020 6970     		strb	r1, [r5, #1]
 178:.\main.c      ****         str[2] = '\0';
 334              		.loc 1 178 0
 335 0022 201C     		mov	r0, r4
 336 0024 0A21     		mov	r1, #10
 337 0026 FFF7FEFF 		bl	__aeabi_uidiv
 338              	.LVL51:
 339 002a 80B2     		uxth	r0, r0
ARM GAS  C:\Users\mlgjmoor\AppData\Local\Temp\ccwL0k1p.s 			page 18


 340 002c 0A21     		mov	r1, #10
 341 002e FFF7FEFF 		bl	__aeabi_uidivmod
 342              	.LVL52:
 343 0032 3031     		add	r1, r1, #48
 344 0034 2970     		strb	r1, [r5]
 179:.\main.c      ****     }
 345              		.loc 1 179 0
 346 0036 0023     		mov	r3, #0
 347 0038 AB70     		strb	r3, [r5, #2]
 348 003a 78E0     		b	.L20
 349              	.LVL53:
 350              	.L23:
 181:.\main.c      ****     {
 351              		.loc 1 181 0
 352 003c 3C4B     		ldr	r3, .L26
 353 003e 9842     		cmp	r0, r3
 354 0040 1BD8     		bhi	.L24
 183:.\main.c      ****         str[1] = (char)('0' + ((n / 10) % 10));
 355              		.loc 1 183 0
 356 0042 0A21     		mov	r1, #10
 357              	.LVL54:
 358 0044 FFF7FEFF 		bl	__aeabi_uidivmod
 359              	.LVL55:
 360 0048 3031     		add	r1, r1, #48
 361 004a A970     		strb	r1, [r5, #2]
 184:.\main.c      ****         str[0] = (char)('0' + ((n / 100) % 10));
 362              		.loc 1 184 0
 363 004c 201C     		mov	r0, r4
 364 004e 0A21     		mov	r1, #10
 365 0050 FFF7FEFF 		bl	__aeabi_uidiv
 366              	.LVL56:
 367 0054 80B2     		uxth	r0, r0
 368 0056 0A21     		mov	r1, #10
 369 0058 FFF7FEFF 		bl	__aeabi_uidivmod
 370              	.LVL57:
 371 005c 3031     		add	r1, r1, #48
 372 005e 6970     		strb	r1, [r5, #1]
 185:.\main.c      ****         str[3] = '\0';
 373              		.loc 1 185 0
 374 0060 201C     		mov	r0, r4
 375 0062 6421     		mov	r1, #100
 376 0064 FFF7FEFF 		bl	__aeabi_uidiv
 377              	.LVL58:
 378 0068 80B2     		uxth	r0, r0
 379 006a 0A21     		mov	r1, #10
 380 006c FFF7FEFF 		bl	__aeabi_uidivmod
 381              	.LVL59:
 382 0070 3031     		add	r1, r1, #48
 383 0072 2970     		strb	r1, [r5]
 186:.\main.c      ****     }
 384              		.loc 1 186 0
 385 0074 0023     		mov	r3, #0
 386 0076 EB70     		strb	r3, [r5, #3]
 387 0078 59E0     		b	.L20
 388              	.LVL60:
 389              	.L24:
 188:.\main.c      ****     {
ARM GAS  C:\Users\mlgjmoor\AppData\Local\Temp\ccwL0k1p.s 			page 19


 390              		.loc 1 188 0
 391 007a 2E4B     		ldr	r3, .L26+4
 392 007c 9842     		cmp	r0, r3
 393 007e 26D8     		bhi	.L25
 190:.\main.c      ****         str[3] = (char)('0' + (n % 10));
 394              		.loc 1 190 0
 395 0080 0023     		mov	r3, #0
 396 0082 0B71     		strb	r3, [r1, #4]
 191:.\main.c      ****         str[2] = (char)('0' + ((n / 10) % 10));
 397              		.loc 1 191 0
 398 0084 0A21     		mov	r1, #10
 399              	.LVL61:
 400 0086 FFF7FEFF 		bl	__aeabi_uidivmod
 401              	.LVL62:
 402 008a 3031     		add	r1, r1, #48
 403 008c E970     		strb	r1, [r5, #3]
 192:.\main.c      ****         str[1] = (char)('0' + ((n / 100) % 10));
 404              		.loc 1 192 0
 405 008e 201C     		mov	r0, r4
 406 0090 0A21     		mov	r1, #10
 407 0092 FFF7FEFF 		bl	__aeabi_uidiv
 408              	.LVL63:
 409 0096 80B2     		uxth	r0, r0
 410 0098 0A21     		mov	r1, #10
 411 009a FFF7FEFF 		bl	__aeabi_uidivmod
 412              	.LVL64:
 413 009e 3031     		add	r1, r1, #48
 414 00a0 A970     		strb	r1, [r5, #2]
 193:.\main.c      ****         str[0] = (char)('0' + ((n / 1000) % 10));
 415              		.loc 1 193 0
 416 00a2 201C     		mov	r0, r4
 417 00a4 6421     		mov	r1, #100
 418 00a6 FFF7FEFF 		bl	__aeabi_uidiv
 419              	.LVL65:
 420 00aa 80B2     		uxth	r0, r0
 421 00ac 0A21     		mov	r1, #10
 422 00ae FFF7FEFF 		bl	__aeabi_uidivmod
 423              	.LVL66:
 424 00b2 3031     		add	r1, r1, #48
 425 00b4 6970     		strb	r1, [r5, #1]
 194:.\main.c      ****     }
 426              		.loc 1 194 0
 427 00b6 201C     		mov	r0, r4
 428 00b8 FA21     		mov	r1, #250
 429 00ba 8900     		lsl	r1, r1, #2
 430 00bc FFF7FEFF 		bl	__aeabi_uidiv
 431              	.LVL67:
 432 00c0 80B2     		uxth	r0, r0
 433 00c2 0A21     		mov	r1, #10
 434 00c4 FFF7FEFF 		bl	__aeabi_uidivmod
 435              	.LVL68:
 436 00c8 3031     		add	r1, r1, #48
 437 00ca 2970     		strb	r1, [r5]
 438 00cc 2FE0     		b	.L20
 439              	.LVL69:
 440              	.L25:
 198:.\main.c      ****         str[4] = (char)('0' + (n % 10));
ARM GAS  C:\Users\mlgjmoor\AppData\Local\Temp\ccwL0k1p.s 			page 20


 441              		.loc 1 198 0
 442 00ce 0023     		mov	r3, #0
 443 00d0 4B71     		strb	r3, [r1, #5]
 199:.\main.c      ****         str[3] = (char)('0' + ((n / 10) % 10));
 444              		.loc 1 199 0
 445 00d2 0A21     		mov	r1, #10
 446              	.LVL70:
 447 00d4 FFF7FEFF 		bl	__aeabi_uidivmod
 448              	.LVL71:
 449 00d8 3031     		add	r1, r1, #48
 450 00da 2971     		strb	r1, [r5, #4]
 200:.\main.c      ****         str[2] = (char)('0' + ((n / 100) % 10));
 451              		.loc 1 200 0
 452 00dc 201C     		mov	r0, r4
 453 00de 0A21     		mov	r1, #10
 454 00e0 FFF7FEFF 		bl	__aeabi_uidiv
 455              	.LVL72:
 456 00e4 80B2     		uxth	r0, r0
 457 00e6 0A21     		mov	r1, #10
 458 00e8 FFF7FEFF 		bl	__aeabi_uidivmod
 459              	.LVL73:
 460 00ec 3031     		add	r1, r1, #48
 461 00ee E970     		strb	r1, [r5, #3]
 201:.\main.c      ****         str[1] = (char)('0' + ((n / 1000) % 10));
 462              		.loc 1 201 0
 463 00f0 201C     		mov	r0, r4
 464 00f2 6421     		mov	r1, #100
 465 00f4 FFF7FEFF 		bl	__aeabi_uidiv
 466              	.LVL74:
 467 00f8 80B2     		uxth	r0, r0
 468 00fa 0A21     		mov	r1, #10
 469 00fc FFF7FEFF 		bl	__aeabi_uidivmod
 470              	.LVL75:
 471 0100 3031     		add	r1, r1, #48
 472 0102 A970     		strb	r1, [r5, #2]
 202:.\main.c      ****         str[0] = (char)('0' + ((n / 10000) % 10));
 473              		.loc 1 202 0
 474 0104 201C     		mov	r0, r4
 475 0106 FA21     		mov	r1, #250
 476 0108 8900     		lsl	r1, r1, #2
 477 010a FFF7FEFF 		bl	__aeabi_uidiv
 478              	.LVL76:
 479 010e 80B2     		uxth	r0, r0
 480 0110 0A21     		mov	r1, #10
 481 0112 FFF7FEFF 		bl	__aeabi_uidivmod
 482              	.LVL77:
 483 0116 3031     		add	r1, r1, #48
 484 0118 6970     		strb	r1, [r5, #1]
 203:.\main.c      ****     }
 485              		.loc 1 203 0
 486 011a 201C     		mov	r0, r4
 487 011c 0649     		ldr	r1, .L26+8
 488 011e FFF7FEFF 		bl	__aeabi_uidiv
 489              	.LVL78:
 490 0122 80B2     		uxth	r0, r0
 491 0124 0A21     		mov	r1, #10
 492 0126 FFF7FEFF 		bl	__aeabi_uidivmod
ARM GAS  C:\Users\mlgjmoor\AppData\Local\Temp\ccwL0k1p.s 			page 21


 493              	.LVL79:
 494 012a 3031     		add	r1, r1, #48
 495 012c 2970     		strb	r1, [r5]
 496              	.LVL80:
 497              	.L20:
 205:.\main.c      **** 
 498              		.loc 1 205 0
 499              		@ sp needed
 500 012e 38BD     		pop	{r3, r4, r5, pc}
 501              	.L27:
 502              		.align	2
 503              	.L26:
 504 0130 E7030000 		.word	999
 505 0134 0F270000 		.word	9999
 506 0138 10270000 		.word	10000
 507              		.cfi_endproc
 508              	.LFE39:
 509              		.size	int2string, .-int2string
 510              		.section	.text.calibrate_sensor,"ax",%progbits
 511              		.align	2
 512              		.global	calibrate_sensor
 513              		.code	16
 514              		.thumb_func
 515              		.type	calibrate_sensor, %function
 516              	calibrate_sensor:
 517              	.LFB51:
 520:.\main.c      ****     uint32 adc_accumulator = filtered_adc[0]; // KLUDGE: make this better for multisensor support
 518              		.loc 1 520 0
 519              		.cfi_startproc
 520              	.LVL81:
 521 0000 F0B5     		push	{r4, r5, r6, r7, lr}
 522              		.cfi_def_cfa_offset 20
 523              		.cfi_offset 4, -20
 524              		.cfi_offset 5, -16
 525              		.cfi_offset 6, -12
 526              		.cfi_offset 7, -8
 527              		.cfi_offset 14, -4
 528 0002 83B0     		sub	sp, sp, #12
 529              		.cfi_def_cfa_offset 32
 530 0004 051C     		mov	r5, r0
 531 0006 0C1C     		mov	r4, r1
 521:.\main.c      ****     // Static variable declarations
 532              		.loc 1 521 0
 533 0008 254B     		ldr	r3, .L31
 534 000a 1E89     		ldrh	r6, [r3, #8]
 535              	.LVL82:
 529:.\main.c      ****     {
 536              		.loc 1 529 0
 537 000c 1B69     		ldr	r3, [r3, #16]
 538 000e 042B     		cmp	r3, #4
 539 0010 3ADC     		bgt	.L29
 532:.\main.c      ****         {
 540              		.loc 1 532 0
 541 0012 081C     		mov	r0, r1
 542              	.LVL83:
 543 0014 FFF7FEFF 		bl	is_empty
 544              	.LVL84:
ARM GAS  C:\Users\mlgjmoor\AppData\Local\Temp\ccwL0k1p.s 			page 22


 545 0018 0028     		cmp	r0, #0
 546 001a 3FD1     		bne	.L28
 547              	.LBB2:
 534:.\main.c      ****             ipc_message* m = peek(ipc_queue);
 548              		.loc 1 534 0
 549 001c 2148     		ldr	r0, .L31+4
 550 001e FFF7FEFF 		bl	UART_UartPutString
 551              	.LVL85:
 535:.\main.c      ****             // Just making sure the message is the one we want
 552              		.loc 1 535 0
 553 0022 201C     		mov	r0, r4
 554 0024 FFF7FEFF 		bl	peek
 555              	.LVL86:
 537:.\main.c      ****             {
 556              		.loc 1 537 0
 557 0028 0378     		ldrb	r3, [r0]
 558 002a 002B     		cmp	r3, #0
 559 002c 36D1     		bne	.L28
 539:.\main.c      ****                 m = dequeue(ipc_queue);
 560              		.loc 1 539 0
 561 002e 1E48     		ldr	r0, .L31+8
 562              	.LVL87:
 563 0030 FFF7FEFF 		bl	UART_UartPutString
 564              	.LVL88:
 540:.\main.c      ****                 
 565              		.loc 1 540 0
 566 0034 201C     		mov	r0, r4
 567 0036 FFF7FEFF 		bl	dequeue
 568              	.LVL89:
 569 003a 051C     		mov	r5, r0
 570              	.LVL90:
 542:.\main.c      ****                 UART_UartPutString(m->data);
 571              		.loc 1 542 0
 572 003c 1B48     		ldr	r0, .L31+12
 573              	.LVL91:
 574 003e FFF7FEFF 		bl	UART_UartPutString
 575              	.LVL92:
 543:.\main.c      ****                 UART_UartPutString("\r\n");
 576              		.loc 1 543 0
 577 0042 6868     		ldr	r0, [r5, #4]
 578 0044 FFF7FEFF 		bl	UART_UartPutString
 579              	.LVL93:
 544:.\main.c      ****                 
 580              		.loc 1 544 0
 581 0048 1948     		ldr	r0, .L31+16
 582 004a FFF7FEFF 		bl	UART_UartPutString
 583              	.LVL94:
 546:.\main.c      ****                 cal_table[cal_point_ind].adc_val = (uint16)(adc_accumulator);
 584              		.loc 1 546 0
 585 004e 144C     		ldr	r4, .L31
 586              	.LVL95:
 587 0050 2769     		ldr	r7, [r4, #16]
 588 0052 6868     		ldr	r0, [r5, #4]
 589 0054 FFF7FEFF 		bl	str2float
 590              	.LVL96:
 591 0058 FF00     		lsl	r7, r7, #3
 592 005a E719     		add	r7, r4, r7
ARM GAS  C:\Users\mlgjmoor\AppData\Local\Temp\ccwL0k1p.s 			page 23


 593 005c 7861     		str	r0, [r7, #20]
 547:.\main.c      ****                 
 594              		.loc 1 547 0
 595 005e 2369     		ldr	r3, [r4, #16]
 596 0060 DB00     		lsl	r3, r3, #3
 597 0062 E318     		add	r3, r4, r3
 598 0064 1E83     		strh	r6, [r3, #24]
 549:.\main.c      ****                 UART_UartPutString("INFO: Message Reads: ");
 599              		.loc 1 549 0
 600 0066 301C     		mov	r0, r6
 601 0068 6946     		mov	r1, sp
 602 006a FFF7FEFF 		bl	int2string
 603              	.LVL97:
 550:.\main.c      ****                 UART_UartPutString(numAsStr);
 604              		.loc 1 550 0
 605 006e 1148     		ldr	r0, .L31+20
 606 0070 FFF7FEFF 		bl	UART_UartPutString
 607              	.LVL98:
 551:.\main.c      ****                 UART_UartPutString("\r\n");
 608              		.loc 1 551 0
 609 0074 6846     		mov	r0, sp
 610 0076 FFF7FEFF 		bl	UART_UartPutString
 611              	.LVL99:
 552:.\main.c      ****                 
 612              		.loc 1 552 0
 613 007a 0D48     		ldr	r0, .L31+16
 614 007c FFF7FEFF 		bl	UART_UartPutString
 615              	.LVL100:
 556:.\main.c      ****             }
 616              		.loc 1 556 0
 617 0080 2369     		ldr	r3, [r4, #16]
 618 0082 0133     		add	r3, r3, #1
 619 0084 2361     		str	r3, [r4, #16]
 620 0086 09E0     		b	.L28
 621              	.LVL101:
 622              	.L29:
 623              	.LBE2:
 562:.\main.c      ****         // Turn self off
 624              		.loc 1 562 0
 625 0088 0B48     		ldr	r0, .L31+24
 626              	.LVL102:
 627 008a FFF7FEFF 		bl	UART_UartPutString
 628              	.LVL103:
 564:.\main.c      ****         // Reset static vars for any future call
 629              		.loc 1 564 0
 630 008e 0022     		mov	r2, #0
 631 0090 2A71     		strb	r2, [r5, #4]
 566:.\main.c      ****         // Set global static vars
 632              		.loc 1 566 0
 633 0092 034B     		ldr	r3, .L31
 634 0094 1A61     		str	r2, [r3, #16]
 568:.\main.c      ****     }
 635              		.loc 1 568 0
 636 0096 0121     		mov	r1, #1
 637 0098 3C32     		add	r2, r2, #60
 638 009a 9954     		strb	r1, [r3, r2]
 639              	.LVL104:
ARM GAS  C:\Users\mlgjmoor\AppData\Local\Temp\ccwL0k1p.s 			page 24


 640              	.L28:
 570:.\main.c      **** 
 641              		.loc 1 570 0
 642 009c 03B0     		add	sp, sp, #12
 643              		@ sp needed
 644              	.LVL105:
 645 009e F0BD     		pop	{r4, r5, r6, r7, pc}
 646              	.L32:
 647              		.align	2
 648              	.L31:
 649 00a0 00000000 		.word	.LANCHOR0
 650 00a4 44000000 		.word	.LC6
 651 00a8 60000000 		.word	.LC8
 652 00ac 7C000000 		.word	.LC10
 653 00b0 94000000 		.word	.LC12
 654 00b4 98000000 		.word	.LC14
 655 00b8 B0000000 		.word	.LC16
 656              		.cfi_endproc
 657              	.LFE51:
 658              		.size	calibrate_sensor, .-calibrate_sensor
 659              		.global	__aeabi_f2iz
 660              		.global	__aeabi_fsub
 661              		.global	__aeabi_fmul
 662              		.section	.text.float2str,"ax",%progbits
 663              		.align	2
 664              		.global	float2str
 665              		.code	16
 666              		.thumb_func
 667              		.type	float2str, %function
 668              	float2str:
 669              	.LFB40:
 210:.\main.c      ****     int whole_part;
 670              		.loc 1 210 0
 671              		.cfi_startproc
 672              	.LVL106:
 673 0000 70B5     		push	{r4, r5, r6, lr}
 674              		.cfi_def_cfa_offset 16
 675              		.cfi_offset 4, -16
 676              		.cfi_offset 5, -12
 677              		.cfi_offset 6, -8
 678              		.cfi_offset 14, -4
 679 0002 051C     		add	r5, r0, #0
 680 0004 0E1C     		mov	r6, r1
 681              	.LVL107:
 218:.\main.c      ****     temp = f - whole_part;
 682              		.loc 1 218 0
 683 0006 FFF7FEFF 		bl	__aeabi_f2iz
 684              	.LVL108:
 685 000a 041C     		mov	r4, r0
 686              	.LVL109:
 219:.\main.c      ****     fraction = (int)(powr(10, dec_places) * temp);
 687              		.loc 1 219 0
 688 000c FFF7FEFF 		bl	__aeabi_i2f
 689              	.LVL110:
 690 0010 011C     		add	r1, r0, #0
 691 0012 281C     		add	r0, r5, #0
 692 0014 FFF7FEFF 		bl	__aeabi_fsub
ARM GAS  C:\Users\mlgjmoor\AppData\Local\Temp\ccwL0k1p.s 			page 25


 693              	.LVL111:
 694 0018 051C     		add	r5, r0, #0
 695              	.LVL112:
 220:.\main.c      ****     
 696              		.loc 1 220 0
 697 001a 0A20     		mov	r0, #10
 698              	.LVL113:
 699 001c 0221     		mov	r1, #2
 700 001e FFF7FEFF 		bl	powr
 701              	.LVL114:
 702 0022 FFF7FEFF 		bl	__aeabi_i2f
 703              	.LVL115:
 704 0026 291C     		add	r1, r5, #0
 705 0028 FFF7FEFF 		bl	__aeabi_fmul
 706              	.LVL116:
 707 002c FFF7FEFF 		bl	__aeabi_f2iz
 708              	.LVL117:
 709 0030 051C     		mov	r5, r0
 710              	.LVL118:
 222:.\main.c      ****     for(i=0; i<64; i++)
 711              		.loc 1 222 0
 712 0032 A0B2     		uxth	r0, r4
 713              	.LVL119:
 714 0034 311C     		mov	r1, r6
 715 0036 FFF7FEFF 		bl	int2string
 716              	.LVL120:
 223:.\main.c      ****     {
 717              		.loc 1 223 0
 718 003a 0023     		mov	r3, #0
 719 003c 0DE0     		b	.L34
 720              	.LVL121:
 721              	.L37:
 225:.\main.c      ****         if (c == '\0')
 722              		.loc 1 225 0
 723 003e 191C     		mov	r1, r3
 724 0040 F218     		add	r2, r6, r3
 725 0042 1478     		ldrb	r4, [r2]
 726              	.LVL122:
 226:.\main.c      ****         {
 727              		.loc 1 226 0
 728 0044 002C     		cmp	r4, #0
 729 0046 07D1     		bne	.L35
 730              	.LVL123:
 228:.\main.c      ****             int2string(fraction, &str[i+1]);
 731              		.loc 1 228 0
 732 0048 2E23     		mov	r3, #46
 733 004a 1370     		strb	r3, [r2]
 229:.\main.c      ****             break;
 734              		.loc 1 229 0
 735 004c 0131     		add	r1, r1, #1
 736              	.LVL124:
 737 004e A8B2     		uxth	r0, r5
 738 0050 7118     		add	r1, r6, r1
 739              	.LVL125:
 740 0052 FFF7FEFF 		bl	int2string
 741              	.LVL126:
 230:.\main.c      ****         }
ARM GAS  C:\Users\mlgjmoor\AppData\Local\Temp\ccwL0k1p.s 			page 26


 742              		.loc 1 230 0
 743 0056 02E0     		b	.L33
 744              	.LVL127:
 745              	.L35:
 223:.\main.c      ****     {
 746              		.loc 1 223 0 discriminator 2
 747 0058 0133     		add	r3, r3, #1
 748              	.LVL128:
 749              	.L34:
 223:.\main.c      ****     {
 750              		.loc 1 223 0 is_stmt 0 discriminator 1
 751 005a 3F2B     		cmp	r3, #63
 752 005c EFDD     		ble	.L37
 753              	.LVL129:
 754              	.L33:
 233:.\main.c      **** 
 755              		.loc 1 233 0 is_stmt 1
 756              		@ sp needed
 757              	.LVL130:
 758              	.LVL131:
 759 005e 70BD     		pop	{r4, r5, r6, pc}
 760              		.cfi_endproc
 761              	.LFE40:
 762              		.size	float2str, .-float2str
 763              		.section	.text.linterp,"ax",%progbits
 764              		.align	2
 765              		.global	linterp
 766              		.code	16
 767              		.thumb_func
 768              		.type	linterp, %function
 769              	linterp:
 770              	.LFB41:
 237:.\main.c      ****     // The whole configuration creates a strictly decreasing function of resistance / force
 771              		.loc 1 237 0
 772              		.cfi_startproc
 773              	.LVL132:
 774 0000 F0B5     		push	{r4, r5, r6, r7, lr}
 775              		.cfi_def_cfa_offset 20
 776              		.cfi_offset 4, -20
 777              		.cfi_offset 5, -16
 778              		.cfi_offset 6, -12
 779              		.cfi_offset 7, -8
 780              		.cfi_offset 14, -4
 781 0002 4746     		mov	r7, r8
 782 0004 80B4     		push	{r7}
 783              		.cfi_def_cfa_offset 24
 784              		.cfi_offset 8, -24
 785              	.LVL133:
 254:.\main.c      ****     {
 786              		.loc 1 254 0
 787 0006 3C4B     		ldr	r3, .L51
 788 0008 1B8B     		ldrh	r3, [r3, #24]
 789 000a 8342     		cmp	r3, r0
 790 000c 18D9     		bls	.L46
 791 000e 0123     		mov	r3, #1
 792 0010 08E0     		b	.L40
 793              	.LVL134:
ARM GAS  C:\Users\mlgjmoor\AppData\Local\Temp\ccwL0k1p.s 			page 27


 794              	.L42:
 262:.\main.c      ****             else if (adc_reading == cal_table[i].adc_val)
 795              		.loc 1 262 0
 796 0012 DA00     		lsl	r2, r3, #3
 797 0014 3849     		ldr	r1, .L51
 798 0016 8A18     		add	r2, r1, r2
 799 0018 128B     		ldrh	r2, [r2, #24]
 800 001a 8242     		cmp	r2, r0
 801 001c 06D3     		bcc	.L47
 263:.\main.c      ****             {
 802              		.loc 1 263 0
 803 001e 9042     		cmp	r0, r2
 804 0020 06D0     		beq	.L48
 260:.\main.c      ****         {
 805              		.loc 1 260 0 discriminator 2
 806 0022 0133     		add	r3, r3, #1
 807              	.LVL135:
 808              	.L40:
 260:.\main.c      ****         {
 809              		.loc 1 260 0 is_stmt 0 discriminator 1
 810 0024 042B     		cmp	r3, #4
 811 0026 F4DD     		ble	.L42
 243:.\main.c      ****     
 812              		.loc 1 243 0 is_stmt 1
 813 0028 0025     		mov	r5, #0
 814 002a 02E0     		b	.L41
 815              	.L47:
 816 002c 0025     		mov	r5, #0
 817 002e 00E0     		b	.L41
 818              	.L48:
 265:.\main.c      ****                 break;
 819              		.loc 1 265 0
 820 0030 0125     		mov	r5, #1
 821              	.L41:
 822              	.LVL136:
 270:.\main.c      ****     }
 823              		.loc 1 270 0
 824 0032 314A     		ldr	r2, .L51
 825 0034 128F     		ldrh	r2, [r2, #56]
 826 0036 8242     		cmp	r2, r0
 827 0038 07D8     		bhi	.L49
 242:.\main.c      ****     bool exact = false;
 828              		.loc 1 242 0
 829 003a 0021     		mov	r1, #0
 241:.\main.c      ****     bool upper = false;
 830              		.loc 1 241 0
 831 003c 0022     		mov	r2, #0
 832 003e 06E0     		b	.L39
 833              	.LVL137:
 834              	.L46:
 252:.\main.c      ****     
 835              		.loc 1 252 0
 836 0040 0023     		mov	r3, #0
 243:.\main.c      ****     
 837              		.loc 1 243 0
 838 0042 0025     		mov	r5, #0
 242:.\main.c      ****     bool exact = false;
ARM GAS  C:\Users\mlgjmoor\AppData\Local\Temp\ccwL0k1p.s 			page 28


 839              		.loc 1 242 0
 840 0044 0021     		mov	r1, #0
 256:.\main.c      ****     }
 841              		.loc 1 256 0
 842 0046 0122     		mov	r2, #1
 843 0048 01E0     		b	.L39
 844              	.LVL138:
 845              	.L49:
 270:.\main.c      ****     }
 846              		.loc 1 270 0
 847 004a 0121     		mov	r1, #1
 241:.\main.c      ****     bool upper = false;
 848              		.loc 1 241 0
 849 004c 0022     		mov	r2, #0
 850              	.LVL139:
 851              	.L39:
 273:.\main.c      ****     {
 852              		.loc 1 273 0
 853 004e 002A     		cmp	r2, #0
 854 0050 4ED1     		bne	.L50
 855 0052 041C     		mov	r4, r0
 277:.\main.c      ****     {
 856              		.loc 1 277 0
 857 0054 0029     		cmp	r1, #0
 858 0056 1FD0     		beq	.L44
 859              	.LBB3:
 283:.\main.c      ****         fx1 = cal_table[CAL_TABLE_NUM_OF_POINTS-2].force;
 860              		.loc 1 283 0
 861 0058 274B     		ldr	r3, .L51
 862              	.LVL140:
 863 005a 1E8E     		ldrh	r6, [r3, #48]
 864              	.LVL141:
 284:.\main.c      ****         
 865              		.loc 1 284 0
 866 005c DF6A     		ldr	r7, [r3, #44]
 867              	.LVL142:
 286:.\main.c      ****         fx2 = cal_table[CAL_TABLE_NUM_OF_POINTS-1].force;
 868              		.loc 1 286 0
 869 005e 1D8F     		ldrh	r5, [r3, #56]
 870              	.LVL143:
 287:.\main.c      ****         
 871              		.loc 1 287 0
 872 0060 5B6B     		ldr	r3, [r3, #52]
 873 0062 9846     		mov	r8, r3
 874              	.LVL144:
 290:.\main.c      ****     }
 875              		.loc 1 290 0
 876 0064 281A     		sub	r0, r5, r0
 877              	.LVL145:
 878 0066 FFF7FEFF 		bl	__aeabi_i2f
 879              	.LVL146:
 880 006a 391C     		add	r1, r7, #0
 881 006c FFF7FEFF 		bl	__aeabi_fmul
 882              	.LVL147:
 883 0070 071C     		add	r7, r0, #0
 884              	.LVL148:
 885 0072 A01B     		sub	r0, r4, r6
ARM GAS  C:\Users\mlgjmoor\AppData\Local\Temp\ccwL0k1p.s 			page 29


 886 0074 FFF7FEFF 		bl	__aeabi_i2f
 887              	.LVL149:
 888 0078 4146     		mov	r1, r8
 889 007a FFF7FEFF 		bl	__aeabi_fmul
 890              	.LVL150:
 891 007e 011C     		add	r1, r0, #0
 892 0080 381C     		add	r0, r7, #0
 893 0082 FFF7FEFF 		bl	__aeabi_fadd
 894              	.LVL151:
 895 0086 041C     		add	r4, r0, #0
 896 0088 A81B     		sub	r0, r5, r6
 897 008a FFF7FEFF 		bl	__aeabi_i2f
 898              	.LVL152:
 899 008e 011C     		add	r1, r0, #0
 900 0090 201C     		add	r0, r4, #0
 901 0092 FFF7FEFF 		bl	__aeabi_fdiv
 902              	.LVL153:
 903              	.LBE3:
 904 0096 2CE0     		b	.L43
 905              	.LVL154:
 906              	.L44:
 292:.\main.c      ****     {
 907              		.loc 1 292 0
 908 0098 002D     		cmp	r5, #0
 909 009a 04D0     		beq	.L45
 294:.\main.c      ****     }
 910              		.loc 1 294 0
 911 009c DB00     		lsl	r3, r3, #3
 912              	.LVL155:
 913 009e 164A     		ldr	r2, .L51
 914              	.LVL156:
 915 00a0 D318     		add	r3, r2, r3
 916 00a2 5869     		ldr	r0, [r3, #20]
 917              	.LVL157:
 918 00a4 25E0     		b	.L43
 919              	.LVL158:
 920              	.L45:
 921              	.LBB4:
 302:.\main.c      ****         fx1 = cal_table[i - 1].force;
 922              		.loc 1 302 0
 923 00a6 5A1E     		sub	r2, r3, #1
 924              	.LVL159:
 925 00a8 1349     		ldr	r1, .L51
 926              	.LVL160:
 927 00aa D200     		lsl	r2, r2, #3
 928 00ac 8A18     		add	r2, r1, r2
 929 00ae 158B     		ldrh	r5, [r2, #24]
 930              	.LVL161:
 303:.\main.c      ****         
 931              		.loc 1 303 0
 932 00b0 5669     		ldr	r6, [r2, #20]
 933              	.LVL162:
 305:.\main.c      ****         fx2 = cal_table[i].force;
 934              		.loc 1 305 0
 935 00b2 DB00     		lsl	r3, r3, #3
 936              	.LVL163:
 937 00b4 CB18     		add	r3, r1, r3
ARM GAS  C:\Users\mlgjmoor\AppData\Local\Temp\ccwL0k1p.s 			page 30


 938 00b6 1F8B     		ldrh	r7, [r3, #24]
 939              	.LVL164:
 306:.\main.c      ****         
 940              		.loc 1 306 0
 941 00b8 5B69     		ldr	r3, [r3, #20]
 942 00ba 9846     		mov	r8, r3
 943              	.LVL165:
 308:.\main.c      ****     }
 944              		.loc 1 308 0
 945 00bc 381A     		sub	r0, r7, r0
 946              	.LVL166:
 947 00be FFF7FEFF 		bl	__aeabi_i2f
 948              	.LVL167:
 949 00c2 311C     		add	r1, r6, #0
 950 00c4 FFF7FEFF 		bl	__aeabi_fmul
 951              	.LVL168:
 952 00c8 061C     		add	r6, r0, #0
 953              	.LVL169:
 954 00ca 601B     		sub	r0, r4, r5
 955 00cc FFF7FEFF 		bl	__aeabi_i2f
 956              	.LVL170:
 957 00d0 4146     		mov	r1, r8
 958 00d2 FFF7FEFF 		bl	__aeabi_fmul
 959              	.LVL171:
 960 00d6 011C     		add	r1, r0, #0
 961 00d8 301C     		add	r0, r6, #0
 962 00da FFF7FEFF 		bl	__aeabi_fadd
 963              	.LVL172:
 964 00de 041C     		add	r4, r0, #0
 965 00e0 781B     		sub	r0, r7, r5
 966 00e2 FFF7FEFF 		bl	__aeabi_i2f
 967              	.LVL173:
 968 00e6 011C     		add	r1, r0, #0
 969 00e8 201C     		add	r0, r4, #0
 970 00ea FFF7FEFF 		bl	__aeabi_fdiv
 971              	.LVL174:
 972 00ee 00E0     		b	.L43
 973              	.LVL175:
 974              	.L50:
 975              	.LBE4:
 275:.\main.c      ****     }
 976              		.loc 1 275 0
 977 00f0 0020     		mov	r0, #0
 978              	.LVL176:
 979              	.L43:
 312:.\main.c      **** 
 980              		.loc 1 312 0
 981              		@ sp needed
 982 00f2 04BC     		pop	{r2}
 983 00f4 9046     		mov	r8, r2
 984 00f6 F0BD     		pop	{r4, r5, r6, r7, pc}
 985              	.L52:
 986              		.align	2
 987              	.L51:
 988 00f8 00000000 		.word	.LANCHOR0
 989              		.cfi_endproc
 990              	.LFE41:
ARM GAS  C:\Users\mlgjmoor\AppData\Local\Temp\ccwL0k1p.s 			page 31


 991              		.size	linterp, .-linterp
 992              		.section	.text.writeUART_routine,"ax",%progbits
 993              		.align	2
 994              		.global	writeUART_routine
 995              		.code	16
 996              		.thumb_func
 997              		.type	writeUART_routine, %function
 998              	writeUART_routine:
 999              	.LFB45:
 365:.\main.c      ****     char numAsStr[6];
 1000              		.loc 1 365 0
 1001              		.cfi_startproc
 1002              	.LVL177:
 1003 0000 30B5     		push	{r4, r5, lr}
 1004              		.cfi_def_cfa_offset 12
 1005              		.cfi_offset 4, -12
 1006              		.cfi_offset 5, -8
 1007              		.cfi_offset 14, -4
 1008 0002 95B0     		sub	sp, sp, #84
 1009              		.cfi_def_cfa_offset 96
 371:.\main.c      ****     
 1010              		.loc 1 371 0
 1011 0004 2A4B     		ldr	r3, .L59
 1012 0006 1C89     		ldrh	r4, [r3, #8]
 1013              	.LVL178:
 374:.\main.c      ****     {
 1014              		.loc 1 374 0
 1015 0008 1B79     		ldrb	r3, [r3, #4]
 1016 000a 002B     		cmp	r3, #0
 1017 000c 4DD0     		beq	.L53
 376:.\main.c      ****         {
 1018              		.loc 1 376 0
 1019 000e 3C23     		mov	r3, #60
 1020 0010 274A     		ldr	r2, .L59
 1021 0012 D35C     		ldrb	r3, [r2, r3]
 1022 0014 002B     		cmp	r3, #0
 1023 0016 1BD0     		beq	.L55
 1024              	.LVL179:
 1025              	.LBB5:
 380:.\main.c      ****             
 1026              		.loc 1 380 0
 1027 0018 201C     		mov	r0, r4
 1028              	.LVL180:
 1029 001a FFF7FEFF 		bl	linterp
 1030              	.LVL181:
 1031 001e 051C     		add	r5, r0, #0
 1032              	.LVL182:
 382:.\main.c      ****             UART_UartPutString("ADC Value: ");
 1033              		.loc 1 382 0
 1034 0020 201C     		mov	r0, r4
 1035              	.LVL183:
 1036 0022 12A9     		add	r1, sp, #72
 1037 0024 FFF7FEFF 		bl	int2string
 1038              	.LVL184:
 383:.\main.c      ****             UART_UartPutString(numAsStr);
 1039              		.loc 1 383 0
 1040 0028 2248     		ldr	r0, .L59+4
ARM GAS  C:\Users\mlgjmoor\AppData\Local\Temp\ccwL0k1p.s 			page 32


 1041 002a FFF7FEFF 		bl	UART_UartPutString
 1042              	.LVL185:
 384:.\main.c      ****             UART_UartPutString("\tCalculated Force: ");
 1043              		.loc 1 384 0
 1044 002e 12A8     		add	r0, sp, #72
 1045 0030 FFF7FEFF 		bl	UART_UartPutString
 1046              	.LVL186:
 385:.\main.c      ****             
 1047              		.loc 1 385 0
 1048 0034 2048     		ldr	r0, .L59+8
 1049 0036 FFF7FEFF 		bl	UART_UartPutString
 1050              	.LVL187:
 387:.\main.c      ****             
 1051              		.loc 1 387 0
 1052 003a 281C     		add	r0, r5, #0
 1053 003c 6946     		mov	r1, sp
 1054 003e FFF7FEFF 		bl	float2str
 1055              	.LVL188:
 389:.\main.c      ****             UART_UartPutString("\r\n");
 1056              		.loc 1 389 0
 1057 0042 6846     		mov	r0, sp
 1058 0044 FFF7FEFF 		bl	UART_UartPutString
 1059              	.LVL189:
 390:.\main.c      ****         }
 1060              		.loc 1 390 0
 1061 0048 1C48     		ldr	r0, .L59+12
 1062 004a FFF7FEFF 		bl	UART_UartPutString
 1063              	.LVL190:
 1064              	.LBE5:
 1065 004e 29E0     		b	.L56
 1066              	.LVL191:
 1067              	.L55:
 1068              	.LBB6:
 396:.\main.c      ****             int2string((uint16)cels, tempAsStr);
 1069              		.loc 1 396 0
 1070 0050 174B     		ldr	r3, .L59
 1071 0052 186C     		ldr	r0, [r3, #64]
 1072              	.LVL192:
 1073 0054 FFF7FEFF 		bl	DieTemp_CountsTo_Celsius
 1074              	.LVL193:
 397:.\main.c      ****             int2string((uint16)adc_accumulator, numAsStr);
 1075              		.loc 1 397 0
 1076 0058 80B2     		uxth	r0, r0
 1077              	.LVL194:
 1078 005a 10A9     		add	r1, sp, #64
 1079 005c FFF7FEFF 		bl	int2string
 1080              	.LVL195:
 398:.\main.c      ****             UART_UartPutString("ADC Value: ");
 1081              		.loc 1 398 0
 1082 0060 201C     		mov	r0, r4
 1083 0062 12A9     		add	r1, sp, #72
 1084 0064 FFF7FEFF 		bl	int2string
 1085              	.LVL196:
 399:.\main.c      ****             int i;
 1086              		.loc 1 399 0
 1087 0068 1248     		ldr	r0, .L59+4
 1088 006a FFF7FEFF 		bl	UART_UartPutString
ARM GAS  C:\Users\mlgjmoor\AppData\Local\Temp\ccwL0k1p.s 			page 33


 1089              	.LVL197:
 401:.\main.c      ****             {
 1090              		.loc 1 401 0
 1091 006e 0024     		mov	r4, #0
 1092              	.LVL198:
 1093 0070 0DE0     		b	.L57
 1094              	.LVL199:
 1095              	.L58:
 403:.\main.c      ****                 adc_accumulator = filtered_adc[i];
 1096              		.loc 1 403 0 discriminator 3
 1097 0072 1348     		ldr	r0, .L59+16
 1098 0074 FFF7FEFF 		bl	UART_UartPutString
 1099              	.LVL200:
 404:.\main.c      ****                 int2string((uint16)adc_accumulator, numAsStr);
 1100              		.loc 1 404 0 discriminator 3
 1101 0078 6300     		lsl	r3, r4, #1
 1102 007a 0D4A     		ldr	r2, .L59
 1103 007c D318     		add	r3, r2, r3
 1104 007e 1889     		ldrh	r0, [r3, #8]
 1105              	.LVL201:
 405:.\main.c      ****                 UART_UartPutString(numAsStr);
 1106              		.loc 1 405 0 discriminator 3
 1107 0080 12A9     		add	r1, sp, #72
 1108 0082 FFF7FEFF 		bl	int2string
 1109              	.LVL202:
 406:.\main.c      ****             }
 1110              		.loc 1 406 0 discriminator 3
 1111 0086 12A8     		add	r0, sp, #72
 1112 0088 FFF7FEFF 		bl	UART_UartPutString
 1113              	.LVL203:
 401:.\main.c      ****             {
 1114              		.loc 1 401 0 discriminator 3
 1115 008c 0134     		add	r4, r4, #1
 1116              	.LVL204:
 1117              	.L57:
 401:.\main.c      ****             {
 1118              		.loc 1 401 0 is_stmt 0 discriminator 1
 1119 008e 032C     		cmp	r4, #3
 1120 0090 EFDD     		ble	.L58
 408:.\main.c      ****             UART_UartPutString(tempAsStr);
 1121              		.loc 1 408 0 is_stmt 1
 1122 0092 0C48     		ldr	r0, .L59+20
 1123 0094 FFF7FEFF 		bl	UART_UartPutString
 1124              	.LVL205:
 409:.\main.c      ****             UART_UartPutString("\r\n");
 1125              		.loc 1 409 0
 1126 0098 10A8     		add	r0, sp, #64
 1127 009a FFF7FEFF 		bl	UART_UartPutString
 1128              	.LVL206:
 410:.\main.c      ****         }
 1129              		.loc 1 410 0
 1130 009e 0748     		ldr	r0, .L59+12
 1131 00a0 FFF7FEFF 		bl	UART_UartPutString
 1132              	.LVL207:
 1133              	.L56:
 1134              	.LBE6:
 413:.\main.c      ****     }
ARM GAS  C:\Users\mlgjmoor\AppData\Local\Temp\ccwL0k1p.s 			page 34


 1135              		.loc 1 413 0
 1136 00a4 0022     		mov	r2, #0
 1137 00a6 024B     		ldr	r3, .L59
 1138 00a8 1A71     		strb	r2, [r3, #4]
 1139              	.L53:
 415:.\main.c      **** 
 1140              		.loc 1 415 0
 1141 00aa 15B0     		add	sp, sp, #84
 1142              		@ sp needed
 1143 00ac 30BD     		pop	{r4, r5, pc}
 1144              	.L60:
 1145 00ae C046     		.align	2
 1146              	.L59:
 1147 00b0 00000000 		.word	.LANCHOR0
 1148 00b4 D4000000 		.word	.LC20
 1149 00b8 E0000000 		.word	.LC22
 1150 00bc 94000000 		.word	.LC12
 1151 00c0 F4000000 		.word	.LC25
 1152 00c4 F8000000 		.word	.LC27
 1153              		.cfi_endproc
 1154              	.LFE45:
 1155              		.size	writeUART_routine, .-writeUART_routine
 1156              		.section	.text.read_adc,"ax",%progbits
 1157              		.align	2
 1158              		.global	read_adc
 1159              		.code	16
 1160              		.thumb_func
 1161              		.type	read_adc, %function
 1162              	read_adc:
 1163              	.LFB42:
 315:.\main.c      ****     uint16 result;
 1164              		.loc 1 315 0
 1165              		.cfi_startproc
 1166              	.LVL208:
 1167 0000 30B5     		push	{r4, r5, lr}
 1168              		.cfi_def_cfa_offset 12
 1169              		.cfi_offset 4, -12
 1170              		.cfi_offset 5, -8
 1171              		.cfi_offset 14, -4
 1172 0002 83B0     		sub	sp, sp, #12
 1173              		.cfi_def_cfa_offset 24
 1174 0004 0190     		str	r0, [sp, #4]
 318:.\main.c      ****     pins[index].pin_write(LOW);
 1175              		.loc 1 318 0
 1176 0006 114C     		ldr	r4, .L62
 1177 0008 0020     		mov	r0, #0
 1178              	.LVL209:
 1179 000a A36C     		ldr	r3, [r4, #72]
 1180 000c 9847     		blx	r3
 1181              	.LVL210:
 319:.\main.c      ****     
 1182              		.loc 1 319 0
 1183 000e 019B     		ldr	r3, [sp, #4]
 1184 0010 DB00     		lsl	r3, r3, #3
 1185 0012 E318     		add	r3, r4, r3
 1186 0014 9B6C     		ldr	r3, [r3, #72]
 1187 0016 0020     		mov	r0, #0
ARM GAS  C:\Users\mlgjmoor\AppData\Local\Temp\ccwL0k1p.s 			page 35


 1188 0018 9847     		blx	r3
 1189              	.LVL211:
 322:.\main.c      ****     
 1190              		.loc 1 322 0
 1191 001a 0520     		mov	r0, #5
 1192 001c FFF7FEFF 		bl	CyDelay
 1193              	.LVL212:
 324:.\main.c      ****     ADC_IsEndConversion(ADC_WAIT_FOR_RESULT);
 1194              		.loc 1 324 0
 1195 0020 FFF7FEFF 		bl	ADC_StartConvert
 1196              	.LVL213:
 325:.\main.c      ****     result = ADC_GetResult16(0);
 1197              		.loc 1 325 0
 1198 0024 0220     		mov	r0, #2
 1199 0026 FFF7FEFF 		bl	ADC_IsEndConversion
 1200              	.LVL214:
 326:.\main.c      ****     
 1201              		.loc 1 326 0
 1202 002a 0020     		mov	r0, #0
 1203 002c FFF7FEFF 		bl	ADC_GetResult16
 1204              	.LVL215:
 1205 0030 85B2     		uxth	r5, r0
 1206              	.LVL216:
 328:.\main.c      ****     pins[index].pin_write(HIGH_Z);
 1207              		.loc 1 328 0
 1208 0032 0120     		mov	r0, #1
 1209 0034 A36C     		ldr	r3, [r4, #72]
 1210 0036 9847     		blx	r3
 1211              	.LVL217:
 329:.\main.c      ****     
 1212              		.loc 1 329 0
 1213 0038 019B     		ldr	r3, [sp, #4]
 1214 003a DB00     		lsl	r3, r3, #3
 1215 003c E318     		add	r3, r4, r3
 1216 003e 9B6C     		ldr	r3, [r3, #72]
 1217 0040 0120     		mov	r0, #1
 1218 0042 9847     		blx	r3
 1219              	.LVL218:
 332:.\main.c      **** 
 1220              		.loc 1 332 0
 1221 0044 281C     		mov	r0, r5
 1222 0046 03B0     		add	sp, sp, #12
 1223              		@ sp needed
 1224              	.LVL219:
 1225 0048 30BD     		pop	{r4, r5, pc}
 1226              	.L63:
 1227 004a C046     		.align	2
 1228              	.L62:
 1229 004c 00000000 		.word	.LANCHOR0
 1230              		.cfi_endproc
 1231              	.LFE42:
 1232              		.size	read_adc, .-read_adc
 1233              		.section	.text.read_fsr,"ax",%progbits
 1234              		.align	2
 1235              		.global	read_fsr
 1236              		.code	16
 1237              		.thumb_func
ARM GAS  C:\Users\mlgjmoor\AppData\Local\Temp\ccwL0k1p.s 			page 36


 1238              		.type	read_fsr, %function
 1239              	read_fsr:
 1240              	.LFB43:
 335:.\main.c      ****     uint32 buf[NUMBER_OF_SENSORS];
 1241              		.loc 1 335 0
 1242              		.cfi_startproc
 1243              	.LVL220:
 1244 0000 F0B5     		push	{r4, r5, r6, r7, lr}
 1245              		.cfi_def_cfa_offset 20
 1246              		.cfi_offset 4, -20
 1247              		.cfi_offset 5, -16
 1248              		.cfi_offset 6, -12
 1249              		.cfi_offset 7, -8
 1250              		.cfi_offset 14, -4
 1251 0002 87B0     		sub	sp, sp, #28
 1252              		.cfi_def_cfa_offset 48
 1253 0004 071C     		mov	r7, r0
 1254              	.LVL221:
 340:.\main.c      ****     {
 1255              		.loc 1 340 0
 1256 0006 0026     		mov	r6, #0
 1257 0008 11E0     		b	.L65
 1258              	.LVL222:
 1259              	.L66:
 344:.\main.c      ****         }
 1260              		.loc 1 344 0 discriminator 3
 1261 000a 651C     		add	r5, r4, #1
 1262 000c 281C     		mov	r0, r5
 1263 000e FFF7FEFF 		bl	read_adc
 1264              	.LVL223:
 1265 0012 A400     		lsl	r4, r4, #2
 1266              	.LVL224:
 1267 0014 02AB     		add	r3, sp, #8
 1268 0016 E358     		ldr	r3, [r4, r3]
 1269 0018 0193     		str	r3, [sp, #4]
 1270 001a 9C46     		mov	ip, r3
 1271 001c 6044     		add	r0, r0, ip
 1272 001e 02AB     		add	r3, sp, #8
 1273 0020 E050     		str	r0, [r4, r3]
 1274              	.LVL225:
 342:.\main.c      ****         {
 1275              		.loc 1 342 0 discriminator 3
 1276 0022 2C1C     		mov	r4, r5
 1277 0024 00E0     		b	.L67
 1278              	.LVL226:
 1279              	.L70:
 1280 0026 0024     		mov	r4, #0
 1281              	.L67:
 1282              	.LVL227:
 342:.\main.c      ****         {
 1283              		.loc 1 342 0 is_stmt 0 discriminator 1
 1284 0028 032C     		cmp	r4, #3
 1285 002a EEDD     		ble	.L66
 340:.\main.c      ****     {
 1286              		.loc 1 340 0 is_stmt 1 discriminator 2
 1287 002c 0136     		add	r6, r6, #1
 1288              	.LVL228:
ARM GAS  C:\Users\mlgjmoor\AppData\Local\Temp\ccwL0k1p.s 			page 37


 1289              	.L65:
 340:.\main.c      ****     {
 1290              		.loc 1 340 0 is_stmt 0 discriminator 1
 1291 002e BE42     		cmp	r6, r7
 1292 0030 F9DB     		blt	.L70
 1293 0032 0024     		mov	r4, #0
 1294 0034 0FE0     		b	.L68
 1295              	.LVL229:
 1296              	.L69:
 351:.\main.c      ****         buf[i] = 0;
 1297              		.loc 1 351 0 is_stmt 1 discriminator 3
 1298 0036 A500     		lsl	r5, r4, #2
 1299 0038 02AB     		add	r3, sp, #8
 1300 003a EB58     		ldr	r3, [r5, r3]
 1301 003c 0193     		str	r3, [sp, #4]
 1302 003e 181C     		mov	r0, r3
 1303 0040 391C     		mov	r1, r7
 1304 0042 FFF7FEFF 		bl	__aeabi_uidiv
 1305              	.LVL230:
 1306 0046 6300     		lsl	r3, r4, #1
 1307 0048 054A     		ldr	r2, .L71
 1308 004a D318     		add	r3, r2, r3
 1309 004c 1881     		strh	r0, [r3, #8]
 352:.\main.c      ****     }
 1310              		.loc 1 352 0 discriminator 3
 1311 004e 0023     		mov	r3, #0
 1312 0050 02AA     		add	r2, sp, #8
 1313 0052 AB50     		str	r3, [r5, r2]
 349:.\main.c      ****     {
 1314              		.loc 1 349 0 discriminator 3
 1315 0054 0134     		add	r4, r4, #1
 1316              	.LVL231:
 1317              	.L68:
 349:.\main.c      ****     {
 1318              		.loc 1 349 0 is_stmt 0 discriminator 1
 1319 0056 032C     		cmp	r4, #3
 1320 0058 EDDD     		ble	.L69
 355:.\main.c      **** 
 1321              		.loc 1 355 0 is_stmt 1
 1322 005a 07B0     		add	sp, sp, #28
 1323              		@ sp needed
 1324              	.LVL232:
 1325              	.LVL233:
 1326              	.LVL234:
 1327 005c F0BD     		pop	{r4, r5, r6, r7, pc}
 1328              	.L72:
 1329 005e C046     		.align	2
 1330              	.L71:
 1331 0060 00000000 		.word	.LANCHOR0
 1332              		.cfi_endproc
 1333              	.LFE43:
 1334              		.size	read_fsr, .-read_fsr
 1335              		.section	.text.readADC_routine,"ax",%progbits
 1336              		.align	2
 1337              		.global	readADC_routine
 1338              		.code	16
 1339              		.thumb_func
ARM GAS  C:\Users\mlgjmoor\AppData\Local\Temp\ccwL0k1p.s 			page 38


 1340              		.type	readADC_routine, %function
 1341              	readADC_routine:
 1342              	.LFB44:
 359:.\main.c      ****     read_fsr(4);
 1343              		.loc 1 359 0
 1344              		.cfi_startproc
 1345              	.LVL235:
 1346 0000 08B5     		push	{r3, lr}
 1347              		.cfi_def_cfa_offset 8
 1348              		.cfi_offset 3, -8
 1349              		.cfi_offset 14, -4
 360:.\main.c      **** }
 1350              		.loc 1 360 0
 1351 0002 0420     		mov	r0, #4
 1352              	.LVL236:
 1353 0004 FFF7FEFF 		bl	read_fsr
 1354              	.LVL237:
 361:.\main.c      **** 
 1355              		.loc 1 361 0
 1356              		@ sp needed
 1357 0008 08BD     		pop	{r3, pc}
 1358              		.cfi_endproc
 1359              	.LFE44:
 1360              		.size	readADC_routine, .-readADC_routine
 1361 000a C046     		.section	.text.print_user_message,"ax",%progbits
 1362              		.align	2
 1363              		.global	print_user_message
 1364              		.code	16
 1365              		.thumb_func
 1366              		.type	print_user_message, %function
 1367              	print_user_message:
 1368              	.LFB46:
 419:.\main.c      ****     UART_UartPutString("\r\n***********************************************************************
 1369              		.loc 1 419 0
 1370              		.cfi_startproc
 1371 0000 10B5     		push	{r4, lr}
 1372              		.cfi_def_cfa_offset 8
 1373              		.cfi_offset 4, -8
 1374              		.cfi_offset 14, -4
 420:.\main.c      ****     UART_UartPutString("---Force Sensor Test---\r\n");
 1375              		.loc 1 420 0
 1376 0002 0A4C     		ldr	r4, .L75
 1377 0004 201C     		mov	r0, r4
 1378 0006 FFF7FEFF 		bl	UART_UartPutString
 1379              	.LVL238:
 421:.\main.c      ****     UART_UartPutString("Press 'c' to calibrate\r\n");
 1380              		.loc 1 421 0
 1381 000a 0948     		ldr	r0, .L75+4
 1382 000c FFF7FEFF 		bl	UART_UartPutString
 1383              	.LVL239:
 422:.\main.c      ****     UART_UartPutString("Press 'r' to toggle continuous read\r\n");
 1384              		.loc 1 422 0
 1385 0010 0848     		ldr	r0, .L75+8
 1386 0012 FFF7FEFF 		bl	UART_UartPutString
 1387              	.LVL240:
 423:.\main.c      ****     UART_UartPutString("\r\n***********************************************************************
 1388              		.loc 1 423 0
ARM GAS  C:\Users\mlgjmoor\AppData\Local\Temp\ccwL0k1p.s 			page 39


 1389 0016 0848     		ldr	r0, .L75+12
 1390 0018 FFF7FEFF 		bl	UART_UartPutString
 1391              	.LVL241:
 424:.\main.c      ****     UART_UartPutString("\r\n");
 1392              		.loc 1 424 0
 1393 001c 201C     		mov	r0, r4
 1394 001e FFF7FEFF 		bl	UART_UartPutString
 1395              	.LVL242:
 425:.\main.c      **** }
 1396              		.loc 1 425 0
 1397 0022 0648     		ldr	r0, .L75+16
 1398 0024 FFF7FEFF 		bl	UART_UartPutString
 1399              	.LVL243:
 426:.\main.c      **** 
 1400              		.loc 1 426 0
 1401              		@ sp needed
 1402 0028 10BD     		pop	{r4, pc}
 1403              	.L76:
 1404 002a C046     		.align	2
 1405              	.L75:
 1406 002c 08010000 		.word	.LC31
 1407 0030 60010000 		.word	.LC33
 1408 0034 7C010000 		.word	.LC35
 1409 0038 98010000 		.word	.LC37
 1410 003c 94000000 		.word	.LC12
 1411              		.cfi_endproc
 1412              	.LFE46:
 1413              		.size	print_user_message, .-print_user_message
 1414              		.section	.text.lower,"ax",%progbits
 1415              		.align	2
 1416              		.global	lower
 1417              		.code	16
 1418              		.thumb_func
 1419              		.type	lower, %function
 1420              	lower:
 1421              	.LFB47:
 431:.\main.c      ****     char* str_cpy = str;
 1422              		.loc 1 431 0
 1423              		.cfi_startproc
 1424              	.LVL244:
 433:.\main.c      ****     {
 1425              		.loc 1 433 0
 1426 0000 021C     		mov	r2, r0
 1427 0002 06E0     		b	.L78
 1428              	.LVL245:
 1429              	.L80:
 435:.\main.c      ****         {
 1430              		.loc 1 435 0
 1431 0004 191C     		mov	r1, r3
 1432 0006 4139     		sub	r1, r1, #65
 1433 0008 1929     		cmp	r1, #25
 1434 000a 01D8     		bhi	.L79
 437:.\main.c      ****         }
 1435              		.loc 1 437 0
 1436 000c 2033     		add	r3, r3, #32
 1437 000e 1370     		strb	r3, [r2]
 1438              	.L79:
ARM GAS  C:\Users\mlgjmoor\AppData\Local\Temp\ccwL0k1p.s 			page 40


 439:.\main.c      ****     }
 1439              		.loc 1 439 0
 1440 0010 0132     		add	r2, r2, #1
 1441              	.LVL246:
 1442              	.L78:
 433:.\main.c      ****     {
 1443              		.loc 1 433 0
 1444 0012 1378     		ldrb	r3, [r2]
 1445 0014 002B     		cmp	r3, #0
 1446 0016 F5D1     		bne	.L80
 442:.\main.c      **** 
 1447              		.loc 1 442 0
 1448              		@ sp needed
 1449 0018 7047     		bx	lr
 1450              		.cfi_endproc
 1451              	.LFE47:
 1452              		.size	lower, .-lower
 1453 001a C046     		.section	.text.str_eq,"ax",%progbits
 1454              		.align	2
 1455              		.global	str_eq
 1456              		.code	16
 1457              		.thumb_func
 1458              		.type	str_eq, %function
 1459              	str_eq:
 1460              	.LFB48:
 446:.\main.c      ****     bool ret = true;
 1461              		.loc 1 446 0
 1462              		.cfi_startproc
 1463              	.LVL247:
 1464 0000 70B5     		push	{r4, r5, r6, lr}
 1465              		.cfi_def_cfa_offset 16
 1466              		.cfi_offset 4, -16
 1467              		.cfi_offset 5, -12
 1468              		.cfi_offset 6, -8
 1469              		.cfi_offset 14, -4
 1470 0002 051C     		mov	r5, r0
 1471              	.LVL248:
 448:.\main.c      ****     while ((s1[i] != '\0' || s2[i] != '\0') && ret == true)
 1472              		.loc 1 448 0
 1473 0004 0023     		mov	r3, #0
 447:.\main.c      ****     int i = 0;
 1474              		.loc 1 447 0
 1475 0006 0120     		mov	r0, #1
 1476              	.LVL249:
 449:.\main.c      ****     {
 1477              		.loc 1 449 0
 1478 0008 04E0     		b	.L82
 1479              	.LVL250:
 1480              	.L86:
 451:.\main.c      ****         {
 1481              		.loc 1 451 0
 1482 000a 0C5D     		ldrb	r4, [r1, r4]
 1483 000c A242     		cmp	r2, r4
 1484 000e 00D0     		beq	.L83
 453:.\main.c      ****         }
 1485              		.loc 1 453 0
 1486 0010 0020     		mov	r0, #0
ARM GAS  C:\Users\mlgjmoor\AppData\Local\Temp\ccwL0k1p.s 			page 41


 1487              	.LVL251:
 1488              	.L83:
 456:.\main.c      ****     }
 1489              		.loc 1 456 0
 1490 0012 0133     		add	r3, r3, #1
 1491              	.LVL252:
 1492              	.L82:
 449:.\main.c      ****     {
 1493              		.loc 1 449 0
 1494 0014 1C1C     		mov	r4, r3
 1495 0016 EA5C     		ldrb	r2, [r5, r3]
 1496 0018 002A     		cmp	r2, #0
 1497 001a 02D1     		bne	.L84
 449:.\main.c      ****     {
 1498              		.loc 1 449 0 is_stmt 0 discriminator 2
 1499 001c CE5C     		ldrb	r6, [r1, r3]
 1500 001e 002E     		cmp	r6, #0
 1501 0020 01D0     		beq	.L85
 1502              	.L84:
 449:.\main.c      ****     {
 1503              		.loc 1 449 0 discriminator 3
 1504 0022 0028     		cmp	r0, #0
 1505 0024 F1D1     		bne	.L86
 1506              	.L85:
 460:.\main.c      **** 
 1507              		.loc 1 460 0 is_stmt 1
 1508              		@ sp needed
 1509              	.LVL253:
 1510 0026 70BD     		pop	{r4, r5, r6, pc}
 1511              		.cfi_endproc
 1512              	.LFE48:
 1513              		.size	str_eq, .-str_eq
 1514              		.section	.text.get_user_input,"ax",%progbits
 1515              		.align	2
 1516              		.global	get_user_input
 1517              		.code	16
 1518              		.thumb_func
 1519              		.type	get_user_input, %function
 1520              	get_user_input:
 1521              	.LFB49:
 467:.\main.c      ****     static int index = 0;
 1522              		.loc 1 467 0
 1523              		.cfi_startproc
 1524              	.LVL254:
 1525 0000 70B5     		push	{r4, r5, r6, lr}
 1526              		.cfi_def_cfa_offset 16
 1527              		.cfi_offset 4, -16
 1528              		.cfi_offset 5, -12
 1529              		.cfi_offset 6, -8
 1530              		.cfi_offset 14, -4
 1531 0002 051C     		mov	r5, r0
 472:.\main.c      ****     
 1532              		.loc 1 472 0
 1533 0004 FFF7FEFF 		bl	UART_UartGetChar
 1534              	.LVL255:
 1535 0008 C4B2     		uxtb	r4, r0
 1536              	.LVL256:
ARM GAS  C:\Users\mlgjmoor\AppData\Local\Temp\ccwL0k1p.s 			page 42


 474:.\main.c      ****     {
 1537              		.loc 1 474 0
 1538 000a 134B     		ldr	r3, .L91
 1539 000c DB6E     		ldr	r3, [r3, #108]
 1540 000e 622B     		cmp	r3, #98
 1541 0010 20DC     		bgt	.L88
 477:.\main.c      ****         {            
 1542              		.loc 1 477 0
 1543 0012 002C     		cmp	r4, #0
 1544 0014 1ED0     		beq	.L88
 479:.\main.c      ****             buffer[index] = in_char;
 1545              		.loc 1 479 0
 1546 0016 FF23     		mov	r3, #255
 1547 0018 1840     		and	r0, r3
 1548 001a FFF7FEFF 		bl	UART_SpiUartWriteTxData
 1549              	.LVL257:
 480:.\main.c      ****             index++;
 1550              		.loc 1 480 0
 1551 001e 0E4A     		ldr	r2, .L91
 1552 0020 D36E     		ldr	r3, [r2, #108]
 1553 0022 EC54     		strb	r4, [r5, r3]
 481:.\main.c      ****             
 1554              		.loc 1 481 0
 1555 0024 0133     		add	r3, r3, #1
 1556 0026 D366     		str	r3, [r2, #108]
 484:.\main.c      ****             {
 1557              		.loc 1 484 0
 1558 0028 0A2C     		cmp	r4, #10
 1559 002a 01D0     		beq	.L90
 484:.\main.c      ****             {
 1560              		.loc 1 484 0 is_stmt 0 discriminator 1
 1561 002c 0D2C     		cmp	r4, #13
 1562 002e 11D1     		bne	.L88
 1563              	.L90:
 486:.\main.c      ****                 // index was already incremented, so this terminates the string
 1564              		.loc 1 486 0 is_stmt 1
 1565 0030 0A48     		ldr	r0, .L91+4
 1566 0032 FFF7FEFF 		bl	UART_UartPutString
 1567              	.LVL258:
 488:.\main.c      ****                 UART_UartPutString(buffer);
 1568              		.loc 1 488 0
 1569 0036 084C     		ldr	r4, .L91
 1570              	.LVL259:
 1571 0038 E36E     		ldr	r3, [r4, #108]
 1572 003a EB18     		add	r3, r5, r3
 1573 003c 0026     		mov	r6, #0
 1574 003e 1E70     		strb	r6, [r3]
 489:.\main.c      ****                 UART_UartPutString("\r\n");
 1575              		.loc 1 489 0
 1576 0040 281C     		mov	r0, r5
 1577 0042 FFF7FEFF 		bl	UART_UartPutString
 1578              	.LVL260:
 490:.\main.c      ****                 input_ready = true;
 1579              		.loc 1 490 0
 1580 0046 0648     		ldr	r0, .L91+8
 1581 0048 FFF7FEFF 		bl	UART_UartPutString
 1582              	.LVL261:
ARM GAS  C:\Users\mlgjmoor\AppData\Local\Temp\ccwL0k1p.s 			page 43


 491:.\main.c      ****                 index = 0;
 1583              		.loc 1 491 0
 1584 004c 0122     		mov	r2, #1
 1585 004e 7023     		mov	r3, #112
 1586 0050 E254     		strb	r2, [r4, r3]
 492:.\main.c      ****             }
 1587              		.loc 1 492 0
 1588 0052 E666     		str	r6, [r4, #108]
 1589              	.L88:
 496:.\main.c      **** 
 1590              		.loc 1 496 0
 1591              		@ sp needed
 1592              	.LVL262:
 1593 0054 70BD     		pop	{r4, r5, r6, pc}
 1594              	.L92:
 1595 0056 C046     		.align	2
 1596              	.L91:
 1597 0058 00000000 		.word	.LANCHOR0
 1598 005c C0010000 		.word	.LC41
 1599 0060 94000000 		.word	.LC12
 1600              		.cfi_endproc
 1601              	.LFE49:
 1602              		.size	get_user_input, .-get_user_input
 1603              		.section	.text.run_scheduler,"ax",%progbits
 1604              		.align	2
 1605              		.global	run_scheduler
 1606              		.code	16
 1607              		.thumb_func
 1608              		.type	run_scheduler, %function
 1609              	run_scheduler:
 1610              	.LFB50:
 502:.\main.c      ****     int i;
 1611              		.loc 1 502 0
 1612              		.cfi_startproc
 1613              	.LVL263:
 1614 0000 70B5     		push	{r4, r5, r6, lr}
 1615              		.cfi_def_cfa_offset 16
 1616              		.cfi_offset 4, -16
 1617              		.cfi_offset 5, -12
 1618              		.cfi_offset 6, -8
 1619              		.cfi_offset 14, -4
 1620 0002 061C     		mov	r6, r0
 1621 0004 0D1C     		mov	r5, r1
 1622              	.LVL264:
 505:.\main.c      ****     {
 1623              		.loc 1 505 0
 1624 0006 0024     		mov	r4, #0
 1625 0008 09E0     		b	.L94
 1626              	.LVL265:
 1627              	.L96:
 1628              	.LBB7:
 507:.\main.c      ****         
 1629              		.loc 1 507 0
 1630 000a E000     		lsl	r0, r4, #3
 1631 000c 3018     		add	r0, r6, r0
 1632              	.LVL266:
 509:.\main.c      ****         {
ARM GAS  C:\Users\mlgjmoor\AppData\Local\Temp\ccwL0k1p.s 			page 44


 1633              		.loc 1 509 0
 1634 000e 0379     		ldrb	r3, [r0, #4]
 1635 0010 002B     		cmp	r3, #0
 1636 0012 03D0     		beq	.L95
 512:.\main.c      ****         }
 1637              		.loc 1 512 0
 1638 0014 E300     		lsl	r3, r4, #3
 1639 0016 9B59     		ldr	r3, [r3, r6]
 1640 0018 291C     		mov	r1, r5
 1641 001a 9847     		blx	r3
 1642              	.LVL267:
 1643              	.L95:
 1644              	.LBE7:
 505:.\main.c      ****     {
 1645              		.loc 1 505 0 discriminator 2
 1646 001c 0134     		add	r4, r4, #1
 1647              	.LVL268:
 1648              	.L94:
 505:.\main.c      ****     {
 1649              		.loc 1 505 0 is_stmt 0 discriminator 1
 1650 001e 022C     		cmp	r4, #2
 1651 0020 F3DD     		ble	.L96
 516:.\main.c      **** 
 1652              		.loc 1 516 0 is_stmt 1
 1653              		@ sp needed
 1654              	.LVL269:
 1655              	.LVL270:
 1656              	.LVL271:
 1657 0022 70BD     		pop	{r4, r5, r6, pc}
 1658              		.cfi_endproc
 1659              	.LFE50:
 1660              		.size	run_scheduler, .-run_scheduler
 1661              		.section	.text.main,"ax",%progbits
 1662              		.align	2
 1663              		.global	main
 1664              		.code	16
 1665              		.thumb_func
 1666              		.type	main, %function
 1667              	main:
 1668              	.LFB53:
 587:.\main.c      **** 
 588:.\main.c      **** /*
 589:.\main.c      **** // ISR triggered when ADC finished conversion
 590:.\main.c      **** CY_ISR(adc_isr)
 591:.\main.c      **** {
 592:.\main.c      ****     uint16 adc_result;
 593:.\main.c      ****     static uint8 sensor_index = 0;
 594:.\main.c      ****     if (temperature_convert)
 595:.\main.c      ****     {
 596:.\main.c      ****         adc_result = ADC_GetResult16(ADC_TEMPERATURE_CHANNEL);
 597:.\main.c      ****         temperature = ((IIR_WEIGHT - 1) * temperature + adc_result) / IIR_WEIGHT;
 598:.\main.c      ****         temperature_convert = false;
 599:.\main.c      ****     }
 600:.\main.c      ****     else
 601:.\main.c      ****     {
 602:.\main.c      ****         adc_result = ADC_GetResult16(sensor_index);
 603:.\main.c      ****         // Simple IIR Filter with a weighing of .875
ARM GAS  C:\Users\mlgjmoor\AppData\Local\Temp\ccwL0k1p.s 			page 45


 604:.\main.c      ****         adc_fsr_sensors[sensor_index] = ((IIR_WEIGHT - 1) * adc_fsr_sensors[sensor_index] + adc_res
 605:.\main.c      ****     }
 606:.\main.c      **** }
 607:.\main.c      **** */
 608:.\main.c      **** 
 609:.\main.c      **** int main()
 610:.\main.c      **** {
 1669              		.loc 1 610 0
 1670              		.cfi_startproc
 1671 0000 70B5     		push	{r4, r5, r6, lr}
 1672              		.cfi_def_cfa_offset 16
 1673              		.cfi_offset 4, -16
 1674              		.cfi_offset 5, -12
 1675              		.cfi_offset 6, -8
 1676              		.cfi_offset 14, -4
 1677 0002 5A4C     		ldr	r4, .L103
 1678 0004 A544     		add	sp, sp, r4
 1679              		.cfi_def_cfa_offset 2232
 611:.\main.c      ****     /* Enable interrupt component connected to interrupt */
 612:.\main.c      ****     //TC_CC_ISR_StartEx(InterruptHandler);
 613:.\main.c      ****     Timer_Int_StartEx(timer_isr);
 1680              		.loc 1 613 0
 1681 0006 5A48     		ldr	r0, .L103+4
 1682 0008 FFF7FEFF 		bl	Timer_Int_StartEx
 1683              	.LVL272:
 614:.\main.c      **** 
 615:.\main.c      ****     /* Start components */
 616:.\main.c      ****     // Timer
 617:.\main.c      ****     Timer_Start();
 1684              		.loc 1 617 0
 1685 000c FFF7FEFF 		bl	Timer_Start
 1686              	.LVL273:
 618:.\main.c      ****     
 619:.\main.c      ****     /* Start SCB (UART mode) operation */
 620:.\main.c      ****     UART_Start();
 1687              		.loc 1 620 0
 1688 0010 FFF7FEFF 		bl	UART_Start
 1689              	.LVL274:
 621:.\main.c      ****     
 622:.\main.c      ****     // ADC
 623:.\main.c      ****     //ADC_IRQ_StartEx(adc_isr);
 624:.\main.c      ****     
 625:.\main.c      ****     ADC_Start();
 1690              		.loc 1 625 0
 1691 0014 FFF7FEFF 		bl	ADC_Start
 1692              	.LVL275:
 626:.\main.c      ****     
 627:.\main.c      ****     // Delay 25us as per the specification
 628:.\main.c      ****     CyDelay(25u);   
 1693              		.loc 1 628 0
 1694 0018 1920     		mov	r0, #25
 1695 001a FFF7FEFF 		bl	CyDelay
 1696              	.LVL276:
 629:.\main.c      ****     
 630:.\main.c      ****     // Get an initial reading for the temperature
 631:.\main.c      ****     // this may have to move at some point outside init
 632:.\main.c      ****     ADC_EnableInjection();
ARM GAS  C:\Users\mlgjmoor\AppData\Local\Temp\ccwL0k1p.s 			page 46


 1697              		.loc 1 632 0
 1698 001e FFF7FEFF 		bl	ADC_EnableInjection
 1699              	.LVL277:
 633:.\main.c      **** 	ADC_StartConvert();
 1700              		.loc 1 633 0
 1701 0022 FFF7FEFF 		bl	ADC_StartConvert
 1702              	.LVL278:
 634:.\main.c      **** 	ADC_IsEndConversion(ADC_WAIT_FOR_RESULT_INJ);
 1703              		.loc 1 634 0
 1704 0026 0820     		mov	r0, #8
 1705 0028 FFF7FEFF 		bl	ADC_IsEndConversion
 1706              	.LVL279:
 635:.\main.c      ****     temperature = ADC_GetResult16(ADC_TEMPERATURE_CHANNEL);
 1707              		.loc 1 635 0
 1708 002c 0120     		mov	r0, #1
 1709 002e FFF7FEFF 		bl	ADC_GetResult16
 1710              	.LVL280:
 1711 0032 504C     		ldr	r4, .L103+8
 1712 0034 2064     		str	r0, [r4, #64]
 636:.\main.c      ****     //ADC_EnableInjection();
 637:.\main.c      ****     //ADC_StartConvert();
 638:.\main.c      ****     //ADC_EOC_Int_StartEx(adc_isr);
 639:.\main.c      ****         
 640:.\main.c      ****     //ADC_IRQ_Enable();
 641:.\main.c      ****     
 642:.\main.c      ****     
 643:.\main.c      ****     CyGlobalIntEnable;   /* Enable global interrupts */
 1713              		.loc 1 643 0
 1714              	@ 643 ".\main.c" 1
 1715 0036 62B6     		CPSIE   i
 1716              	@ 0 "" 2
 644:.\main.c      ****     
 645:.\main.c      ****     /* Place your initialization/startup code here (e.g. MyInst_Start()) */
 646:.\main.c      **** 
 647:.\main.c      ****     char user_input_buf[INPUT_BUFFER_MAX];
 648:.\main.c      ****     scheduler myScheduler;
 649:.\main.c      ****     
 650:.\main.c      ****     // Initialize ipc fifo
 651:.\main.c      ****     queue ipc_fifo;
 652:.\main.c      ****     init_queue(&ipc_fifo);
 1717              		.loc 1 652 0
 1718              		.code	16
 1719 0038 09A8     		add	r0, sp, #36
 1720 003a FFF7FEFF 		bl	init_queue
 1721              	.LVL281:
 653:.\main.c      ****     
 654:.\main.c      ****     // Initialize 'calibrate'
 655:.\main.c      ****     task calibrate;
 656:.\main.c      ****     calibrate.is_active = false;
 1722              		.loc 1 656 0
 1723 003e 07AB     		add	r3, sp, #28
 1724 0040 0020     		mov	r0, #0
 1725 0042 1871     		strb	r0, [r3, #4]
 657:.\main.c      ****     calibrate.task_cb = calibrate_sensor;
 1726              		.loc 1 657 0
 1727 0044 4C4A     		ldr	r2, .L103+12
 1728 0046 0792     		str	r2, [sp, #28]
ARM GAS  C:\Users\mlgjmoor\AppData\Local\Temp\ccwL0k1p.s 			page 47


 658:.\main.c      ****     // Add Task to Scheduler
 659:.\main.c      ****     myScheduler.tasks[TASK_CALIBRATE] = calibrate;
 1729              		.loc 1 659 0
 1730 0048 4C49     		ldr	r1, .L103+16
 1731 004a 6944     		add	r1, r1, sp
 1732 004c 0A1C     		mov	r2, r1
 1733 004e 22CB     		ldmia	r3!, {r1, r5}
 1734 0050 22C2     		stmia	r2!, {r1, r5}
 660:.\main.c      ****     
 661:.\main.c      ****     task writeUART;
 662:.\main.c      ****     writeUART.is_active = false;
 1735              		.loc 1 662 0
 1736 0052 05AB     		add	r3, sp, #20
 1737 0054 1871     		strb	r0, [r3, #4]
 663:.\main.c      ****     writeUART.task_cb = writeUART_routine;
 1738              		.loc 1 663 0
 1739 0056 4A49     		ldr	r1, .L103+20
 1740 0058 0591     		str	r1, [sp, #20]
 664:.\main.c      ****     // Add Task to Scheduler
 665:.\main.c      ****     myScheduler.tasks[TASK_WRITE_UART] = writeUART;
 1741              		.loc 1 665 0
 1742 005a 22CB     		ldmia	r3!, {r1, r5}
 1743 005c 22C2     		stmia	r2!, {r1, r5}
 666:.\main.c      ****     
 667:.\main.c      ****     task readADC;
 668:.\main.c      ****     readADC.is_active = true;
 1744              		.loc 1 668 0
 1745 005e 03AB     		add	r3, sp, #12
 1746 0060 0121     		mov	r1, #1
 1747 0062 1971     		strb	r1, [r3, #4]
 669:.\main.c      ****     readADC.task_cb = readADC_routine;
 1748              		.loc 1 669 0
 1749 0064 474A     		ldr	r2, .L103+24
 1750 0066 0392     		str	r2, [sp, #12]
 670:.\main.c      ****     // Add Task to Scheduler
 671:.\main.c      ****     myScheduler.tasks[TASK_READ_ADC] = readADC;
 1751              		.loc 1 671 0
 1752 0068 474A     		ldr	r2, .L103+28
 1753 006a 6A44     		add	r2, r2, sp
 1754 006c 60CB     		ldmia	r3!, {r5, r6}
 1755 006e 60C2     		stmia	r2!, {r5, r6}
 672:.\main.c      ****     
 673:.\main.c      ****     
 674:.\main.c      ****     // initialize pins
 675:.\main.c      ****     pins[0].id = 0;
 1756              		.loc 1 675 0
 1757 0070 6064     		str	r0, [r4, #68]
 676:.\main.c      ****     pins[0].pin_write = PIN_RESISTOR_Write;
 1758              		.loc 1 676 0
 1759 0072 464B     		ldr	r3, .L103+32
 1760 0074 A364     		str	r3, [r4, #72]
 677:.\main.c      ****     pins[1].id = 1;
 1761              		.loc 1 677 0
 1762 0076 E164     		str	r1, [r4, #76]
 678:.\main.c      ****     pins[1].pin_write = PIN_SENSOR_1_Write;
 1763              		.loc 1 678 0
 1764 0078 454B     		ldr	r3, .L103+36
ARM GAS  C:\Users\mlgjmoor\AppData\Local\Temp\ccwL0k1p.s 			page 48


 1765 007a 2365     		str	r3, [r4, #80]
 679:.\main.c      ****     pins[2].id = 2;
 1766              		.loc 1 679 0
 1767 007c 0223     		mov	r3, #2
 1768 007e 6365     		str	r3, [r4, #84]
 680:.\main.c      ****     pins[2].pin_write = PIN_SENSOR_2_Write;
 1769              		.loc 1 680 0
 1770 0080 444B     		ldr	r3, .L103+40
 1771 0082 A365     		str	r3, [r4, #88]
 681:.\main.c      ****     pins[3].id = 3;
 1772              		.loc 1 681 0
 1773 0084 0323     		mov	r3, #3
 1774 0086 E365     		str	r3, [r4, #92]
 682:.\main.c      ****     pins[3].pin_write = PIN_SENSOR_3_Write;
 1775              		.loc 1 682 0
 1776 0088 434B     		ldr	r3, .L103+44
 1777 008a 2366     		str	r3, [r4, #96]
 683:.\main.c      ****     pins[4].id = 4;
 1778              		.loc 1 683 0
 1779 008c 0423     		mov	r3, #4
 1780 008e 6366     		str	r3, [r4, #100]
 684:.\main.c      ****     pins[4].pin_write = PIN_SENSOR_4_Write;
 1781              		.loc 1 684 0
 1782 0090 424B     		ldr	r3, .L103+48
 1783 0092 A366     		str	r3, [r4, #104]
 685:.\main.c      ****     
 686:.\main.c      ****     PIN_RESISTOR_Write(HIGH_Z);
 1784              		.loc 1 686 0
 1785 0094 0130     		add	r0, r0, #1
 1786 0096 FFF7FEFF 		bl	PIN_RESISTOR_Write
 1787              	.LVL282:
 687:.\main.c      ****     PIN_SENSOR_1_Write(HIGH_Z);
 1788              		.loc 1 687 0
 1789 009a 0120     		mov	r0, #1
 1790 009c FFF7FEFF 		bl	PIN_SENSOR_1_Write
 1791              	.LVL283:
 688:.\main.c      ****     PIN_SENSOR_2_Write(HIGH_Z);
 1792              		.loc 1 688 0
 1793 00a0 0120     		mov	r0, #1
 1794 00a2 FFF7FEFF 		bl	PIN_SENSOR_2_Write
 1795              	.LVL284:
 689:.\main.c      ****     
 690:.\main.c      ****     print_user_message();
 1796              		.loc 1 690 0
 1797 00a6 FFF7FEFF 		bl	print_user_message
 1798              	.LVL285:
 1799              	.L102:
 691:.\main.c      ****     for(;;)
 692:.\main.c      ****     {
 693:.\main.c      **** 
 694:.\main.c      ****         get_user_input(user_input_buf);
 1800              		.loc 1 694 0
 1801 00aa 3D48     		ldr	r0, .L103+52
 1802 00ac 6844     		add	r0, r0, sp
 1803 00ae FFF7FEFF 		bl	get_user_input
 1804              	.LVL286:
 695:.\main.c      ****         
ARM GAS  C:\Users\mlgjmoor\AppData\Local\Temp\ccwL0k1p.s 			page 49


 696:.\main.c      ****         if (input_ready)
 1805              		.loc 1 696 0
 1806 00b2 7023     		mov	r3, #112
 1807 00b4 2F4A     		ldr	r2, .L103+8
 1808 00b6 D35C     		ldrb	r3, [r2, r3]
 1809 00b8 002B     		cmp	r3, #0
 1810 00ba 4ED0     		beq	.L98
 697:.\main.c      ****         {
 698:.\main.c      ****             UART_UartPutString("Input Ready\r\n");
 1811              		.loc 1 698 0
 1812 00bc 3948     		ldr	r0, .L103+56
 1813 00be FFF7FEFF 		bl	UART_UartPutString
 1814              	.LVL287:
 699:.\main.c      ****             UART_UartPutString("Input is: ");
 1815              		.loc 1 699 0
 1816 00c2 3948     		ldr	r0, .L103+60
 1817 00c4 FFF7FEFF 		bl	UART_UartPutString
 1818              	.LVL288:
 700:.\main.c      ****             UART_UartPutString(user_input_buf);
 1819              		.loc 1 700 0
 1820 00c8 354B     		ldr	r3, .L103+52
 1821 00ca 6B44     		add	r3, r3, sp
 1822 00cc 181C     		mov	r0, r3
 1823 00ce FFF7FEFF 		bl	UART_UartPutString
 1824              	.LVL289:
 701:.\main.c      ****             UART_UartPutString("\r\n");
 1825              		.loc 1 701 0
 1826 00d2 3648     		ldr	r0, .L103+64
 1827 00d4 FFF7FEFF 		bl	UART_UartPutString
 1828              	.LVL290:
 702:.\main.c      ****             
 703:.\main.c      ****             if (str_eq(user_input_buf, "c\r") && !myScheduler.tasks[TASK_CALIBRATE].is_active)
 1829              		.loc 1 703 0
 1830 00d8 314B     		ldr	r3, .L103+52
 1831 00da 6B44     		add	r3, r3, sp
 1832 00dc 181C     		mov	r0, r3
 1833 00de 3449     		ldr	r1, .L103+68
 1834 00e0 FFF7FEFF 		bl	str_eq
 1835              	.LVL291:
 1836 00e4 0028     		cmp	r0, #0
 1837 00e6 10D0     		beq	.L99
 1838              		.loc 1 703 0 is_stmt 0 discriminator 1
 1839 00e8 244B     		ldr	r3, .L103+16
 1840 00ea 6B44     		add	r3, r3, sp
 1841 00ec 1B79     		ldrb	r3, [r3, #4]
 1842 00ee 002B     		cmp	r3, #0
 1843 00f0 0BD1     		bne	.L99
 704:.\main.c      ****             {
 705:.\main.c      ****                 UART_UartPutString("Activating Calibration task\r\n");
 1844              		.loc 1 705 0 is_stmt 1
 1845 00f2 3048     		ldr	r0, .L103+72
 1846 00f4 FFF7FEFF 		bl	UART_UartPutString
 1847              	.LVL292:
 706:.\main.c      ****                 myScheduler.tasks[TASK_CALIBRATE].is_active = true;
 1848              		.loc 1 706 0
 1849 00f8 0122     		mov	r2, #1
 1850 00fa 204B     		ldr	r3, .L103+16
ARM GAS  C:\Users\mlgjmoor\AppData\Local\Temp\ccwL0k1p.s 			page 50


 1851 00fc 6B44     		add	r3, r3, sp
 1852 00fe 1A71     		strb	r2, [r3, #4]
 707:.\main.c      ****                 calibrated = false;
 1853              		.loc 1 707 0
 1854 0100 0021     		mov	r1, #0
 1855 0102 3C23     		mov	r3, #60
 1856 0104 1B4A     		ldr	r2, .L103+8
 1857 0106 D154     		strb	r1, [r2, r3]
 1858 0108 23E0     		b	.L100
 1859              	.L99:
 708:.\main.c      ****             } 
 709:.\main.c      ****             
 710:.\main.c      ****             // toggle read
 711:.\main.c      ****             else if (str_eq(user_input_buf, "r\r"))
 1860              		.loc 1 711 0
 1861 010a 2548     		ldr	r0, .L103+52
 1862 010c 6844     		add	r0, r0, sp
 1863 010e 2A49     		ldr	r1, .L103+76
 1864 0110 FFF7FEFF 		bl	str_eq
 1865              	.LVL293:
 1866 0114 0028     		cmp	r0, #0
 1867 0116 09D0     		beq	.L101
 712:.\main.c      ****             {
 713:.\main.c      ****                 UART_UartPutString("Toggling Read ADC task\r\n");
 1868              		.loc 1 713 0
 1869 0118 2848     		ldr	r0, .L103+80
 1870 011a FFF7FEFF 		bl	UART_UartPutString
 1871              	.LVL294:
 714:.\main.c      ****                 myScheduler.tasks[TASK_WRITE_UART].is_active = !myScheduler.tasks[TASK_WRITE_UART].
 1872              		.loc 1 714 0
 1873 011e 174A     		ldr	r2, .L103+16
 1874 0120 6A44     		add	r2, r2, sp
 1875 0122 117B     		ldrb	r1, [r2, #12]
 1876 0124 0123     		mov	r3, #1
 1877 0126 4B40     		eor	r3, r1
 1878 0128 1373     		strb	r3, [r2, #12]
 1879 012a 12E0     		b	.L100
 1880              	.L101:
 715:.\main.c      ****             }
 716:.\main.c      ****             
 717:.\main.c      ****             else if (myScheduler.tasks[TASK_CALIBRATE].is_active)
 1881              		.loc 1 717 0
 1882 012c 134B     		ldr	r3, .L103+16
 1883 012e 6B44     		add	r3, r3, sp
 1884 0130 1B79     		ldrb	r3, [r3, #4]
 1885 0132 002B     		cmp	r3, #0
 1886 0134 0DD0     		beq	.L100
 1887              	.LBB8:
 718:.\main.c      ****             {
 719:.\main.c      ****                 ipc_message m;
 720:.\main.c      ****                 m.address = TASK_CALIBRATE;
 1888              		.loc 1 720 0
 1889 0136 01AC     		add	r4, sp, #4
 1890 0138 0023     		mov	r3, #0
 1891 013a 2370     		strb	r3, [r4]
 721:.\main.c      ****                 m.data = user_input_buf;
 1892              		.loc 1 721 0
ARM GAS  C:\Users\mlgjmoor\AppData\Local\Temp\ccwL0k1p.s 			page 51


 1893 013c 184B     		ldr	r3, .L103+52
 1894 013e 6B44     		add	r3, r3, sp
 1895 0140 0293     		str	r3, [sp, #8]
 722:.\main.c      ****                 UART_UartPutString("DEBUG: Enqueing message\r\n");
 1896              		.loc 1 722 0
 1897 0142 1F48     		ldr	r0, .L103+84
 1898 0144 FFF7FEFF 		bl	UART_UartPutString
 1899              	.LVL295:
 723:.\main.c      ****                 enqueue(&ipc_fifo, m);
 1900              		.loc 1 723 0
 1901 0148 09A8     		add	r0, sp, #36
 1902 014a 0199     		ldr	r1, [sp, #4]
 1903 014c 6268     		ldr	r2, [r4, #4]
 1904 014e FFF7FEFF 		bl	enqueue
 1905              	.LVL296:
 1906              	.L100:
 1907              	.LBE8:
 724:.\main.c      ****             }
 725:.\main.c      ****             
 726:.\main.c      ****             input_ready = false;
 1908              		.loc 1 726 0
 1909 0152 0021     		mov	r1, #0
 1910 0154 7023     		mov	r3, #112
 1911 0156 074A     		ldr	r2, .L103+8
 1912 0158 D154     		strb	r1, [r2, r3]
 1913              	.L98:
 727:.\main.c      ****         }
 728:.\main.c      ****         
 729:.\main.c      ****         run_scheduler(&myScheduler, &ipc_fifo);
 1914              		.loc 1 729 0
 1915 015a 0848     		ldr	r0, .L103+16
 1916 015c 6844     		add	r0, r0, sp
 1917 015e 09A9     		add	r1, sp, #36
 1918 0160 FFF7FEFF 		bl	run_scheduler
 1919              	.LVL297:
 730:.\main.c      ****         CySysPmSleep();
 1920              		.loc 1 730 0
 1921 0164 FFF7FEFF 		bl	CySysPmSleep
 1922              	.LVL298:
 731:.\main.c      ****     }
 1923              		.loc 1 731 0
 1924 0168 9FE7     		b	.L102
 1925              	.L104:
 1926 016a C046     		.align	2
 1927              	.L103:
 1928 016c 58F7FFFF 		.word	-2216
 1929 0170 00000000 		.word	timer_isr
 1930 0174 00000000 		.word	.LANCHOR0
 1931 0178 00000000 		.word	calibrate_sensor
 1932 017c 2C080000 		.word	2092
 1933 0180 00000000 		.word	writeUART_routine
 1934 0184 00000000 		.word	readADC_routine
 1935 0188 3C080000 		.word	2108
 1936 018c 00000000 		.word	PIN_RESISTOR_Write
 1937 0190 00000000 		.word	PIN_SENSOR_1_Write
 1938 0194 00000000 		.word	PIN_SENSOR_2_Write
 1939 0198 00000000 		.word	PIN_SENSOR_3_Write
ARM GAS  C:\Users\mlgjmoor\AppData\Local\Temp\ccwL0k1p.s 			page 52


 1940 019c 00000000 		.word	PIN_SENSOR_4_Write
 1941 01a0 44080000 		.word	2116
 1942 01a4 D8010000 		.word	.LC54
 1943 01a8 E8010000 		.word	.LC56
 1944 01ac 94000000 		.word	.LC12
 1945 01b0 F4010000 		.word	.LC59
 1946 01b4 F8010000 		.word	.LC61
 1947 01b8 18020000 		.word	.LC63
 1948 01bc 1C020000 		.word	.LC65
 1949 01c0 38020000 		.word	.LC67
 1950              		.cfi_endproc
 1951              	.LFE53:
 1952              		.size	main, .-main
 1953              		.section	.text.StackEventHandler,"ax",%progbits
 1954              		.align	2
 1955              		.global	StackEventHandler
 1956              		.code	16
 1957              		.thumb_func
 1958              		.type	StackEventHandler, %function
 1959              	StackEventHandler:
 1960              	.LFB54:
 732:.\main.c      **** }
 733:.\main.c      **** 
 734:.\main.c      **** void StackEventHandler( uint32 eventCode, void *eventParam )
 735:.\main.c      **** {
 1961              		.loc 1 735 0
 1962              		.cfi_startproc
 1963              	.LVL299:
 736:.\main.c      ****     switch( eventCode )
 737:.\main.c      ****     {
 738:.\main.c      ****         /* Generic events */
 739:.\main.c      **** 
 740:.\main.c      ****         case CYBLE_EVT_HOST_INVALID:
 741:.\main.c      ****         break;
 742:.\main.c      **** 
 743:.\main.c      ****         case CYBLE_EVT_STACK_ON:
 744:.\main.c      ****             /* CyBle_GappStartAdvertisement( CYBLE_ADVERTISING_FAST ); */
 745:.\main.c      ****         break;
 746:.\main.c      **** 
 747:.\main.c      ****         case CYBLE_EVT_TIMEOUT:
 748:.\main.c      ****         break;
 749:.\main.c      **** 
 750:.\main.c      ****         case CYBLE_EVT_HARDWARE_ERROR:
 751:.\main.c      ****         break;
 752:.\main.c      **** 
 753:.\main.c      ****         case CYBLE_EVT_HCI_STATUS:
 754:.\main.c      ****         break;
 755:.\main.c      **** 
 756:.\main.c      ****         case CYBLE_EVT_STACK_BUSY_STATUS:
 757:.\main.c      ****         break;
 758:.\main.c      **** 
 759:.\main.c      ****         case CYBLE_EVT_PENDING_FLASH_WRITE:
 760:.\main.c      ****         break;
 761:.\main.c      **** 
 762:.\main.c      **** 
 763:.\main.c      ****         /* GAP events */
 764:.\main.c      **** 
ARM GAS  C:\Users\mlgjmoor\AppData\Local\Temp\ccwL0k1p.s 			page 53


 765:.\main.c      ****         case CYBLE_EVT_GAP_AUTH_REQ:
 766:.\main.c      ****         break;
 767:.\main.c      **** 
 768:.\main.c      ****         case CYBLE_EVT_GAP_PASSKEY_ENTRY_REQUEST:
 769:.\main.c      ****         break;
 770:.\main.c      **** 
 771:.\main.c      ****         case CYBLE_EVT_GAP_PASSKEY_DISPLAY_REQUEST:
 772:.\main.c      ****         break;
 773:.\main.c      **** 
 774:.\main.c      ****         case CYBLE_EVT_GAP_AUTH_COMPLETE:
 775:.\main.c      ****         break;
 776:.\main.c      **** 
 777:.\main.c      ****         case CYBLE_EVT_GAP_AUTH_FAILED:
 778:.\main.c      ****         break;
 779:.\main.c      **** 
 780:.\main.c      ****         case CYBLE_EVT_GAP_DEVICE_CONNECTED:
 781:.\main.c      ****         break;
 782:.\main.c      **** 
 783:.\main.c      ****         case CYBLE_EVT_GAP_DEVICE_DISCONNECTED:
 784:.\main.c      ****             /* CyBle_GappStartAdvertisement(CYBLE_ADVERTISING_FAST); */
 785:.\main.c      ****         break;
 786:.\main.c      **** 
 787:.\main.c      ****         case CYBLE_EVT_GAP_ENCRYPT_CHANGE:
 788:.\main.c      ****         break;
 789:.\main.c      **** 
 790:.\main.c      ****         case CYBLE_EVT_GAP_CONNECTION_UPDATE_COMPLETE:
 791:.\main.c      ****         break;
 792:.\main.c      **** 
 793:.\main.c      ****         case CYBLE_EVT_GAP_KEYINFO_EXCHNGE_CMPLT:
 794:.\main.c      ****         break;
 795:.\main.c      **** 
 796:.\main.c      **** 
 797:.\main.c      ****         /* GAP Peripheral events */
 798:.\main.c      **** 
 799:.\main.c      ****         case CYBLE_EVT_GAPP_ADVERTISEMENT_START_STOP:
 800:.\main.c      ****         break;
 801:.\main.c      **** 
 802:.\main.c      **** 
 803:.\main.c      ****         /* GAP Central events */
 804:.\main.c      **** 
 805:.\main.c      ****         case CYBLE_EVT_GAPC_SCAN_PROGRESS_RESULT:
 806:.\main.c      ****         break;
 807:.\main.c      **** 
 808:.\main.c      ****         case CYBLE_EVT_GAPC_SCAN_START_STOP:
 809:.\main.c      ****         break;
 810:.\main.c      **** 
 811:.\main.c      **** 
 812:.\main.c      ****         /* GATT events */
 813:.\main.c      **** 
 814:.\main.c      ****         case CYBLE_EVT_GATT_CONNECT_IND:
 815:.\main.c      ****         break;
 816:.\main.c      **** 
 817:.\main.c      ****         case CYBLE_EVT_GATT_DISCONNECT_IND:
 818:.\main.c      ****         break;
 819:.\main.c      **** 
 820:.\main.c      **** 
 821:.\main.c      ****         /* GATT Client events (CYBLE_EVENT_T) */
ARM GAS  C:\Users\mlgjmoor\AppData\Local\Temp\ccwL0k1p.s 			page 54


 822:.\main.c      **** 
 823:.\main.c      ****         case CYBLE_EVT_GATTC_ERROR_RSP:
 824:.\main.c      ****         break;
 825:.\main.c      **** 
 826:.\main.c      ****         case CYBLE_EVT_GATTC_XCHNG_MTU_RSP:
 827:.\main.c      ****         break;
 828:.\main.c      **** 
 829:.\main.c      ****         case CYBLE_EVT_GATTC_READ_BY_GROUP_TYPE_RSP:
 830:.\main.c      ****         break;
 831:.\main.c      **** 
 832:.\main.c      ****         case CYBLE_EVT_GATTC_READ_BY_TYPE_RSP:
 833:.\main.c      ****         break;
 834:.\main.c      **** 
 835:.\main.c      ****         case CYBLE_EVT_GATTC_FIND_INFO_RSP:
 836:.\main.c      ****         break;
 837:.\main.c      **** 
 838:.\main.c      ****         case CYBLE_EVT_GATTC_FIND_BY_TYPE_VALUE_RSP:
 839:.\main.c      ****         break;
 840:.\main.c      **** 
 841:.\main.c      ****         case CYBLE_EVT_GATTC_READ_RSP:
 842:.\main.c      ****         break;
 843:.\main.c      **** 
 844:.\main.c      ****         case CYBLE_EVT_GATTC_READ_BLOB_RSP:
 845:.\main.c      ****         break;
 846:.\main.c      **** 
 847:.\main.c      ****         case CYBLE_EVT_GATTC_READ_MULTI_RSP:
 848:.\main.c      ****         break;
 849:.\main.c      **** 
 850:.\main.c      ****         case CYBLE_EVT_GATTC_WRITE_RSP:
 851:.\main.c      ****         break;
 852:.\main.c      **** 
 853:.\main.c      ****         case CYBLE_EVT_GATTC_EXEC_WRITE_RSP:
 854:.\main.c      ****         break;
 855:.\main.c      **** 
 856:.\main.c      ****         case CYBLE_EVT_GATTC_HANDLE_VALUE_NTF:
 857:.\main.c      ****         break;
 858:.\main.c      **** 
 859:.\main.c      ****         case CYBLE_EVT_GATTC_HANDLE_VALUE_IND:
 860:.\main.c      ****         break;
 861:.\main.c      **** 
 862:.\main.c      **** 
 863:.\main.c      ****         /* GATT Client events (CYBLE_EVT_T) */
 864:.\main.c      **** 
 865:.\main.c      ****         case CYBLE_EVT_GATTC_INDICATION:
 866:.\main.c      ****         break;
 867:.\main.c      **** 
 868:.\main.c      ****         case CYBLE_EVT_GATTC_SRVC_DISCOVERY_FAILED:
 869:.\main.c      ****         break;
 870:.\main.c      **** 
 871:.\main.c      ****         case CYBLE_EVT_GATTC_INCL_DISCOVERY_FAILED:
 872:.\main.c      ****         break;
 873:.\main.c      **** 
 874:.\main.c      ****         case CYBLE_EVT_GATTC_CHAR_DISCOVERY_FAILED:
 875:.\main.c      ****         break;
 876:.\main.c      **** 
 877:.\main.c      ****         case CYBLE_EVT_GATTC_DESCR_DISCOVERY_FAILED:
 878:.\main.c      ****         break;
ARM GAS  C:\Users\mlgjmoor\AppData\Local\Temp\ccwL0k1p.s 			page 55


 879:.\main.c      **** 
 880:.\main.c      ****         case CYBLE_EVT_GATTC_SRVC_DUPLICATION:
 881:.\main.c      ****         break;
 882:.\main.c      **** 
 883:.\main.c      ****         case CYBLE_EVT_GATTC_CHAR_DUPLICATION:
 884:.\main.c      ****         break;
 885:.\main.c      **** 
 886:.\main.c      ****         case CYBLE_EVT_GATTC_DESCR_DUPLICATION:
 887:.\main.c      ****         break;
 888:.\main.c      **** 
 889:.\main.c      ****         case CYBLE_EVT_GATTC_SRVC_DISCOVERY_COMPLETE:
 890:.\main.c      ****         break;
 891:.\main.c      **** 
 892:.\main.c      ****         case CYBLE_EVT_GATTC_INCL_DISCOVERY_COMPLETE:
 893:.\main.c      ****         break;
 894:.\main.c      **** 
 895:.\main.c      ****         case CYBLE_EVT_GATTC_CHAR_DISCOVERY_COMPLETE:
 896:.\main.c      ****         break;
 897:.\main.c      **** 
 898:.\main.c      ****         case CYBLE_EVT_GATTC_DISCOVERY_COMPLETE:
 899:.\main.c      ****         break;
 900:.\main.c      **** 
 901:.\main.c      **** 
 902:.\main.c      ****         /* GATT Server events (CYBLE_EVENT_T) */
 903:.\main.c      **** 
 904:.\main.c      ****         case CYBLE_EVT_GATTS_XCNHG_MTU_REQ:
 905:.\main.c      ****         break;
 906:.\main.c      **** 
 907:.\main.c      ****         case CYBLE_EVT_GATTS_WRITE_REQ:
 908:.\main.c      ****         break;
 909:.\main.c      **** 
 910:.\main.c      ****         case CYBLE_EVT_GATTS_WRITE_CMD_REQ:
 911:.\main.c      ****         break;
 912:.\main.c      **** 
 913:.\main.c      ****         case CYBLE_EVT_GATTS_PREP_WRITE_REQ:
 914:.\main.c      ****         break;
 915:.\main.c      **** 
 916:.\main.c      ****         case CYBLE_EVT_GATTS_EXEC_WRITE_REQ:
 917:.\main.c      ****         break;
 918:.\main.c      **** 
 919:.\main.c      ****         case CYBLE_EVT_GATTS_HANDLE_VALUE_CNF:
 920:.\main.c      ****         break;
 921:.\main.c      **** 
 922:.\main.c      ****         case CYBLE_EVT_GATTS_DATA_SIGNED_CMD_REQ:
 923:.\main.c      ****         break;
 924:.\main.c      **** 
 925:.\main.c      **** 
 926:.\main.c      ****         /* GATT Server events (CYBLE_EVT_T) */
 927:.\main.c      **** 
 928:.\main.c      ****         case CYBLE_EVT_GATTS_INDICATION_ENABLED:
 929:.\main.c      ****         break;
 930:.\main.c      **** 
 931:.\main.c      ****         case CYBLE_EVT_GATTS_INDICATION_DISABLED:
 932:.\main.c      ****         break;
 933:.\main.c      **** 
 934:.\main.c      **** 
 935:.\main.c      ****         /* L2CAP events */
ARM GAS  C:\Users\mlgjmoor\AppData\Local\Temp\ccwL0k1p.s 			page 56


 936:.\main.c      **** 
 937:.\main.c      ****         case CYBLE_EVT_L2CAP_CONN_PARAM_UPDATE_REQ:
 938:.\main.c      ****         break;
 939:.\main.c      **** 
 940:.\main.c      ****         case CYBLE_EVT_L2CAP_CONN_PARAM_UPDATE_RSP:
 941:.\main.c      ****         break;
 942:.\main.c      **** 
 943:.\main.c      ****         case CYBLE_EVT_L2CAP_COMMAND_REJ:
 944:.\main.c      ****         break;
 945:.\main.c      **** 
 946:.\main.c      ****         case CYBLE_EVT_L2CAP_CBFC_CONN_IND:
 947:.\main.c      ****         break;
 948:.\main.c      **** 
 949:.\main.c      ****         case CYBLE_EVT_L2CAP_CBFC_CONN_CNF:
 950:.\main.c      ****         break;
 951:.\main.c      **** 
 952:.\main.c      ****         case CYBLE_EVT_L2CAP_CBFC_DISCONN_IND:
 953:.\main.c      ****         break;
 954:.\main.c      **** 
 955:.\main.c      ****         case CYBLE_EVT_L2CAP_CBFC_DISCONN_CNF:
 956:.\main.c      ****         break;
 957:.\main.c      **** 
 958:.\main.c      ****         case CYBLE_EVT_L2CAP_CBFC_DATA_READ:
 959:.\main.c      ****         break;
 960:.\main.c      **** 
 961:.\main.c      ****         case CYBLE_EVT_L2CAP_CBFC_RX_CREDIT_IND:
 962:.\main.c      ****         break;
 963:.\main.c      **** 
 964:.\main.c      ****         case CYBLE_EVT_L2CAP_CBFC_TX_CREDIT_IND:
 965:.\main.c      ****         break;
 966:.\main.c      **** 
 967:.\main.c      ****         case CYBLE_EVT_L2CAP_CBFC_DATA_WRITE_IND:
 968:.\main.c      ****         break;
 969:.\main.c      **** 
 970:.\main.c      **** 
 971:.\main.c      ****         /* default catch-all case */
 972:.\main.c      **** 
 973:.\main.c      ****         default:
 974:.\main.c      ****         break;
 975:.\main.c      ****     }
 976:.\main.c      **** }...
 1964              		.loc 1 976 0
 1965              		@ sp needed
 1966 0000 7047     		bx	lr
 1967              		.cfi_endproc
 1968              	.LFE54:
 1969              		.size	StackEventHandler, .-StackEventHandler
 1970 0002 C046     		.section	.rodata.str1.4,"aMS",%progbits,1
 1971              		.align	2
 1972              	.LC1:
 1973 0000 5741524E 		.ascii	"WARNING: Unrecognized char\015\012\000"
 1973      494E473A 
 1973      20556E72 
 1973      65636F67 
 1973      6E697A65 
 1974 001d 000000   		.space	3
 1975              	.LC3:
ARM GAS  C:\Users\mlgjmoor\AppData\Local\Temp\ccwL0k1p.s 			page 57


 1976 0020 44454255 		.ascii	"DEBUG: float conversion complete\015\012\000"
 1976      473A2066 
 1976      6C6F6174 
 1976      20636F6E 
 1976      76657273 
 1977 0043 00       		.space	1
 1978              	.LC6:
 1979 0044 44454255 		.ascii	"DEBUG: Message Received\015\012\000"
 1979      473A204D 
 1979      65737361 
 1979      67652052 
 1979      65636569 
 1980 005e 0000     		.space	2
 1981              	.LC8:
 1982 0060 44454255 		.ascii	"DEBUG: Dequeing Message\015\012\000"
 1982      473A2044 
 1982      65717565 
 1982      696E6720 
 1982      4D657373 
 1983 007a 0000     		.space	2
 1984              	.LC10:
 1985 007c 44454255 		.ascii	"DEBUG: Message Reads: \000"
 1985      473A204D 
 1985      65737361 
 1985      67652052 
 1985      65616473 
 1986 0093 00       		.space	1
 1987              	.LC12:
 1988 0094 0D0A00   		.ascii	"\015\012\000"
 1989 0097 00       		.space	1
 1990              	.LC14:
 1991 0098 494E464F 		.ascii	"INFO: Message Reads: \000"
 1991      3A204D65 
 1991      73736167 
 1991      65205265 
 1991      6164733A 
 1992 00ae 0000     		.space	2
 1993              	.LC16:
 1994 00b0 44454255 		.ascii	"DEBUG: Exiting calibration task\015\012\000"
 1994      473A2045 
 1994      78697469 
 1994      6E672063 
 1994      616C6962 
 1995 00d2 0000     		.space	2
 1996              	.LC20:
 1997 00d4 41444320 		.ascii	"ADC Value: \000"
 1997      56616C75 
 1997      653A2000 
 1998              	.LC22:
 1999 00e0 0943616C 		.ascii	"\011Calculated Force: \000"
 1999      63756C61 
 1999      74656420 
 1999      466F7263 
 1999      653A2000 
 2000              	.LC25:
 2001 00f4 0900     		.ascii	"\011\000"
 2002 00f6 0000     		.space	2
ARM GAS  C:\Users\mlgjmoor\AppData\Local\Temp\ccwL0k1p.s 			page 58


 2003              	.LC27:
 2004 00f8 0954656D 		.ascii	"\011Temperature: \000"
 2004      70657261 
 2004      74757265 
 2004      3A2000
 2005 0107 00       		.space	1
 2006              	.LC31:
 2007 0108 0D0A2A2A 		.ascii	"\015\012*******************************************"
 2007      2A2A2A2A 
 2007      2A2A2A2A 
 2007      2A2A2A2A 
 2007      2A2A2A2A 
 2008 0135 2A2A2A2A 		.ascii	"****************************************\015\012\000"
 2008      2A2A2A2A 
 2008      2A2A2A2A 
 2008      2A2A2A2A 
 2008      2A2A2A2A 
 2009              	.LC33:
 2010 0160 2D2D2D46 		.ascii	"---Force Sensor Test---\015\012\000"
 2010      6F726365 
 2010      2053656E 
 2010      736F7220 
 2010      54657374 
 2011 017a 0000     		.space	2
 2012              	.LC35:
 2013 017c 50726573 		.ascii	"Press 'c' to calibrate\015\012\000"
 2013      73202763 
 2013      2720746F 
 2013      2063616C 
 2013      69627261 
 2014 0195 000000   		.space	3
 2015              	.LC37:
 2016 0198 50726573 		.ascii	"Press 'r' to toggle continuous read\015\012\000"
 2016      73202772 
 2016      2720746F 
 2016      20746F67 
 2016      676C6520 
 2017 01be 0000     		.space	2
 2018              	.LC41:
 2019 01c0 44454255 		.ascii	"DEBUG: Input Accepted\015\012\000"
 2019      473A2049 
 2019      6E707574 
 2019      20416363 
 2019      65707465 
 2020              	.LC54:
 2021 01d8 496E7075 		.ascii	"Input Ready\015\012\000"
 2021      74205265 
 2021      6164790D 
 2021      0A00
 2022 01e6 0000     		.space	2
 2023              	.LC56:
 2024 01e8 496E7075 		.ascii	"Input is: \000"
 2024      74206973 
 2024      3A2000
 2025 01f3 00       		.space	1
 2026              	.LC59:
 2027 01f4 630D00   		.ascii	"c\015\000"
ARM GAS  C:\Users\mlgjmoor\AppData\Local\Temp\ccwL0k1p.s 			page 59


 2028 01f7 00       		.space	1
 2029              	.LC61:
 2030 01f8 41637469 		.ascii	"Activating Calibration task\015\012\000"
 2030      76617469 
 2030      6E672043 
 2030      616C6962 
 2030      72617469 
 2031 0216 0000     		.space	2
 2032              	.LC63:
 2033 0218 720D00   		.ascii	"r\015\000"
 2034 021b 00       		.space	1
 2035              	.LC65:
 2036 021c 546F6767 		.ascii	"Toggling Read ADC task\015\012\000"
 2036      6C696E67 
 2036      20526561 
 2036      64204144 
 2036      43207461 
 2037 0235 000000   		.space	3
 2038              	.LC67:
 2039 0238 44454255 		.ascii	"DEBUG: Enqueing message\015\012\000"
 2039      473A2045 
 2039      6E717565 
 2039      696E6720 
 2039      6D657373 
 2040 0252 0000     		.bss
 2041              		.align	2
 2042              		.set	.LANCHOR0,. + 0
 2043              		.type	count64.8582, %object
 2044              		.size	count64.8582, 4
 2045              	count64.8582:
 2046 0000 00000000 		.space	4
 2047              		.type	timer_flag, %object
 2048              		.size	timer_flag, 1
 2049              	timer_flag:
 2050 0004 00       		.space	1
 2051 0005 000000   		.space	3
 2052              		.type	filtered_adc, %object
 2053              		.size	filtered_adc, 8
 2054              	filtered_adc:
 2055 0008 00000000 		.space	8
 2055      00000000 
 2056              		.type	cal_point_ind.8576, %object
 2057              		.size	cal_point_ind.8576, 4
 2058              	cal_point_ind.8576:
 2059 0010 00000000 		.space	4
 2060              		.type	cal_table, %object
 2061              		.size	cal_table, 40
 2062              	cal_table:
 2063 0014 00000000 		.space	40
 2063      00000000 
 2063      00000000 
 2063      00000000 
 2063      00000000 
 2064              		.type	calibrated, %object
 2065              		.size	calibrated, 1
 2066              	calibrated:
 2067 003c 00       		.space	1
ARM GAS  C:\Users\mlgjmoor\AppData\Local\Temp\ccwL0k1p.s 			page 60


 2068 003d 000000   		.space	3
 2069              		.type	temperature, %object
 2070              		.size	temperature, 4
 2071              	temperature:
 2072 0040 00000000 		.space	4
 2073              		.type	pins, %object
 2074              		.size	pins, 40
 2075              	pins:
 2076 0044 00000000 		.space	40
 2076      00000000 
 2076      00000000 
 2076      00000000 
 2076      00000000 
 2077              		.type	index.8560, %object
 2078              		.size	index.8560, 4
 2079              	index.8560:
 2080 006c 00000000 		.space	4
 2081              		.type	input_ready, %object
 2082              		.size	input_ready, 1
 2083              	input_ready:
 2084 0070 00       		.space	1
 2085              		.type	temperature_convert, %object
 2086              		.size	temperature_convert, 1
 2087              	temperature_convert:
 2088 0071 00       		.space	1
 2089 0072 0000     		.text
 2090              	.Letext0:
 2091              		.file 2 "Generated_Source\\PSoC4/cytypes.h"
 2092              		.file 3 "Generated_Source\\PSoC4/BLE_Stack.h"
 2093              		.file 4 "Generated_Source\\PSoC4/BLE_ans.h"
 2094              		.file 5 "Generated_Source\\PSoC4/BLE_eventHandler.h"
 2095              		.file 6 "./queue.h"
 2096              		.file 7 "Generated_Source\\PSoC4/Timer.h"
 2097              		.file 8 "Generated_Source\\PSoC4/UART_SPI_UART.h"
 2098              		.file 9 "Generated_Source\\PSoC4/DieTemp.h"
 2099              		.file 10 "Generated_Source\\PSoC4/CyLib.h"
 2100              		.file 11 "Generated_Source\\PSoC4/ADC.h"
 2101              		.file 12 "Generated_Source\\PSoC4/Timer_Int.h"
 2102              		.file 13 "Generated_Source\\PSoC4/UART.h"
 2103              		.file 14 "Generated_Source\\PSoC4/PIN_RESISTOR.h"
 2104              		.file 15 "Generated_Source\\PSoC4/PIN_SENSOR_1.h"
 2105              		.file 16 "Generated_Source\\PSoC4/PIN_SENSOR_2.h"
 2106              		.file 17 "Generated_Source\\PSoC4/cyPm.h"